ARM GAS  C:\Users\ramanatg\AppData\Local\Temp\cc1lbrh6.s 			page 1


   1              		.cpu cortex-m0
   2              		.fpu softvfp
   3              		.eabi_attribute 20, 1
   4              		.eabi_attribute 21, 1
   5              		.eabi_attribute 23, 3
   6              		.eabi_attribute 24, 1
   7              		.eabi_attribute 25, 1
   8              		.eabi_attribute 26, 1
   9              		.eabi_attribute 30, 2
  10              		.eabi_attribute 34, 0
  11              		.eabi_attribute 18, 4
  12              		.code	16
  13              		.file	"BLE_HAL_PVT.c"
  14              		.text
  15              	.Ltext0:
  16              		.cfi_sections	.debug_frame
  17              		.section	.text.CyBLE_Nvram_Write,"ax",%progbits
  18              		.align	2
  19              		.global	CyBLE_Nvram_Write
  20              		.code	16
  21              		.thumb_func
  22              		.type	CyBLE_Nvram_Write, %function
  23              	CyBLE_Nvram_Write:
  24              	.LFB2:
  25              		.file 1 "Generated_Source\\PSoC4\\BLE_HAL_PVT.c"
   1:Generated_Source\PSoC4/BLE_HAL_PVT.c **** /***************************************************************************//**
   2:Generated_Source\PSoC4/BLE_HAL_PVT.c **** * \file CYBLE_HAL_PVT.c
   3:Generated_Source\PSoC4/BLE_HAL_PVT.c **** * \version 3.10
   4:Generated_Source\PSoC4/BLE_HAL_PVT.c **** *
   5:Generated_Source\PSoC4/BLE_HAL_PVT.c **** * \brief
   6:Generated_Source\PSoC4/BLE_HAL_PVT.c **** *  This file contains the source code for the HAL section of the BLE component
   7:Generated_Source\PSoC4/BLE_HAL_PVT.c **** *
   8:Generated_Source\PSoC4/BLE_HAL_PVT.c **** ********************************************************************************
   9:Generated_Source\PSoC4/BLE_HAL_PVT.c **** * \copyright
  10:Generated_Source\PSoC4/BLE_HAL_PVT.c **** * Copyright 2014-2016, Cypress Semiconductor Corporation.  All rights reserved.
  11:Generated_Source\PSoC4/BLE_HAL_PVT.c **** * You may use this file only in accordance with the license, terms, conditions,
  12:Generated_Source\PSoC4/BLE_HAL_PVT.c **** * disclaimers, and limitations in the end user license agreement accompanying
  13:Generated_Source\PSoC4/BLE_HAL_PVT.c **** * the software package with which this file was provided.
  14:Generated_Source\PSoC4/BLE_HAL_PVT.c **** *******************************************************************************/
  15:Generated_Source\PSoC4/BLE_HAL_PVT.c **** 
  16:Generated_Source\PSoC4/BLE_HAL_PVT.c **** #include "BLE_HAL_PVT.h"
  17:Generated_Source\PSoC4/BLE_HAL_PVT.c **** 
  18:Generated_Source\PSoC4/BLE_HAL_PVT.c **** 
  19:Generated_Source\PSoC4/BLE_HAL_PVT.c **** #if(CYBLE_MODE == CYBLE_HCI)
  20:Generated_Source\PSoC4/BLE_HAL_PVT.c **** 
  21:Generated_Source\PSoC4/BLE_HAL_PVT.c **** 
  22:Generated_Source\PSoC4/BLE_HAL_PVT.c **** /*******************************************************************************
  23:Generated_Source\PSoC4/BLE_HAL_PVT.c **** * Function Name: CyBLE_Uart_Start
  24:Generated_Source\PSoC4/BLE_HAL_PVT.c **** ****************************************************************************//**
  25:Generated_Source\PSoC4/BLE_HAL_PVT.c **** *
  26:Generated_Source\PSoC4/BLE_HAL_PVT.c **** *  Enables the platform UART Tx and RX interrupts and then enables the UART
  27:Generated_Source\PSoC4/BLE_HAL_PVT.c **** *  component.
  28:Generated_Source\PSoC4/BLE_HAL_PVT.c **** *
  29:Generated_Source\PSoC4/BLE_HAL_PVT.c **** * \return
  30:Generated_Source\PSoC4/BLE_HAL_PVT.c **** *  None
  31:Generated_Source\PSoC4/BLE_HAL_PVT.c **** *
  32:Generated_Source\PSoC4/BLE_HAL_PVT.c **** *******************************************************************************/
ARM GAS  C:\Users\ramanatg\AppData\Local\Temp\cc1lbrh6.s 			page 2


  33:Generated_Source\PSoC4/BLE_HAL_PVT.c **** void CyBLE_Uart_Start (void)
  34:Generated_Source\PSoC4/BLE_HAL_PVT.c **** {
  35:Generated_Source\PSoC4/BLE_HAL_PVT.c ****     /* Setup ISR */
  36:Generated_Source\PSoC4/BLE_HAL_PVT.c ****     BLE_uart_isr_StartEx(&CyBLE_Uart_Interrupt);
  37:Generated_Source\PSoC4/BLE_HAL_PVT.c **** 
  38:Generated_Source\PSoC4/BLE_HAL_PVT.c ****     BLE_HAL_Uart_Start();
  39:Generated_Source\PSoC4/BLE_HAL_PVT.c **** }
  40:Generated_Source\PSoC4/BLE_HAL_PVT.c **** 
  41:Generated_Source\PSoC4/BLE_HAL_PVT.c **** 
  42:Generated_Source\PSoC4/BLE_HAL_PVT.c **** /*******************************************************************************
  43:Generated_Source\PSoC4/BLE_HAL_PVT.c **** * Function Name: CyBLE_Uart_Stop
  44:Generated_Source\PSoC4/BLE_HAL_PVT.c **** ****************************************************************************//**
  45:Generated_Source\PSoC4/BLE_HAL_PVT.c **** *
  46:Generated_Source\PSoC4/BLE_HAL_PVT.c **** *  Disables the UART, clears all pending interrupts and disables the UART Tx
  47:Generated_Source\PSoC4/BLE_HAL_PVT.c **** *  and RX interrupts. This will also empty out the FIFOs.
  48:Generated_Source\PSoC4/BLE_HAL_PVT.c **** *
  49:Generated_Source\PSoC4/BLE_HAL_PVT.c **** * \return
  50:Generated_Source\PSoC4/BLE_HAL_PVT.c **** *  None
  51:Generated_Source\PSoC4/BLE_HAL_PVT.c **** *
  52:Generated_Source\PSoC4/BLE_HAL_PVT.c **** *******************************************************************************/
  53:Generated_Source\PSoC4/BLE_HAL_PVT.c **** void CyBLE_Uart_Stop (void)
  54:Generated_Source\PSoC4/BLE_HAL_PVT.c **** {
  55:Generated_Source\PSoC4/BLE_HAL_PVT.c ****     /* Stop interrupt and UART */
  56:Generated_Source\PSoC4/BLE_HAL_PVT.c ****     BLE_uart_isr_Stop();
  57:Generated_Source\PSoC4/BLE_HAL_PVT.c **** 
  58:Generated_Source\PSoC4/BLE_HAL_PVT.c ****     BLE_HAL_Uart_Stop();
  59:Generated_Source\PSoC4/BLE_HAL_PVT.c **** }
  60:Generated_Source\PSoC4/BLE_HAL_PVT.c **** 
  61:Generated_Source\PSoC4/BLE_HAL_PVT.c **** 
  62:Generated_Source\PSoC4/BLE_HAL_PVT.c **** /*******************************************************************************
  63:Generated_Source\PSoC4/BLE_HAL_PVT.c **** * Function Name: CyBLE_Uart_Transmit
  64:Generated_Source\PSoC4/BLE_HAL_PVT.c **** ****************************************************************************//**
  65:Generated_Source\PSoC4/BLE_HAL_PVT.c **** *
  66:Generated_Source\PSoC4/BLE_HAL_PVT.c **** *  Sends the data to Uart Tx FIFO. The API handles data length up to the 
  67:Generated_Source\PSoC4/BLE_HAL_PVT.c **** *  supported Tx FIFO length of the uart hardware module.
  68:Generated_Source\PSoC4/BLE_HAL_PVT.c **** *
  69:Generated_Source\PSoC4/BLE_HAL_PVT.c **** *  \param data: Pointer to the data to send through the UART
  70:Generated_Source\PSoC4/BLE_HAL_PVT.c **** *  \param length: the length of data to transmit in bytes
  71:Generated_Source\PSoC4/BLE_HAL_PVT.c **** *
  72:Generated_Source\PSoC4/BLE_HAL_PVT.c **** * \return
  73:Generated_Source\PSoC4/BLE_HAL_PVT.c **** *  None
  74:Generated_Source\PSoC4/BLE_HAL_PVT.c **** *
  75:Generated_Source\PSoC4/BLE_HAL_PVT.c **** *******************************************************************************/
  76:Generated_Source\PSoC4/BLE_HAL_PVT.c **** void CyBLE_Uart_Transmit (const uint8 *dataBuf, uint8 length)
  77:Generated_Source\PSoC4/BLE_HAL_PVT.c **** {
  78:Generated_Source\PSoC4/BLE_HAL_PVT.c ****     BLE_HAL_Uart_SpiUartPutArray(dataBuf, (uint32)length);
  79:Generated_Source\PSoC4/BLE_HAL_PVT.c **** }
  80:Generated_Source\PSoC4/BLE_HAL_PVT.c **** 
  81:Generated_Source\PSoC4/BLE_HAL_PVT.c **** #endif /* (CYBLE_MODE == CYBLE_HCI) */
  82:Generated_Source\PSoC4/BLE_HAL_PVT.c **** 
  83:Generated_Source\PSoC4/BLE_HAL_PVT.c **** 
  84:Generated_Source\PSoC4/BLE_HAL_PVT.c **** /*******************************************************************************
  85:Generated_Source\PSoC4/BLE_HAL_PVT.c **** * Function Name: CyBLE_Nvram_Write
  86:Generated_Source\PSoC4/BLE_HAL_PVT.c **** ****************************************************************************//**
  87:Generated_Source\PSoC4/BLE_HAL_PVT.c **** *
  88:Generated_Source\PSoC4/BLE_HAL_PVT.c **** *  This API writes the data to the NVRAM store. It will check the appropriate
  89:Generated_Source\PSoC4/BLE_HAL_PVT.c **** *  alignment of a start address and also perform an address range check based
ARM GAS  C:\Users\ramanatg\AppData\Local\Temp\cc1lbrh6.s 			page 3


  90:Generated_Source\PSoC4/BLE_HAL_PVT.c **** *  on the length before performing the write operation.
  91:Generated_Source\PSoC4/BLE_HAL_PVT.c **** *  This function performs memory compare and writes only row where there are new
  92:Generated_Source\PSoC4/BLE_HAL_PVT.c **** *  data to write.
  93:Generated_Source\PSoC4/BLE_HAL_PVT.c **** *
  94:Generated_Source\PSoC4/BLE_HAL_PVT.c **** *  \param buffer:   Pointer to the buffer containing the data to be stored.
  95:Generated_Source\PSoC4/BLE_HAL_PVT.c **** *  \param varFlash: Pointer to the array or variable in the flash.
  96:Generated_Source\PSoC4/BLE_HAL_PVT.c **** *  \param length:    The length of the data in bytes.
  97:Generated_Source\PSoC4/BLE_HAL_PVT.c **** *
  98:Generated_Source\PSoC4/BLE_HAL_PVT.c **** * \return
  99:Generated_Source\PSoC4/BLE_HAL_PVT.c **** *  CYRET_SUCCESS    a successful write
 100:Generated_Source\PSoC4/BLE_HAL_PVT.c **** *  CYRET_BAD_PARAM  A request to write outside the flash boundary.
 101:Generated_Source\PSoC4/BLE_HAL_PVT.c **** *  CYRET_UNKNOWN    Other errors in writing the flash
 102:Generated_Source\PSoC4/BLE_HAL_PVT.c **** *
 103:Generated_Source\PSoC4/BLE_HAL_PVT.c **** * \sideeffect
 104:Generated_Source\PSoC4/BLE_HAL_PVT.c **** *  For BLE devices with 128K of Flash memory this API will automatically 
 105:Generated_Source\PSoC4/BLE_HAL_PVT.c **** *  modify the clock settings for the device.
 106:Generated_Source\PSoC4/BLE_HAL_PVT.c **** *  Writing to flash requires changes to be done to the IMO (set to 48 MHz)
 107:Generated_Source\PSoC4/BLE_HAL_PVT.c **** *  and HFCLK (source set to IMO) settings. The configuration is restored before
 108:Generated_Source\PSoC4/BLE_HAL_PVT.c **** *  returning. This will impact the operation of most of the hardware in the
 109:Generated_Source\PSoC4/BLE_HAL_PVT.c **** *  device.
 110:Generated_Source\PSoC4/BLE_HAL_PVT.c **** *
 111:Generated_Source\PSoC4/BLE_HAL_PVT.c **** *******************************************************************************/
 112:Generated_Source\PSoC4/BLE_HAL_PVT.c **** cystatus CyBLE_Nvram_Write (const uint8 buffer[], const uint8 varFlash[], uint16 length)
 113:Generated_Source\PSoC4/BLE_HAL_PVT.c **** {
  26              		.loc 1 113 0
  27              		.cfi_startproc
  28              	.LVL0:
  29 0000 F0B5     		push	{r4, r5, r6, r7, lr}
  30              		.cfi_def_cfa_offset 20
  31              		.cfi_offset 4, -20
  32              		.cfi_offset 5, -16
  33              		.cfi_offset 6, -12
  34              		.cfi_offset 7, -8
  35              		.cfi_offset 14, -4
  36 0002 4D46     		mov	r5, r9
  37 0004 4446     		mov	r4, r8
  38 0006 5F46     		mov	r7, fp
  39 0008 5646     		mov	r6, r10
  40 000a F0B4     		push	{r4, r5, r6, r7}
  41              		.cfi_def_cfa_offset 36
  42              		.cfi_offset 8, -36
  43              		.cfi_offset 9, -32
  44              		.cfi_offset 10, -28
  45              		.cfi_offset 11, -24
 114:Generated_Source\PSoC4/BLE_HAL_PVT.c ****     uint8 writeBuffer[CY_FLASH_SIZEOF_ROW];
 115:Generated_Source\PSoC4/BLE_HAL_PVT.c ****     uint32 rowId;
 116:Generated_Source\PSoC4/BLE_HAL_PVT.c ****     uint32 dstIndex;
 117:Generated_Source\PSoC4/BLE_HAL_PVT.c ****     uint32 srcIndex = 0u;
 118:Generated_Source\PSoC4/BLE_HAL_PVT.c ****     cystatus rc = CYRET_SUCCESS;
 119:Generated_Source\PSoC4/BLE_HAL_PVT.c ****     uint32 eeOffset;
 120:Generated_Source\PSoC4/BLE_HAL_PVT.c ****     uint32 byteOffset;
 121:Generated_Source\PSoC4/BLE_HAL_PVT.c ****     uint32 rowsNotEqual;
 122:Generated_Source\PSoC4/BLE_HAL_PVT.c **** 
 123:Generated_Source\PSoC4/BLE_HAL_PVT.c ****     eeOffset = (uint32)varFlash;
 124:Generated_Source\PSoC4/BLE_HAL_PVT.c **** 
 125:Generated_Source\PSoC4/BLE_HAL_PVT.c ****     /* Make sure, that varFlash[] points to Flash */
 126:Generated_Source\PSoC4/BLE_HAL_PVT.c ****     if ((eeOffset + length) < CYBLE_HAL_FLASH_END_ADDR)
ARM GAS  C:\Users\ramanatg\AppData\Local\Temp\cc1lbrh6.s 			page 4


  46              		.loc 1 126 0
  47 000c 254B     		ldr	r3, .L20
  48 000e 8C18     		add	r4, r1, r2
 113:Generated_Source\PSoC4/BLE_HAL_PVT.c ****     uint8 writeBuffer[CY_FLASH_SIZEOF_ROW];
  49              		.loc 1 113 0
  50 0010 051C     		mov	r5, r0
  51 0012 A1B0     		sub	sp, sp, #132
  52              		.cfi_def_cfa_offset 168
 127:Generated_Source\PSoC4/BLE_HAL_PVT.c ****     {
 128:Generated_Source\PSoC4/BLE_HAL_PVT.c ****         rowId = eeOffset / CY_FLASH_SIZEOF_ROW;
 129:Generated_Source\PSoC4/BLE_HAL_PVT.c ****         byteOffset = CY_FLASH_SIZEOF_ROW * rowId;
 130:Generated_Source\PSoC4/BLE_HAL_PVT.c **** 
 131:Generated_Source\PSoC4/BLE_HAL_PVT.c ****         while ((srcIndex < length) && (CYRET_SUCCESS == rc))
 132:Generated_Source\PSoC4/BLE_HAL_PVT.c ****         {
 133:Generated_Source\PSoC4/BLE_HAL_PVT.c ****             rowsNotEqual = 0u;
 134:Generated_Source\PSoC4/BLE_HAL_PVT.c ****             /* Copy data to the write buffer either from the source buffer or from the flash */
 135:Generated_Source\PSoC4/BLE_HAL_PVT.c ****             for (dstIndex = 0u; dstIndex < CY_FLASH_SIZEOF_ROW; dstIndex++)
 136:Generated_Source\PSoC4/BLE_HAL_PVT.c ****             {
 137:Generated_Source\PSoC4/BLE_HAL_PVT.c ****                 if ((byteOffset >= eeOffset) && (srcIndex < length))
 138:Generated_Source\PSoC4/BLE_HAL_PVT.c ****                 {
 139:Generated_Source\PSoC4/BLE_HAL_PVT.c ****                     writeBuffer[dstIndex] = buffer[srcIndex];
 140:Generated_Source\PSoC4/BLE_HAL_PVT.c ****                     /* Detect that row programming is required */
 141:Generated_Source\PSoC4/BLE_HAL_PVT.c ****                     if(CY_GET_XTND_REG8(CYDEV_FLASH_BASE + byteOffset) != buffer[srcIndex])
 142:Generated_Source\PSoC4/BLE_HAL_PVT.c ****                     {
 143:Generated_Source\PSoC4/BLE_HAL_PVT.c ****                         rowsNotEqual = 1u;  
 144:Generated_Source\PSoC4/BLE_HAL_PVT.c ****                     }
 145:Generated_Source\PSoC4/BLE_HAL_PVT.c ****                     srcIndex++;
 146:Generated_Source\PSoC4/BLE_HAL_PVT.c ****                 }
 147:Generated_Source\PSoC4/BLE_HAL_PVT.c ****                 else
 148:Generated_Source\PSoC4/BLE_HAL_PVT.c ****                 {
 149:Generated_Source\PSoC4/BLE_HAL_PVT.c ****                     writeBuffer[dstIndex] = CY_GET_XTND_REG8(CYDEV_FLASH_BASE + byteOffset);
 150:Generated_Source\PSoC4/BLE_HAL_PVT.c ****                 }
 151:Generated_Source\PSoC4/BLE_HAL_PVT.c ****                 byteOffset++;
 152:Generated_Source\PSoC4/BLE_HAL_PVT.c ****             }
 153:Generated_Source\PSoC4/BLE_HAL_PVT.c **** 
 154:Generated_Source\PSoC4/BLE_HAL_PVT.c ****             if(rowsNotEqual != 0u)
 155:Generated_Source\PSoC4/BLE_HAL_PVT.c ****             {
 156:Generated_Source\PSoC4/BLE_HAL_PVT.c ****                 /* Write flash row */
 157:Generated_Source\PSoC4/BLE_HAL_PVT.c ****                 rc = CySysFlashWriteRow(rowId, writeBuffer);
 158:Generated_Source\PSoC4/BLE_HAL_PVT.c ****             }
 159:Generated_Source\PSoC4/BLE_HAL_PVT.c **** 
 160:Generated_Source\PSoC4/BLE_HAL_PVT.c ****             /* Go to the next row */
 161:Generated_Source\PSoC4/BLE_HAL_PVT.c ****             rowId++;
 162:Generated_Source\PSoC4/BLE_HAL_PVT.c ****         }
 163:Generated_Source\PSoC4/BLE_HAL_PVT.c ****     }
 164:Generated_Source\PSoC4/BLE_HAL_PVT.c ****     else
 165:Generated_Source\PSoC4/BLE_HAL_PVT.c ****     {
 166:Generated_Source\PSoC4/BLE_HAL_PVT.c ****         rc = CYRET_BAD_PARAM;
  53              		.loc 1 166 0
  54 0014 0120     		mov	r0, #1
  55              	.LVL1:
 126:Generated_Source\PSoC4/BLE_HAL_PVT.c ****     {
  56              		.loc 1 126 0
  57 0016 9C42     		cmp	r4, r3
  58 0018 3BD8     		bhi	.L15
 128:Generated_Source\PSoC4/BLE_HAL_PVT.c ****         byteOffset = CY_FLASH_SIZEOF_ROW * rowId;
  59              		.loc 1 128 0
ARM GAS  C:\Users\ramanatg\AppData\Local\Temp\cc1lbrh6.s 			page 5


  60 001a CC09     		lsr	r4, r1, #7
  61              	.LVL2:
 129:Generated_Source\PSoC4/BLE_HAL_PVT.c **** 
  62              		.loc 1 129 0
  63 001c E301     		lsl	r3, r4, #7
  64              	.LVL3:
 131:Generated_Source\PSoC4/BLE_HAL_PVT.c ****         {
  65              		.loc 1 131 0
  66 001e 002A     		cmp	r2, #0
  67 0020 3ED0     		beq	.L17
  68 0022 9046     		mov	r8, r2
  69 0024 621C     		add	r2, r4, #1
  70              	.LVL4:
  71 0026 9246     		mov	r10, r2
  72 0028 6A46     		mov	r2, sp
  73 002a 0F1C     		mov	r7, r1
  74 002c A946     		mov	r9, r5
  75 002e EB46     		mov	fp, sp
  76 0030 0024     		mov	r4, #0
  77              	.LVL5:
  78 0032 D61A     		sub	r6, r2, r3
  79              	.LVL6:
  80              	.L3:
  81 0034 0122     		mov	r2, #1
  82 0036 5242     		neg	r2, r2
  83 0038 5244     		add	r2, r2, r10
  84 003a 1D1C     		mov	r5, r3
  85 003c 9446     		mov	ip, r2
  86              	.LVL7:
 113:Generated_Source\PSoC4/BLE_HAL_PVT.c ****     uint8 writeBuffer[CY_FLASH_SIZEOF_ROW];
  87              		.loc 1 113 0 discriminator 1
  88 003e 0021     		mov	r1, #0
  89 0040 8035     		add	r5, r5, #128
  90              	.LVL8:
  91              	.L7:
 137:Generated_Source\PSoC4/BLE_HAL_PVT.c ****                 {
  92              		.loc 1 137 0
  93 0042 9F42     		cmp	r7, r3
  94 0044 16D8     		bhi	.L4
 137:Generated_Source\PSoC4/BLE_HAL_PVT.c ****                 {
  95              		.loc 1 137 0 is_stmt 0 discriminator 1
  96 0046 A045     		cmp	r8, r4
  97 0048 14D9     		bls	.L4
 139:Generated_Source\PSoC4/BLE_HAL_PVT.c ****                     /* Detect that row programming is required */
  98              		.loc 1 139 0 is_stmt 1
  99 004a 4A46     		mov	r2, r9
 141:Generated_Source\PSoC4/BLE_HAL_PVT.c ****                     {
 100              		.loc 1 141 0
 101 004c 1878     		ldrb	r0, [r3]
 139:Generated_Source\PSoC4/BLE_HAL_PVT.c ****                     /* Detect that row programming is required */
 102              		.loc 1 139 0
 103 004e 125D     		ldrb	r2, [r2, r4]
 104 0050 F254     		strb	r2, [r6, r3]
 141:Generated_Source\PSoC4/BLE_HAL_PVT.c ****                     {
 105              		.loc 1 141 0
 106 0052 8242     		cmp	r2, r0
 107 0054 00D0     		beq	.L5
ARM GAS  C:\Users\ramanatg\AppData\Local\Temp\cc1lbrh6.s 			page 6


 143:Generated_Source\PSoC4/BLE_HAL_PVT.c ****                     }
 108              		.loc 1 143 0
 109 0056 0121     		mov	r1, #1
 110              	.L5:
 111              	.LVL9:
 145:Generated_Source\PSoC4/BLE_HAL_PVT.c ****                 }
 112              		.loc 1 145 0
 113 0058 0134     		add	r4, r4, #1
 114              	.LVL10:
 115              	.L6:
 151:Generated_Source\PSoC4/BLE_HAL_PVT.c ****             }
 116              		.loc 1 151 0 discriminator 2
 117 005a 0133     		add	r3, r3, #1
 118              	.LVL11:
 135:Generated_Source\PSoC4/BLE_HAL_PVT.c ****             {
 119              		.loc 1 135 0 discriminator 2
 120 005c AB42     		cmp	r3, r5
 121 005e F0D1     		bne	.L7
 154:Generated_Source\PSoC4/BLE_HAL_PVT.c ****             {
 122              		.loc 1 154 0
 123 0060 0029     		cmp	r1, #0
 124 0062 0AD1     		bne	.L19
 125              	.LVL12:
 131:Generated_Source\PSoC4/BLE_HAL_PVT.c ****         {
 126              		.loc 1 131 0
 127 0064 4445     		cmp	r4, r8
 128 0066 1BD2     		bcs	.L17
 129              	.LVL13:
 130              	.L11:
 131 0068 0123     		mov	r3, #1
 132 006a 9C46     		mov	ip, r3
 133 006c 803E     		sub	r6, r6, #128
 134 006e E244     		add	r10, r10, ip
 135              	.LVL14:
 136 0070 2B1C     		mov	r3, r5
 137              	.LVL15:
 138 0072 DFE7     		b	.L3
 139              	.LVL16:
 140              	.L4:
 149:Generated_Source\PSoC4/BLE_HAL_PVT.c ****                 }
 141              		.loc 1 149 0
 142 0074 1A78     		ldrb	r2, [r3]
 143 0076 F254     		strb	r2, [r6, r3]
 144 0078 EFE7     		b	.L6
 145              	.L19:
 157:Generated_Source\PSoC4/BLE_HAL_PVT.c ****             }
 146              		.loc 1 157 0
 147 007a 6046     		mov	r0, ip
 148 007c 5946     		mov	r1, fp
 149 007e FFF7FEFF 		bl	CySysFlashWriteRow
 150              	.LVL17:
 131:Generated_Source\PSoC4/BLE_HAL_PVT.c ****         {
 151              		.loc 1 131 0
 152 0082 4445     		cmp	r4, r8
 153 0084 01D2     		bcs	.L9
 131:Generated_Source\PSoC4/BLE_HAL_PVT.c ****         {
 154              		.loc 1 131 0 is_stmt 0 discriminator 1
ARM GAS  C:\Users\ramanatg\AppData\Local\Temp\cc1lbrh6.s 			page 7


 155 0086 0028     		cmp	r0, #0
 156 0088 EED0     		beq	.L11
 157              	.L9:
 167:Generated_Source\PSoC4/BLE_HAL_PVT.c ****     }
 168:Generated_Source\PSoC4/BLE_HAL_PVT.c **** 
 169:Generated_Source\PSoC4/BLE_HAL_PVT.c ****     /* Mask return codes from flash, if they are not supported */
 170:Generated_Source\PSoC4/BLE_HAL_PVT.c ****     if ((CYRET_SUCCESS != rc) && (CYRET_BAD_PARAM != rc))
 158              		.loc 1 170 0 is_stmt 1
 159 008a 0128     		cmp	r0, #1
 160 008c 01D9     		bls	.L15
 171:Generated_Source\PSoC4/BLE_HAL_PVT.c ****     {
 172:Generated_Source\PSoC4/BLE_HAL_PVT.c ****         rc = CYRET_UNKNOWN;
 161              		.loc 1 172 0
 162 008e 0120     		mov	r0, #1
 163              	.LVL18:
 164 0090 4042     		neg	r0, r0
 165              	.LVL19:
 166              	.L15:
 173:Generated_Source\PSoC4/BLE_HAL_PVT.c ****     }
 174:Generated_Source\PSoC4/BLE_HAL_PVT.c ****     
 175:Generated_Source\PSoC4/BLE_HAL_PVT.c ****     return (rc);
 176:Generated_Source\PSoC4/BLE_HAL_PVT.c **** }
 167              		.loc 1 176 0
 168 0092 21B0     		add	sp, sp, #132
 169              		@ sp needed
 170 0094 3CBC     		pop	{r2, r3, r4, r5}
 171 0096 9046     		mov	r8, r2
 172 0098 9946     		mov	r9, r3
 173 009a A246     		mov	r10, r4
 174 009c AB46     		mov	fp, r5
 175 009e F0BD     		pop	{r4, r5, r6, r7, pc}
 176              	.LVL20:
 177              	.L17:
 131:Generated_Source\PSoC4/BLE_HAL_PVT.c ****         {
 178              		.loc 1 131 0
 179 00a0 0020     		mov	r0, #0
 180              	.LVL21:
 181 00a2 F6E7     		b	.L15
 182              	.L21:
 183              		.align	2
 184              	.L20:
 185 00a4 FFFF0100 		.word	131071
 186              		.cfi_endproc
 187              	.LFE2:
 188              		.size	CyBLE_Nvram_Write, .-CyBLE_Nvram_Write
 189              		.section	.text.CyBLE_Nvram_Erase,"ax",%progbits
 190              		.align	2
 191              		.global	CyBLE_Nvram_Erase
 192              		.code	16
 193              		.thumb_func
 194              		.type	CyBLE_Nvram_Erase, %function
 195              	CyBLE_Nvram_Erase:
 196              	.LFB3:
 177:Generated_Source\PSoC4/BLE_HAL_PVT.c **** 
 178:Generated_Source\PSoC4/BLE_HAL_PVT.c **** /*******************************************************************************
 179:Generated_Source\PSoC4/BLE_HAL_PVT.c **** * Function Name: CyBLE_Nvram_Erase
 180:Generated_Source\PSoC4/BLE_HAL_PVT.c **** ****************************************************************************//**
ARM GAS  C:\Users\ramanatg\AppData\Local\Temp\cc1lbrh6.s 			page 8


 181:Generated_Source\PSoC4/BLE_HAL_PVT.c **** *
 182:Generated_Source\PSoC4/BLE_HAL_PVT.c **** *  This API erases the data from the NVRAM store. This API will perform an 
 183:Generated_Source\PSoC4/BLE_HAL_PVT.c **** *  address range check based on the length before performing erase operation.
 184:Generated_Source\PSoC4/BLE_HAL_PVT.c **** *
 185:Generated_Source\PSoC4/BLE_HAL_PVT.c **** *  \param varFlash: the pointer to the array or variable in the flash.
 186:Generated_Source\PSoC4/BLE_HAL_PVT.c **** *  \param length:    the length of the data in bytes.
 187:Generated_Source\PSoC4/BLE_HAL_PVT.c **** *
 188:Generated_Source\PSoC4/BLE_HAL_PVT.c **** * \return
 189:Generated_Source\PSoC4/BLE_HAL_PVT.c **** *  CYRET_SUCCESS    a successful write
 190:Generated_Source\PSoC4/BLE_HAL_PVT.c **** *  CYRET_BAD_PARAM  A request to write outside the flash boundary.
 191:Generated_Source\PSoC4/BLE_HAL_PVT.c **** *  CYRET_UNKNOWN    Other errors in writing the flash
 192:Generated_Source\PSoC4/BLE_HAL_PVT.c **** *
 193:Generated_Source\PSoC4/BLE_HAL_PVT.c **** *******************************************************************************/
 194:Generated_Source\PSoC4/BLE_HAL_PVT.c **** cystatus CyBLE_Nvram_Erase (const uint8 *varFlash, uint16 length)
 195:Generated_Source\PSoC4/BLE_HAL_PVT.c **** {
 197              		.loc 1 195 0
 198              		.cfi_startproc
 199              	.LVL22:
 200 0000 F0B5     		push	{r4, r5, r6, r7, lr}
 201              		.cfi_def_cfa_offset 20
 202              		.cfi_offset 4, -20
 203              		.cfi_offset 5, -16
 204              		.cfi_offset 6, -12
 205              		.cfi_offset 7, -8
 206              		.cfi_offset 14, -4
 207 0002 5F46     		mov	r7, fp
 208 0004 5646     		mov	r6, r10
 209 0006 4D46     		mov	r5, r9
 210 0008 4446     		mov	r4, r8
 211 000a 8A46     		mov	r10, r1
 212 000c F0B4     		push	{r4, r5, r6, r7}
 213              		.cfi_def_cfa_offset 36
 214              		.cfi_offset 8, -36
 215              		.cfi_offset 9, -32
 216              		.cfi_offset 10, -28
 217              		.cfi_offset 11, -24
 218 000e C3B0     		sub	sp, sp, #268
 219              		.cfi_def_cfa_offset 304
 220              		.loc 1 195 0
 221 0010 071C     		mov	r7, r0
 196:Generated_Source\PSoC4/BLE_HAL_PVT.c ****     const uint8 *tempFlash;
 197:Generated_Source\PSoC4/BLE_HAL_PVT.c ****     uint8 flashBuffer[CY_FLASH_SIZEOF_ROW] = {0u};
 222              		.loc 1 197 0
 223 0012 0021     		mov	r1, #0
 224              	.LVL23:
 225 0014 02A8     		add	r0, sp, #8
 226              	.LVL24:
 227 0016 8022     		mov	r2, #128
 228 0018 FFF7FEFF 		bl	memset
 229              	.LVL25:
 198:Generated_Source\PSoC4/BLE_HAL_PVT.c ****     uint16 lengthFlash;
 199:Generated_Source\PSoC4/BLE_HAL_PVT.c ****     uint16 lengthRemaining;
 200:Generated_Source\PSoC4/BLE_HAL_PVT.c ****     cystatus rc = CYRET_UNKNOWN;
 201:Generated_Source\PSoC4/BLE_HAL_PVT.c **** 
 202:Generated_Source\PSoC4/BLE_HAL_PVT.c ****     tempFlash = varFlash;
 203:Generated_Source\PSoC4/BLE_HAL_PVT.c ****     lengthRemaining = length;
 204:Generated_Source\PSoC4/BLE_HAL_PVT.c **** 
ARM GAS  C:\Users\ramanatg\AppData\Local\Temp\cc1lbrh6.s 			page 9


 205:Generated_Source\PSoC4/BLE_HAL_PVT.c ****     while(lengthRemaining > 0u)
 230              		.loc 1 205 0
 231 001c 5346     		mov	r3, r10
 232 001e 002B     		cmp	r3, #0
 233 0020 47D0     		beq	.L34
 234 0022 22AB     		add	r3, sp, #136
 235 0024 9B46     		mov	fp, r3
 236              	.LVL26:
 237              	.L35:
 206:Generated_Source\PSoC4/BLE_HAL_PVT.c ****     {
 207:Generated_Source\PSoC4/BLE_HAL_PVT.c ****         if(lengthRemaining < CY_FLASH_SIZEOF_ROW)
 238              		.loc 1 207 0
 239 0026 5346     		mov	r3, r10
 240 0028 7F2B     		cmp	r3, #127
 241 002a 5BD8     		bhi	.L41
 242 002c D046     		mov	r8, r10
 243 002e 0193     		str	r3, [sp, #4]
 244              	.L24:
 245              	.LVL27:
 246              	.LBB4:
 247              	.LBB5:
 126:Generated_Source\PSoC4/BLE_HAL_PVT.c ****     {
 248              		.loc 1 126 0
 249 0030 4346     		mov	r3, r8
 250 0032 2E4A     		ldr	r2, .L47
 251 0034 DB19     		add	r3, r3, r7
 252 0036 9342     		cmp	r3, r2
 253 0038 52D8     		bhi	.L25
 128:Generated_Source\PSoC4/BLE_HAL_PVT.c ****         byteOffset = CY_FLASH_SIZEOF_ROW * rowId;
 254              		.loc 1 128 0
 255 003a FA09     		lsr	r2, r7, #7
 256              	.LVL28:
 129:Generated_Source\PSoC4/BLE_HAL_PVT.c **** 
 257              		.loc 1 129 0
 258 003c D301     		lsl	r3, r2, #7
 259              	.LVL29:
 260 003e 0132     		add	r2, r2, #1
 261              	.LVL30:
 262 0040 9146     		mov	r9, r2
 263 0042 5A46     		mov	r2, fp
 264              	.LVL31:
 117:Generated_Source\PSoC4/BLE_HAL_PVT.c ****     cystatus rc = CYRET_SUCCESS;
 265              		.loc 1 117 0
 266 0044 0024     		mov	r4, #0
 267 0046 D61A     		sub	r6, r2, r3
 268              	.LVL32:
 269              	.L26:
 270 0048 0122     		mov	r2, #1
 271              	.LBE5:
 272              	.LBE4:
 208:Generated_Source\PSoC4/BLE_HAL_PVT.c ****         {
 209:Generated_Source\PSoC4/BLE_HAL_PVT.c ****             lengthFlash = lengthRemaining;
 210:Generated_Source\PSoC4/BLE_HAL_PVT.c ****         }
 211:Generated_Source\PSoC4/BLE_HAL_PVT.c ****         else
 212:Generated_Source\PSoC4/BLE_HAL_PVT.c ****         {
 213:Generated_Source\PSoC4/BLE_HAL_PVT.c ****             lengthFlash = CY_FLASH_SIZEOF_ROW;
 273              		.loc 1 213 0
ARM GAS  C:\Users\ramanatg\AppData\Local\Temp\cc1lbrh6.s 			page 10


 274 004a 0021     		mov	r1, #0
 275 004c 5242     		neg	r2, r2
 276 004e 4A44     		add	r2, r2, r9
 277 0050 1D1C     		mov	r5, r3
 278 0052 4046     		mov	r0, r8
 279 0054 9446     		mov	ip, r2
 280              	.LVL33:
 281 0056 8846     		mov	r8, r1
 282 0058 8035     		add	r5, r5, #128
 283              	.LVL34:
 284              	.L30:
 285              	.LBB9:
 286              	.LBB6:
 137:Generated_Source\PSoC4/BLE_HAL_PVT.c ****                 {
 287              		.loc 1 137 0
 288 005a 9F42     		cmp	r7, r3
 289 005c 1CD8     		bhi	.L27
 290 005e A042     		cmp	r0, r4
 291 0060 1AD9     		bls	.L27
 139:Generated_Source\PSoC4/BLE_HAL_PVT.c ****                     /* Detect that row programming is required */
 292              		.loc 1 139 0
 293 0062 42AA     		add	r2, sp, #264
 294 0064 1219     		add	r2, r2, r4
 295 0066 013A     		sub	r2, r2, #1
 296 0068 FF3A     		sub	r2, r2, #255
 297 006a 1278     		ldrb	r2, [r2]
 141:Generated_Source\PSoC4/BLE_HAL_PVT.c ****                     {
 298              		.loc 1 141 0
 299 006c 1978     		ldrb	r1, [r3]
 139:Generated_Source\PSoC4/BLE_HAL_PVT.c ****                     /* Detect that row programming is required */
 300              		.loc 1 139 0
 301 006e F254     		strb	r2, [r6, r3]
 141:Generated_Source\PSoC4/BLE_HAL_PVT.c ****                     {
 302              		.loc 1 141 0
 303 0070 8A42     		cmp	r2, r1
 304 0072 01D0     		beq	.L28
 143:Generated_Source\PSoC4/BLE_HAL_PVT.c ****                     }
 305              		.loc 1 143 0
 306 0074 0122     		mov	r2, #1
 307 0076 9046     		mov	r8, r2
 308              	.L28:
 145:Generated_Source\PSoC4/BLE_HAL_PVT.c ****                 }
 309              		.loc 1 145 0
 310 0078 0134     		add	r4, r4, #1
 311              	.LVL35:
 312              	.L29:
 151:Generated_Source\PSoC4/BLE_HAL_PVT.c ****             }
 313              		.loc 1 151 0
 314 007a 0133     		add	r3, r3, #1
 315              	.LVL36:
 135:Generated_Source\PSoC4/BLE_HAL_PVT.c ****             {
 316              		.loc 1 135 0
 317 007c AB42     		cmp	r3, r5
 318 007e ECD1     		bne	.L30
 319 0080 4146     		mov	r1, r8
 320 0082 8046     		mov	r8, r0
 154:Generated_Source\PSoC4/BLE_HAL_PVT.c ****             {
ARM GAS  C:\Users\ramanatg\AppData\Local\Temp\cc1lbrh6.s 			page 11


 321              		.loc 1 154 0
 322 0084 0029     		cmp	r1, #0
 323 0086 0AD1     		bne	.L46
 324              	.LVL37:
 131:Generated_Source\PSoC4/BLE_HAL_PVT.c ****         {
 325              		.loc 1 131 0
 326 0088 A042     		cmp	r0, r4
 327 008a 1FD9     		bls	.L39
 328              	.LVL38:
 329              	.L36:
 330 008c 0123     		mov	r3, #1
 331 008e 9C46     		mov	ip, r3
 332 0090 803E     		sub	r6, r6, #128
 333 0092 E144     		add	r9, r9, ip
 334              	.LVL39:
 135:Generated_Source\PSoC4/BLE_HAL_PVT.c ****             {
 335              		.loc 1 135 0
 336 0094 2B1C     		mov	r3, r5
 337 0096 D7E7     		b	.L26
 338              	.LVL40:
 339              	.L27:
 149:Generated_Source\PSoC4/BLE_HAL_PVT.c ****                 }
 340              		.loc 1 149 0
 341 0098 1A78     		ldrb	r2, [r3]
 342 009a F254     		strb	r2, [r6, r3]
 343 009c EDE7     		b	.L29
 344              	.L46:
 157:Generated_Source\PSoC4/BLE_HAL_PVT.c ****             }
 345              		.loc 1 157 0
 346 009e 6046     		mov	r0, ip
 347 00a0 5946     		mov	r1, fp
 348 00a2 FFF7FEFF 		bl	CySysFlashWriteRow
 349              	.LVL41:
 131:Generated_Source\PSoC4/BLE_HAL_PVT.c ****         {
 350              		.loc 1 131 0
 351 00a6 A045     		cmp	r8, r4
 352 00a8 0CD9     		bls	.L32
 353 00aa 0028     		cmp	r0, #0
 354 00ac EED0     		beq	.L36
 170:Generated_Source\PSoC4/BLE_HAL_PVT.c ****     {
 355              		.loc 1 170 0
 356 00ae 0128     		cmp	r0, #1
 357 00b0 01D9     		bls	.L45
 358              	.LVL42:
 359              	.L34:
 172:Generated_Source\PSoC4/BLE_HAL_PVT.c ****     }
 360              		.loc 1 172 0
 361 00b2 0120     		mov	r0, #1
 362 00b4 4042     		neg	r0, r0
 363              	.LVL43:
 364              	.L45:
 365              	.LBE6:
 366              	.LBE9:
 214:Generated_Source\PSoC4/BLE_HAL_PVT.c ****         }
 215:Generated_Source\PSoC4/BLE_HAL_PVT.c ****         rc = CyBLE_Nvram_Write(flashBuffer, tempFlash, lengthFlash);
 216:Generated_Source\PSoC4/BLE_HAL_PVT.c ****         if(rc != CYRET_SUCCESS)
 217:Generated_Source\PSoC4/BLE_HAL_PVT.c ****         {
ARM GAS  C:\Users\ramanatg\AppData\Local\Temp\cc1lbrh6.s 			page 12


 218:Generated_Source\PSoC4/BLE_HAL_PVT.c ****             break;
 219:Generated_Source\PSoC4/BLE_HAL_PVT.c ****         }
 220:Generated_Source\PSoC4/BLE_HAL_PVT.c ****         tempFlash += CY_FLASH_SIZEOF_ROW;
 221:Generated_Source\PSoC4/BLE_HAL_PVT.c ****         lengthRemaining -= lengthFlash;
 222:Generated_Source\PSoC4/BLE_HAL_PVT.c ****     }
 223:Generated_Source\PSoC4/BLE_HAL_PVT.c **** 
 224:Generated_Source\PSoC4/BLE_HAL_PVT.c ****     return rc;
 225:Generated_Source\PSoC4/BLE_HAL_PVT.c **** }
 367              		.loc 1 225 0
 368 00b6 43B0     		add	sp, sp, #268
 369              		@ sp needed
 370              	.LVL44:
 371 00b8 3CBC     		pop	{r2, r3, r4, r5}
 372 00ba 9046     		mov	r8, r2
 373 00bc 9946     		mov	r9, r3
 374 00be A246     		mov	r10, r4
 375 00c0 AB46     		mov	fp, r5
 376 00c2 F0BD     		pop	{r4, r5, r6, r7, pc}
 377              	.LVL45:
 378              	.L32:
 379              	.LBB10:
 380              	.LBB7:
 170:Generated_Source\PSoC4/BLE_HAL_PVT.c ****     {
 381              		.loc 1 170 0
 382 00c4 0128     		cmp	r0, #1
 383 00c6 F4D8     		bhi	.L34
 384              	.LVL46:
 385              	.LBE7:
 386              	.LBE10:
 216:Generated_Source\PSoC4/BLE_HAL_PVT.c ****         {
 387              		.loc 1 216 0
 388 00c8 0028     		cmp	r0, #0
 389 00ca 09D1     		bne	.L25
 390              	.LVL47:
 391              	.L39:
 221:Generated_Source\PSoC4/BLE_HAL_PVT.c ****     }
 392              		.loc 1 221 0
 393 00cc 5346     		mov	r3, r10
 394 00ce 019A     		ldr	r2, [sp, #4]
 220:Generated_Source\PSoC4/BLE_HAL_PVT.c ****         lengthRemaining -= lengthFlash;
 395              		.loc 1 220 0
 396 00d0 8037     		add	r7, r7, #128
 397              	.LVL48:
 221:Generated_Source\PSoC4/BLE_HAL_PVT.c ****     }
 398              		.loc 1 221 0
 399 00d2 9B1A     		sub	r3, r3, r2
 400 00d4 9BB2     		uxth	r3, r3
 401 00d6 9A46     		mov	r10, r3
 402              	.LVL49:
 205:Generated_Source\PSoC4/BLE_HAL_PVT.c ****     {
 403              		.loc 1 205 0
 404 00d8 002B     		cmp	r3, #0
 405 00da A4D1     		bne	.L35
 406 00dc 0020     		mov	r0, #0
 407 00de EAE7     		b	.L45
 408              	.LVL50:
 409              	.L25:
ARM GAS  C:\Users\ramanatg\AppData\Local\Temp\cc1lbrh6.s 			page 13


 410              	.LBB11:
 411              	.LBB8:
 166:Generated_Source\PSoC4/BLE_HAL_PVT.c ****     }
 412              		.loc 1 166 0
 413 00e0 0120     		mov	r0, #1
 414              	.LVL51:
 415 00e2 E8E7     		b	.L45
 416              	.LVL52:
 417              	.L41:
 418              	.LBE8:
 419              	.LBE11:
 420 00e4 8023     		mov	r3, #128
 421 00e6 9846     		mov	r8, r3
 213:Generated_Source\PSoC4/BLE_HAL_PVT.c ****         }
 422              		.loc 1 213 0
 423 00e8 0193     		str	r3, [sp, #4]
 424 00ea A1E7     		b	.L24
 425              	.L48:
 426              		.align	2
 427              	.L47:
 428 00ec FFFF0100 		.word	131071
 429              		.cfi_endproc
 430              	.LFE3:
 431              		.size	CyBLE_Nvram_Erase, .-CyBLE_Nvram_Erase
 432              		.section	.text.CyBLE_Bless_LlRegRead,"ax",%progbits
 433              		.align	2
 434              		.global	CyBLE_Bless_LlRegRead
 435              		.code	16
 436              		.thumb_func
 437              		.type	CyBLE_Bless_LlRegRead, %function
 438              	CyBLE_Bless_LlRegRead:
 439              	.LFB4:
 226:Generated_Source\PSoC4/BLE_HAL_PVT.c **** 
 227:Generated_Source\PSoC4/BLE_HAL_PVT.c **** 
 228:Generated_Source\PSoC4/BLE_HAL_PVT.c **** /*******************************************************************************
 229:Generated_Source\PSoC4/BLE_HAL_PVT.c **** * Function Name: CyBLE_Bless_LlRegRead
 230:Generated_Source\PSoC4/BLE_HAL_PVT.c **** ****************************************************************************//**
 231:Generated_Source\PSoC4/BLE_HAL_PVT.c **** *
 232:Generated_Source\PSoC4/BLE_HAL_PVT.c **** *  This API reads the content of the BLESS Link Layer register from the stack.
 233:Generated_Source\PSoC4/BLE_HAL_PVT.c **** *
 234:Generated_Source\PSoC4/BLE_HAL_PVT.c **** *  \param blessAddr: the pointer to the BLESS link layer address.
 235:Generated_Source\PSoC4/BLE_HAL_PVT.c **** *  \param regValue: the pointer to the buffer space to copy the read value.
 236:Generated_Source\PSoC4/BLE_HAL_PVT.c **** *
 237:Generated_Source\PSoC4/BLE_HAL_PVT.c **** * \return
 238:Generated_Source\PSoC4/BLE_HAL_PVT.c **** *  None
 239:Generated_Source\PSoC4/BLE_HAL_PVT.c **** *
 240:Generated_Source\PSoC4/BLE_HAL_PVT.c **** *******************************************************************************/
 241:Generated_Source\PSoC4/BLE_HAL_PVT.c **** void CyBLE_Bless_LlRegRead (const reg32 *blessAddr, uint16 *regValue)
 242:Generated_Source\PSoC4/BLE_HAL_PVT.c **** {
 440              		.loc 1 242 0
 441              		.cfi_startproc
 442              	.LVL53:
 243:Generated_Source\PSoC4/BLE_HAL_PVT.c ****     *regValue = (uint16)CY_GET_REG32(blessAddr);
 443              		.loc 1 243 0
 444 0000 0368     		ldr	r3, [r0]
 244:Generated_Source\PSoC4/BLE_HAL_PVT.c **** }
 445              		.loc 1 244 0
ARM GAS  C:\Users\ramanatg\AppData\Local\Temp\cc1lbrh6.s 			page 14


 446              		@ sp needed
 243:Generated_Source\PSoC4/BLE_HAL_PVT.c ****     *regValue = (uint16)CY_GET_REG32(blessAddr);
 447              		.loc 1 243 0
 448 0002 0B80     		strh	r3, [r1]
 449              		.loc 1 244 0
 450 0004 7047     		bx	lr
 451              		.cfi_endproc
 452              	.LFE4:
 453              		.size	CyBLE_Bless_LlRegRead, .-CyBLE_Bless_LlRegRead
 454 0006 C046     		.section	.text.CyBLE_Bless_LlRegWrite,"ax",%progbits
 455              		.align	2
 456              		.global	CyBLE_Bless_LlRegWrite
 457              		.code	16
 458              		.thumb_func
 459              		.type	CyBLE_Bless_LlRegWrite, %function
 460              	CyBLE_Bless_LlRegWrite:
 461              	.LFB5:
 245:Generated_Source\PSoC4/BLE_HAL_PVT.c **** 
 246:Generated_Source\PSoC4/BLE_HAL_PVT.c **** 
 247:Generated_Source\PSoC4/BLE_HAL_PVT.c **** /*******************************************************************************
 248:Generated_Source\PSoC4/BLE_HAL_PVT.c **** * Function Name: CyBLE_Bless_LlRegWrite
 249:Generated_Source\PSoC4/BLE_HAL_PVT.c **** ****************************************************************************//**
 250:Generated_Source\PSoC4/BLE_HAL_PVT.c **** *
 251:Generated_Source\PSoC4/BLE_HAL_PVT.c **** *  This API writes to the BLESS Link Layer register from the stack.
 252:Generated_Source\PSoC4/BLE_HAL_PVT.c **** *
 253:Generated_Source\PSoC4/BLE_HAL_PVT.c **** *  \param blessAddr: the pointer to the BLESS link layer address.
 254:Generated_Source\PSoC4/BLE_HAL_PVT.c **** *  \param regValue: the pointer to the value to be written to the BLESS LL reg.
 255:Generated_Source\PSoC4/BLE_HAL_PVT.c **** *
 256:Generated_Source\PSoC4/BLE_HAL_PVT.c **** * \return
 257:Generated_Source\PSoC4/BLE_HAL_PVT.c **** *  None
 258:Generated_Source\PSoC4/BLE_HAL_PVT.c **** *
 259:Generated_Source\PSoC4/BLE_HAL_PVT.c **** *******************************************************************************/
 260:Generated_Source\PSoC4/BLE_HAL_PVT.c **** void CyBLE_Bless_LlRegWrite (reg32 *blessAddr, const uint16 regValue)
 261:Generated_Source\PSoC4/BLE_HAL_PVT.c **** {
 462              		.loc 1 261 0
 463              		.cfi_startproc
 464              	.LVL54:
 262:Generated_Source\PSoC4/BLE_HAL_PVT.c ****     CY_SET_REG32(blessAddr, regValue);
 465              		.loc 1 262 0
 466 0000 0160     		str	r1, [r0]
 263:Generated_Source\PSoC4/BLE_HAL_PVT.c **** }
 467              		.loc 1 263 0
 468              		@ sp needed
 469 0002 7047     		bx	lr
 470              		.cfi_endproc
 471              	.LFE5:
 472              		.size	CyBLE_Bless_LlRegWrite, .-CyBLE_Bless_LlRegWrite
 473              		.section	.text.CyBLE_Bless_RfRegRead,"ax",%progbits
 474              		.align	2
 475              		.global	CyBLE_Bless_RfRegRead
 476              		.code	16
 477              		.thumb_func
 478              		.type	CyBLE_Bless_RfRegRead, %function
 479              	CyBLE_Bless_RfRegRead:
 480              	.LFB6:
 264:Generated_Source\PSoC4/BLE_HAL_PVT.c **** 
 265:Generated_Source\PSoC4/BLE_HAL_PVT.c **** 
ARM GAS  C:\Users\ramanatg\AppData\Local\Temp\cc1lbrh6.s 			page 15


 266:Generated_Source\PSoC4/BLE_HAL_PVT.c **** /*******************************************************************************
 267:Generated_Source\PSoC4/BLE_HAL_PVT.c **** * Function Name: CyBLE_Bless_RfRegRead
 268:Generated_Source\PSoC4/BLE_HAL_PVT.c **** ****************************************************************************//**
 269:Generated_Source\PSoC4/BLE_HAL_PVT.c **** *
 270:Generated_Source\PSoC4/BLE_HAL_PVT.c **** *  This API reads the content of the BLESS RF register from the stack.
 271:Generated_Source\PSoC4/BLE_HAL_PVT.c **** *
 272:Generated_Source\PSoC4/BLE_HAL_PVT.c **** *  \param blessAddr: the pointer to BLESS RF register address.
 273:Generated_Source\PSoC4/BLE_HAL_PVT.c **** *  \param regValue: the pointer to the buffer space to copy the read value.
 274:Generated_Source\PSoC4/BLE_HAL_PVT.c **** *
 275:Generated_Source\PSoC4/BLE_HAL_PVT.c **** * \return
 276:Generated_Source\PSoC4/BLE_HAL_PVT.c **** *  None
 277:Generated_Source\PSoC4/BLE_HAL_PVT.c **** *
 278:Generated_Source\PSoC4/BLE_HAL_PVT.c **** *******************************************************************************/
 279:Generated_Source\PSoC4/BLE_HAL_PVT.c **** void CyBLE_Bless_RfRegRead (const reg32 *blessAddr, uint16 *regValue)
 280:Generated_Source\PSoC4/BLE_HAL_PVT.c **** {
 481              		.loc 1 280 0
 482              		.cfi_startproc
 483              	.LVL55:
 281:Generated_Source\PSoC4/BLE_HAL_PVT.c ****     *regValue = (uint16)CY_GET_REG32(blessAddr);
 484              		.loc 1 281 0
 485 0000 0368     		ldr	r3, [r0]
 282:Generated_Source\PSoC4/BLE_HAL_PVT.c **** }
 486              		.loc 1 282 0
 487              		@ sp needed
 281:Generated_Source\PSoC4/BLE_HAL_PVT.c ****     *regValue = (uint16)CY_GET_REG32(blessAddr);
 488              		.loc 1 281 0
 489 0002 0B80     		strh	r3, [r1]
 490              		.loc 1 282 0
 491 0004 7047     		bx	lr
 492              		.cfi_endproc
 493              	.LFE6:
 494              		.size	CyBLE_Bless_RfRegRead, .-CyBLE_Bless_RfRegRead
 495 0006 C046     		.section	.text.CyBLE_Bless_RfRegWrite,"ax",%progbits
 496              		.align	2
 497              		.global	CyBLE_Bless_RfRegWrite
 498              		.code	16
 499              		.thumb_func
 500              		.type	CyBLE_Bless_RfRegWrite, %function
 501              	CyBLE_Bless_RfRegWrite:
 502              	.LFB7:
 283:Generated_Source\PSoC4/BLE_HAL_PVT.c **** 
 284:Generated_Source\PSoC4/BLE_HAL_PVT.c **** 
 285:Generated_Source\PSoC4/BLE_HAL_PVT.c **** /*******************************************************************************
 286:Generated_Source\PSoC4/BLE_HAL_PVT.c **** * Function Name: CyBLE_Bless_RfRegWrite
 287:Generated_Source\PSoC4/BLE_HAL_PVT.c **** ****************************************************************************//**
 288:Generated_Source\PSoC4/BLE_HAL_PVT.c **** *
 289:Generated_Source\PSoC4/BLE_HAL_PVT.c **** *  This API writes to the BLESS RF register from the stack.
 290:Generated_Source\PSoC4/BLE_HAL_PVT.c **** *
 291:Generated_Source\PSoC4/BLE_HAL_PVT.c **** *  \param blessAddr: the pointer to the BLESS RF address.
 292:Generated_Source\PSoC4/BLE_HAL_PVT.c **** *  \param regValue: the pointer to the value to be written to the BLESS RF reg.
 293:Generated_Source\PSoC4/BLE_HAL_PVT.c **** *
 294:Generated_Source\PSoC4/BLE_HAL_PVT.c **** * \return
 295:Generated_Source\PSoC4/BLE_HAL_PVT.c **** *  None
 296:Generated_Source\PSoC4/BLE_HAL_PVT.c **** *
 297:Generated_Source\PSoC4/BLE_HAL_PVT.c **** *******************************************************************************/
 298:Generated_Source\PSoC4/BLE_HAL_PVT.c **** void CyBLE_Bless_RfRegWrite (reg32 *blessAddr, const uint16 regValue)
 299:Generated_Source\PSoC4/BLE_HAL_PVT.c **** {
ARM GAS  C:\Users\ramanatg\AppData\Local\Temp\cc1lbrh6.s 			page 16


 503              		.loc 1 299 0
 504              		.cfi_startproc
 505              	.LVL56:
 300:Generated_Source\PSoC4/BLE_HAL_PVT.c ****      CY_SET_REG32(blessAddr, regValue);
 506              		.loc 1 300 0
 507 0000 0160     		str	r1, [r0]
 301:Generated_Source\PSoC4/BLE_HAL_PVT.c **** }
 508              		.loc 1 301 0
 509              		@ sp needed
 510 0002 7047     		bx	lr
 511              		.cfi_endproc
 512              	.LFE7:
 513              		.size	CyBLE_Bless_RfRegWrite, .-CyBLE_Bless_RfRegWrite
 514              		.section	.text.CyBLE_BlessDeviceConfig,"ax",%progbits
 515              		.align	2
 516              		.global	CyBLE_BlessDeviceConfig
 517              		.code	16
 518              		.thumb_func
 519              		.type	CyBLE_BlessDeviceConfig, %function
 520              	CyBLE_BlessDeviceConfig:
 521              	.LFB8:
 302:Generated_Source\PSoC4/BLE_HAL_PVT.c **** 
 303:Generated_Source\PSoC4/BLE_HAL_PVT.c **** /*******************************************************************************
 304:Generated_Source\PSoC4/BLE_HAL_PVT.c **** * Function Name: CyBLE_BlessDeviceConfig
 305:Generated_Source\PSoC4/BLE_HAL_PVT.c **** ****************************************************************************//**
 306:Generated_Source\PSoC4/BLE_HAL_PVT.c **** *
 307:Generated_Source\PSoC4/BLE_HAL_PVT.c **** *  This function configures BLESS registers by trimmed values stored in SFLASH.
 308:Generated_Source\PSoC4/BLE_HAL_PVT.c **** *
 309:Generated_Source\PSoC4/BLE_HAL_PVT.c **** * \return
 310:Generated_Source\PSoC4/BLE_HAL_PVT.c **** *  None
 311:Generated_Source\PSoC4/BLE_HAL_PVT.c **** *
 312:Generated_Source\PSoC4/BLE_HAL_PVT.c **** *******************************************************************************/
 313:Generated_Source\PSoC4/BLE_HAL_PVT.c **** void CyBLE_BlessDeviceConfig(void)
 314:Generated_Source\PSoC4/BLE_HAL_PVT.c **** {
 522              		.loc 1 314 0
 523              		.cfi_startproc
 315:Generated_Source\PSoC4/BLE_HAL_PVT.c ****     uint32 trimRegValue;
 316:Generated_Source\PSoC4/BLE_HAL_PVT.c ****     uint32 ldo;
 317:Generated_Source\PSoC4/BLE_HAL_PVT.c ****     uint32 siliconRev;
 318:Generated_Source\PSoC4/BLE_HAL_PVT.c ****     uint16 trimRef34Val;
 319:Generated_Source\PSoC4/BLE_HAL_PVT.c ****     uint16 trimRef38Val;
 320:Generated_Source\PSoC4/BLE_HAL_PVT.c **** 
 321:Generated_Source\PSoC4/BLE_HAL_PVT.c ****     trimRegValue = ((uint32)CYBLE_SFLASH_BLESS_BB_BUMP2_HIGH_REG << 8u) | CYBLE_SFLASH_BLESS_BB_BUM
 524              		.loc 1 321 0
 525 0000 314B     		ldr	r3, .L64
 322:Generated_Source\PSoC4/BLE_HAL_PVT.c ****     ldo = ((uint32)CYBLE_SFLASH_BLESS_LDO_HIGH_REG << 8u) | CYBLE_SFLASH_BLESS_LDO_LOW_REG;
 526              		.loc 1 322 0
 527 0002 324A     		ldr	r2, .L64+4
 321:Generated_Source\PSoC4/BLE_HAL_PVT.c ****     ldo = ((uint32)CYBLE_SFLASH_BLESS_LDO_HIGH_REG << 8u) | CYBLE_SFLASH_BLESS_LDO_LOW_REG;
 528              		.loc 1 321 0
 529 0004 1978     		ldrb	r1, [r3]
 530 0006 324B     		ldr	r3, .L64+8
 531 0008 0902     		lsl	r1, r1, #8
 532 000a 1B78     		ldrb	r3, [r3]
 533 000c 1943     		orr	r1, r3
 534              	.LVL57:
 535              		.loc 1 322 0
ARM GAS  C:\Users\ramanatg\AppData\Local\Temp\cc1lbrh6.s 			page 17


 536 000e 314B     		ldr	r3, .L64+12
 537 0010 1B78     		ldrb	r3, [r3]
 538 0012 1278     		ldrb	r2, [r2]
 539 0014 1B02     		lsl	r3, r3, #8
 540 0016 1343     		orr	r3, r2
 541              	.LVL58:
 323:Generated_Source\PSoC4/BLE_HAL_PVT.c **** 
 324:Generated_Source\PSoC4/BLE_HAL_PVT.c ****     if ((ldo == CYBLE_SFLASH_BLERD_LDO_REG_VAL1) && (trimRegValue == CYBLE_SFLASH_BLERD_BB_BUMP2_RE
 542              		.loc 1 324 0
 543 0018 2F4A     		ldr	r2, .L64+16
 544 001a 9342     		cmp	r3, r2
 545 001c 4ED0     		beq	.L61
 325:Generated_Source\PSoC4/BLE_HAL_PVT.c ****     {
 326:Generated_Source\PSoC4/BLE_HAL_PVT.c ****         ldo = CYBLE_BLERD_LDO_REG_VAL_FINAL;
 327:Generated_Source\PSoC4/BLE_HAL_PVT.c ****         trimRegValue = CYBLE_BLERD_BB_BUMP2_REG_VAL_FINAL;
 328:Generated_Source\PSoC4/BLE_HAL_PVT.c ****     }
 329:Generated_Source\PSoC4/BLE_HAL_PVT.c ****     else if ((ldo == CYBLE_SFLASH_BLERD_LDO_REG_VAL2) && (trimRegValue == CYBLE_BLERD_BB_BUMP2_REG_
 546              		.loc 1 329 0
 547 001e D422     		mov	r2, #212
 548 0020 1201     		lsl	r2, r2, #4
 549 0022 9342     		cmp	r3, r2
 550 0024 46D0     		beq	.L62
 551              	.LVL59:
 552              	.L55:
 330:Generated_Source\PSoC4/BLE_HAL_PVT.c ****     {
 331:Generated_Source\PSoC4/BLE_HAL_PVT.c ****         ldo = CYBLE_BLERD_LDO_REG_VAL_FINAL;
 332:Generated_Source\PSoC4/BLE_HAL_PVT.c ****     }
 333:Generated_Source\PSoC4/BLE_HAL_PVT.c ****     else
 334:Generated_Source\PSoC4/BLE_HAL_PVT.c ****     {
 335:Generated_Source\PSoC4/BLE_HAL_PVT.c ****     }
 336:Generated_Source\PSoC4/BLE_HAL_PVT.c **** 
 337:Generated_Source\PSoC4/BLE_HAL_PVT.c ****     CYBLE_BLE_BLERD_LDO_REG = ldo;
 553              		.loc 1 337 0
 554 0026 2D4A     		ldr	r2, .L64+20
 555 0028 1360     		str	r3, [r2]
 338:Generated_Source\PSoC4/BLE_HAL_PVT.c ****     CYBLE_BLE_BLERD_BB_BUMP2_REG = trimRegValue;
 556              		.loc 1 338 0
 557 002a 2D4B     		ldr	r3, .L64+24
 558              	.LVL60:
 339:Generated_Source\PSoC4/BLE_HAL_PVT.c **** 
 340:Generated_Source\PSoC4/BLE_HAL_PVT.c ****     /* Edit only XTAL fast charge bit */
 341:Generated_Source\PSoC4/BLE_HAL_PVT.c ****     trimRegValue = ((uint32)CYBLE_SFLASH_BLESS_BB_XO_HIGH_REG << 8u) | CYBLE_SFLASH_BLESS_BB_XO_LOW
 559              		.loc 1 341 0
 560 002c 2D4A     		ldr	r2, .L64+28
 561              	.LVL61:
 338:Generated_Source\PSoC4/BLE_HAL_PVT.c ****     CYBLE_BLE_BLERD_BB_BUMP2_REG = trimRegValue;
 562              		.loc 1 338 0
 563 002e 1960     		str	r1, [r3]
 564              	.LVL62:
 565              		.loc 1 341 0
 566 0030 2D4B     		ldr	r3, .L64+32
 567 0032 1B78     		ldrb	r3, [r3]
 568 0034 1278     		ldrb	r2, [r2]
 569 0036 1B02     		lsl	r3, r3, #8
 570 0038 1343     		orr	r3, r2
 571              	.LVL63:
 342:Generated_Source\PSoC4/BLE_HAL_PVT.c **** 
ARM GAS  C:\Users\ramanatg\AppData\Local\Temp\cc1lbrh6.s 			page 18


 343:Generated_Source\PSoC4/BLE_HAL_PVT.c ****     if ((trimRegValue == CYBLE_SFLASH_BLERD_BB_XO_REG_VAL1) || (trimRegValue == CYBLE_SFLASH_BLERD_
 572              		.loc 1 343 0
 573 003a 2C4A     		ldr	r2, .L64+36
 574 003c 1342     		tst	r3, r2
 575 003e 00D1     		bne	.L56
 344:Generated_Source\PSoC4/BLE_HAL_PVT.c ****     {
 345:Generated_Source\PSoC4/BLE_HAL_PVT.c ****         trimRegValue = CYBLE_BLERD_BB_XO_REG_VAL_FINAL;
 576              		.loc 1 345 0
 577 0040 2B4B     		ldr	r3, .L64+40
 578              	.LVL64:
 579              	.L56:
 346:Generated_Source\PSoC4/BLE_HAL_PVT.c ****     }
 347:Generated_Source\PSoC4/BLE_HAL_PVT.c ****     
 348:Generated_Source\PSoC4/BLE_HAL_PVT.c ****     CYBLE_BLE_BLERD_BB_XO_REG = trimRegValue;
 580              		.loc 1 348 0
 581 0042 2C4A     		ldr	r2, .L64+44
 582 0044 1360     		str	r3, [r2]
 349:Generated_Source\PSoC4/BLE_HAL_PVT.c ****     
 350:Generated_Source\PSoC4/BLE_HAL_PVT.c ****     trimRegValue = ((uint32)CYBLE_SFLASH_BLESS_SY_BUMP1_HIGH_REG << 8u) | CYBLE_SFLASH_BLESS_SY_BUM
 583              		.loc 1 350 0
 584 0046 2C4B     		ldr	r3, .L64+48
 585              	.LVL65:
 586 0048 2C4A     		ldr	r2, .L64+52
 587              	.LVL66:
 588 004a 1B78     		ldrb	r3, [r3]
 589 004c 1278     		ldrb	r2, [r2]
 590 004e 1B02     		lsl	r3, r3, #8
 591 0050 1343     		orr	r3, r2
 592              	.LVL67:
 351:Generated_Source\PSoC4/BLE_HAL_PVT.c **** 
 352:Generated_Source\PSoC4/BLE_HAL_PVT.c ****     if ((trimRegValue == CYBLE_SFLASH_BLERD_SY_BUMP1_REG_VAL1) || 
 593              		.loc 1 352 0
 594 0052 2B4A     		ldr	r2, .L64+56
 595 0054 9342     		cmp	r3, r2
 596 0056 0DD0     		beq	.L60
 597              		.loc 1 352 0 is_stmt 0 discriminator 1
 598 0058 2A4A     		ldr	r2, .L64+60
 599 005a 9342     		cmp	r3, r2
 600 005c 0AD0     		beq	.L60
 353:Generated_Source\PSoC4/BLE_HAL_PVT.c ****         (trimRegValue == CYBLE_SFLASH_BLERD_SY_BUMP1_REG_VAL2) ||  
 601              		.loc 1 353 0 is_stmt 1
 602 005e 052B     		cmp	r3, #5
 603 0060 08D0     		beq	.L60
 354:Generated_Source\PSoC4/BLE_HAL_PVT.c ****         (trimRegValue == CYBLE_SFLASH_BLERD_SY_BUMP1_REG_VAL3))
 355:Generated_Source\PSoC4/BLE_HAL_PVT.c ****     {
 356:Generated_Source\PSoC4/BLE_HAL_PVT.c ****         trimRegValue = CYBLE_BLERD_SY_BUMP1_REG_VAL_FINAL;
 357:Generated_Source\PSoC4/BLE_HAL_PVT.c ****     }
 358:Generated_Source\PSoC4/BLE_HAL_PVT.c ****     CYBLE_BLE_BLERD_SY_BUMP1_REG = trimRegValue;
 604              		.loc 1 358 0
 605 0062 294A     		ldr	r2, .L64+64
 606 0064 1360     		str	r3, [r2]
 359:Generated_Source\PSoC4/BLE_HAL_PVT.c **** 
 360:Generated_Source\PSoC4/BLE_HAL_PVT.c ****     /* Following code is for F02FN trimming */
 361:Generated_Source\PSoC4/BLE_HAL_PVT.c ****     siliconRev = (CYBLE_BLE_SILICON_REV_REG >> 4u);
 607              		.loc 1 361 0
 608 0066 294B     		ldr	r3, .L64+68
 609              	.LVL68:
ARM GAS  C:\Users\ramanatg\AppData\Local\Temp\cc1lbrh6.s 			page 19


 610 0068 1A68     		ldr	r2, [r3]
 611              	.LVL69:
 362:Generated_Source\PSoC4/BLE_HAL_PVT.c ****     
 363:Generated_Source\PSoC4/BLE_HAL_PVT.c ****     if((CYBLE_BLE_FAMILY_ID_REG == CYBLE_PSOC4A_BLE256DMA_FID) && (siliconRev >= 0x02u) &&
 612              		.loc 1 363 0
 613 006a 294B     		ldr	r3, .L64+72
 614 006c 1B68     		ldr	r3, [r3]
 615 006e AA2B     		cmp	r3, #170
 616 0070 09D0     		beq	.L63
 617              	.LVL70:
 618              	.L53:
 364:Generated_Source\PSoC4/BLE_HAL_PVT.c ****         (CYBLE_SFLASH_BLESS_SY_BUMP1_HIGH_REG == 0x0Eu))
 365:Generated_Source\PSoC4/BLE_HAL_PVT.c **** 	{
 366:Generated_Source\PSoC4/BLE_HAL_PVT.c **** 		trimRef34Val = ((uint16)(((uint16) CYBLE_BLE_BLESS_REG34_TRIM_HIGH_REG) << 8u)) |
 367:Generated_Source\PSoC4/BLE_HAL_PVT.c ****                         ((uint16)CYBLE_BLE_BLESS_REG34_TRIM_LOW_REG);
 368:Generated_Source\PSoC4/BLE_HAL_PVT.c **** 		CYBLE_BLERD_SY_BUMP2_REG = trimRef34Val;
 369:Generated_Source\PSoC4/BLE_HAL_PVT.c **** 	
 370:Generated_Source\PSoC4/BLE_HAL_PVT.c **** 		trimRef38Val = ((uint16)(((uint16)CYBLE_BLE_BLESS_REG38_TRIM_HIGH_REG) << 8u)) |
 371:Generated_Source\PSoC4/BLE_HAL_PVT.c ****             ((uint16) CYBLE_BLE_BLESS_REG38_TRIM_LOW_REG);
 372:Generated_Source\PSoC4/BLE_HAL_PVT.c **** 		CYBLE_BLERD_RX_BUMP2_REG = trimRef38Val;
 373:Generated_Source\PSoC4/BLE_HAL_PVT.c **** 	}
 374:Generated_Source\PSoC4/BLE_HAL_PVT.c **** }
 619              		.loc 1 374 0
 620              		@ sp needed
 621 0072 7047     		bx	lr
 622              	.LVL71:
 623              	.L60:
 356:Generated_Source\PSoC4/BLE_HAL_PVT.c ****     }
 624              		.loc 1 356 0
 625 0074 274B     		ldr	r3, .L64+76
 626              	.LVL72:
 358:Generated_Source\PSoC4/BLE_HAL_PVT.c **** 
 627              		.loc 1 358 0
 628 0076 244A     		ldr	r2, .L64+64
 629 0078 1360     		str	r3, [r2]
 361:Generated_Source\PSoC4/BLE_HAL_PVT.c ****     
 630              		.loc 1 361 0
 631 007a 244B     		ldr	r3, .L64+68
 632              	.LVL73:
 633 007c 1A68     		ldr	r2, [r3]
 634              	.LVL74:
 363:Generated_Source\PSoC4/BLE_HAL_PVT.c ****         (CYBLE_SFLASH_BLESS_SY_BUMP1_HIGH_REG == 0x0Eu))
 635              		.loc 1 363 0
 636 007e 244B     		ldr	r3, .L64+72
 637 0080 1B68     		ldr	r3, [r3]
 638 0082 AA2B     		cmp	r3, #170
 639 0084 F5D1     		bne	.L53
 640              	.LVL75:
 641              	.L63:
 363:Generated_Source\PSoC4/BLE_HAL_PVT.c ****         (CYBLE_SFLASH_BLESS_SY_BUMP1_HIGH_REG == 0x0Eu))
 642              		.loc 1 363 0 is_stmt 0 discriminator 1
 643 0086 1F2A     		cmp	r2, #31
 644 0088 F3D9     		bls	.L53
 364:Generated_Source\PSoC4/BLE_HAL_PVT.c **** 	{
 645              		.loc 1 364 0 is_stmt 1 discriminator 2
 646 008a 1B4B     		ldr	r3, .L64+48
 647 008c 1B78     		ldrb	r3, [r3]
ARM GAS  C:\Users\ramanatg\AppData\Local\Temp\cc1lbrh6.s 			page 20


 363:Generated_Source\PSoC4/BLE_HAL_PVT.c ****         (CYBLE_SFLASH_BLESS_SY_BUMP1_HIGH_REG == 0x0Eu))
 648              		.loc 1 363 0 discriminator 2
 649 008e 0E2B     		cmp	r3, #14
 650 0090 EFD1     		bne	.L53
 366:Generated_Source\PSoC4/BLE_HAL_PVT.c ****                         ((uint16)CYBLE_BLE_BLESS_REG34_TRIM_LOW_REG);
 651              		.loc 1 366 0
 652 0092 214B     		ldr	r3, .L64+80
 367:Generated_Source\PSoC4/BLE_HAL_PVT.c **** 		CYBLE_BLERD_SY_BUMP2_REG = trimRef34Val;
 653              		.loc 1 367 0
 654 0094 214A     		ldr	r2, .L64+84
 366:Generated_Source\PSoC4/BLE_HAL_PVT.c ****                         ((uint16)CYBLE_BLE_BLESS_REG34_TRIM_LOW_REG);
 655              		.loc 1 366 0
 656 0096 1B78     		ldrb	r3, [r3]
 367:Generated_Source\PSoC4/BLE_HAL_PVT.c **** 		CYBLE_BLERD_SY_BUMP2_REG = trimRef34Val;
 657              		.loc 1 367 0
 658 0098 1278     		ldrb	r2, [r2]
 659              	.LVL76:
 366:Generated_Source\PSoC4/BLE_HAL_PVT.c ****                         ((uint16)CYBLE_BLE_BLESS_REG34_TRIM_LOW_REG);
 660              		.loc 1 366 0
 661 009a 1B02     		lsl	r3, r3, #8
 662              	.LVL77:
 368:Generated_Source\PSoC4/BLE_HAL_PVT.c **** 	
 663              		.loc 1 368 0
 664 009c 1343     		orr	r3, r2
 665 009e 204A     		ldr	r2, .L64+88
 666 00a0 1360     		str	r3, [r2]
 370:Generated_Source\PSoC4/BLE_HAL_PVT.c ****             ((uint16) CYBLE_BLE_BLESS_REG38_TRIM_LOW_REG);
 667              		.loc 1 370 0
 668 00a2 204B     		ldr	r3, .L64+92
 371:Generated_Source\PSoC4/BLE_HAL_PVT.c **** 		CYBLE_BLERD_RX_BUMP2_REG = trimRef38Val;
 669              		.loc 1 371 0
 670 00a4 204A     		ldr	r2, .L64+96
 370:Generated_Source\PSoC4/BLE_HAL_PVT.c ****             ((uint16) CYBLE_BLE_BLESS_REG38_TRIM_LOW_REG);
 671              		.loc 1 370 0
 672 00a6 1B78     		ldrb	r3, [r3]
 371:Generated_Source\PSoC4/BLE_HAL_PVT.c **** 		CYBLE_BLERD_RX_BUMP2_REG = trimRef38Val;
 673              		.loc 1 371 0
 674 00a8 1278     		ldrb	r2, [r2]
 675              	.LVL78:
 370:Generated_Source\PSoC4/BLE_HAL_PVT.c ****             ((uint16) CYBLE_BLE_BLESS_REG38_TRIM_LOW_REG);
 676              		.loc 1 370 0
 677 00aa 1B02     		lsl	r3, r3, #8
 678              	.LVL79:
 372:Generated_Source\PSoC4/BLE_HAL_PVT.c **** 	}
 679              		.loc 1 372 0
 680 00ac 1343     		orr	r3, r2
 681 00ae 1F4A     		ldr	r2, .L64+100
 682 00b0 1360     		str	r3, [r2]
 683 00b2 DEE7     		b	.L53
 684              	.LVL80:
 685              	.L62:
 329:Generated_Source\PSoC4/BLE_HAL_PVT.c ****     {
 686              		.loc 1 329 0 discriminator 1
 687 00b4 0429     		cmp	r1, #4
 688 00b6 B6D1     		bne	.L55
 331:Generated_Source\PSoC4/BLE_HAL_PVT.c ****     }
 689              		.loc 1 331 0
ARM GAS  C:\Users\ramanatg\AppData\Local\Temp\cc1lbrh6.s 			page 21


 690 00b8 1D4B     		ldr	r3, .L64+104
 691              	.LVL81:
 692 00ba B4E7     		b	.L55
 693              	.LVL82:
 694              	.L61:
 324:Generated_Source\PSoC4/BLE_HAL_PVT.c ****     {
 695              		.loc 1 324 0 discriminator 1
 696 00bc 0729     		cmp	r1, #7
 697 00be B2D1     		bne	.L55
 326:Generated_Source\PSoC4/BLE_HAL_PVT.c ****         trimRegValue = CYBLE_BLERD_BB_BUMP2_REG_VAL_FINAL;
 698              		.loc 1 326 0
 699 00c0 1B4B     		ldr	r3, .L64+104
 700              	.LVL83:
 327:Generated_Source\PSoC4/BLE_HAL_PVT.c ****     }
 701              		.loc 1 327 0
 702 00c2 0339     		sub	r1, r1, #3
 703              	.LVL84:
 704 00c4 AFE7     		b	.L55
 705              	.L65:
 706 00c6 C046     		.align	2
 707              	.L64:
 708 00c8 D9F0FF0F 		.word	268431577
 709 00cc DEF0FF0F 		.word	268431582
 710 00d0 D8F0FF0F 		.word	268431576
 711 00d4 DFF0FF0F 		.word	268431583
 712 00d8 580B0000 		.word	2904
 713 00dc 6C002E40 		.word	1076756588
 714 00e0 74002E40 		.word	1076756596
 715 00e4 DAF0FF0F 		.word	268431578
 716 00e8 DBF0FF0F 		.word	268431579
 717 00ec FFDFFFFF 		.word	-8193
 718 00f0 02200000 		.word	8194
 719 00f4 78002E40 		.word	1076756600
 720 00f8 DDF0FF0F 		.word	268431581
 721 00fc DCF0FF0F 		.word	268431580
 722 0100 0F0F0000 		.word	3855
 723 0104 05050000 		.word	1285
 724 0108 80002E40 		.word	1076756608
 725 010c EC0F00F0 		.word	-268431380
 726 0110 E00F00F0 		.word	-268431392
 727 0114 050F0000 		.word	3845
 728 0118 6DF2FF0F 		.word	268431981
 729 011c 6CF2FF0F 		.word	268431980
 730 0120 84002E40 		.word	1076756612
 731 0124 6FF2FF0F 		.word	268431983
 732 0128 6EF2FF0F 		.word	268431982
 733 012c 94002E40 		.word	1076756628
 734 0130 580D0000 		.word	3416
 735              		.cfi_endproc
 736              	.LFE8:
 737              		.size	CyBLE_BlessDeviceConfig, .-CyBLE_BlessDeviceConfig
 738              		.section	.text.CyBleHal_DelayUs,"ax",%progbits
 739              		.align	2
 740              		.global	CyBleHal_DelayUs
 741              		.code	16
 742              		.thumb_func
 743              		.type	CyBleHal_DelayUs, %function
ARM GAS  C:\Users\ramanatg\AppData\Local\Temp\cc1lbrh6.s 			page 22


 744              	CyBleHal_DelayUs:
 745              	.LFB9:
 375:Generated_Source\PSoC4/BLE_HAL_PVT.c **** 
 376:Generated_Source\PSoC4/BLE_HAL_PVT.c **** /* Interface to CyDelayUs function */
 377:Generated_Source\PSoC4/BLE_HAL_PVT.c **** void CyBleHal_DelayUs(uint16 delayVal)
 378:Generated_Source\PSoC4/BLE_HAL_PVT.c **** {
 746              		.loc 1 378 0
 747              		.cfi_startproc
 748              	.LVL85:
 749 0000 08B5     		push	{r3, lr}
 750              		.cfi_def_cfa_offset 8
 751              		.cfi_offset 3, -8
 752              		.cfi_offset 14, -4
 379:Generated_Source\PSoC4/BLE_HAL_PVT.c ****     CyDelayUs(delayVal);
 753              		.loc 1 379 0
 754 0002 FFF7FEFF 		bl	CyDelayUs
 755              	.LVL86:
 380:Generated_Source\PSoC4/BLE_HAL_PVT.c **** }
 756              		.loc 1 380 0
 757              		@ sp needed
 758 0006 08BD     		pop	{r3, pc}
 759              		.cfi_endproc
 760              	.LFE9:
 761              		.size	CyBleHal_DelayUs, .-CyBleHal_DelayUs
 762              		.section	.text.CyBleHal_DelayMs,"ax",%progbits
 763              		.align	2
 764              		.global	CyBleHal_DelayMs
 765              		.code	16
 766              		.thumb_func
 767              		.type	CyBleHal_DelayMs, %function
 768              	CyBleHal_DelayMs:
 769              	.LFB10:
 381:Generated_Source\PSoC4/BLE_HAL_PVT.c **** 
 382:Generated_Source\PSoC4/BLE_HAL_PVT.c **** /* Interface to CyDelay function */
 383:Generated_Source\PSoC4/BLE_HAL_PVT.c **** void CyBleHal_DelayMs(uint32 delayVal)
 384:Generated_Source\PSoC4/BLE_HAL_PVT.c **** {
 770              		.loc 1 384 0
 771              		.cfi_startproc
 772              	.LVL87:
 773 0000 08B5     		push	{r3, lr}
 774              		.cfi_def_cfa_offset 8
 775              		.cfi_offset 3, -8
 776              		.cfi_offset 14, -4
 385:Generated_Source\PSoC4/BLE_HAL_PVT.c ****     CyDelay(delayVal);
 777              		.loc 1 385 0
 778 0002 FFF7FEFF 		bl	CyDelay
 779              	.LVL88:
 386:Generated_Source\PSoC4/BLE_HAL_PVT.c **** }
 780              		.loc 1 386 0
 781              		@ sp needed
 782 0006 08BD     		pop	{r3, pc}
 783              		.cfi_endproc
 784              	.LFE10:
 785              		.size	CyBleHal_DelayMs, .-CyBleHal_DelayMs
 786              		.section	.text.CyBleHal_EnableGlobalInterrupts,"ax",%progbits
 787              		.align	2
 788              		.global	CyBleHal_EnableGlobalInterrupts
ARM GAS  C:\Users\ramanatg\AppData\Local\Temp\cc1lbrh6.s 			page 23


 789              		.code	16
 790              		.thumb_func
 791              		.type	CyBleHal_EnableGlobalInterrupts, %function
 792              	CyBleHal_EnableGlobalInterrupts:
 793              	.LFB11:
 387:Generated_Source\PSoC4/BLE_HAL_PVT.c **** 
 388:Generated_Source\PSoC4/BLE_HAL_PVT.c **** /* Interface to BLE_bless_isr_Enable function */
 389:Generated_Source\PSoC4/BLE_HAL_PVT.c **** void CyBleHal_EnableGlobalInterrupts(void)
 390:Generated_Source\PSoC4/BLE_HAL_PVT.c **** {
 794              		.loc 1 390 0
 795              		.cfi_startproc
 796 0000 08B5     		push	{r3, lr}
 797              		.cfi_def_cfa_offset 8
 798              		.cfi_offset 3, -8
 799              		.cfi_offset 14, -4
 391:Generated_Source\PSoC4/BLE_HAL_PVT.c ****     BLE_bless_isr_Enable();
 800              		.loc 1 391 0
 801 0002 FFF7FEFF 		bl	BLE_bless_isr_Enable
 802              	.LVL89:
 392:Generated_Source\PSoC4/BLE_HAL_PVT.c **** }
 803              		.loc 1 392 0
 804              		@ sp needed
 805 0006 08BD     		pop	{r3, pc}
 806              		.cfi_endproc
 807              	.LFE11:
 808              		.size	CyBleHal_EnableGlobalInterrupts, .-CyBleHal_EnableGlobalInterrupts
 809              		.section	.text.CyBleHal_DisableGlobalInterrupts,"ax",%progbits
 810              		.align	2
 811              		.global	CyBleHal_DisableGlobalInterrupts
 812              		.code	16
 813              		.thumb_func
 814              		.type	CyBleHal_DisableGlobalInterrupts, %function
 815              	CyBleHal_DisableGlobalInterrupts:
 816              	.LFB12:
 393:Generated_Source\PSoC4/BLE_HAL_PVT.c **** 
 394:Generated_Source\PSoC4/BLE_HAL_PVT.c **** /* Interface to BLE_bless_isr_Disable function */
 395:Generated_Source\PSoC4/BLE_HAL_PVT.c **** void CyBleHal_DisableGlobalInterrupts(void)
 396:Generated_Source\PSoC4/BLE_HAL_PVT.c **** {
 817              		.loc 1 396 0
 818              		.cfi_startproc
 819 0000 08B5     		push	{r3, lr}
 820              		.cfi_def_cfa_offset 8
 821              		.cfi_offset 3, -8
 822              		.cfi_offset 14, -4
 397:Generated_Source\PSoC4/BLE_HAL_PVT.c ****     BLE_bless_isr_Disable();
 823              		.loc 1 397 0
 824 0002 FFF7FEFF 		bl	BLE_bless_isr_Disable
 825              	.LVL90:
 398:Generated_Source\PSoC4/BLE_HAL_PVT.c **** }
 826              		.loc 1 398 0
 827              		@ sp needed
 828 0006 08BD     		pop	{r3, pc}
 829              		.cfi_endproc
 830              	.LFE12:
 831              		.size	CyBleHal_DisableGlobalInterrupts, .-CyBleHal_DisableGlobalInterrupts
 832              		.section	.text.CyBle_HalInit,"ax",%progbits
 833              		.align	2
ARM GAS  C:\Users\ramanatg\AppData\Local\Temp\cc1lbrh6.s 			page 24


 834              		.global	CyBle_HalInit
 835              		.code	16
 836              		.thumb_func
 837              		.type	CyBle_HalInit, %function
 838              	CyBle_HalInit:
 839              	.LFB13:
 399:Generated_Source\PSoC4/BLE_HAL_PVT.c **** 
 400:Generated_Source\PSoC4/BLE_HAL_PVT.c **** /*******************************************************************************
 401:Generated_Source\PSoC4/BLE_HAL_PVT.c **** * Function Name: CyBle_HalInit
 402:Generated_Source\PSoC4/BLE_HAL_PVT.c **** ****************************************************************************//**
 403:Generated_Source\PSoC4/BLE_HAL_PVT.c **** *
 404:Generated_Source\PSoC4/BLE_HAL_PVT.c **** *  Initializes the BLESS interrupt.
 405:Generated_Source\PSoC4/BLE_HAL_PVT.c **** *
 406:Generated_Source\PSoC4/BLE_HAL_PVT.c **** * \return
 407:Generated_Source\PSoC4/BLE_HAL_PVT.c **** *  None
 408:Generated_Source\PSoC4/BLE_HAL_PVT.c **** *
 409:Generated_Source\PSoC4/BLE_HAL_PVT.c **** *******************************************************************************/
 410:Generated_Source\PSoC4/BLE_HAL_PVT.c **** void CyBle_HalInit(void)
 411:Generated_Source\PSoC4/BLE_HAL_PVT.c **** {
 840              		.loc 1 411 0
 841              		.cfi_startproc
 842 0000 08B5     		push	{r3, lr}
 843              		.cfi_def_cfa_offset 8
 844              		.cfi_offset 3, -8
 845              		.cfi_offset 14, -4
 412:Generated_Source\PSoC4/BLE_HAL_PVT.c ****     /* For all we know the interrupt is active. */
 413:Generated_Source\PSoC4/BLE_HAL_PVT.c ****     BLE_bless_isr_Disable();
 846              		.loc 1 413 0
 847 0002 FFF7FEFF 		bl	BLE_bless_isr_Disable
 848              	.LVL91:
 414:Generated_Source\PSoC4/BLE_HAL_PVT.c **** 
 415:Generated_Source\PSoC4/BLE_HAL_PVT.c ****     /* Set the ISR to point to the BLE_bless_isr Interrupt. */
 416:Generated_Source\PSoC4/BLE_HAL_PVT.c ****     BLE_bless_isr_SetVector(&CyBLE_Bless_Interrupt);
 849              		.loc 1 416 0
 850 0006 0348     		ldr	r0, .L71
 851 0008 FFF7FEFF 		bl	BLE_bless_isr_SetVector
 852              	.LVL92:
 417:Generated_Source\PSoC4/BLE_HAL_PVT.c **** 
 418:Generated_Source\PSoC4/BLE_HAL_PVT.c ****     /* Set the priority. */
 419:Generated_Source\PSoC4/BLE_HAL_PVT.c ****     BLE_bless_isr_SetPriority((uint8)BLE_bless_isr_INTC_PRIOR_NUMBER);
 853              		.loc 1 419 0
 854 000c 0020     		mov	r0, #0
 855 000e FFF7FEFF 		bl	BLE_bless_isr_SetPriority
 856              	.LVL93:
 420:Generated_Source\PSoC4/BLE_HAL_PVT.c **** }
 857              		.loc 1 420 0
 858              		@ sp needed
 859 0012 08BD     		pop	{r3, pc}
 860              	.L72:
 861              		.align	2
 862              	.L71:
 863 0014 00000000 		.word	CyBLE_Bless_Interrupt
 864              		.cfi_endproc
 865              	.LFE13:
 866              		.size	CyBle_HalInit, .-CyBle_HalInit
 867              		.section	.text.CYBLE_BlessStart,"ax",%progbits
 868              		.align	2
ARM GAS  C:\Users\ramanatg\AppData\Local\Temp\cc1lbrh6.s 			page 25


 869              		.global	CYBLE_BlessStart
 870              		.code	16
 871              		.thumb_func
 872              		.type	CYBLE_BlessStart, %function
 873              	CYBLE_BlessStart:
 874              	.LFB14:
 421:Generated_Source\PSoC4/BLE_HAL_PVT.c **** 
 422:Generated_Source\PSoC4/BLE_HAL_PVT.c **** 
 423:Generated_Source\PSoC4/BLE_HAL_PVT.c **** /*******************************************************************************
 424:Generated_Source\PSoC4/BLE_HAL_PVT.c **** * Function Name: CYBLE_BlessStart
 425:Generated_Source\PSoC4/BLE_HAL_PVT.c **** ****************************************************************************//**
 426:Generated_Source\PSoC4/BLE_HAL_PVT.c **** *
 427:Generated_Source\PSoC4/BLE_HAL_PVT.c **** *  Start Interrupt Controller API.
 428:Generated_Source\PSoC4/BLE_HAL_PVT.c **** *
 429:Generated_Source\PSoC4/BLE_HAL_PVT.c **** * \return
 430:Generated_Source\PSoC4/BLE_HAL_PVT.c **** *  None
 431:Generated_Source\PSoC4/BLE_HAL_PVT.c **** *
 432:Generated_Source\PSoC4/BLE_HAL_PVT.c **** *******************************************************************************/
 433:Generated_Source\PSoC4/BLE_HAL_PVT.c **** void CYBLE_BlessStart(void)
 434:Generated_Source\PSoC4/BLE_HAL_PVT.c **** {
 875              		.loc 1 434 0
 876              		.cfi_startproc
 877 0000 08B5     		push	{r3, lr}
 878              		.cfi_def_cfa_offset 8
 879              		.cfi_offset 3, -8
 880              		.cfi_offset 14, -4
 435:Generated_Source\PSoC4/BLE_HAL_PVT.c ****     BLE_bless_isr_StartEx(&CyBLE_Bless_Interrupt);
 881              		.loc 1 435 0
 882 0002 0248     		ldr	r0, .L74
 883 0004 FFF7FEFF 		bl	BLE_bless_isr_StartEx
 884              	.LVL94:
 436:Generated_Source\PSoC4/BLE_HAL_PVT.c **** }
 885              		.loc 1 436 0
 886              		@ sp needed
 887 0008 08BD     		pop	{r3, pc}
 888              	.L75:
 889 000a C046     		.align	2
 890              	.L74:
 891 000c 00000000 		.word	CyBLE_Bless_Interrupt
 892              		.cfi_endproc
 893              	.LFE14:
 894              		.size	CYBLE_BlessStart, .-CYBLE_BlessStart
 895              		.section	.text.CyBLE_GetIpBlockVersion,"ax",%progbits
 896              		.align	2
 897              		.global	CyBLE_GetIpBlockVersion
 898              		.code	16
 899              		.thumb_func
 900              		.type	CyBLE_GetIpBlockVersion, %function
 901              	CyBLE_GetIpBlockVersion:
 902              	.LFB15:
 437:Generated_Source\PSoC4/BLE_HAL_PVT.c **** 
 438:Generated_Source\PSoC4/BLE_HAL_PVT.c **** 
 439:Generated_Source\PSoC4/BLE_HAL_PVT.c **** /*******************************************************************************
 440:Generated_Source\PSoC4/BLE_HAL_PVT.c **** * Function Name: CyBLE_GetIpBlockVersion
 441:Generated_Source\PSoC4/BLE_HAL_PVT.c **** ****************************************************************************//**
 442:Generated_Source\PSoC4/BLE_HAL_PVT.c **** *
 443:Generated_Source\PSoC4/BLE_HAL_PVT.c **** * This API returns the version of m0s8bless ip block.
ARM GAS  C:\Users\ramanatg\AppData\Local\Temp\cc1lbrh6.s 			page 26


 444:Generated_Source\PSoC4/BLE_HAL_PVT.c **** *
 445:Generated_Source\PSoC4/BLE_HAL_PVT.c **** * \return
 446:Generated_Source\PSoC4/BLE_HAL_PVT.c **** * uint32 bits:
 447:Generated_Source\PSoC4/BLE_HAL_PVT.c **** * 7:0 - ip version ( 1 - BLE_ver1, 2 - BLE_ver2, 3 - BLE_ver3 )
 448:Generated_Source\PSoC4/BLE_HAL_PVT.c **** * 15:8 - flash size ( 0 - 128k, 1 - 256k )
 449:Generated_Source\PSoC4/BLE_HAL_PVT.c **** * 16 - PSVP device
 450:Generated_Source\PSoC4/BLE_HAL_PVT.c **** * 31:17 - reserved for future usage
 451:Generated_Source\PSoC4/BLE_HAL_PVT.c **** *
 452:Generated_Source\PSoC4/BLE_HAL_PVT.c **** *******************************************************************************/
 453:Generated_Source\PSoC4/BLE_HAL_PVT.c **** uint32 CyBLE_GetIpBlockVersion(void)
 454:Generated_Source\PSoC4/BLE_HAL_PVT.c **** {
 903              		.loc 1 454 0
 904              		.cfi_startproc
 455:Generated_Source\PSoC4/BLE_HAL_PVT.c ****     return(((uint32)CYBLE_M0S8BLESS_VERSION) | ((uint32)((uint32)CYBLE_FLASH_SIZE) << 8u) |
 456:Generated_Source\PSoC4/BLE_HAL_PVT.c ****         ((uint32)(((uint32)CYBLE_PSVP_DEVICE)) << 16u));
 457:Generated_Source\PSoC4/BLE_HAL_PVT.c **** }
 905              		.loc 1 457 0
 906 0000 0220     		mov	r0, #2
 907              		@ sp needed
 908 0002 FF30     		add	r0, r0, #255
 909 0004 7047     		bx	lr
 910              		.cfi_endproc
 911              	.LFE15:
 912              		.size	CyBLE_GetIpBlockVersion, .-CyBLE_GetIpBlockVersion
 913 0006 C046     		.section	.text.CyBle_Hal_pairing_local_public_key_handler,"ax",%progbits
 914              		.align	2
 915              		.global	CyBle_Hal_pairing_local_public_key_handler
 916              		.code	16
 917              		.thumb_func
 918              		.type	CyBle_Hal_pairing_local_public_key_handler, %function
 919              	CyBle_Hal_pairing_local_public_key_handler:
 920              	.LFB16:
 458:Generated_Source\PSoC4/BLE_HAL_PVT.c **** 
 459:Generated_Source\PSoC4/BLE_HAL_PVT.c **** /* Mapping functions for stack size optimization */
 460:Generated_Source\PSoC4/BLE_HAL_PVT.c **** #if(CYBLE_MODE_PROFILE)
 461:Generated_Source\PSoC4/BLE_HAL_PVT.c ****     
 462:Generated_Source\PSoC4/BLE_HAL_PVT.c **** #if(CYBLE_SECURE_CONN_FEATURE_ENABLED)
 463:Generated_Source\PSoC4/BLE_HAL_PVT.c ****     
 464:Generated_Source\PSoC4/BLE_HAL_PVT.c ****     CYBLE_API_RESULT_T CyBle_Hal_pairing_local_public_key_handler(void *param)
 465:Generated_Source\PSoC4/BLE_HAL_PVT.c ****     {
 466:Generated_Source\PSoC4/BLE_HAL_PVT.c ****         return (CyBle_Hal_mapping_pairing_local_public_key_handler(param));
 467:Generated_Source\PSoC4/BLE_HAL_PVT.c ****     }
 468:Generated_Source\PSoC4/BLE_HAL_PVT.c ****      
 469:Generated_Source\PSoC4/BLE_HAL_PVT.c ****     CYBLE_API_RESULT_T CyBle_Hal_pairing_remote_key_handler(void *param)
 470:Generated_Source\PSoC4/BLE_HAL_PVT.c ****     {
 471:Generated_Source\PSoC4/BLE_HAL_PVT.c ****         return (CyBle_Hal_mapping_pairing_remote_key_handler(param));
 472:Generated_Source\PSoC4/BLE_HAL_PVT.c ****     }
 473:Generated_Source\PSoC4/BLE_HAL_PVT.c ****      
 474:Generated_Source\PSoC4/BLE_HAL_PVT.c ****     CYBLE_API_RESULT_T CyBle_Hal_pairing_dhkey_handler(void *param)
 475:Generated_Source\PSoC4/BLE_HAL_PVT.c ****     {
 476:Generated_Source\PSoC4/BLE_HAL_PVT.c ****         return (CyBle_Hal_mapping_pairing_dhkey_handler(param));
 477:Generated_Source\PSoC4/BLE_HAL_PVT.c ****     }
 478:Generated_Source\PSoC4/BLE_HAL_PVT.c **** 
 479:Generated_Source\PSoC4/BLE_HAL_PVT.c ****     CYBLE_API_RESULT_T CyBle_Hal_pairing_dhkey_check_handler(void *param)
 480:Generated_Source\PSoC4/BLE_HAL_PVT.c ****     {
 481:Generated_Source\PSoC4/BLE_HAL_PVT.c ****         return (CyBle_Hal_mapping_pairing_dhkey_check_handler(param));
 482:Generated_Source\PSoC4/BLE_HAL_PVT.c ****     }
ARM GAS  C:\Users\ramanatg\AppData\Local\Temp\cc1lbrh6.s 			page 27


 483:Generated_Source\PSoC4/BLE_HAL_PVT.c **** 
 484:Generated_Source\PSoC4/BLE_HAL_PVT.c ****     CYBLE_API_RESULT_T CyBle_Hal_pairing_keypress_notification_handler(void *param)
 485:Generated_Source\PSoC4/BLE_HAL_PVT.c ****     {
 486:Generated_Source\PSoC4/BLE_HAL_PVT.c ****         return (CyBle_Hal_mapping_pairing_keypress_notification_handler(param));
 487:Generated_Source\PSoC4/BLE_HAL_PVT.c ****     }
 488:Generated_Source\PSoC4/BLE_HAL_PVT.c **** 
 489:Generated_Source\PSoC4/BLE_HAL_PVT.c ****     CYBLE_API_RESULT_T CyBle_Hal_pairing_rand_handler(void *param)
 490:Generated_Source\PSoC4/BLE_HAL_PVT.c ****     {
 491:Generated_Source\PSoC4/BLE_HAL_PVT.c ****         return (CyBle_Hal_mapping_pairing_rand_handler(param));
 492:Generated_Source\PSoC4/BLE_HAL_PVT.c ****     }
 493:Generated_Source\PSoC4/BLE_HAL_PVT.c **** 
 494:Generated_Source\PSoC4/BLE_HAL_PVT.c ****     CYBLE_API_RESULT_T CyBle_Hal_pairing_confirm_handler(void *param)
 495:Generated_Source\PSoC4/BLE_HAL_PVT.c ****     {
 496:Generated_Source\PSoC4/BLE_HAL_PVT.c ****         return (CyBle_Hal_mapping_pairing_confirm_handler(param));
 497:Generated_Source\PSoC4/BLE_HAL_PVT.c ****     }
 498:Generated_Source\PSoC4/BLE_HAL_PVT.c **** 
 499:Generated_Source\PSoC4/BLE_HAL_PVT.c ****     CYBLE_API_RESULT_T CyBle_Hal_pairing_lr_confirming_handler(void *param)
 500:Generated_Source\PSoC4/BLE_HAL_PVT.c ****     {
 501:Generated_Source\PSoC4/BLE_HAL_PVT.c ****         return (CyBle_Hal_mapping_pairing_lr_confirming_handler(param));
 502:Generated_Source\PSoC4/BLE_HAL_PVT.c ****     }
 503:Generated_Source\PSoC4/BLE_HAL_PVT.c ****     
 504:Generated_Source\PSoC4/BLE_HAL_PVT.c ****     CYBLE_API_RESULT_T CyBle_Hal_pairing_sc_tbx_dhkey_generate_complete(void* param)
 505:Generated_Source\PSoC4/BLE_HAL_PVT.c ****     {
 506:Generated_Source\PSoC4/BLE_HAL_PVT.c ****         CyBle_Hal_mapping_tbx_dhkey_generate_complete(param);
 507:Generated_Source\PSoC4/BLE_HAL_PVT.c ****         return (CYBLE_ERROR_OK);
 508:Generated_Source\PSoC4/BLE_HAL_PVT.c ****     }
 509:Generated_Source\PSoC4/BLE_HAL_PVT.c **** 
 510:Generated_Source\PSoC4/BLE_HAL_PVT.c ****     CYBLE_API_RESULT_T CyBle_Hal_pairing_sc_tbx_local_pubkey_generate_complete(void)
 511:Generated_Source\PSoC4/BLE_HAL_PVT.c ****     {
 512:Generated_Source\PSoC4/BLE_HAL_PVT.c ****         CyBle_Hal_mapping_tbx_local_pubkey_generate_complete();
 513:Generated_Source\PSoC4/BLE_HAL_PVT.c ****         return (CYBLE_ERROR_OK);
 514:Generated_Source\PSoC4/BLE_HAL_PVT.c ****     }
 515:Generated_Source\PSoC4/BLE_HAL_PVT.c **** 
 516:Generated_Source\PSoC4/BLE_HAL_PVT.c ****     CYBLE_API_RESULT_T CyBle_Hal_pairing_sc_tbx_generate_local_P256_public_key(uint8 param)
 517:Generated_Source\PSoC4/BLE_HAL_PVT.c ****     {
 518:Generated_Source\PSoC4/BLE_HAL_PVT.c ****         return (CyBle_Hal_mapping_tbx_generate_local_P256_public_key(param));
 519:Generated_Source\PSoC4/BLE_HAL_PVT.c ****     }
 520:Generated_Source\PSoC4/BLE_HAL_PVT.c **** 
 521:Generated_Source\PSoC4/BLE_HAL_PVT.c ****     CYBLE_API_RESULT_T CyBle_Hal_pairing_sc_tbx_generate_DHkey(void  * param1, void  * param2)
 522:Generated_Source\PSoC4/BLE_HAL_PVT.c ****     {
 523:Generated_Source\PSoC4/BLE_HAL_PVT.c ****         return (CyBle_Hal_mapping_tbx_generate_DHkey(param1, param2));
 524:Generated_Source\PSoC4/BLE_HAL_PVT.c ****     }
 525:Generated_Source\PSoC4/BLE_HAL_PVT.c **** 
 526:Generated_Source\PSoC4/BLE_HAL_PVT.c ****     void CyBle_Hal_smp_sc_cmac_complete(void)
 527:Generated_Source\PSoC4/BLE_HAL_PVT.c ****     {
 528:Generated_Source\PSoC4/BLE_HAL_PVT.c ****        CyBle_Hal_Mapping_smp_sc_cmac_complete();
 529:Generated_Source\PSoC4/BLE_HAL_PVT.c ****     }
 530:Generated_Source\PSoC4/BLE_HAL_PVT.c **** 
 531:Generated_Source\PSoC4/BLE_HAL_PVT.c ****     CYBLE_API_RESULT_T CyBle_Hal_se_smp_sc_user_passkey_handler(void *param1, void *param2)
 532:Generated_Source\PSoC4/BLE_HAL_PVT.c ****     {
 533:Generated_Source\PSoC4/BLE_HAL_PVT.c ****         return (CyBle_Hal_mapping_se_smp_sc_user_passkey_handler(param1, param2));
 534:Generated_Source\PSoC4/BLE_HAL_PVT.c ****     }
 535:Generated_Source\PSoC4/BLE_HAL_PVT.c **** 
 536:Generated_Source\PSoC4/BLE_HAL_PVT.c ****     void CyBle_Hal_EccPointMult(void)
 537:Generated_Source\PSoC4/BLE_HAL_PVT.c ****     {
 538:Generated_Source\PSoC4/BLE_HAL_PVT.c ****         CyBle_Hal_Mapping_EccPointMult();
 539:Generated_Source\PSoC4/BLE_HAL_PVT.c ****     }
ARM GAS  C:\Users\ramanatg\AppData\Local\Temp\cc1lbrh6.s 			page 28


 540:Generated_Source\PSoC4/BLE_HAL_PVT.c ****     
 541:Generated_Source\PSoC4/BLE_HAL_PVT.c **** #else     /* If feature is not required, return error. */
 542:Generated_Source\PSoC4/BLE_HAL_PVT.c ****     
 543:Generated_Source\PSoC4/BLE_HAL_PVT.c ****     CYBLE_API_RESULT_T CyBle_Hal_pairing_local_public_key_handler(void *param CYBLE_UNUSED_ATTR)
 544:Generated_Source\PSoC4/BLE_HAL_PVT.c ****     {
 921              		.loc 1 544 0
 922              		.cfi_startproc
 923              	.LVL95:
 545:Generated_Source\PSoC4/BLE_HAL_PVT.c ****         return (CYBLE_ERROR_UNSUPPORTED_FEATURE_OR_PARAMETER_VALUE);
 546:Generated_Source\PSoC4/BLE_HAL_PVT.c ****     }
 924              		.loc 1 546 0
 925 0000 2B20     		mov	r0, #43
 926              	.LVL96:
 927              		@ sp needed
 928 0002 7047     		bx	lr
 929              		.cfi_endproc
 930              	.LFE16:
 931              		.size	CyBle_Hal_pairing_local_public_key_handler, .-CyBle_Hal_pairing_local_public_key_handler
 932              		.section	.text.CyBle_Hal_pairing_remote_key_handler,"ax",%progbits
 933              		.align	2
 934              		.global	CyBle_Hal_pairing_remote_key_handler
 935              		.code	16
 936              		.thumb_func
 937              		.type	CyBle_Hal_pairing_remote_key_handler, %function
 938              	CyBle_Hal_pairing_remote_key_handler:
 939              	.LFB17:
 547:Generated_Source\PSoC4/BLE_HAL_PVT.c ****      
 548:Generated_Source\PSoC4/BLE_HAL_PVT.c ****     CYBLE_API_RESULT_T CyBle_Hal_pairing_remote_key_handler(void *param CYBLE_UNUSED_ATTR)
 549:Generated_Source\PSoC4/BLE_HAL_PVT.c ****     {
 940              		.loc 1 549 0
 941              		.cfi_startproc
 942              	.LVL97:
 550:Generated_Source\PSoC4/BLE_HAL_PVT.c ****         return (CYBLE_ERROR_UNSUPPORTED_FEATURE_OR_PARAMETER_VALUE);
 551:Generated_Source\PSoC4/BLE_HAL_PVT.c ****     }
 943              		.loc 1 551 0
 944 0000 2B20     		mov	r0, #43
 945              	.LVL98:
 946              		@ sp needed
 947 0002 7047     		bx	lr
 948              		.cfi_endproc
 949              	.LFE17:
 950              		.size	CyBle_Hal_pairing_remote_key_handler, .-CyBle_Hal_pairing_remote_key_handler
 951              		.section	.text.CyBle_Hal_pairing_dhkey_handler,"ax",%progbits
 952              		.align	2
 953              		.global	CyBle_Hal_pairing_dhkey_handler
 954              		.code	16
 955              		.thumb_func
 956              		.type	CyBle_Hal_pairing_dhkey_handler, %function
 957              	CyBle_Hal_pairing_dhkey_handler:
 958              	.LFB18:
 552:Generated_Source\PSoC4/BLE_HAL_PVT.c ****      
 553:Generated_Source\PSoC4/BLE_HAL_PVT.c ****     CYBLE_API_RESULT_T CyBle_Hal_pairing_dhkey_handler(void *param CYBLE_UNUSED_ATTR)
 554:Generated_Source\PSoC4/BLE_HAL_PVT.c ****     {
 959              		.loc 1 554 0
 960              		.cfi_startproc
 961              	.LVL99:
 555:Generated_Source\PSoC4/BLE_HAL_PVT.c ****         return (CYBLE_ERROR_UNSUPPORTED_FEATURE_OR_PARAMETER_VALUE);
ARM GAS  C:\Users\ramanatg\AppData\Local\Temp\cc1lbrh6.s 			page 29


 556:Generated_Source\PSoC4/BLE_HAL_PVT.c ****     }
 962              		.loc 1 556 0
 963 0000 2B20     		mov	r0, #43
 964              	.LVL100:
 965              		@ sp needed
 966 0002 7047     		bx	lr
 967              		.cfi_endproc
 968              	.LFE18:
 969              		.size	CyBle_Hal_pairing_dhkey_handler, .-CyBle_Hal_pairing_dhkey_handler
 970              		.section	.text.CyBle_Hal_pairing_dhkey_check_handler,"ax",%progbits
 971              		.align	2
 972              		.global	CyBle_Hal_pairing_dhkey_check_handler
 973              		.code	16
 974              		.thumb_func
 975              		.type	CyBle_Hal_pairing_dhkey_check_handler, %function
 976              	CyBle_Hal_pairing_dhkey_check_handler:
 977              	.LFB19:
 557:Generated_Source\PSoC4/BLE_HAL_PVT.c **** 
 558:Generated_Source\PSoC4/BLE_HAL_PVT.c ****     CYBLE_API_RESULT_T CyBle_Hal_pairing_dhkey_check_handler(void *param CYBLE_UNUSED_ATTR)
 559:Generated_Source\PSoC4/BLE_HAL_PVT.c ****     {
 978              		.loc 1 559 0
 979              		.cfi_startproc
 980              	.LVL101:
 560:Generated_Source\PSoC4/BLE_HAL_PVT.c ****         return (CYBLE_ERROR_UNSUPPORTED_FEATURE_OR_PARAMETER_VALUE);
 561:Generated_Source\PSoC4/BLE_HAL_PVT.c ****     }
 981              		.loc 1 561 0
 982 0000 2B20     		mov	r0, #43
 983              	.LVL102:
 984              		@ sp needed
 985 0002 7047     		bx	lr
 986              		.cfi_endproc
 987              	.LFE19:
 988              		.size	CyBle_Hal_pairing_dhkey_check_handler, .-CyBle_Hal_pairing_dhkey_check_handler
 989              		.section	.text.CyBle_Hal_pairing_keypress_notification_handler,"ax",%progbits
 990              		.align	2
 991              		.global	CyBle_Hal_pairing_keypress_notification_handler
 992              		.code	16
 993              		.thumb_func
 994              		.type	CyBle_Hal_pairing_keypress_notification_handler, %function
 995              	CyBle_Hal_pairing_keypress_notification_handler:
 996              	.LFB20:
 562:Generated_Source\PSoC4/BLE_HAL_PVT.c **** 
 563:Generated_Source\PSoC4/BLE_HAL_PVT.c ****     CYBLE_API_RESULT_T CyBle_Hal_pairing_keypress_notification_handler(void *param CYBLE_UNUSED_ATT
 564:Generated_Source\PSoC4/BLE_HAL_PVT.c ****     {
 997              		.loc 1 564 0
 998              		.cfi_startproc
 999              	.LVL103:
 565:Generated_Source\PSoC4/BLE_HAL_PVT.c ****         return (CYBLE_ERROR_UNSUPPORTED_FEATURE_OR_PARAMETER_VALUE);
 566:Generated_Source\PSoC4/BLE_HAL_PVT.c ****     }
 1000              		.loc 1 566 0
 1001 0000 2B20     		mov	r0, #43
 1002              	.LVL104:
 1003              		@ sp needed
 1004 0002 7047     		bx	lr
 1005              		.cfi_endproc
 1006              	.LFE20:
 1007              		.size	CyBle_Hal_pairing_keypress_notification_handler, .-CyBle_Hal_pairing_keypress_notification_h
ARM GAS  C:\Users\ramanatg\AppData\Local\Temp\cc1lbrh6.s 			page 30


 1008              		.section	.text.CyBle_Hal_pairing_rand_handler,"ax",%progbits
 1009              		.align	2
 1010              		.global	CyBle_Hal_pairing_rand_handler
 1011              		.code	16
 1012              		.thumb_func
 1013              		.type	CyBle_Hal_pairing_rand_handler, %function
 1014              	CyBle_Hal_pairing_rand_handler:
 1015              	.LFB21:
 567:Generated_Source\PSoC4/BLE_HAL_PVT.c **** 
 568:Generated_Source\PSoC4/BLE_HAL_PVT.c ****     CYBLE_API_RESULT_T CyBle_Hal_pairing_rand_handler(void *param CYBLE_UNUSED_ATTR)
 569:Generated_Source\PSoC4/BLE_HAL_PVT.c ****     {
 1016              		.loc 1 569 0
 1017              		.cfi_startproc
 1018              	.LVL105:
 570:Generated_Source\PSoC4/BLE_HAL_PVT.c ****         return (CYBLE_ERROR_UNSUPPORTED_FEATURE_OR_PARAMETER_VALUE);
 571:Generated_Source\PSoC4/BLE_HAL_PVT.c ****     }
 1019              		.loc 1 571 0
 1020 0000 2B20     		mov	r0, #43
 1021              	.LVL106:
 1022              		@ sp needed
 1023 0002 7047     		bx	lr
 1024              		.cfi_endproc
 1025              	.LFE21:
 1026              		.size	CyBle_Hal_pairing_rand_handler, .-CyBle_Hal_pairing_rand_handler
 1027              		.section	.text.CyBle_Hal_pairing_confirm_handler,"ax",%progbits
 1028              		.align	2
 1029              		.global	CyBle_Hal_pairing_confirm_handler
 1030              		.code	16
 1031              		.thumb_func
 1032              		.type	CyBle_Hal_pairing_confirm_handler, %function
 1033              	CyBle_Hal_pairing_confirm_handler:
 1034              	.LFB22:
 572:Generated_Source\PSoC4/BLE_HAL_PVT.c ****     
 573:Generated_Source\PSoC4/BLE_HAL_PVT.c ****     CYBLE_API_RESULT_T CyBle_Hal_pairing_confirm_handler(void *param CYBLE_UNUSED_ATTR)
 574:Generated_Source\PSoC4/BLE_HAL_PVT.c ****     {
 1035              		.loc 1 574 0
 1036              		.cfi_startproc
 1037              	.LVL107:
 575:Generated_Source\PSoC4/BLE_HAL_PVT.c ****         return (CYBLE_ERROR_UNSUPPORTED_FEATURE_OR_PARAMETER_VALUE);
 576:Generated_Source\PSoC4/BLE_HAL_PVT.c ****     }
 1038              		.loc 1 576 0
 1039 0000 2B20     		mov	r0, #43
 1040              	.LVL108:
 1041              		@ sp needed
 1042 0002 7047     		bx	lr
 1043              		.cfi_endproc
 1044              	.LFE22:
 1045              		.size	CyBle_Hal_pairing_confirm_handler, .-CyBle_Hal_pairing_confirm_handler
 1046              		.section	.text.CyBle_Hal_pairing_lr_confirming_handler,"ax",%progbits
 1047              		.align	2
 1048              		.global	CyBle_Hal_pairing_lr_confirming_handler
 1049              		.code	16
 1050              		.thumb_func
 1051              		.type	CyBle_Hal_pairing_lr_confirming_handler, %function
 1052              	CyBle_Hal_pairing_lr_confirming_handler:
 1053              	.LFB23:
 577:Generated_Source\PSoC4/BLE_HAL_PVT.c **** 
ARM GAS  C:\Users\ramanatg\AppData\Local\Temp\cc1lbrh6.s 			page 31


 578:Generated_Source\PSoC4/BLE_HAL_PVT.c ****     CYBLE_API_RESULT_T CyBle_Hal_pairing_lr_confirming_handler(void *param CYBLE_UNUSED_ATTR)
 579:Generated_Source\PSoC4/BLE_HAL_PVT.c ****     {
 1054              		.loc 1 579 0
 1055              		.cfi_startproc
 1056              	.LVL109:
 580:Generated_Source\PSoC4/BLE_HAL_PVT.c ****         return (CYBLE_ERROR_UNSUPPORTED_FEATURE_OR_PARAMETER_VALUE);
 581:Generated_Source\PSoC4/BLE_HAL_PVT.c ****     }
 1057              		.loc 1 581 0
 1058 0000 2B20     		mov	r0, #43
 1059              	.LVL110:
 1060              		@ sp needed
 1061 0002 7047     		bx	lr
 1062              		.cfi_endproc
 1063              	.LFE23:
 1064              		.size	CyBle_Hal_pairing_lr_confirming_handler, .-CyBle_Hal_pairing_lr_confirming_handler
 1065              		.section	.text.CyBle_Hal_pairing_sc_tbx_dhkey_generate_complete,"ax",%progbits
 1066              		.align	2
 1067              		.global	CyBle_Hal_pairing_sc_tbx_dhkey_generate_complete
 1068              		.code	16
 1069              		.thumb_func
 1070              		.type	CyBle_Hal_pairing_sc_tbx_dhkey_generate_complete, %function
 1071              	CyBle_Hal_pairing_sc_tbx_dhkey_generate_complete:
 1072              	.LFB24:
 582:Generated_Source\PSoC4/BLE_HAL_PVT.c ****     
 583:Generated_Source\PSoC4/BLE_HAL_PVT.c ****     CYBLE_API_RESULT_T CyBle_Hal_pairing_sc_tbx_dhkey_generate_complete(void* param CYBLE_UNUSED_AT
 584:Generated_Source\PSoC4/BLE_HAL_PVT.c ****     {
 1073              		.loc 1 584 0
 1074              		.cfi_startproc
 1075              	.LVL111:
 585:Generated_Source\PSoC4/BLE_HAL_PVT.c ****         return (CYBLE_ERROR_UNSUPPORTED_FEATURE_OR_PARAMETER_VALUE);
 586:Generated_Source\PSoC4/BLE_HAL_PVT.c ****     }
 1076              		.loc 1 586 0
 1077 0000 2B20     		mov	r0, #43
 1078              	.LVL112:
 1079              		@ sp needed
 1080 0002 7047     		bx	lr
 1081              		.cfi_endproc
 1082              	.LFE24:
 1083              		.size	CyBle_Hal_pairing_sc_tbx_dhkey_generate_complete, .-CyBle_Hal_pairing_sc_tbx_dhkey_generate_
 1084              		.section	.text.CyBle_Hal_pairing_sc_tbx_local_pubkey_generate_complete,"ax",%progbits
 1085              		.align	2
 1086              		.global	CyBle_Hal_pairing_sc_tbx_local_pubkey_generate_complete
 1087              		.code	16
 1088              		.thumb_func
 1089              		.type	CyBle_Hal_pairing_sc_tbx_local_pubkey_generate_complete, %function
 1090              	CyBle_Hal_pairing_sc_tbx_local_pubkey_generate_complete:
 1091              	.LFB25:
 587:Generated_Source\PSoC4/BLE_HAL_PVT.c **** 
 588:Generated_Source\PSoC4/BLE_HAL_PVT.c ****     CYBLE_API_RESULT_T CyBle_Hal_pairing_sc_tbx_local_pubkey_generate_complete(void)
 589:Generated_Source\PSoC4/BLE_HAL_PVT.c ****     {
 1092              		.loc 1 589 0
 1093              		.cfi_startproc
 590:Generated_Source\PSoC4/BLE_HAL_PVT.c ****         return (CYBLE_ERROR_UNSUPPORTED_FEATURE_OR_PARAMETER_VALUE);
 591:Generated_Source\PSoC4/BLE_HAL_PVT.c ****     }
 1094              		.loc 1 591 0
 1095 0000 2B20     		mov	r0, #43
 1096              		@ sp needed
ARM GAS  C:\Users\ramanatg\AppData\Local\Temp\cc1lbrh6.s 			page 32


 1097 0002 7047     		bx	lr
 1098              		.cfi_endproc
 1099              	.LFE25:
 1100              		.size	CyBle_Hal_pairing_sc_tbx_local_pubkey_generate_complete, .-CyBle_Hal_pairing_sc_tbx_local_pu
 1101              		.section	.text.CyBle_Hal_pairing_sc_tbx_generate_local_P256_public_key,"ax",%progbits
 1102              		.align	2
 1103              		.global	CyBle_Hal_pairing_sc_tbx_generate_local_P256_public_key
 1104              		.code	16
 1105              		.thumb_func
 1106              		.type	CyBle_Hal_pairing_sc_tbx_generate_local_P256_public_key, %function
 1107              	CyBle_Hal_pairing_sc_tbx_generate_local_P256_public_key:
 1108              	.LFB26:
 592:Generated_Source\PSoC4/BLE_HAL_PVT.c **** 
 593:Generated_Source\PSoC4/BLE_HAL_PVT.c ****     CYBLE_API_RESULT_T CyBle_Hal_pairing_sc_tbx_generate_local_P256_public_key(uint8 param CYBLE_UN
 594:Generated_Source\PSoC4/BLE_HAL_PVT.c ****     {
 1109              		.loc 1 594 0
 1110              		.cfi_startproc
 1111              	.LVL113:
 595:Generated_Source\PSoC4/BLE_HAL_PVT.c ****         return (CYBLE_ERROR_UNSUPPORTED_FEATURE_OR_PARAMETER_VALUE);
 596:Generated_Source\PSoC4/BLE_HAL_PVT.c ****     }
 1112              		.loc 1 596 0
 1113 0000 2B20     		mov	r0, #43
 1114              	.LVL114:
 1115              		@ sp needed
 1116 0002 7047     		bx	lr
 1117              		.cfi_endproc
 1118              	.LFE26:
 1119              		.size	CyBle_Hal_pairing_sc_tbx_generate_local_P256_public_key, .-CyBle_Hal_pairing_sc_tbx_generate
 1120              		.section	.text.CyBle_Hal_pairing_sc_tbx_generate_DHkey,"ax",%progbits
 1121              		.align	2
 1122              		.global	CyBle_Hal_pairing_sc_tbx_generate_DHkey
 1123              		.code	16
 1124              		.thumb_func
 1125              		.type	CyBle_Hal_pairing_sc_tbx_generate_DHkey, %function
 1126              	CyBle_Hal_pairing_sc_tbx_generate_DHkey:
 1127              	.LFB27:
 597:Generated_Source\PSoC4/BLE_HAL_PVT.c **** 
 598:Generated_Source\PSoC4/BLE_HAL_PVT.c ****     CYBLE_API_RESULT_T CyBle_Hal_pairing_sc_tbx_generate_DHkey(void  * param1 CYBLE_UNUSED_ATTR,
 599:Generated_Source\PSoC4/BLE_HAL_PVT.c ****                                                                void  * param2 CYBLE_UNUSED_ATTR)
 600:Generated_Source\PSoC4/BLE_HAL_PVT.c ****     {
 1128              		.loc 1 600 0
 1129              		.cfi_startproc
 1130              	.LVL115:
 601:Generated_Source\PSoC4/BLE_HAL_PVT.c ****         return (CYBLE_ERROR_UNSUPPORTED_FEATURE_OR_PARAMETER_VALUE);
 602:Generated_Source\PSoC4/BLE_HAL_PVT.c ****     }
 1131              		.loc 1 602 0
 1132 0000 2B20     		mov	r0, #43
 1133              	.LVL116:
 1134              		@ sp needed
 1135 0002 7047     		bx	lr
 1136              		.cfi_endproc
 1137              	.LFE27:
 1138              		.size	CyBle_Hal_pairing_sc_tbx_generate_DHkey, .-CyBle_Hal_pairing_sc_tbx_generate_DHkey
 1139              		.section	.text.CyBle_Hal_smp_sc_cmac_complete,"ax",%progbits
 1140              		.align	2
 1141              		.global	CyBle_Hal_smp_sc_cmac_complete
 1142              		.code	16
ARM GAS  C:\Users\ramanatg\AppData\Local\Temp\cc1lbrh6.s 			page 33


 1143              		.thumb_func
 1144              		.type	CyBle_Hal_smp_sc_cmac_complete, %function
 1145              	CyBle_Hal_smp_sc_cmac_complete:
 1146              	.LFB28:
 603:Generated_Source\PSoC4/BLE_HAL_PVT.c **** 
 604:Generated_Source\PSoC4/BLE_HAL_PVT.c ****     void CyBle_Hal_smp_sc_cmac_complete(void)
 605:Generated_Source\PSoC4/BLE_HAL_PVT.c ****     {
 1147              		.loc 1 605 0
 1148              		.cfi_startproc
 606:Generated_Source\PSoC4/BLE_HAL_PVT.c ****     }
 1149              		.loc 1 606 0
 1150              		@ sp needed
 1151 0000 7047     		bx	lr
 1152              		.cfi_endproc
 1153              	.LFE28:
 1154              		.size	CyBle_Hal_smp_sc_cmac_complete, .-CyBle_Hal_smp_sc_cmac_complete
 1155 0002 C046     		.section	.text.CyBle_Hal_se_smp_sc_user_passkey_handler,"ax",%progbits
 1156              		.align	2
 1157              		.global	CyBle_Hal_se_smp_sc_user_passkey_handler
 1158              		.code	16
 1159              		.thumb_func
 1160              		.type	CyBle_Hal_se_smp_sc_user_passkey_handler, %function
 1161              	CyBle_Hal_se_smp_sc_user_passkey_handler:
 1162              	.LFB29:
 607:Generated_Source\PSoC4/BLE_HAL_PVT.c **** 
 608:Generated_Source\PSoC4/BLE_HAL_PVT.c ****     CYBLE_API_RESULT_T CyBle_Hal_se_smp_sc_user_passkey_handler(void  * param1 CYBLE_UNUSED_ATTR,
 609:Generated_Source\PSoC4/BLE_HAL_PVT.c ****                                                                 void  * param2 CYBLE_UNUSED_ATTR)
 610:Generated_Source\PSoC4/BLE_HAL_PVT.c ****     {
 1163              		.loc 1 610 0
 1164              		.cfi_startproc
 1165              	.LVL117:
 611:Generated_Source\PSoC4/BLE_HAL_PVT.c ****         return (CYBLE_ERROR_UNSUPPORTED_FEATURE_OR_PARAMETER_VALUE);
 612:Generated_Source\PSoC4/BLE_HAL_PVT.c ****     }
 1166              		.loc 1 612 0
 1167 0000 2B20     		mov	r0, #43
 1168              	.LVL118:
 1169              		@ sp needed
 1170 0002 7047     		bx	lr
 1171              		.cfi_endproc
 1172              	.LFE29:
 1173              		.size	CyBle_Hal_se_smp_sc_user_passkey_handler, .-CyBle_Hal_se_smp_sc_user_passkey_handler
 1174              		.section	.text.CyBle_Hal_EccPointMult,"ax",%progbits
 1175              		.align	2
 1176              		.global	CyBle_Hal_EccPointMult
 1177              		.code	16
 1178              		.thumb_func
 1179              		.type	CyBle_Hal_EccPointMult, %function
 1180              	CyBle_Hal_EccPointMult:
 1181              	.LFB30:
 613:Generated_Source\PSoC4/BLE_HAL_PVT.c **** 
 614:Generated_Source\PSoC4/BLE_HAL_PVT.c ****     void CyBle_Hal_EccPointMult(void)
 615:Generated_Source\PSoC4/BLE_HAL_PVT.c ****     {
 1182              		.loc 1 615 0
 1183              		.cfi_startproc
 616:Generated_Source\PSoC4/BLE_HAL_PVT.c ****     }
 1184              		.loc 1 616 0
 1185              		@ sp needed
ARM GAS  C:\Users\ramanatg\AppData\Local\Temp\cc1lbrh6.s 			page 34


 1186 0000 7047     		bx	lr
 1187              		.cfi_endproc
 1188              	.LFE30:
 1189              		.size	CyBle_Hal_EccPointMult, .-CyBle_Hal_EccPointMult
 1190 0002 C046     		.section	.text.BLE_CMP_FTR_API_lec_hci_handle_read_local_P256_public_key_command,"ax",%progbits
 1191              		.align	2
 1192              		.global	BLE_CMP_FTR_API_lec_hci_handle_read_local_P256_public_key_command
 1193              		.code	16
 1194              		.thumb_func
 1195              		.type	BLE_CMP_FTR_API_lec_hci_handle_read_local_P256_public_key_command, %function
 1196              	BLE_CMP_FTR_API_lec_hci_handle_read_local_P256_public_key_command:
 1197              	.LFB31:
 617:Generated_Source\PSoC4/BLE_HAL_PVT.c ****     
 618:Generated_Source\PSoC4/BLE_HAL_PVT.c **** #endif /* (CYBLE_SECURE_CONN_FEATURE_ENABLED) */
 619:Generated_Source\PSoC4/BLE_HAL_PVT.c **** 
 620:Generated_Source\PSoC4/BLE_HAL_PVT.c **** #endif /* CYBLE_MODE_PROFILE */
 621:Generated_Source\PSoC4/BLE_HAL_PVT.c **** 
 622:Generated_Source\PSoC4/BLE_HAL_PVT.c **** #if(CYBLE_SECURE_CONN_FEATURE_ENABLED)
 623:Generated_Source\PSoC4/BLE_HAL_PVT.c ****     
 624:Generated_Source\PSoC4/BLE_HAL_PVT.c ****     uint16 BLE_CMP_FTR_API_lec_hci_handle_read_local_P256_public_key_command(void *param)
 625:Generated_Source\PSoC4/BLE_HAL_PVT.c ****     {
 626:Generated_Source\PSoC4/BLE_HAL_PVT.c ****         return (BLE_STK_FTR_API_lec_hci_handle_read_local_P256_public_key_command(param));
 627:Generated_Source\PSoC4/BLE_HAL_PVT.c ****     }
 628:Generated_Source\PSoC4/BLE_HAL_PVT.c ****     
 629:Generated_Source\PSoC4/BLE_HAL_PVT.c ****     uint16 BLE_CMP_FTR_API_lec_hci_handle_generate_DHkey_command(void *param)
 630:Generated_Source\PSoC4/BLE_HAL_PVT.c ****     {
 631:Generated_Source\PSoC4/BLE_HAL_PVT.c ****         return (BLE_STK_FTR_API_lec_hci_handle_generate_DHkey_command(param));
 632:Generated_Source\PSoC4/BLE_HAL_PVT.c ****     }
 633:Generated_Source\PSoC4/BLE_HAL_PVT.c **** 
 634:Generated_Source\PSoC4/BLE_HAL_PVT.c **** #else     /* If feature is not required, return error. */
 635:Generated_Source\PSoC4/BLE_HAL_PVT.c ****     
 636:Generated_Source\PSoC4/BLE_HAL_PVT.c ****     uint16 BLE_CMP_FTR_API_lec_hci_handle_read_local_P256_public_key_command(void *param CYBLE_UNUS
 637:Generated_Source\PSoC4/BLE_HAL_PVT.c ****     {
 1198              		.loc 1 637 0
 1199              		.cfi_startproc
 1200              	.LVL119:
 638:Generated_Source\PSoC4/BLE_HAL_PVT.c ****         return (CYBLE_UNKNOWN_HCI_COMMAND_ERROR);
 639:Generated_Source\PSoC4/BLE_HAL_PVT.c ****     }
 1201              		.loc 1 639 0
 1202 0000 0120     		mov	r0, #1
 1203              	.LVL120:
 1204              		@ sp needed
 1205 0002 7047     		bx	lr
 1206              		.cfi_endproc
 1207              	.LFE31:
 1208              		.size	BLE_CMP_FTR_API_lec_hci_handle_read_local_P256_public_key_command, .-BLE_CMP_FTR_API_lec_hci
 1209              		.section	.text.BLE_CMP_FTR_API_lec_hci_handle_generate_DHkey_command,"ax",%progbits
 1210              		.align	2
 1211              		.global	BLE_CMP_FTR_API_lec_hci_handle_generate_DHkey_command
 1212              		.code	16
 1213              		.thumb_func
 1214              		.type	BLE_CMP_FTR_API_lec_hci_handle_generate_DHkey_command, %function
 1215              	BLE_CMP_FTR_API_lec_hci_handle_generate_DHkey_command:
 1216              	.LFB32:
 640:Generated_Source\PSoC4/BLE_HAL_PVT.c ****     
 641:Generated_Source\PSoC4/BLE_HAL_PVT.c ****     uint16 BLE_CMP_FTR_API_lec_hci_handle_generate_DHkey_command(void *param CYBLE_UNUSED_ATTR)
 642:Generated_Source\PSoC4/BLE_HAL_PVT.c ****     {
ARM GAS  C:\Users\ramanatg\AppData\Local\Temp\cc1lbrh6.s 			page 35


 1217              		.loc 1 642 0
 1218              		.cfi_startproc
 1219              	.LVL121:
 643:Generated_Source\PSoC4/BLE_HAL_PVT.c ****         return (CYBLE_UNKNOWN_HCI_COMMAND_ERROR);
 644:Generated_Source\PSoC4/BLE_HAL_PVT.c ****     }
 1220              		.loc 1 644 0
 1221 0000 0120     		mov	r0, #1
 1222              	.LVL122:
 1223              		@ sp needed
 1224 0002 7047     		bx	lr
 1225              		.cfi_endproc
 1226              	.LFE32:
 1227              		.size	BLE_CMP_FTR_API_lec_hci_handle_generate_DHkey_command, .-BLE_CMP_FTR_API_lec_hci_handle_gene
 1228              		.text
 1229              	.Letext0:
 1230              		.file 2 "Generated_Source\\PSoC4\\cytypes.h"
 1231              		.file 3 "Generated_Source\\PSoC4\\BLE_Stack.h"
 1232              		.file 4 "Generated_Source\\PSoC4\\CyFlash.h"
 1233              		.file 5 "Generated_Source\\PSoC4\\CyLib.h"
 1234              		.file 6 "Generated_Source\\PSoC4\\BLE_bless_isr.h"