ARM GAS  C:\Users\ramanatg\AppData\Local\Temp\cc9tuycg.s 			page 1


   1              		.cpu cortex-m0
   2              		.fpu softvfp
   3              		.eabi_attribute 20, 1
   4              		.eabi_attribute 21, 1
   5              		.eabi_attribute 23, 3
   6              		.eabi_attribute 24, 1
   7              		.eabi_attribute 25, 1
   8              		.eabi_attribute 26, 1
   9              		.eabi_attribute 30, 2
  10              		.eabi_attribute 34, 0
  11              		.eabi_attribute 18, 4
  12              		.code	16
  13              		.file	"main.c"
  14              		.text
  15              	.Ltext0:
  16              		.cfi_sections	.debug_frame
  17              		.section	.text.WDT_Handler,"ax",%progbits
  18              		.align	2
  19              		.global	WDT_Handler
  20              		.code	16
  21              		.thumb_func
  22              		.type	WDT_Handler, %function
  23              	WDT_Handler:
  24              	.LFB38:
  25              		.file 1 "main.c"
   1:main.c        **** /******************************************************************************
   2:main.c        **** * Project Name      : Solar BLE Sensor
   3:main.c        **** * File Name         : main.c
   4:main.c        **** * Version           : CYALKIT-E02 Sample Firmware, Version 1.2.00
   5:main.c        **** * Device Used       : CYBLE-022001-00
   6:main.c        **** * Software Used     : PSoC Creator 3.3 CP3
   7:main.c        **** * Compiler          : ARM GCC 4.9.3
   8:main.c        **** * Related Hardware  : Solar BLE Sensor
   9:main.c        **** *
  10:main.c        **** *******************************************************************************
  11:main.c        **** * Copyright (2016), Cypress Semiconductor Corporation. All Rights Reserved.
  12:main.c        **** *******************************************************************************
  13:main.c        **** * This software is owned by Cypress Semiconductor Corporation (Cypress)
  14:main.c        **** * and is protected by and subject to worldwide patent protection (United
  15:main.c        **** * States and foreign), United States copyright laws and international treaty
  16:main.c        **** * provisions. Cypress hereby grants to licensee a personal, non-exclusive,
  17:main.c        **** * non-transferable license to copy, use, modify, create derivative works of,
  18:main.c        **** * and compile the Cypress Source Code and derivative works for the sole
  19:main.c        **** * purpose of creating custom software in support of licensee product to be
  20:main.c        **** * used only in conjunction with a Cypress integrated circuit as specified in
  21:main.c        **** * the applicable agreement. Any reproduction, modification, translation,
  22:main.c        **** * compilation, or representation of this software except as specified above 
  23:main.c        **** * is prohibited without the express written permission of Cypress.
  24:main.c        **** *
  25:main.c        **** * Disclaimer: CYPRESS MAKES NO WARRANTY OF ANY KIND, EXPRESS OR IMPLIED, WITH 
  26:main.c        **** * REGARD TO THIS MATERIAL, INCLUDING, BUT NOT LIMITED TO, THE IMPLIED 
  27:main.c        **** * WARRANTIES OF MERCHANTABILITY AND FITNESS FOR A PARTICULAR PURPOSE.
  28:main.c        **** * Cypress reserves the right to make changes without further notice to the 
  29:main.c        **** * materials described herein. Cypress does not assume any liability arising out 
  30:main.c        **** * of the application or use of any product or circuit described herein. Cypress 
  31:main.c        **** * does not authorize its products for use as critical components in life-support 
  32:main.c        **** * systems where a malfunction or failure may reasonably be expected to result in 
ARM GAS  C:\Users\ramanatg\AppData\Local\Temp\cc9tuycg.s 			page 2


  33:main.c        **** * significant injury to the user. The inclusion of Cypress' product in a life-
  34:main.c        **** * support systems application implies that the manufacturer assumes all risk of 
  35:main.c        **** * such use and in doing so indemnifies Cypress against all charges. 
  36:main.c        **** *
  37:main.c        **** * Use of this Software may be limited by and subject to the applicable Cypress
  38:main.c        **** * software license agreement. 
  39:main.c        **** ******************************************************************************/
  40:main.c        **** 
  41:main.c        **** #include <main.h>
  42:main.c        **** #include <stdbool.h>
  43:main.c        **** #include <Si7020.h>
  44:main.c        **** #include "UartCmd.h"
  45:main.c        **** #include "ConfigRW.h"
  46:main.c        **** #include "Eddystone.h"
  47:main.c        **** 
  48:main.c        **** 
  49:main.c        **** /******************************************************************************
  50:main.c        **** * Global Variable Declarations
  51:main.c        **** ******************************************************************************/
  52:main.c        **** uint8_t restartadvertisement = false;           /* restart advertisement flag               */
  53:main.c        **** static BeaconConfig *pCFG;                      /* pointer to the valid configuration       */
  54:main.c        **** static uint16_t CFG_interval;                   /* advertisement interval ( millisecond )   */
  55:main.c        **** static int8_t CFG_txpwr;                        /* TX Power setting                         */
  56:main.c        **** 
  57:main.c        **** #if (I2C_SENSOR_ENABLE)
  58:main.c        **** uint8_t I2C_buffer[I2C_BUFFER_SIZE];            /* buffer for I2C communication with Si7020 */
  59:main.c        **** I2C_SENSOR_APP_STATE i2c_state = I2C_START;     /* I2C state flag                           */
  60:main.c        **** int8_t Sensor_Flag;                             /* flag indicates that sensor is used or not*/
  61:main.c        **** #endif
  62:main.c        **** uint8_t wdt_trigger_on_flag = false;            /* WDT_INTERRUPT_SOURCE trigger flag        */
  63:main.c        **** BEACON_APP_STATE beacon_state = BEACON_WAIT;    /* Beacon state flag                        */
  64:main.c        **** 
  65:main.c        **** /* A copy of Eddystone-UID frame. It's AD DATA 3 in the advertisement packet. */
  66:main.c        **** static uint8_t UID_FrameBuffer[ES_UID_FRAME_ARRAY_LENGTH] = 
  67:main.c        **** {
  68:main.c        ****     ES_UID_FRAME_LENGTH, ES_SVC_DATA, ES_SVC_LSB, ES_SVC_MSB, ES_FRAME_TYPE_UID
  69:main.c        **** };
  70:main.c        **** 
  71:main.c        **** /* A copy of Eddystone-URL frame. It's AD DATA 3 in the advertisement packet. */
  72:main.c        **** static uint8_t URL_FrameBuffer[ES_URL_FRAME_ARRAY_MAXLEN] = 
  73:main.c        **** {
  74:main.c        ****     0x00, /* This byte stores the actual length after it. ReadAndApplyConfig() will init it. */
  75:main.c        ****     ES_SVC_DATA, ES_SVC_LSB, ES_SVC_MSB, ES_FRAME_TYPE_URL
  76:main.c        **** };
  77:main.c        **** 
  78:main.c        **** /* A copy of Eddystone-TLM frame. It's AD DATA 3 in the advertisement packet. */
  79:main.c        **** static const uint8_t DefaultTLMframe[ES_TLM_FRAME_ARRAY_LENGTH] = 
  80:main.c        **** {
  81:main.c        ****     ES_TLM_FRAME_LENGTH, ES_SVC_DATA, ES_SVC_LSB, ES_SVC_MSB, ES_FRAME_TYPE_TLM, 
  82:main.c        ****     0x00,                           /* TLM version */
  83:main.c        ****     ES_TLM_VBATT_DEFAULT >> 8,      /* MSB */
  84:main.c        ****     ES_TLM_VBATT_DEFAULT & 0xFF,    /* LSB */
  85:main.c        ****     /* Beacon temperature in Celsius (8.8 fixed point notation) */
  86:main.c        ****     ES_TLM_NOTEMP_MSB, 
  87:main.c        ****     ES_TLM_NOTEMP_LSB
  88:main.c        **** };
  89:main.c        **** 
ARM GAS  C:\Users\ramanatg\AppData\Local\Temp\cc9tuycg.s 			page 3


  90:main.c        **** static uint32_t ES_ADV_CNT;             /* Advertising PDU count */
  91:main.c        **** static uint32_t ES_SEC_CNT;             /* Unit: 0.1sec. Time since power-on or reboot. */
  92:main.c        **** static uint32_t ES_SEC_CNT_ms;          /* Unit: ms. Actual time is ES_SEC_CNT + ES_SEC_CNT_ms/100.
  93:main.c        **** 
  94:main.c        **** 
  95:main.c        **** /******************************************************************************
  96:main.c        **** * Function prototypes
  97:main.c        **** ******************************************************************************/
  98:main.c        **** void LowPowerSleep(void);
  99:main.c        **** void ReadAndApplyConfig(void);
 100:main.c        **** void ProcessBeaconEvents(void);
 101:main.c        **** void UpdateTxPowerLeverl(int8_t NewLevel);
 102:main.c        **** void UpdateAdData3(uint8_t NewEdFrame);
 103:main.c        **** CYBLE_API_RESULT_T Beacon_GappStartAdvertisement(uint32_t advertisingInterval);
 104:main.c        **** 
 105:main.c        **** #if I2C_SENSOR_ENABLE
 106:main.c        **** void ProcessI2CEvents(void);
 107:main.c        **** static void UpdateWdtCounter1(uint32_t match);
 108:main.c        **** #endif
 109:main.c        **** 
 110:main.c        **** 
 111:main.c        **** /******************************************************************************
 112:main.c        **** * Function Name: BLE_AppEventHandler
 113:main.c        **** *******************************************************************************
 114:main.c        **** *
 115:main.c        **** * Summary:
 116:main.c        **** *   BLE stack generic event handler routine for handling discovery event.
 117:main.c        **** *
 118:main.c        **** * Parameters:  
 119:main.c        **** *   event - event that triggered this callback
 120:main.c        **** *   eventParam - parameters for the event.
 121:main.c        **** *
 122:main.c        **** * Return: 
 123:main.c        **** *   None
 124:main.c        **** ******************************************************************************/
 125:main.c        **** void BLE_AppEventHandler(uint32_t event, void* eventParam)
 126:main.c        **** {
 127:main.c        ****     (void)eventParam;
 128:main.c        **** 
 129:main.c        ****     switch (event)
 130:main.c        ****     {
 131:main.c        ****         /**********************************************************
 132:main.c        ****         *                       General Events
 133:main.c        ****         ***********************************************************/
 134:main.c        ****         /* This event is received when component is Started. */
 135:main.c        ****         case CYBLE_EVT_STACK_ON:
 136:main.c        ****             
 137:main.c        ****             /* UpdateTxPowerLeverl() should be invoked in the case of CYBLE_EVT_STACK_ON. */
 138:main.c        ****             UpdateTxPowerLeverl(CFG_txpwr);
 139:main.c        ****             
 140:main.c        ****             restartadvertisement = true;
 141:main.c        ****             
 142:main.c        ****             CySysWdtUnlock(); /* Unlock the WDT registers for modification */
 143:main.c        ****             
 144:main.c        ****             CySysWdtWriteMode(SOURCE_COUNTER, CY_SYS_WDT_MODE_INT);
 145:main.c        ****             
 146:main.c        ****             CySysWdtWriteClearOnMatch(SOURCE_COUNTER, COUNTER_ENABLE);
ARM GAS  C:\Users\ramanatg\AppData\Local\Temp\cc9tuycg.s 			page 4


 147:main.c        ****             
 148:main.c        ****             CySysWdtWriteMatch(SOURCE_COUNTER, COUNT_PERIOD_100MS);
 149:main.c        ****             
 150:main.c        ****             CySysWdtEnable(CY_SYS_WDT_COUNTER0_MASK);
 151:main.c        ****             
 152:main.c        ****             CySysWdtLock();
 153:main.c        ****             break;
 154:main.c        ****             
 155:main.c        ****         default:
 156:main.c        ****             break;
 157:main.c        ****     }
 158:main.c        **** }
 159:main.c        **** 
 160:main.c        **** /******************************************************************************
 161:main.c        **** * Function Name: WDT_Handler
 162:main.c        **** *******************************************************************************
 163:main.c        **** *
 164:main.c        **** * Summary:
 165:main.c        **** *   WDT interrupt handler routine. WDT is used to wakeup the device after
 166:main.c        **** *   the expected time elapses.
 167:main.c        **** *
 168:main.c        **** * Parameters:  
 169:main.c        **** *   None
 170:main.c        **** *
 171:main.c        **** * Return: 
 172:main.c        **** *   None
 173:main.c        **** ******************************************************************************/
 174:main.c        **** CY_ISR(WDT_Handler)
 175:main.c        **** {
  26              		.loc 1 175 0
  27              		.cfi_startproc
  28 0000 08B5     		push	{r3, lr}
  29              		.cfi_def_cfa_offset 8
  30              		.cfi_offset 3, -8
  31              		.cfi_offset 14, -4
 176:main.c        ****     /* If SOURCE_COUNTER triggers the interrupt. */
 177:main.c        ****     if(CySysWdtGetInterruptSource() & WDT_INTERRUPT_SOURCE)
  32              		.loc 1 177 0
  33 0002 FFF7FEFF 		bl	CySysWdtGetInterruptSource
  34              	.LVL0:
  35 0006 4307     		lsl	r3, r0, #29
  36 0008 0CD4     		bmi	.L11
  37              	.L2:
 178:main.c        ****     {
 179:main.c        ****         CySysWdtClearInterrupt(WDT_INTERRUPT_SOURCE);
 180:main.c        ****     }
 181:main.c        ****     
 182:main.c        ****     /* If I2C_COUNTER triggers the interrupt. */
 183:main.c        ****     if(CySysWdtGetInterruptSource() & I2C_WDT_INTERRUPT_SOURCE)
  38              		.loc 1 183 0
  39 000a FFF7FEFF 		bl	CySysWdtGetInterruptSource
  40              	.LVL1:
  41 000e 8023     		mov	r3, #128
  42 0010 DB00     		lsl	r3, r3, #3
  43 0012 1842     		tst	r0, r3
  44 0014 05D0     		beq	.L1
  45              	.LBB9:
ARM GAS  C:\Users\ramanatg\AppData\Local\Temp\cc9tuycg.s 			page 5


  46              	.LBB10:
 184:main.c        ****     {
 185:main.c        ****         CySysWdtClearInterrupt(I2C_WDT_INTERRUPT_SOURCE);
  47              		.loc 1 185 0
  48 0016 181C     		mov	r0, r3
  49 0018 FFF7FEFF 		bl	CySysWdtClearInterrupt
  50              	.LVL2:
 186:main.c        ****         
 187:main.c        ****         wdt_trigger_on_flag = true;
  51              		.loc 1 187 0
  52 001c 0122     		mov	r2, #1
  53 001e 034B     		ldr	r3, .L12
  54 0020 1A70     		strb	r2, [r3]
  55              	.L1:
  56              	.LBE10:
  57              	.LBE9:
 188:main.c        ****     }
 189:main.c        **** }
  58              		.loc 1 189 0
  59              		@ sp needed
  60 0022 08BD     		pop	{r3, pc}
  61              	.L11:
 179:main.c        ****     }
  62              		.loc 1 179 0
  63 0024 0420     		mov	r0, #4
  64 0026 FFF7FEFF 		bl	CySysWdtClearInterrupt
  65              	.LVL3:
  66 002a EEE7     		b	.L2
  67              	.L13:
  68              		.align	2
  69              	.L12:
  70 002c 00000000 		.word	.LANCHOR0
  71              		.cfi_endproc
  72              	.LFE38:
  73              		.size	WDT_Handler, .-WDT_Handler
  74              		.global	__aeabi_uidiv
  75              		.global	__aeabi_uidivmod
  76              		.global	__aeabi_idiv
  77              		.section	.text.UpdateAdData3.part.2,"ax",%progbits
  78              		.align	2
  79              		.code	16
  80              		.thumb_func
  81              		.type	UpdateAdData3.part.2, %function
  82              	UpdateAdData3.part.2:
  83              	.LFB51:
 190:main.c        **** 
 191:main.c        **** /*******************************************************************************
 192:main.c        **** * Function Name: LowPower_WCO_ECO_Start
 193:main.c        **** ********************************************************************************
 194:main.c        **** * Summary:
 195:main.c        **** *   Start WCO & ECO in low power mode by configuring the system in DeepSleep mode 
 196:main.c        **** *   during WCO & ECO startup time.
 197:main.c        **** *
 198:main.c        **** * Parameters:
 199:main.c        **** *   None
 200:main.c        **** *
 201:main.c        **** * Return:
ARM GAS  C:\Users\ramanatg\AppData\Local\Temp\cc9tuycg.s 			page 6


 202:main.c        **** *   None
 203:main.c        **** *******************************************************************************/
 204:main.c        **** void LowPower_WCO_ECO_Start(void)
 205:main.c        **** {
 206:main.c        ****     /* Do the following:
 207:main.c        ****      * 1. Shut down the ECO (to reduce power consumption while WCO is starting)
 208:main.c        ****      * 2. Enable WDT to wakeup the system after 2s (WCO need 500ms to startup, 
 209:main.c        ****      *    the solar cell can gather more power during the 2 seconds.)
 210:main.c        ****      * 3. Configure PRoC BLE device in DeepSleep mode for the 2s WCO startup time
 211:main.c        ****      * 4. After WCO is enabled, restart the ECO so that BLESS interface can function
 212:main.c        ****      * 5. Enable WDT to wakeup the system after 3.5ms (3.5ms = ECO startup time)
 213:main.c        ****      * 6. Configure PRoC BLE device in DeepSleep mode for the 3.5ms ECO startup time 
 214:main.c        ****      */
 215:main.c        ****     CySysClkEcoStop();      /* Shutdown the ECO and later re-start in low power mode after WCO is t
 216:main.c        ****     
 217:main.c        ****     WDT_Interrupt_StartEx(WDT_Handler);     /* Initialize WDT interrupt */
 218:main.c        ****     
 219:main.c        ****     CySysClkWcoStart();     /* Start the WCO clock */
 220:main.c        ****     
 221:main.c        ****     CySysWdtUnlock();       /* Unlock the WDT registers for modification */
 222:main.c        ****     
 223:main.c        ****     CySysWdtWriteMode(SOURCE_COUNTER, CY_SYS_WDT_MODE_INT);
 224:main.c        ****     CySysWdtWriteClearOnMatch(SOURCE_COUNTER, COUNTER_ENABLE);
 225:main.c        ****     CySysWdtWriteMatch(SOURCE_COUNTER, COUNT_PERIOD_WCO);
 226:main.c        ****     
 227:main.c        ****     CySysWdtEnable(CY_SYS_WDT_COUNTER0_MASK);
 228:main.c        ****     
 229:main.c        ****     CySysWdtLock();
 230:main.c        ****     
 231:main.c        ****     CySysPmDeepSleep(); /* Wait for the WDT interrupt to wake up the device */
 232:main.c        ****     
 233:main.c        ****     (void)CySysClkWcoSetPowerMode(CY_SYS_CLK_WCO_LPM);  /* Switch WCO to the low power mode after s
 234:main.c        ****     
 235:main.c        ****     /* Unlock to change the clock source for the LFCLK clock. */
 236:main.c        ****     CySysWdtUnlock();
 237:main.c        ****     CySysClkSetLfclkSource(CY_SYS_CLK_LFCLK_SRC_WCO);   /* LFCLK is now driven by WCO */
 238:main.c        ****     CySysWdtLock();
 239:main.c        ****     
 240:main.c        ****     CySysClkIloStop();                                  /* WCO is running, shut down the ILO */
 241:main.c        ****     
 242:main.c        ****     (void)CySysClkEcoStart(0);                          /* It's time to start ECO */
 243:main.c        ****     
 244:main.c        ****     CySysWdtUnlock();
 245:main.c        ****     
 246:main.c        ****     CySysWdtDisable(CY_SYS_WDT_COUNTER0_MASK);
 247:main.c        ****     
 248:main.c        ****     CySysWdtWriteMatch(SOURCE_COUNTER, COUNT_PERIOD_ECO);
 249:main.c        ****     
 250:main.c        ****     CySysWdtEnable(CY_SYS_WDT_COUNTER0_MASK);
 251:main.c        ****     
 252:main.c        ****     CySysWdtLock();
 253:main.c        ****     
 254:main.c        ****     CySysPmDeepSleep(); /* Wait for the WDT interrupt to wake up the device */
 255:main.c        ****     
 256:main.c        ****     /* Disable WDT counter */
 257:main.c        ****     CySysWdtUnlock();
 258:main.c        ****     CySysWdtDisable(CY_SYS_WDT_COUNTER0_MASK);
ARM GAS  C:\Users\ramanatg\AppData\Local\Temp\cc9tuycg.s 			page 7


 259:main.c        ****     CySysWdtLock();
 260:main.c        **** }
 261:main.c        **** 
 262:main.c        **** /*******************************************************************************
 263:main.c        **** * Function Name: LowPowerSleep
 264:main.c        **** ********************************************************************************
 265:main.c        **** * Summary:
 266:main.c        **** *   Put System into Deep-Sleep mode. Put BLESS into Deep-Sleep mode if possible.
 267:main.c        **** *
 268:main.c        **** * Parameters:
 269:main.c        **** *   None
 270:main.c        **** *
 271:main.c        **** * Return:
 272:main.c        **** *   None
 273:main.c        **** *******************************************************************************/
 274:main.c        **** void LowPowerSleep(void)
 275:main.c        **** {
 276:main.c        ****     CYBLE_LP_MODE_T pwrState;
 277:main.c        ****     CYBLE_BLESS_STATE_T blessState;
 278:main.c        ****     uint8_t intStatus = 0;
 279:main.c        **** 
 280:main.c        ****     pwrState  = CyBle_EnterLPM(CYBLE_BLESS_DEEPSLEEP); /* Configure BLESS in Deep-Sleep mode */
 281:main.c        **** 
 282:main.c        ****     intStatus = CyEnterCriticalSection(); /* No interrupts allowed while entering system low power 
 283:main.c        ****     
 284:main.c        ****     blessState = CyBle_GetBleSsState();
 285:main.c        ****     /* Make sure BLESS is in Deep-Sleep before configuring system in Deep-Sleep mode */
 286:main.c        ****     if(pwrState == CYBLE_BLESS_DEEPSLEEP)
 287:main.c        ****     {
 288:main.c        ****         /* If BLESS is in Deep Sleep or is in the process of waking up from Deep Sleep,
 289:main.c        ****          * put system in Deep Sleep mode */
 290:main.c        ****         if(blessState == CYBLE_BLESS_STATE_ECO_ON || blessState == CYBLE_BLESS_STATE_DEEPSLEEP)
 291:main.c        ****         {
 292:main.c        ****             CySysPmDeepSleep(); /* System Deep-Sleep. 1.3uA mode */
 293:main.c        ****         }
 294:main.c        ****     }
 295:main.c        ****     /* If BLESS is in Active state, 
 296:main.c        ****      * and if BLESS Tx/Rx Event is not complete, stop IMO and put CPU to Sleep */
 297:main.c        ****     else if (blessState != CYBLE_BLESS_STATE_EVENT_CLOSE)
 298:main.c        ****     {
 299:main.c        ****         /* Change HF clock source from IMO to ECO, as IMO can be stopped to save power */
 300:main.c        ****         CySysClkWriteHfclkDirect(CY_SYS_CLK_HFCLK_ECO); 
 301:main.c        ****         
 302:main.c        ****         /* Stop IMO for reducing power consumption */
 303:main.c        ****         CySysClkImoStop(); 
 304:main.c        ****       
 305:main.c        ****         /* Put the CPU to Sleep. 1.1mA mode */
 306:main.c        ****         CySysPmSleep();
 307:main.c        ****        
 308:main.c        ****         /* Starts execution after waking up, start IMO */
 309:main.c        ****         CySysClkImoStart();
 310:main.c        ****         
 311:main.c        ****         /* Change HF clock source back to IMO */
 312:main.c        ****         CySysClkWriteHfclkDirect(CY_SYS_CLK_HFCLK_IMO);
 313:main.c        ****     }
 314:main.c        ****     
 315:main.c        ****     CyExitCriticalSection(intStatus);
ARM GAS  C:\Users\ramanatg\AppData\Local\Temp\cc9tuycg.s 			page 8


 316:main.c        ****     
 317:main.c        ****     return;
 318:main.c        **** }
 319:main.c        **** 
 320:main.c        **** /******************************************************************************
 321:main.c        **** * Function Name: main
 322:main.c        **** *******************************************************************************
 323:main.c        **** * Summary:
 324:main.c        **** *   Program entry point. This calls the BLE and other peripheral Component
 325:main.c        **** *   APIs for achieving the desired system behaviour.
 326:main.c        **** *
 327:main.c        **** * Parameters:
 328:main.c        **** *   None
 329:main.c        **** *
 330:main.c        **** * Return:
 331:main.c        **** *   int - this is main loop and never returns
 332:main.c        **** *
 333:main.c        **** ******************************************************************************/
 334:main.c        **** int main()
 335:main.c        **** {
 336:main.c        ****     CyGlobalIntEnable;
 337:main.c        **** 
 338:main.c        ****     /* Set the divider for ECO, ECO will be used as source when IMO is switched off to save power, 
 339:main.c        ****     CySysClkWriteEcoDiv(CY_SYS_CLK_ECO_DIV8);
 340:main.c        **** 
 341:main.c        ****     /* Start WCO & ECO in low power mode */
 342:main.c        ****     LowPower_WCO_ECO_Start();
 343:main.c        **** 
 344:main.c        ****     /* If USB connector is plugged in. */
 345:main.c        ****     if(USB_Detect_Read() == PIN_HIGH)
 346:main.c        ****     {
 347:main.c        ****         uint8_t uart_buffer[UART_MAX_DATA_LEN];
 348:main.c        ****         
 349:main.c        ****         /* Check User SFlash, update the data storage format if necessary. */
 350:main.c        ****         ConfigRW_CheckVersion();
 351:main.c        ****         
 352:main.c        ****         /* Start UART Configuration Service and Eddystone-URL Configuration Service. */
 353:main.c        ****         UartCmd_Init(uart_buffer);
 354:main.c        ****         EddystoneURL_Config_Init();
 355:main.c        ****         
 356:main.c        ****         /* Keep processing UART and BLE events. */
 357:main.c        ****         while(true)
 358:main.c        ****         {
 359:main.c        ****             CyBle_ProcessEvents();
 360:main.c        ****             /* If user typed EXIT command. */
 361:main.c        ****             if(UartCmd_ProcessInput() == RESULT_EXIT)
 362:main.c        ****             {
 363:main.c        ****                 break;
 364:main.c        ****             }
 365:main.c        ****             
 366:main.c        ****             /* If the mode is EDTest, and GATT connection is terminated. */
 367:main.c        ****             if((pBeaconConfig->mode == ADV_MODE_EDDYSTONETEST) && gatt_disconnect_flag)
 368:main.c        ****             {
 369:main.c        ****                 beacon_state = BEACON_START;    /* skip the wait process */
 370:main.c        ****                 break;
 371:main.c        ****             }
 372:main.c        ****         }
ARM GAS  C:\Users\ramanatg\AppData\Local\Temp\cc9tuycg.s 			page 9


 373:main.c        ****         
 374:main.c        ****         CyBle_Stop();
 375:main.c        ****         UART_Stop();
 376:main.c        ****     }
 377:main.c        ****     
 378:main.c        ****     ReadAndApplyConfig();
 379:main.c        ****     
 380:main.c        ****     /* Change advertisement settings from default connectable to non-connectable. */
 381:main.c        ****     cyBle_discoveryParam.advType     = CYBLE_GAPP_NON_CONNECTABLE_UNDIRECTED_ADV;
 382:main.c        ****     cyBle_discoveryModeInfo.advTo    = CYBLE_ADV_NO_TIMEOUT;
 383:main.c        ****     cyBle_discoveryModeInfo.discMode = CYBLE_GAPP_NONE_DISC_BROADCAST_MODE;
 384:main.c        ****     cyBle_discoveryData.advData[ADV_DATA1_FLAGS_INDEX] = ADV_DATA1_FLAGS_NON_CONNECTABLE;
 385:main.c        ****     
 386:main.c        ****     CyBle_Start((CYBLE_CALLBACK_T)BLE_AppEventHandler);
 387:main.c        ****     
 388:main.c        ****     for(;;)
 389:main.c        ****     {
 390:main.c        ****         CyBle_ProcessEvents(); /* BLE stack processing state machine interface */
 391:main.c        ****     
 392:main.c        ****         LowPowerSleep();
 393:main.c        ****         
 394:main.c        ****         /* If restartadvertisement flag is set, which means it's the first time cpu goes here. */
 395:main.c        ****         if(restartadvertisement)
 396:main.c        ****         {
 397:main.c        ****             restartadvertisement = false;
 398:main.c        ****             
 399:main.c        ****             CySysWdtUnlock();
 400:main.c        ****             
 401:main.c        ****             CySysWdtDisable(CY_SYS_WDT_COUNTER0_MASK);
 402:main.c        ****             
 403:main.c        ****             CySysWdtWriteMode(I2C_COUNTER, CY_SYS_WDT_MODE_INT);
 404:main.c        ****             
 405:main.c        ****             CySysWdtWriteClearOnMatch(I2C_COUNTER, COUNTER_ENABLE);
 406:main.c        ****             
 407:main.c        **** #if I2C_SENSOR_ENABLE
 408:main.c        ****             /* If I2C sensor is enabled and sensor setting is on. */
 409:main.c        ****             if(Sensor_Flag)
 410:main.c        ****             {
 411:main.c        ****                 CySysWdtWriteMatch(I2C_COUNTER, I2C_COUNT_PERIOD_10MS);
 412:main.c        ****             }
 413:main.c        ****             else
 414:main.c        **** #endif
 415:main.c        ****             /* If I2C sensor is disabled or sensor setting is off. */
 416:main.c        ****             {
 417:main.c        ****                 CySysWdtWriteMatch(I2C_COUNTER, I2C_COUNT_PERIOD_10MS);
 418:main.c        ****             }
 419:main.c        ****             
 420:main.c        ****             CySysWdtEnable(CY_SYS_WDT_COUNTER1_MASK);
 421:main.c        ****             
 422:main.c        ****             CySysWdtLock();
 423:main.c        ****         }
 424:main.c        ****         
 425:main.c        **** #if I2C_SENSOR_ENABLE
 426:main.c        ****         /* If I2C sensor is enabled and sensor setting is on. */
 427:main.c        ****         if(Sensor_Flag)
 428:main.c        ****         {
 429:main.c        ****             /* If I2C communication is needed, wakeup I2C module. */
ARM GAS  C:\Users\ramanatg\AppData\Local\Temp\cc9tuycg.s 			page 10


 430:main.c        ****             if(i2c_state <= I2C_START_ADV)
 431:main.c        ****             {
 432:main.c        ****                 I2CM_Wakeup();
 433:main.c        ****                 
 434:main.c        ****                 ProcessI2CEvents();
 435:main.c        ****                 
 436:main.c        ****                 I2CM_Sleep();       /* I2C communication is complete after invoking UpdateWdtCounte
 437:main.c        ****                                        Put I2CM to sleep mode immediately to save power. */
 438:main.c        ****             }
 439:main.c        ****             else
 440:main.c        ****             {
 441:main.c        ****                 ProcessI2CEvents();
 442:main.c        ****             }
 443:main.c        ****         }
 444:main.c        ****         else
 445:main.c        **** #endif
 446:main.c        ****         /* If I2C sensor is disabled or sensor setting is off. */
 447:main.c        ****         {
 448:main.c        ****             ProcessBeaconEvents();
 449:main.c        ****         }
 450:main.c        ****     }
 451:main.c        **** }
 452:main.c        **** 
 453:main.c        **** #if I2C_SENSOR_ENABLE
 454:main.c        **** /******************************************************************************
 455:main.c        **** * Function Name: ProcessI2CEvents
 456:main.c        **** *******************************************************************************
 457:main.c        **** *
 458:main.c        **** * Summary:
 459:main.c        **** *   This function handles I2C events according to current state and update the 
 460:main.c        **** *   state value.
 461:main.c        **** *
 462:main.c        **** * Parameters:
 463:main.c        **** *   None
 464:main.c        **** *
 465:main.c        **** * Return:
 466:main.c        **** *   None
 467:main.c        **** *
 468:main.c        **** ******************************************************************************/
 469:main.c        **** void ProcessI2CEvents(void)
 470:main.c        **** {
 471:main.c        ****     CYBLE_API_RESULT_T apiResult = CYBLE_ERROR_OK;
 472:main.c        ****     
 473:main.c        ****     switch(i2c_state)
 474:main.c        ****     {
 475:main.c        ****         /* Initialise I2CM and the sensor */
 476:main.c        ****         case I2C_START:
 477:main.c        ****             /* Handle the case if I2C_COUNTER triggers a new interrupt. */
 478:main.c        ****             if(wdt_trigger_on_flag)
 479:main.c        ****             {
 480:main.c        ****                 I2CM_Start();
 481:main.c        **** 
 482:main.c        ****                 I2C_buffer[SI7020_WRITE_REG_INDEX_CMD]  = SI7020_WRITE_USER_REG;
 483:main.c        ****                 I2C_buffer[SI7020_WRITE_REG_INDEX_DATA] = USER_REG_SETTING;
 484:main.c        ****                 I2CM_I2CMasterWriteBuf(SI7020_SLAVE_ADDR, 
 485:main.c        ****                                        I2C_buffer, 
 486:main.c        ****                                        SI7020_WRITE_REG_SEND_LEN, 
ARM GAS  C:\Users\ramanatg\AppData\Local\Temp\cc9tuycg.s 			page 11


 487:main.c        ****                                        I2CM_I2C_MODE_COMPLETE_XFER);
 488:main.c        **** 
 489:main.c        ****                 UpdateWdtCounter1(I2C_COUNT_PERIOD_20MS);
 490:main.c        ****                 
 491:main.c        ****                 /* Set next I2C state */
 492:main.c        ****                 i2c_state = I2C_READ_HUMIDITY_SEND_CMD;
 493:main.c        ****             }
 494:main.c        ****             break;
 495:main.c        ****         
 496:main.c        ****         /* Perform "Measure Relative Humidity" command to Si7020 */
 497:main.c        ****         case I2C_READ_HUMIDITY_SEND_CMD:
 498:main.c        ****             /* Handle the case if I2C_COUNTER triggers a new interrupt. */
 499:main.c        ****             if(wdt_trigger_on_flag)
 500:main.c        ****             {
 501:main.c        ****                 I2CM_I2CMasterClearStatus();
 502:main.c        ****                 
 503:main.c        ****                 /* Request RH data from I2C Sensor */
 504:main.c        ****                 I2C_buffer[I2C_BUFFER_HUM_OFFSET_CMD] = SI7020_MEASURE_RH;
 505:main.c        ****                 I2CM_I2CMasterWriteBuf(SI7020_SLAVE_ADDR, 
 506:main.c        ****                                        &I2C_buffer[I2C_BUFFER_HUM_OFFSET_CMD], 
 507:main.c        ****                                        SI7020_MEASURE_RH_SEND_LEN, 
 508:main.c        ****                                        I2CM_I2C_MODE_COMPLETE_XFER);
 509:main.c        ****                 
 510:main.c        ****                 UpdateWdtCounter1(I2C_COUNT_PERIOD_20MS);
 511:main.c        ****                 
 512:main.c        ****                 /* Set next I2C state */
 513:main.c        ****                 i2c_state = I2C_READ_HUMIDITY_RECV_DATA;
 514:main.c        ****             }
 515:main.c        ****             break;
 516:main.c        ****         
 517:main.c        ****         /* Read back "Measure Relative Humidity" result from Si7020 */
 518:main.c        ****         case I2C_READ_HUMIDITY_RECV_DATA:
 519:main.c        ****             /* Handle the case if I2C_COUNTER triggers a new interrupt. */
 520:main.c        ****             if(wdt_trigger_on_flag)
 521:main.c        ****             {
 522:main.c        ****                 /* Read RH data from I2C Sensor */
 523:main.c        ****                 I2CM_I2CMasterReadBuf(SI7020_SLAVE_ADDR, 
 524:main.c        ****                                       &I2C_buffer[I2C_BUFFER_HUM_OFFSET_DATA], 
 525:main.c        ****                                       SI7020_MEASURE_RH_RECV_LEN, 
 526:main.c        ****                                       I2CM_I2C_MODE_COMPLETE_XFER);
 527:main.c        ****                 
 528:main.c        ****                 UpdateWdtCounter1(I2C_COUNT_PERIOD_20MS);
 529:main.c        ****                 
 530:main.c        ****                 /* Set next I2C state */
 531:main.c        ****                 i2c_state = I2C_READ_TEMP_SEND_CMD;
 532:main.c        ****             }
 533:main.c        ****             break;
 534:main.c        ****         
 535:main.c        ****         /* Perform "Read Temperature Value" command to Si7020 */
 536:main.c        ****         case I2C_READ_TEMP_SEND_CMD:
 537:main.c        ****             /* Handle the case if I2C_COUNTER triggers a new interrupt. */
 538:main.c        ****             if(wdt_trigger_on_flag)
 539:main.c        ****             {
 540:main.c        ****                 I2CM_I2CMasterClearStatus();
 541:main.c        ****                 
 542:main.c        ****                 /* Request Temperature data from I2C Sensor */
 543:main.c        ****                 I2C_buffer[I2C_BUFFER_TEM_OFFSET_CMD] = SI7020_READ_TEMP;
ARM GAS  C:\Users\ramanatg\AppData\Local\Temp\cc9tuycg.s 			page 12


 544:main.c        ****                 I2CM_I2CMasterWriteBuf(SI7020_SLAVE_ADDR, 
 545:main.c        ****                                        &I2C_buffer[I2C_BUFFER_TEM_OFFSET_DATA], 
 546:main.c        ****                                        SI7020_READ_TEMP_SEND_LEN, 
 547:main.c        ****                                        I2CM_I2C_MODE_COMPLETE_XFER);
 548:main.c        **** 
 549:main.c        ****                 UpdateWdtCounter1(I2C_COUNT_PERIOD_20MS);
 550:main.c        ****                 
 551:main.c        ****                 /* Set next I2C state */
 552:main.c        ****                 i2c_state = I2C_READ_TEMP_RECV_DATA;
 553:main.c        ****             }
 554:main.c        ****             break;
 555:main.c        ****         
 556:main.c        ****         /* Read back "Read Temperature Value" result from Si7020 */
 557:main.c        ****         case I2C_READ_TEMP_RECV_DATA:
 558:main.c        ****             /* Handle the case if I2C_COUNTER triggers a new interrupt. */
 559:main.c        ****             if(wdt_trigger_on_flag)
 560:main.c        ****             {
 561:main.c        ****                 /* Read Temperature data from I2C Sensor */
 562:main.c        ****                 I2CM_I2CMasterReadBuf(SI7020_SLAVE_ADDR, 
 563:main.c        ****                                       &I2C_buffer[I2C_BUFFER_TEM_OFFSET_DATA], 
 564:main.c        ****                                       SI7020_READ_TEMP_RECV_LEN, 
 565:main.c        ****                                       I2CM_I2C_MODE_COMPLETE_XFER);
 566:main.c        ****                 
 567:main.c        ****                 UpdateWdtCounter1(I2C_COUNT_PERIOD_20MS);
 568:main.c        ****                 
 569:main.c        ****                 /* Set next I2C state */
 570:main.c        ****                 i2c_state = I2C_START_ADV;
 571:main.c        ****             }
 572:main.c        ****             break;
 573:main.c        ****         
 574:main.c        ****         /* Start BLEBeacon or Eddystone-UID Advertisement */
 575:main.c        ****         case I2C_START_ADV:
 576:main.c        ****             /* Handle the case if I2C_COUNTER triggers a new interrupt. */
 577:main.c        ****             if(wdt_trigger_on_flag)
 578:main.c        ****             {
 579:main.c        ****                 I2CM_I2CMasterClearStatus();
 580:main.c        ****                 
 581:main.c        ****                 /* If the interval is 0, don't advertise any data. */
 582:main.c        ****                 if(CFG_interval == 0)
 583:main.c        ****                 {
 584:main.c        ****                     /* Set next I2C state */
 585:main.c        ****                     i2c_state = I2C_WAIT;
 586:main.c        ****                     
 587:main.c        ****                     UpdateWdtCounter1(I2C_COUNT_PERIOD_1S);
 588:main.c        ****                     
 589:main.c        ****                     break;
 590:main.c        ****                 }
 591:main.c        ****                 /* If BLEBeacon mode is chosen, prepare the data according to BLEBeacon format. */
 592:main.c        ****                 else if(pCFG->mode == ADV_MODE_BLEBEACON)
 593:main.c        ****                 {
 594:main.c        ****                      /* Update RH index of ADV packet with a new value */
 595:main.c        ****                     cyBle_discoveryData.advData[ADDR_HUM_OFFSET] = I2C_buffer[I2C_BUFFER_HUM_OFFSET
 596:main.c        ****                     
 597:main.c        ****                      /* Update Temperature index of ADV packet with a new value */
 598:main.c        ****                     cyBle_discoveryData.advData[ADDR_TEM_OFFSET] = I2C_buffer[I2C_BUFFER_TEM_OFFSET
 599:main.c        ****                     
 600:main.c        ****                     /* Set the next I2C state. */
ARM GAS  C:\Users\ramanatg\AppData\Local\Temp\cc9tuycg.s 			page 13


 601:main.c        ****                     i2c_state = I2C_STOP_ADV;
 602:main.c        ****                 }
 603:main.c        ****                 /* Eddystone mode is chosen, prepare the data according to Eddystone format. */
 604:main.c        ****                 else
 605:main.c        ****                 {
 606:main.c        ****                     ES_ADV_CNT++;
 607:main.c        ****                     ES_SEC_CNT_ms += BEACON_PERIOD_SENS_ON_1FRAME;
 608:main.c        ****                     
 609:main.c        ****                     /* Look for the frame which is advertised first. */
 610:main.c        ****                     /* Eddystone-UID is on. */
 611:main.c        ****                     if(pCFG->frame.UIDisEnabled)
 612:main.c        ****                     {
 613:main.c        ****                         UpdateAdData3(ES_FRAME_TYPE_UID);
 614:main.c        ****                         
 615:main.c        ****                         /* Set the next I2C state. */
 616:main.c        ****                         /* Eddystone-URL is on. */
 617:main.c        ****                         if(pCFG->frame.URLisEnabled)
 618:main.c        ****                         {
 619:main.c        ****                             i2c_state = I2C_ADV_URL;
 620:main.c        ****                         }
 621:main.c        ****                         /* Eddystone-TLM is on. */
 622:main.c        ****                         else if(pCFG->frame.TLMisEnabled)
 623:main.c        ****                         {
 624:main.c        ****                             i2c_state = I2C_ADV_TLM;
 625:main.c        ****                         }
 626:main.c        ****                         /* Only Eddystone-UID is on, stop advertising next time. */
 627:main.c        ****                         else
 628:main.c        ****                         {
 629:main.c        ****                             i2c_state = I2C_STOP_ADV;
 630:main.c        ****                         }
 631:main.c        ****                     }
 632:main.c        ****                     /* Eddystone-UID is off, Eddystone-URL is on. */
 633:main.c        ****                     else if(pCFG->frame.URLisEnabled)
 634:main.c        ****                     {
 635:main.c        ****                         UpdateAdData3(ES_FRAME_TYPE_URL);
 636:main.c        ****                         
 637:main.c        ****                         /* Set the next I2C state. */
 638:main.c        ****                         /* Eddystone-TLM is on. */
 639:main.c        ****                         if(pCFG->frame.TLMisEnabled)
 640:main.c        ****                         {
 641:main.c        ****                             i2c_state = I2C_ADV_TLM;
 642:main.c        ****                         }
 643:main.c        ****                         /* Only Eddystone-URL is on, stop advertising next time. */
 644:main.c        ****                         else
 645:main.c        ****                         {
 646:main.c        ****                             i2c_state = I2C_STOP_ADV;
 647:main.c        ****                         }
 648:main.c        ****                     }
 649:main.c        ****                     /* Only Eddystone-TLM is on. */
 650:main.c        ****                     else
 651:main.c        ****                     {
 652:main.c        ****                         UpdateAdData3(ES_FRAME_TYPE_TLM);
 653:main.c        ****                         
 654:main.c        ****                         /* Set next I2C state */
 655:main.c        ****                         i2c_state = I2C_STOP_ADV;
 656:main.c        ****                     }
 657:main.c        ****                 }
ARM GAS  C:\Users\ramanatg\AppData\Local\Temp\cc9tuycg.s 			page 14


 658:main.c        ****                 
 659:main.c        ****                 apiResult = Beacon_GappStartAdvertisement(CFG_interval);
 660:main.c        ****                 
 661:main.c        ****                 /* We don't need WDT counter to wake the system. BLESS will do it. */
 662:main.c        ****                 CySysWdtUnlock();
 663:main.c        ****                 CySysWdtDisable(CY_SYS_WDT_COUNTER1_MASK);
 664:main.c        ****                 CySysWdtLock();
 665:main.c        ****             }
 666:main.c        ****             break;
 667:main.c        ****         
 668:main.c        ****         /* Advertise Eddystone-URL frame. */
 669:main.c        ****         case I2C_ADV_URL:
 670:main.c        ****             /* Handle the case if BLESS finishes Tx of the last frame. */
 671:main.c        ****             if(CyBle_GetBleSsState() == CYBLE_BLESS_STATE_EVENT_CLOSE)
 672:main.c        ****             {
 673:main.c        ****                 ES_ADV_CNT++;
 674:main.c        ****                 ES_SEC_CNT_ms += CFG_interval;
 675:main.c        ****                 
 676:main.c        ****                 UpdateAdData3(ES_FRAME_TYPE_URL);
 677:main.c        ****                 
 678:main.c        ****                 /* Set the next I2C state. */
 679:main.c        ****                 /* Eddystone-TLM is on. */
 680:main.c        ****                 if(pCFG->frame.TLMisEnabled)
 681:main.c        ****                 {
 682:main.c        ****                     i2c_state = I2C_ADV_TLM;
 683:main.c        ****                 }
 684:main.c        ****                 /* Eddystone-TLM is off, stop advertising next time. */
 685:main.c        ****                 else
 686:main.c        ****                 {
 687:main.c        ****                     i2c_state = I2C_STOP_ADV;
 688:main.c        ****                 }
 689:main.c        ****                 
 690:main.c        ****                 apiResult = CyBle_GapUpdateAdvData(&cyBle_discoveryData, &cyBle_scanRspData);
 691:main.c        ****             }
 692:main.c        ****             break;
 693:main.c        ****         
 694:main.c        ****         /* Advertise Eddystone-TLM frame. */
 695:main.c        ****         case I2C_ADV_TLM:
 696:main.c        ****             /* Handle the case if BLESS finishes Tx of the last frame. */
 697:main.c        ****             if(CyBle_GetBleSsState() == CYBLE_BLESS_STATE_EVENT_CLOSE)
 698:main.c        ****             {
 699:main.c        ****                 ES_ADV_CNT++;
 700:main.c        ****                 ES_SEC_CNT_ms += CFG_interval;
 701:main.c        ****                 
 702:main.c        ****                 UpdateAdData3(ES_FRAME_TYPE_TLM);
 703:main.c        ****                 
 704:main.c        ****                 /* Set next I2C state */
 705:main.c        ****                 i2c_state = I2C_STOP_ADV;
 706:main.c        ****                 
 707:main.c        ****                 apiResult = CyBle_GapUpdateAdvData(&cyBle_discoveryData, &cyBle_scanRspData);
 708:main.c        ****             }
 709:main.c        ****             break;
 710:main.c        ****         
 711:main.c        ****         /* Stop advertisement. */
 712:main.c        ****         case I2C_STOP_ADV:
 713:main.c        ****             /* Handle the case if BLESS finishes Tx of the last frame */
 714:main.c        ****             if(CyBle_GetBleSsState() == CYBLE_BLESS_STATE_EVENT_CLOSE)
ARM GAS  C:\Users\ramanatg\AppData\Local\Temp\cc9tuycg.s 			page 15


 715:main.c        ****             {
 716:main.c        ****                 /* Set next I2C state */
 717:main.c        ****                 i2c_state = I2C_WAIT;
 718:main.c        ****             
 719:main.c        ****                 CyBle_GappStopAdvertisement();
 720:main.c        ****                 
 721:main.c        ****                 UpdateWdtCounter1(I2C_COUNT_PERIOD_1S);
 722:main.c        ****             }
 723:main.c        ****             break;
 724:main.c        ****         
 725:main.c        ****         /* Wait until the solar cell gathers enough power. */
 726:main.c        ****         case I2C_WAIT:
 727:main.c        ****             /* Handle the case if I2C_COUNTER triggers a new interrupt. */
 728:main.c        ****             if(wdt_trigger_on_flag)
 729:main.c        ****             {
 730:main.c        ****                 /* Set next I2C state */
 731:main.c        ****                 i2c_state = I2C_READ_HUMIDITY_SEND_CMD;
 732:main.c        ****             }
 733:main.c        ****             break;
 734:main.c        ****             
 735:main.c        ****         default:
 736:main.c        ****             break;
 737:main.c        ****     }
 738:main.c        ****     
 739:main.c        ****     /* clear wdt_trigger_on_flag if it's set */
 740:main.c        ****     if(wdt_trigger_on_flag)
 741:main.c        ****     {
 742:main.c        ****         wdt_trigger_on_flag = false;
 743:main.c        ****     }
 744:main.c        ****     
 745:main.c        ****     /* If fails to start advertisement or update the advertised data, halt the processor. */
 746:main.c        ****     if(apiResult != CYBLE_ERROR_OK)
 747:main.c        ****     {
 748:main.c        ****         CYASSERT(0);
 749:main.c        ****     }
 750:main.c        **** }
 751:main.c        **** #endif
 752:main.c        **** 
 753:main.c        **** /******************************************************************************
 754:main.c        **** * Function Name: ProcessBeaconEvents
 755:main.c        **** *******************************************************************************
 756:main.c        **** *
 757:main.c        **** * Summary:
 758:main.c        **** *   This function handles Beacon events according to current state and update the 
 759:main.c        **** *   state value.
 760:main.c        **** *
 761:main.c        **** * Parameters:
 762:main.c        **** *   None
 763:main.c        **** *
 764:main.c        **** * Return:
 765:main.c        **** *   None
 766:main.c        **** *
 767:main.c        **** ******************************************************************************/
 768:main.c        **** void ProcessBeaconEvents(void)
 769:main.c        **** {
 770:main.c        ****     CYBLE_API_RESULT_T apiResult = CYBLE_ERROR_OK;
 771:main.c        ****     
ARM GAS  C:\Users\ramanatg\AppData\Local\Temp\cc9tuycg.s 			page 16


 772:main.c        ****     switch(beacon_state)
 773:main.c        ****     {
 774:main.c        ****         /* Wait until the solar cell gets enough power. */
 775:main.c        ****         case BEACON_WAIT:
 776:main.c        ****             /* Handle the case if I2C_COUNTER triggers a new interrupt. */
 777:main.c        ****             if(wdt_trigger_on_flag)
 778:main.c        ****             {
 779:main.c        ****                 wdt_trigger_on_flag = false;
 780:main.c        ****                 
 781:main.c        ****                 /* Set next beacon state */
 782:main.c        ****                 beacon_state = BEACON_START;
 783:main.c        ****             }
 784:main.c        ****             break;
 785:main.c        ****         
 786:main.c        ****         /* Start advertisement. */
 787:main.c        ****         case BEACON_START:
 788:main.c        ****             /* Handle the case if I2C_COUNTER triggers a new interrupt. */
 789:main.c        ****             if(wdt_trigger_on_flag)
 790:main.c        ****             {
 791:main.c        ****                 wdt_trigger_on_flag = false;
 792:main.c        ****                 
 793:main.c        ****                 /* Stop I2C_COUNTER, and start advertisement */
 794:main.c        ****                 CySysWdtUnlock(); /* Unlock the WDT registers for modification */
 795:main.c        ****                 CySysWdtDisable(CY_SYS_WDT_COUNTER1_MASK);
 796:main.c        ****                 CySysWdtLock();
 797:main.c        ****                 
 798:main.c        ****                 /* The default next situation is, updating advertised data isn't needed. */
 799:main.c        ****                 beacon_state = BEACON_RUN;
 800:main.c        ****                 
 801:main.c        ****                 /* If the interval is 0, let the system keep sleeping without any wakeup source, 
 802:main.c        ****                  * so that there's no advertisement. */
 803:main.c        ****                 if(CFG_interval == 0)
 804:main.c        ****                 {
 805:main.c        ****                     return;
 806:main.c        ****                 }
 807:main.c        ****                 
 808:main.c        ****                 /* If Eddystone mode is chosen, update advertised data. */
 809:main.c        ****                 if(pCFG->mode == ADV_MODE_EDDYSTONE)
 810:main.c        ****                 {
 811:main.c        ****                     ES_ADV_CNT++;
 812:main.c        ****                     ES_SEC_CNT_ms += CFG_interval;
 813:main.c        ****                     
 814:main.c        ****                     /* Look for the frame which is advertised first. */
 815:main.c        ****                     /* Eddystone-UID is on. */
 816:main.c        ****                     if(pCFG->frame.UIDisEnabled)
 817:main.c        ****                     {
 818:main.c        ****                         UpdateAdData3(ES_FRAME_TYPE_UID);
 819:main.c        ****                         
 820:main.c        ****                         /* Set next beacon state */
 821:main.c        ****                         /* Eddystone-URL is on. */
 822:main.c        ****                         if(pCFG->frame.URLisEnabled)
 823:main.c        ****                         {
 824:main.c        ****                             beacon_state = BEACON_URL;
 825:main.c        ****                         }
 826:main.c        ****                         /* Eddystone-TLM is on. */
 827:main.c        ****                         else if(pCFG->frame.TLMisEnabled)
 828:main.c        ****                         {
ARM GAS  C:\Users\ramanatg\AppData\Local\Temp\cc9tuycg.s 			page 17


 829:main.c        ****                             beacon_state = BEACON_TLM;
 830:main.c        ****                         }
 831:main.c        ****                         /* Only Eddystone-UID is on. */
 832:main.c        ****                         else
 833:main.c        ****                         {
 834:main.c        ****                             /* beacon_state remains BEACON_RUN. */
 835:main.c        ****                         }
 836:main.c        ****                     }
 837:main.c        ****                     /* Eddystone-UID is off, Eddystone-URL is on. */
 838:main.c        ****                     else if(pCFG->frame.URLisEnabled)
 839:main.c        ****                     {
 840:main.c        ****                         UpdateAdData3(ES_FRAME_TYPE_URL);
 841:main.c        ****                         
 842:main.c        ****                         /* Set next beacon state */
 843:main.c        ****                         /* Eddystone-TLM is on. */
 844:main.c        ****                         if(pCFG->frame.TLMisEnabled)
 845:main.c        ****                         {
 846:main.c        ****                             beacon_state = BEACON_TLM;
 847:main.c        ****                         }
 848:main.c        ****                         /* Only Eddystone-URL is on. */
 849:main.c        ****                         else
 850:main.c        ****                         {
 851:main.c        ****                             /* beacon_state remains BEACON_RUN. */
 852:main.c        ****                         }
 853:main.c        ****                     }
 854:main.c        ****                     /* Only Eddystone-TLM is on. */
 855:main.c        ****                     else
 856:main.c        ****                     {
 857:main.c        ****                         UpdateAdData3(ES_FRAME_TYPE_TLM);
 858:main.c        ****                         
 859:main.c        ****                         /* Set next beacon state */
 860:main.c        ****                         beacon_state = BEACON_TLMCNT;
 861:main.c        ****                     }
 862:main.c        ****                 }
 863:main.c        ****                 /* If EDTest mode is chosen, ignore EDFRAME setting. */
 864:main.c        ****                 else if(pCFG->mode == ADV_MODE_EDDYSTONETEST)
 865:main.c        ****                 {
 866:main.c        ****                     UpdateAdData3(ES_FRAME_TYPE_URL);
 867:main.c        ****                 }
 868:main.c        ****                 
 869:main.c        ****                 apiResult = Beacon_GappStartAdvertisement(CFG_interval);
 870:main.c        ****             }
 871:main.c        ****             break;
 872:main.c        ****             
 873:main.c        ****         /* Update advertisement data to Eddystone-UID frame. */
 874:main.c        ****         case BEACON_UID:
 875:main.c        ****             /* Handle the case if BLESS finishes Tx of the last frame */
 876:main.c        ****             if(CyBle_GetBleSsState() == CYBLE_BLESS_STATE_EVENT_CLOSE)
 877:main.c        ****             {
 878:main.c        ****                 ES_ADV_CNT++;
 879:main.c        ****                 ES_SEC_CNT_ms += CFG_interval;
 880:main.c        ****                 
 881:main.c        ****                 UpdateAdData3(ES_FRAME_TYPE_UID);
 882:main.c        ****                 
 883:main.c        ****                 apiResult = CyBle_GapUpdateAdvData(&cyBle_discoveryData, &cyBle_scanRspData);
 884:main.c        ****                 
 885:main.c        ****                 /* Set next beacon state */
ARM GAS  C:\Users\ramanatg\AppData\Local\Temp\cc9tuycg.s 			page 18


 886:main.c        ****                 /* Check whether the next frame is Eddystone-URL. */
 887:main.c        ****                 if(pCFG->frame.URLisEnabled)
 888:main.c        ****                 {
 889:main.c        ****                     beacon_state = BEACON_URL;
 890:main.c        ****                 }
 891:main.c        ****                 /* The next frame is Eddystone-TLM. */
 892:main.c        ****                 else
 893:main.c        ****                 {
 894:main.c        ****                     beacon_state = BEACON_TLM;
 895:main.c        ****                 }
 896:main.c        ****             }
 897:main.c        ****             break;
 898:main.c        ****             
 899:main.c        ****         /* Update advertisement data to Eddystone-URL frame. */
 900:main.c        ****         case BEACON_URL:
 901:main.c        ****             /* Handle the case if BLESS finishes Tx of the last frame */
 902:main.c        ****             if(CyBle_GetBleSsState() == CYBLE_BLESS_STATE_EVENT_CLOSE)
 903:main.c        ****             {
 904:main.c        ****                 ES_ADV_CNT++;
 905:main.c        ****                 ES_SEC_CNT_ms += CFG_interval;
 906:main.c        ****                 
 907:main.c        ****                 UpdateAdData3(ES_FRAME_TYPE_URL);
 908:main.c        ****                 
 909:main.c        ****                 apiResult = CyBle_GapUpdateAdvData(&cyBle_discoveryData, &cyBle_scanRspData);
 910:main.c        ****                 
 911:main.c        ****                 /* Set next beacon state */
 912:main.c        ****                 /* Check whether the next frame is Eddystone-TLM. */
 913:main.c        ****                 if(pCFG->frame.TLMisEnabled)
 914:main.c        ****                 {
 915:main.c        ****                     beacon_state = BEACON_TLM;
 916:main.c        ****                 }
 917:main.c        ****                 /* The next frame is Eddystone-UID. */
 918:main.c        ****                 else
 919:main.c        ****                 {
 920:main.c        ****                     beacon_state = BEACON_UID;
 921:main.c        ****                 }
 922:main.c        ****             }
 923:main.c        ****             break;
 924:main.c        ****             
 925:main.c        ****         /* Update advertisement data to Eddystone-TLM frame. */
 926:main.c        ****         case BEACON_TLM:
 927:main.c        ****             /* Handle the case if BLESS finishes Tx of the last frame */
 928:main.c        ****             if(CyBle_GetBleSsState() == CYBLE_BLESS_STATE_EVENT_CLOSE)
 929:main.c        ****             {
 930:main.c        ****                 ES_ADV_CNT++;
 931:main.c        ****                 ES_SEC_CNT_ms += CFG_interval;
 932:main.c        ****                 
 933:main.c        ****                 UpdateAdData3(ES_FRAME_TYPE_TLM);
 934:main.c        ****                 
 935:main.c        ****                 apiResult = CyBle_GapUpdateAdvData(&cyBle_discoveryData, &cyBle_scanRspData);
 936:main.c        ****                 
 937:main.c        ****                 /* Set next beacon state */
 938:main.c        ****                 /* Check whether the next frame is Eddystone-UID. */
 939:main.c        ****                 if(pCFG->frame.UIDisEnabled)
 940:main.c        ****                 {
 941:main.c        ****                     beacon_state = BEACON_UID;
 942:main.c        ****                 }
ARM GAS  C:\Users\ramanatg\AppData\Local\Temp\cc9tuycg.s 			page 19


 943:main.c        ****                 /* The next frame is Eddystone-URL. */
 944:main.c        ****                 else
 945:main.c        ****                 {
 946:main.c        ****                     beacon_state = BEACON_URL;
 947:main.c        ****                 }
 948:main.c        ****             }
 949:main.c        ****             break;
 950:main.c        ****             
 951:main.c        ****         /* Only TLM frame is enabled, update ADV_CNT and SEC_CNT. */
 952:main.c        ****         case BEACON_TLMCNT:
 953:main.c        ****             /* Handle the case if BLESS finishes Tx of the last frame */
 954:main.c        ****             if(CyBle_GetBleSsState() == CYBLE_BLESS_STATE_EVENT_CLOSE)
 955:main.c        ****             {
 956:main.c        ****                 ES_ADV_CNT++;
 957:main.c        ****                 ES_SEC_CNT_ms += CFG_interval;
 958:main.c        ****                 
 959:main.c        ****                 /* Update ADV_CNT and SEC_CNT. */
 960:main.c        ****                 UpdateAdData3(ES_FRAME_TYPE_TLM);
 961:main.c        ****                 
 962:main.c        ****                 apiResult = CyBle_GapUpdateAdvData(&cyBle_discoveryData, &cyBle_scanRspData);
 963:main.c        ****             }
 964:main.c        ****             break;
 965:main.c        ****             
 966:main.c        ****         default:
 967:main.c        ****             break;
 968:main.c        ****     }
 969:main.c        ****     
 970:main.c        ****     /* If fails to start or update the advertisement, halt the processor. */
 971:main.c        ****     if(apiResult != CYBLE_ERROR_OK)
 972:main.c        ****     {
 973:main.c        ****         CYASSERT(0);
 974:main.c        ****     }
 975:main.c        **** }
 976:main.c        **** 
 977:main.c        **** /******************************************************************************
 978:main.c        **** * Function Name: ReadAndApplyConfig
 979:main.c        **** *******************************************************************************
 980:main.c        **** *
 981:main.c        **** * Summary:
 982:main.c        **** *   Read configuration in SFlash and apply. Prepare the data to be advertised.
 983:main.c        **** *
 984:main.c        **** * Parameters:
 985:main.c        **** *   None
 986:main.c        **** *
 987:main.c        **** * Return:
 988:main.c        **** *   None
 989:main.c        **** *******************************************************************************/
 990:main.c        **** void ReadAndApplyConfig(void)
 991:main.c        **** {
 992:main.c        ****     /* If UserSFlash is not empty and the storage format isn't older than the firmware 
 993:main.c        ****      * version, use configuration in UserSFlash. */
 994:main.c        ****     if( (pBeaconConfig->DataFlag_End   == SFLASH_DATA_FLAG_VALID) && \
 995:main.c        ****         (pBeaconConfig->DataFlag_Start == SFLASH_DATA_FLAG_VALID) && \
 996:main.c        ****         (pBeaconConfig->version_major_minor1 >= FW_VERSION)          )
 997:main.c        ****     {
 998:main.c        ****         pCFG = pBeaconConfig;
 999:main.c        ****     }
ARM GAS  C:\Users\ramanatg\AppData\Local\Temp\cc9tuycg.s 			page 20


1000:main.c        ****     /* Otherwise default configuration will be used. */
1001:main.c        ****     else
1002:main.c        ****     {
1003:main.c        ****         pCFG = (BeaconConfig *)&DefaultBeaconConfig;
1004:main.c        ****     }
1005:main.c        ****     
1006:main.c        ****     /* If BLEBeacon mode is chosen. */
1007:main.c        ****     if(pCFG->mode == ADV_MODE_BLEBEACON)
1008:main.c        ****     {
1009:main.c        ****         CFG_interval = pCFG->itrvl;
1010:main.c        ****         CFG_txpwr    = pCFG->txpwr;
1011:main.c        **** #if (I2C_SENSOR_ENABLE)
1012:main.c        ****         Sensor_Flag  = pCFG->sensor;
1013:main.c        **** #endif
1014:main.c        ****         
1015:main.c        ****         /* Prepare BLEBeacon data */
1016:main.c        ****         cyBle_discoveryData.advData[BLEBEACON_LENGTH2_OFFSET]     = BLEBEACON_LENGTH2_VALUE;
1017:main.c        ****         cyBle_discoveryData.advData[BLEBEACON_AD_TYPE2_OFFSET]    = BLEBEACON_AD_TYPE2_VALUE;
1018:main.c        ****         cyBle_discoveryData.advData[BLEBEACON_DEVICE_TYPE_OFFSET] = BLEBEACON_DEVICE_TYPE_VALUE;
1019:main.c        ****         cyBle_discoveryData.advData[BLEBEACON_LENGTH3_OFFSET]     = BLEBEACON_LENGTH3_VALUE;
1020:main.c        ****         
1021:main.c        ****         cyBle_discoveryData.advDataLen = BLEBEACON_ADV_LENGTH;
1022:main.c        ****         
1023:main.c        ****         /* Set UUID */
1024:main.c        ****         memcpy(&(cyBle_discoveryData.advData[ADDR_UUID_OFFSET]), pCFG->uuid, sizeof(pCFG->uuid));
1025:main.c        **** 
1026:main.c        ****         /* Apply Little Endian to COID, send Lower Byte first. */
1027:main.c        ****         cyBle_discoveryData.advData[ADDR_COID_OFFSET]     = pCFG->comID & 0xFF;
1028:main.c        ****         cyBle_discoveryData.advData[ADDR_COID_OFFSET + 1] = pCFG->comID >> 8;
1029:main.c        **** 
1030:main.c        ****         /* Apply Big Endian to MAJOR, send Higher Byte first. */
1031:main.c        ****         cyBle_discoveryData.advData[ADDR_MAJOR_OFFSET]     = pCFG->major >> 8;
1032:main.c        ****         cyBle_discoveryData.advData[ADDR_MAJOR_OFFSET + 1] = pCFG->major & 0xFF;
1033:main.c        ****         
1034:main.c        ****         /* Apply Big Endian to MINOR, send Higher Byte first. */
1035:main.c        ****         cyBle_discoveryData.advData[ADDR_MINOR_OFFSET]     = pCFG->minor >> 8;
1036:main.c        ****         cyBle_discoveryData.advData[ADDR_MINOR_OFFSET + 1] = pCFG->minor & 0xFF;
1037:main.c        ****         
1038:main.c        ****         /* Set RSSI */
1039:main.c        ****         cyBle_discoveryData.advData[ADDR_RSSI_OFFSET] = pCFG->rssi;          
1040:main.c        ****     }
1041:main.c        ****     /* Eddystone or EDTest mode is chosen. */
1042:main.c        ****     else
1043:main.c        ****     {
1044:main.c        ****         CFG_interval = pCFG->URLPeriod;
1045:main.c        ****         CFG_txpwr    = pCFG->TXPowerLevels[pCFG->TXPowerMode];
1046:main.c        **** #if (I2C_SENSOR_ENABLE)
1047:main.c        ****         /* If the mode is EDTest, sensor flag is forced to be off. */
1048:main.c        ****         Sensor_Flag  = (pCFG->mode == ADV_MODE_EDDYSTONETEST) ? false : pCFG->sensor;
1049:main.c        **** #endif
1050:main.c        ****         
1051:main.c        ****         /* Service Solicitation data */
1052:main.c        ****         cyBle_discoveryData.advData[ES_ADV_SVC_UUID_INDEX_LEN]  = ES_ADV_SVC_UUID_LENGTH - SIZE_LEN
1053:main.c        ****         cyBle_discoveryData.advData[ES_ADV_SVC_UUID_INDEX_TYPE] = ES_SVC_SOLICITATION;
1054:main.c        ****         cyBle_discoveryData.advData[ES_ADV_SVC_UUID_INDEX_LSB]  = ES_SVC_LSB;
1055:main.c        ****         cyBle_discoveryData.advData[ES_ADV_SVC_UUID_INDEX_MSB]  = ES_SVC_MSB;
1056:main.c        ****         
ARM GAS  C:\Users\ramanatg\AppData\Local\Temp\cc9tuycg.s 			page 21


1057:main.c        ****         /* Eddystone-UID buffer */
1058:main.c        ****         UID_FrameBuffer[ES_ADV_TXPL_INDEX_INFRAME] = pCFG->Adv_TXPowerLevels[pCFG->TXPowerMode];
1059:main.c        ****         memcpy(&(UID_FrameBuffer[ES_NID_INDEX_INFRAME]), pCFG->nid, NID_BYTES);
1060:main.c        ****         memcpy(&(UID_FrameBuffer[ES_BID_INDEX_INFRAME]), pCFG->bid, BID_BYTES);
1061:main.c        ****         
1062:main.c        ****         /* Eddystone-URL buffer */
1063:main.c        ****         URL_FrameBuffer[ES_FRAME_TYPE_INDEX_INFRAME] = ES_FRAME_TYPE_URL | (pCFG->URL_Flags & 0x0F)
1064:main.c        ****         URL_FrameBuffer[ES_ADV_TXPL_INDEX_INFRAME]   = pCFG->Adv_TXPowerLevels[pCFG->TXPowerMode];
1065:main.c        ****         
1066:main.c        ****         URL_FrameBuffer[INDEX_LEN_IN_BLE_AD_DATA] = ES_URI_DATA_INDEX_INFRAME + pCFG->URI_Length - 
1067:main.c        ****         memcpy(&(URL_FrameBuffer[ES_URI_DATA_INDEX_INFRAME]), pCFG->URI_Data, pCFG->URI_Length);
1068:main.c        ****     }
1069:main.c        ****     
1070:main.c        ****     return;
1071:main.c        **** }
1072:main.c        **** 
1073:main.c        **** /******************************************************************************
1074:main.c        **** * Function Name: UpdateTxPowerLeverl
1075:main.c        **** *******************************************************************************
1076:main.c        **** *
1077:main.c        **** * Summary:
1078:main.c        **** *   Set BLE Tx Power level to the expected value.
1079:main.c        **** *
1080:main.c        **** * Parameters:
1081:main.c        **** *   NewLevel - New Tx Power level 
1082:main.c        **** *
1083:main.c        **** * Return:
1084:main.c        **** *   None
1085:main.c        **** *
1086:main.c        **** ******************************************************************************/
1087:main.c        **** void UpdateTxPowerLeverl(int8_t NewLevel)
1088:main.c        **** {
1089:main.c        ****     CYBLE_BLESS_PWR_IN_DB_T t_pwr;
1090:main.c        ****     CYBLE_BLESS_PWR_LVL_T param_pwr;
1091:main.c        ****     
1092:main.c        ****     /* Valid values are -18, -12, -6, -3, -2, -1, 0 and 3 dBm. */
1093:main.c        ****     if(NewLevel == TXPWR_ACCEPTED_VALUE_NEG_18)
1094:main.c        ****     {
1095:main.c        ****         param_pwr = CYBLE_LL_PWR_LVL_NEG_18_DBM;
1096:main.c        ****     }
1097:main.c        ****     else if(NewLevel == TXPWR_ACCEPTED_VALUE_NEG_12)
1098:main.c        ****     {
1099:main.c        ****         param_pwr = CYBLE_LL_PWR_LVL_NEG_12_DBM;
1100:main.c        ****     }
1101:main.c        ****     else if(NewLevel == TXPWR_ACCEPTED_VALUE_NEG_6)
1102:main.c        ****     {
1103:main.c        ****         param_pwr = CYBLE_LL_PWR_LVL_NEG_6_DBM;
1104:main.c        ****     }
1105:main.c        ****     else if(NewLevel == TXPWR_ACCEPTED_VALUE_NEG_3)
1106:main.c        ****     {
1107:main.c        ****         param_pwr = CYBLE_LL_PWR_LVL_NEG_3_DBM;
1108:main.c        ****     }
1109:main.c        ****     else if(NewLevel == TXPWR_ACCEPTED_VALUE_NEG_2)
1110:main.c        ****     {
1111:main.c        ****         param_pwr = CYBLE_LL_PWR_LVL_NEG_2_DBM;
1112:main.c        ****     }
1113:main.c        ****     else if(NewLevel == TXPWR_ACCEPTED_VALUE_NEG_1)
ARM GAS  C:\Users\ramanatg\AppData\Local\Temp\cc9tuycg.s 			page 22


1114:main.c        ****     {
1115:main.c        ****         param_pwr = CYBLE_LL_PWR_LVL_NEG_1_DBM;
1116:main.c        ****     }
1117:main.c        ****     else if(NewLevel == TXPWR_ACCEPTED_VALUE_0)
1118:main.c        ****     {
1119:main.c        ****         param_pwr = CYBLE_LL_PWR_LVL_0_DBM;
1120:main.c        ****     }
1121:main.c        ****     else if(NewLevel == TXPWR_ACCEPTED_VALUE_3)
1122:main.c        ****     {
1123:main.c        ****         param_pwr = CYBLE_LL_PWR_LVL_3_DBM;
1124:main.c        ****     }
1125:main.c        ****     else
1126:main.c        ****     {
1127:main.c        ****         param_pwr = CYBLE_LL_PWR_LVL_MAX;
1128:main.c        ****     }
1129:main.c        ****     t_pwr.blePwrLevelInDbm = param_pwr;
1130:main.c        ****     t_pwr.bleSsChId = CYBLE_LL_ADV_CH_TYPE;
1131:main.c        ****     CyBle_SetTxPowerLevel(&t_pwr);
1132:main.c        ****     
1133:main.c        ****     return;
1134:main.c        **** }
1135:main.c        **** 
1136:main.c        **** /******************************************************************************
1137:main.c        **** * Function Name: Beacon_GappStartAdvertisement
1138:main.c        **** *******************************************************************************
1139:main.c        **** *
1140:main.c        **** * Summary:
1141:main.c        **** *   This function is used to start the advertisement using the given advertising 
1142:main.c        **** *   interval.
1143:main.c        **** *
1144:main.c        **** * Parameters:
1145:main.c        **** *   advertisingInterval - Time in millisecond for advertising interval 
1146:main.c        **** *
1147:main.c        **** * Return:
1148:main.c        **** *   CYBLE_API_RESULT_T - Return value indicates if the function succeeded or 
1149:main.c        **** *   failed. Following are the possible error codes.
1150:main.c        **** *   
1151:main.c        **** *   Errors codes                        Description
1152:main.c        **** *   ------------                        -----------
1153:main.c        **** *   CYBLE_ERROR_OK                      On successful operation.
1154:main.c        **** *   CYBLE_ERROR_INVALID_PARAMETER       On passing an invalid parameter.
1155:main.c        **** ******************************************************************************/
1156:main.c        **** CYBLE_API_RESULT_T Beacon_GappStartAdvertisement(uint32_t advertisingInterval)
1157:main.c        **** {
1158:main.c        ****     uint16_t RegisterIntervalValue;
1159:main.c        ****     
1160:main.c        ****     RegisterIntervalValue = CALC_REG_INTERVAL(advertisingInterval);
1161:main.c        ****     /* Set advertising broadcast interval*/
1162:main.c        ****     cyBle_discoveryModeInfo.advParam->advIntvMin = RegisterIntervalValue;
1163:main.c        ****     cyBle_discoveryModeInfo.advParam->advIntvMax = RegisterIntervalValue;
1164:main.c        **** 
1165:main.c        ****     /* Start advertising */
1166:main.c        ****     return  CyBle_GappStartAdvertisement(CYBLE_ADVERTISING_CUSTOM);
1167:main.c        **** }
1168:main.c        **** 
1169:main.c        **** #if I2C_SENSOR_ENABLE
1170:main.c        **** /******************************************************************************
ARM GAS  C:\Users\ramanatg\AppData\Local\Temp\cc9tuycg.s 			page 23


1171:main.c        **** * Function Name: UpdateWdtCounter1
1172:main.c        **** *******************************************************************************
1173:main.c        **** *
1174:main.c        **** * Summary:
1175:main.c        **** *   This function update the setting of WDT counter 1 and restart it.
1176:main.c        **** *
1177:main.c        **** * Parameters:
1178:main.c        **** *   match - The value to be used to match against the counter.
1179:main.c        **** *
1180:main.c        **** * Return:
1181:main.c        **** *   None
1182:main.c        **** *
1183:main.c        **** ******************************************************************************/
1184:main.c        **** static void UpdateWdtCounter1(uint32_t match)
1185:main.c        **** {
1186:main.c        ****     CySysWdtUnlock();
1187:main.c        ****     CySysWdtDisable(CY_SYS_WDT_COUNTER1_MASK);
1188:main.c        ****     CySysWdtWriteMode(I2C_COUNTER, CY_SYS_WDT_MODE_INT);
1189:main.c        ****     CySysWdtWriteClearOnMatch(I2C_COUNTER, COUNTER_ENABLE);
1190:main.c        ****     CySysWdtWriteMatch(I2C_COUNTER, match);
1191:main.c        ****     CySysWdtEnable(CY_SYS_WDT_COUNTER1_MASK);
1192:main.c        ****     CySysWdtLock();            
1193:main.c        **** }
1194:main.c        **** #endif
1195:main.c        **** 
1196:main.c        **** /******************************************************************************
1197:main.c        **** * Function Name: UpdateAdData3
1198:main.c        **** *******************************************************************************
1199:main.c        **** *
1200:main.c        **** * Summary:
1201:main.c        **** *   This function is used to update the advertisement data buffer, including 
1202:main.c        **** *   humidity and temperature if SENSOR is ON.
1203:main.c        **** *
1204:main.c        **** * Parameters:
1205:main.c        **** *   NewEdFrame - The new Eddystone frame type. The valid value is ES_FRAME_TYPE_UID,
1206:main.c        **** *                ES_FRAME_TYPE_URL or ES_FRAME_TYPE_TLM.
1207:main.c        **** *
1208:main.c        **** * Return:
1209:main.c        **** *   None
1210:main.c        **** ******************************************************************************/
1211:main.c        **** void UpdateAdData3(uint8_t NewEdFrame)
  84              		.loc 1 1211 0
  85              		.cfi_startproc
  86              	.LVL4:
  87 0000 F8B5     		push	{r3, r4, r5, r6, r7, lr}
  88              		.cfi_def_cfa_offset 24
  89              		.cfi_offset 3, -24
  90              		.cfi_offset 4, -20
  91              		.cfi_offset 5, -16
  92              		.cfi_offset 6, -12
  93              		.cfi_offset 7, -8
  94              		.cfi_offset 14, -4
1212:main.c        **** {
1213:main.c        ****     switch(NewEdFrame)
1214:main.c        ****     {
1215:main.c        ****         /* Update cyBle_discoveryData to be Eddystone-UID frame. */
1216:main.c        ****         case ES_FRAME_TYPE_UID:
ARM GAS  C:\Users\ramanatg\AppData\Local\Temp\cc9tuycg.s 			page 24


1217:main.c        ****             memcpy(&(cyBle_discoveryData.advData[ES_FRAME_OFFSET]), 
1218:main.c        ****                    UID_FrameBuffer, 
1219:main.c        ****                    sizeof(UID_FrameBuffer));
1220:main.c        ****             
1221:main.c        ****             /* ADV packet length */
1222:main.c        ****             cyBle_discoveryData.advDataLen = ES_ADV_FLAGS_LENGTH + 
1223:main.c        ****                                              ES_ADV_SVC_UUID_LENGTH + 
1224:main.c        ****                                              ES_UID_FRAME_ARRAY_LENGTH;
1225:main.c        ****             break;
1226:main.c        ****         
1227:main.c        ****         /* Update cyBle_discoveryData to be Eddystone-URL frame. */
1228:main.c        ****         case ES_FRAME_TYPE_URL:
1229:main.c        ****             memcpy(&(cyBle_discoveryData.advData[ES_FRAME_OFFSET]), 
1230:main.c        ****                    URL_FrameBuffer, 
1231:main.c        ****                    URL_FrameBuffer[INDEX_LEN_IN_BLE_AD_DATA] + SIZE_LEN_IN_BLE_AD_DATA);
1232:main.c        ****         
1233:main.c        ****             /* ADV packet length */
1234:main.c        ****             cyBle_discoveryData.advDataLen = ES_ADV_FLAGS_LENGTH +    \
1235:main.c        ****                                              ES_ADV_SVC_UUID_LENGTH + \
1236:main.c        ****                                              URL_FrameBuffer[INDEX_LEN_IN_BLE_AD_DATA] + SIZE_LEN_I
1237:main.c        ****             break;
1238:main.c        ****         
1239:main.c        ****         /* Update cyBle_discoveryData to be Eddystone-TLM frame. */
1240:main.c        ****         case ES_FRAME_TYPE_TLM:
1241:main.c        ****             memcpy(&(cyBle_discoveryData.advData[ES_FRAME_OFFSET]), 
  95              		.loc 1 1241 0
  96 0002 1F4C     		ldr	r4, .L19
  97 0004 1F49     		ldr	r1, .L19+4
  98 0006 1222     		mov	r2, #18
  99 0008 E01D     		add	r0, r4, #7
 100 000a FFF7FEFF 		bl	memcpy
 101              	.LVL5:
1242:main.c        ****                    DefaultTLMframe, 
1243:main.c        ****                    sizeof(DefaultTLMframe));
1244:main.c        ****             
1245:main.c        ****             cyBle_discoveryData.advData[ES_TLM_INDEX_ADV_CNT]     = GET_BYTE1_BIG_ENDIAN(ES_ADV_CNT
 102              		.loc 1 1245 0
 103 000e 1E4E     		ldr	r6, .L19+8
1246:main.c        ****             cyBle_discoveryData.advData[ES_TLM_INDEX_ADV_CNT + 1] = GET_BYTE2_BIG_ENDIAN(ES_ADV_CNT
1247:main.c        ****             cyBle_discoveryData.advData[ES_TLM_INDEX_ADV_CNT + 2] = GET_BYTE3_BIG_ENDIAN(ES_ADV_CNT
1248:main.c        ****             cyBle_discoveryData.advData[ES_TLM_INDEX_ADV_CNT + 3] = GET_BYTE4_BIG_ENDIAN(ES_ADV_CNT
1249:main.c        ****             
1250:main.c        ****             ES_SEC_CNT   += ES_SEC_CNT_ms / RATIO_0_1SEC_TO_MS;
 104              		.loc 1 1250 0
 105 0010 6421     		mov	r1, #100
1245:main.c        ****             cyBle_discoveryData.advData[ES_TLM_INDEX_ADV_CNT + 1] = GET_BYTE2_BIG_ENDIAN(ES_ADV_CNT
 106              		.loc 1 1245 0
 107 0012 7368     		ldr	r3, [r6, #4]
 108              		.loc 1 1250 0
 109 0014 B768     		ldr	r7, [r6, #8]
1245:main.c        ****             cyBle_discoveryData.advData[ES_TLM_INDEX_ADV_CNT + 1] = GET_BYTE2_BIG_ENDIAN(ES_ADV_CNT
 110              		.loc 1 1245 0
 111 0016 1A0E     		lsr	r2, r3, #24
 112 0018 6274     		strb	r2, [r4, #17]
1246:main.c        ****             cyBle_discoveryData.advData[ES_TLM_INDEX_ADV_CNT + 1] = GET_BYTE2_BIG_ENDIAN(ES_ADV_CNT
 113              		.loc 1 1246 0
 114 001a 1A0C     		lsr	r2, r3, #16
ARM GAS  C:\Users\ramanatg\AppData\Local\Temp\cc9tuycg.s 			page 25


 115 001c A274     		strb	r2, [r4, #18]
1247:main.c        ****             cyBle_discoveryData.advData[ES_TLM_INDEX_ADV_CNT + 3] = GET_BYTE4_BIG_ENDIAN(ES_ADV_CNT
 116              		.loc 1 1247 0
 117 001e 1A0A     		lsr	r2, r3, #8
 118 0020 E274     		strb	r2, [r4, #19]
1248:main.c        ****             
 119              		.loc 1 1248 0
 120 0022 2375     		strb	r3, [r4, #20]
 121              		.loc 1 1250 0
 122 0024 381C     		mov	r0, r7
 123 0026 FFF7FEFF 		bl	__aeabi_uidiv
 124              	.LVL6:
 125 002a F368     		ldr	r3, [r6, #12]
1251:main.c        ****             ES_SEC_CNT_ms = ES_SEC_CNT_ms % RATIO_0_1SEC_TO_MS;
 126              		.loc 1 1251 0
 127 002c 6421     		mov	r1, #100
1250:main.c        ****             ES_SEC_CNT_ms = ES_SEC_CNT_ms % RATIO_0_1SEC_TO_MS;
 128              		.loc 1 1250 0
 129 002e C518     		add	r5, r0, r3
 130 0030 F560     		str	r5, [r6, #12]
 131              		.loc 1 1251 0
 132 0032 381C     		mov	r0, r7
 133 0034 FFF7FEFF 		bl	__aeabi_uidivmod
 134              	.LVL7:
1252:main.c        ****             
1253:main.c        ****             cyBle_discoveryData.advData[ES_TLM_INDEX_SEC_CNT]     = GET_BYTE1_BIG_ENDIAN(ES_SEC_CNT
 135              		.loc 1 1253 0
 136 0038 2B0E     		lsr	r3, r5, #24
 137 003a 6375     		strb	r3, [r4, #21]
1254:main.c        ****             cyBle_discoveryData.advData[ES_TLM_INDEX_SEC_CNT + 1] = GET_BYTE2_BIG_ENDIAN(ES_SEC_CNT
 138              		.loc 1 1254 0
 139 003c 2B0C     		lsr	r3, r5, #16
 140 003e A375     		strb	r3, [r4, #22]
1255:main.c        ****             cyBle_discoveryData.advData[ES_TLM_INDEX_SEC_CNT + 2] = GET_BYTE3_BIG_ENDIAN(ES_SEC_CNT
 141              		.loc 1 1255 0
 142 0040 2B0A     		lsr	r3, r5, #8
 143 0042 E375     		strb	r3, [r4, #23]
1256:main.c        ****             cyBle_discoveryData.advData[ES_TLM_INDEX_SEC_CNT + 3] = GET_BYTE4_BIG_ENDIAN(ES_SEC_CNT
1257:main.c        ****             
1258:main.c        ****             /* ADV packet length */
1259:main.c        ****             cyBle_discoveryData.advDataLen = ES_ADV_FLAGS_LENGTH + 
 144              		.loc 1 1259 0
 145 0044 1923     		mov	r3, #25
 146 0046 E377     		strb	r3, [r4, #31]
1260:main.c        ****                                              ES_ADV_SVC_UUID_LENGTH + 
1261:main.c        ****                                              ES_TLM_FRAME_ARRAY_LENGTH;
1262:main.c        ****             
1263:main.c        **** #if I2C_SENSOR_ENABLE
1264:main.c        ****             /* If I2C sensor is enabled and sensor setting is on. */
1265:main.c        ****             if(Sensor_Flag)
 147              		.loc 1 1265 0
 148 0048 104B     		ldr	r3, .L19+12
1251:main.c        ****             
 149              		.loc 1 1251 0
 150 004a B160     		str	r1, [r6, #8]
 151              		.loc 1 1265 0
 152 004c 1B78     		ldrb	r3, [r3]
ARM GAS  C:\Users\ramanatg\AppData\Local\Temp\cc9tuycg.s 			page 26


1256:main.c        ****             cyBle_discoveryData.advData[ES_TLM_INDEX_SEC_CNT + 3] = GET_BYTE4_BIG_ENDIAN(ES_SEC_CNT
 153              		.loc 1 1256 0
 154 004e 2576     		strb	r5, [r4, #24]
 155              		.loc 1 1265 0
 156 0050 5BB2     		sxtb	r3, r3
 157 0052 002B     		cmp	r3, #0
 158 0054 12D0     		beq	.L14
 159              	.LVL8:
 160              	.LBB11:
1266:main.c        ****             {
1267:main.c        ****                 uint16_t temp;
1268:main.c        ****                 int16_t temperature;
1269:main.c        ****                 
1270:main.c        ****                 /* Calculate Temperature. */
1271:main.c        ****                 temp = (I2C_buffer[I2C_BUFFER_TEM_OFFSET_DATA] << 8) | 
 161              		.loc 1 1271 0
 162 0056 0E4B     		ldr	r3, .L19+16
1272:main.c        ****                         I2C_buffer[I2C_BUFFER_TEM_OFFSET_DATA + 1];
1273:main.c        ****                 temperature = CALC_TEMP_100(temp);
1274:main.c        ****                 temperature = FLOAT100_TO_FLOAT256(temperature);
 163              		.loc 1 1274 0
 164 0058 6421     		mov	r1, #100
1271:main.c        ****                         I2C_buffer[I2C_BUFFER_TEM_OFFSET_DATA + 1];
 165              		.loc 1 1271 0
 166 005a 9878     		ldrb	r0, [r3, #2]
 167 005c DB78     		ldrb	r3, [r3, #3]
 168 005e 0002     		lsl	r0, r0, #8
1273:main.c        ****                 temperature = FLOAT100_TO_FLOAT256(temperature);
 169              		.loc 1 1273 0
 170 0060 1843     		orr	r0, r3
 171 0062 0C4B     		ldr	r3, .L19+20
 172 0064 5843     		mul	r0, r3
 173 0066 0C4B     		ldr	r3, .L19+24
 174 0068 0014     		asr	r0, r0, #16
 175 006a 9C46     		mov	ip, r3
 176 006c 6044     		add	r0, r0, ip
 177              		.loc 1 1274 0
 178 006e 00B2     		sxth	r0, r0
 179 0070 0002     		lsl	r0, r0, #8
 180 0072 FFF7FEFF 		bl	__aeabi_idiv
 181              	.LVL9:
1275:main.c        ****                 
1276:main.c        ****                 cyBle_discoveryData.advData[ES_TLM_INDEX_TEMP_MSB] = temperature >> 8;
 182              		.loc 1 1276 0
 183 0076 030A     		lsr	r3, r0, #8
 184 0078 E373     		strb	r3, [r4, #15]
1277:main.c        ****                 cyBle_discoveryData.advData[ES_TLM_INDEX_TEMP_LSB] = temperature & 0xFF;
 185              		.loc 1 1277 0
 186 007a 2074     		strb	r0, [r4, #16]
 187              	.LVL10:
 188              	.L14:
 189              	.LBE11:
1278:main.c        ****             }
1279:main.c        **** #endif
1280:main.c        ****             break;
1281:main.c        ****         
1282:main.c        ****         default:
ARM GAS  C:\Users\ramanatg\AppData\Local\Temp\cc9tuycg.s 			page 27


1283:main.c        ****             break;
1284:main.c        ****     }
1285:main.c        **** }
 190              		.loc 1 1285 0
 191              		@ sp needed
 192 007c F8BD     		pop	{r3, r4, r5, r6, r7, pc}
 193              	.L20:
 194 007e C046     		.align	2
 195              	.L19:
 196 0080 00000000 		.word	cyBle_discoveryData
 197 0084 44000000 		.word	.LANCHOR1
 198 0088 00000000 		.word	.LANCHOR0
 199 008c 00000000 		.word	Sensor_Flag
 200 0090 00000000 		.word	I2C_buffer
 201 0094 A4440000 		.word	17572
 202 0098 B3EDFFFF 		.word	-4685
 203              		.cfi_endproc
 204              	.LFE51:
 205              		.size	UpdateAdData3.part.2, .-UpdateAdData3.part.2
 206              		.section	.text.BLE_AppEventHandler,"ax",%progbits
 207              		.align	2
 208              		.global	BLE_AppEventHandler
 209              		.code	16
 210              		.thumb_func
 211              		.type	BLE_AppEventHandler, %function
 212              	BLE_AppEventHandler:
 213              	.LFB37:
 126:main.c        ****     (void)eventParam;
 214              		.loc 1 126 0
 215              		.cfi_startproc
 216              	.LVL11:
 217 0000 10B5     		push	{r4, lr}
 218              		.cfi_def_cfa_offset 8
 219              		.cfi_offset 4, -8
 220              		.cfi_offset 14, -4
 221 0002 82B0     		sub	sp, sp, #8
 222              		.cfi_def_cfa_offset 16
 129:main.c        ****     {
 223              		.loc 1 129 0
 224 0004 0128     		cmp	r0, #1
 225 0006 01D0     		beq	.L34
 226              	.LVL12:
 227              	.L21:
 158:main.c        **** 
 228              		.loc 1 158 0
 229 0008 02B0     		add	sp, sp, #8
 230              		@ sp needed
 231 000a 10BD     		pop	{r4, pc}
 232              	.LVL13:
 233              	.L34:
 234              	.LBB16:
 235              	.LBB17:
 138:main.c        ****             
 236              		.loc 1 138 0
 237 000c 204C     		ldr	r4, .L35
 238 000e 217C     		ldrb	r1, [r4, #16]
 239              	.LVL14:
ARM GAS  C:\Users\ramanatg\AppData\Local\Temp\cc9tuycg.s 			page 28


 240              	.LBB18:
 241              	.LBB19:
1093:main.c        ****     {
 242              		.loc 1 1093 0
 243 0010 4BB2     		sxtb	r3, r1
 244 0012 1A1C     		mov	r2, r3
 245 0014 1232     		add	r2, r2, #18
 246 0016 2ED0     		beq	.L25
1097:main.c        ****     {
 247              		.loc 1 1097 0
 248 0018 1A1C     		mov	r2, r3
 249 001a 0C32     		add	r2, r2, #12
 250 001c 2DD0     		beq	.L26
1101:main.c        ****     {
 251              		.loc 1 1101 0
 252 001e 9A1D     		add	r2, r3, #6
 253 0020 2FD0     		beq	.L27
1105:main.c        ****     {
 254              		.loc 1 1105 0
 255 0022 DA1C     		add	r2, r3, #3
 256 0024 2BD0     		beq	.L28
1109:main.c        ****     {
 257              		.loc 1 1109 0
 258 0026 9A1C     		add	r2, r3, #2
 259 0028 2DD0     		beq	.L29
1113:main.c        ****     {
 260              		.loc 1 1113 0
 261 002a 5A1C     		add	r2, r3, #1
 262 002c 2DD0     		beq	.L30
1119:main.c        ****     }
 263              		.loc 1 1119 0
 264 002e 0722     		mov	r2, #7
1117:main.c        ****     {
 265              		.loc 1 1117 0
 266 0030 0029     		cmp	r1, #0
 267 0032 04D0     		beq	.L24
1127:main.c        ****     }
 268              		.loc 1 1127 0
 269 0034 033B     		sub	r3, r3, #3
 270 0036 5A42     		neg	r2, r3
 271 0038 5341     		adc	r3, r3, r2
 272 003a 0922     		mov	r2, #9
 273 003c D21A     		sub	r2, r2, r3
 274              	.L24:
 275              	.LVL15:
1130:main.c        ****     CyBle_SetTxPowerLevel(&t_pwr);
 276              		.loc 1 1130 0
 277 003e 0023     		mov	r3, #0
1129:main.c        ****     t_pwr.bleSsChId = CYBLE_LL_ADV_CH_TYPE;
 278              		.loc 1 1129 0
 279 0040 01A8     		add	r0, sp, #4
 280              	.LVL16:
 281 0042 0270     		strb	r2, [r0]
1130:main.c        ****     CyBle_SetTxPowerLevel(&t_pwr);
 282              		.loc 1 1130 0
 283 0044 4370     		strb	r3, [r0, #1]
1131:main.c        ****     
ARM GAS  C:\Users\ramanatg\AppData\Local\Temp\cc9tuycg.s 			page 29


 284              		.loc 1 1131 0
 285 0046 FFF7FEFF 		bl	CyBle_SetTxPowerLevel
 286              	.LVL17:
 287              	.LBE19:
 288              	.LBE18:
 140:main.c        ****             
 289              		.loc 1 140 0
 290 004a 0123     		mov	r3, #1
 291 004c 6374     		strb	r3, [r4, #17]
 142:main.c        ****             
 292              		.loc 1 142 0
 293 004e FFF7FEFF 		bl	CySysWdtUnlock
 294              	.LVL18:
 144:main.c        ****             
 295              		.loc 1 144 0
 296 0052 0020     		mov	r0, #0
 297 0054 0121     		mov	r1, #1
 298 0056 FFF7FEFF 		bl	CySysWdtSetMode
 299              	.LVL19:
 146:main.c        ****             
 300              		.loc 1 146 0
 301 005a 0020     		mov	r0, #0
 302 005c 0121     		mov	r1, #1
 303 005e FFF7FEFF 		bl	CySysWdtSetClearOnMatch
 304              	.LVL20:
 148:main.c        ****             
 305              		.loc 1 148 0
 306 0062 0C49     		ldr	r1, .L35+4
 307 0064 0020     		mov	r0, #0
 308 0066 FFF7FEFF 		bl	CySysWdtSetMatch
 309              	.LVL21:
 150:main.c        ****             
 310              		.loc 1 150 0
 311 006a 0120     		mov	r0, #1
 312 006c FFF7FEFF 		bl	CySysWdtEnable
 313              	.LVL22:
 152:main.c        ****             break;
 314              		.loc 1 152 0
 315 0070 FFF7FEFF 		bl	CySysWdtLock
 316              	.LVL23:
 317 0074 C8E7     		b	.L21
 318              	.LVL24:
 319              	.L25:
 320              	.LBB21:
 321              	.LBB20:
1095:main.c        ****     }
 322              		.loc 1 1095 0
 323 0076 0122     		mov	r2, #1
 324 0078 E1E7     		b	.L24
 325              	.L26:
1099:main.c        ****     }
 326              		.loc 1 1099 0
 327 007a 0222     		mov	r2, #2
 328 007c DFE7     		b	.L24
 329              	.L28:
1107:main.c        ****     }
 330              		.loc 1 1107 0
ARM GAS  C:\Users\ramanatg\AppData\Local\Temp\cc9tuycg.s 			page 30


 331 007e 0422     		mov	r2, #4
 332 0080 DDE7     		b	.L24
 333              	.L27:
1103:main.c        ****     }
 334              		.loc 1 1103 0
 335 0082 0322     		mov	r2, #3
 336 0084 DBE7     		b	.L24
 337              	.L29:
1111:main.c        ****     }
 338              		.loc 1 1111 0
 339 0086 0522     		mov	r2, #5
 340 0088 D9E7     		b	.L24
 341              	.L30:
1115:main.c        ****     }
 342              		.loc 1 1115 0
 343 008a 0622     		mov	r2, #6
 344 008c D7E7     		b	.L24
 345              	.L36:
 346 008e C046     		.align	2
 347              	.L35:
 348 0090 00000000 		.word	.LANCHOR0
 349 0094 CB0C0000 		.word	3275
 350              	.LBE20:
 351              	.LBE21:
 352              	.LBE17:
 353              	.LBE16:
 354              		.cfi_endproc
 355              	.LFE37:
 356              		.size	BLE_AppEventHandler, .-BLE_AppEventHandler
 357              		.section	.text.LowPower_WCO_ECO_Start,"ax",%progbits
 358              		.align	2
 359              		.global	LowPower_WCO_ECO_Start
 360              		.code	16
 361              		.thumb_func
 362              		.type	LowPower_WCO_ECO_Start, %function
 363              	LowPower_WCO_ECO_Start:
 364              	.LFB39:
 205:main.c        ****     /* Do the following:
 365              		.loc 1 205 0
 366              		.cfi_startproc
 367 0000 08B5     		push	{r3, lr}
 368              		.cfi_def_cfa_offset 8
 369              		.cfi_offset 3, -8
 370              		.cfi_offset 14, -4
 215:main.c        ****     
 371              		.loc 1 215 0
 372 0002 FFF7FEFF 		bl	CySysClkEcoStop
 373              	.LVL25:
 217:main.c        ****     
 374              		.loc 1 217 0
 375 0006 2148     		ldr	r0, .L38
 376 0008 FFF7FEFF 		bl	WDT_Interrupt_StartEx
 377              	.LVL26:
 219:main.c        ****     
 378              		.loc 1 219 0
 379 000c FFF7FEFF 		bl	CySysClkWcoStart
 380              	.LVL27:
ARM GAS  C:\Users\ramanatg\AppData\Local\Temp\cc9tuycg.s 			page 31


 221:main.c        ****     
 381              		.loc 1 221 0
 382 0010 FFF7FEFF 		bl	CySysWdtUnlock
 383              	.LVL28:
 223:main.c        ****     CySysWdtWriteClearOnMatch(SOURCE_COUNTER, COUNTER_ENABLE);
 384              		.loc 1 223 0
 385 0014 0020     		mov	r0, #0
 386 0016 0121     		mov	r1, #1
 387 0018 FFF7FEFF 		bl	CySysWdtSetMode
 388              	.LVL29:
 224:main.c        ****     CySysWdtWriteMatch(SOURCE_COUNTER, COUNT_PERIOD_WCO);
 389              		.loc 1 224 0
 390 001c 0020     		mov	r0, #0
 391 001e 0121     		mov	r1, #1
 392 0020 FFF7FEFF 		bl	CySysWdtSetClearOnMatch
 393              	.LVL30:
 225:main.c        ****     
 394              		.loc 1 225 0
 395 0024 1A49     		ldr	r1, .L38+4
 396 0026 0020     		mov	r0, #0
 397 0028 FFF7FEFF 		bl	CySysWdtSetMatch
 398              	.LVL31:
 227:main.c        ****     
 399              		.loc 1 227 0
 400 002c 0120     		mov	r0, #1
 401 002e FFF7FEFF 		bl	CySysWdtEnable
 402              	.LVL32:
 229:main.c        ****     
 403              		.loc 1 229 0
 404 0032 FFF7FEFF 		bl	CySysWdtLock
 405              	.LVL33:
 231:main.c        ****     
 406              		.loc 1 231 0
 407 0036 FFF7FEFF 		bl	CySysPmDeepSleep
 408              	.LVL34:
 233:main.c        ****     
 409              		.loc 1 233 0
 410 003a 0120     		mov	r0, #1
 411 003c FFF7FEFF 		bl	CySysClkWcoSetPowerMode
 412              	.LVL35:
 236:main.c        ****     CySysClkSetLfclkSource(CY_SYS_CLK_LFCLK_SRC_WCO);   /* LFCLK is now driven by WCO */
 413              		.loc 1 236 0
 414 0040 FFF7FEFF 		bl	CySysWdtUnlock
 415              	.LVL36:
 237:main.c        ****     CySysWdtLock();
 416              		.loc 1 237 0
 417 0044 8020     		mov	r0, #128
 418 0046 C005     		lsl	r0, r0, #23
 419 0048 FFF7FEFF 		bl	CySysClkSetLfclkSource
 420              	.LVL37:
 238:main.c        ****     
 421              		.loc 1 238 0
 422 004c FFF7FEFF 		bl	CySysWdtLock
 423              	.LVL38:
 240:main.c        ****     
 424              		.loc 1 240 0
 425 0050 FFF7FEFF 		bl	CySysClkIloStop
ARM GAS  C:\Users\ramanatg\AppData\Local\Temp\cc9tuycg.s 			page 32


 426              	.LVL39:
 242:main.c        ****     
 427              		.loc 1 242 0
 428 0054 0020     		mov	r0, #0
 429 0056 FFF7FEFF 		bl	CySysClkEcoStart
 430              	.LVL40:
 244:main.c        ****     
 431              		.loc 1 244 0
 432 005a FFF7FEFF 		bl	CySysWdtUnlock
 433              	.LVL41:
 246:main.c        ****     
 434              		.loc 1 246 0
 435 005e 0120     		mov	r0, #1
 436 0060 FFF7FEFF 		bl	CySysWdtDisable
 437              	.LVL42:
 248:main.c        ****     
 438              		.loc 1 248 0
 439 0064 7321     		mov	r1, #115
 440 0066 0020     		mov	r0, #0
 441 0068 FFF7FEFF 		bl	CySysWdtSetMatch
 442              	.LVL43:
 250:main.c        ****     
 443              		.loc 1 250 0
 444 006c 0120     		mov	r0, #1
 445 006e FFF7FEFF 		bl	CySysWdtEnable
 446              	.LVL44:
 252:main.c        ****     
 447              		.loc 1 252 0
 448 0072 FFF7FEFF 		bl	CySysWdtLock
 449              	.LVL45:
 254:main.c        ****     
 450              		.loc 1 254 0
 451 0076 FFF7FEFF 		bl	CySysPmDeepSleep
 452              	.LVL46:
 257:main.c        ****     CySysWdtDisable(CY_SYS_WDT_COUNTER0_MASK);
 453              		.loc 1 257 0
 454 007a FFF7FEFF 		bl	CySysWdtUnlock
 455              	.LVL47:
 258:main.c        ****     CySysWdtLock();
 456              		.loc 1 258 0
 457 007e 0120     		mov	r0, #1
 458 0080 FFF7FEFF 		bl	CySysWdtDisable
 459              	.LVL48:
 260:main.c        **** 
 460              		.loc 1 260 0
 461              		@ sp needed
 259:main.c        **** }
 462              		.loc 1 259 0
 463 0084 FFF7FEFF 		bl	CySysWdtLock
 464              	.LVL49:
 260:main.c        **** 
 465              		.loc 1 260 0
 466 0088 08BD     		pop	{r3, pc}
 467              	.L39:
 468 008a C046     		.align	2
 469              	.L38:
 470 008c 00000000 		.word	WDT_Handler
ARM GAS  C:\Users\ramanatg\AppData\Local\Temp\cc9tuycg.s 			page 33


 471 0090 FF3F0000 		.word	16383
 472              		.cfi_endproc
 473              	.LFE39:
 474              		.size	LowPower_WCO_ECO_Start, .-LowPower_WCO_ECO_Start
 475              		.section	.text.LowPowerSleep,"ax",%progbits
 476              		.align	2
 477              		.global	LowPowerSleep
 478              		.code	16
 479              		.thumb_func
 480              		.type	LowPowerSleep, %function
 481              	LowPowerSleep:
 482              	.LFB40:
 275:main.c        ****     CYBLE_LP_MODE_T pwrState;
 483              		.loc 1 275 0
 484              		.cfi_startproc
 485              	.LVL50:
 486 0000 38B5     		push	{r3, r4, r5, lr}
 487              		.cfi_def_cfa_offset 16
 488              		.cfi_offset 3, -16
 489              		.cfi_offset 4, -12
 490              		.cfi_offset 5, -8
 491              		.cfi_offset 14, -4
 280:main.c        **** 
 492              		.loc 1 280 0
 493 0002 0320     		mov	r0, #3
 494 0004 FFF7FEFF 		bl	CyBle_EnterLPM
 495              	.LVL51:
 496 0008 051C     		mov	r5, r0
 497              	.LVL52:
 282:main.c        ****     
 498              		.loc 1 282 0
 499 000a FFF7FEFF 		bl	CyEnterCriticalSection
 500              	.LVL53:
 501 000e 041C     		mov	r4, r0
 502              	.LVL54:
 284:main.c        ****     /* Make sure BLESS is in Deep-Sleep before configuring system in Deep-Sleep mode */
 503              		.loc 1 284 0
 504 0010 FFF7FEFF 		bl	CyBle_GetBleSsState
 505              	.LVL55:
 286:main.c        ****     {
 506              		.loc 1 286 0
 507 0014 032D     		cmp	r5, #3
 508 0016 11D0     		beq	.L46
 297:main.c        ****     {
 509              		.loc 1 297 0
 510 0018 0228     		cmp	r0, #2
 511 001a 0BD0     		beq	.L42
 300:main.c        ****         
 512              		.loc 1 300 0
 513 001c 0220     		mov	r0, #2
 514              	.LVL56:
 515 001e FFF7FEFF 		bl	CySysClkWriteHfclkDirect
 516              	.LVL57:
 303:main.c        ****       
 517              		.loc 1 303 0
 518 0022 FFF7FEFF 		bl	CySysClkImoStop
 519              	.LVL58:
ARM GAS  C:\Users\ramanatg\AppData\Local\Temp\cc9tuycg.s 			page 34


 306:main.c        ****        
 520              		.loc 1 306 0
 521 0026 FFF7FEFF 		bl	CySysPmSleep
 522              	.LVL59:
 309:main.c        ****         
 523              		.loc 1 309 0
 524 002a FFF7FEFF 		bl	CySysClkImoStart
 525              	.LVL60:
 312:main.c        ****     }
 526              		.loc 1 312 0
 527 002e 0020     		mov	r0, #0
 528 0030 FFF7FEFF 		bl	CySysClkWriteHfclkDirect
 529              	.LVL61:
 530              	.L42:
 315:main.c        ****     
 531              		.loc 1 315 0
 532 0034 201C     		mov	r0, r4
 533 0036 FFF7FEFF 		bl	CyExitCriticalSection
 534              	.LVL62:
 318:main.c        **** 
 535              		.loc 1 318 0
 536              		@ sp needed
 537              	.LVL63:
 538              	.LVL64:
 539 003a 38BD     		pop	{r3, r4, r5, pc}
 540              	.LVL65:
 541              	.L46:
 290:main.c        ****         {
 542              		.loc 1 290 0
 543 003c FD23     		mov	r3, #253
 544 003e 1840     		and	r0, r3
 545              	.LVL66:
 546 0040 0428     		cmp	r0, #4
 547 0042 F7D1     		bne	.L42
 292:main.c        ****         }
 548              		.loc 1 292 0
 549 0044 FFF7FEFF 		bl	CySysPmDeepSleep
 550              	.LVL67:
 551 0048 F4E7     		b	.L42
 552              		.cfi_endproc
 553              	.LFE40:
 554              		.size	LowPowerSleep, .-LowPowerSleep
 555 004a C046     		.section	.text.ProcessI2CEvents,"ax",%progbits
 556              		.align	2
 557              		.global	ProcessI2CEvents
 558              		.code	16
 559              		.thumb_func
 560              		.type	ProcessI2CEvents, %function
 561              	ProcessI2CEvents:
 562              	.LFB42:
 470:main.c        ****     CYBLE_API_RESULT_T apiResult = CYBLE_ERROR_OK;
 563              		.loc 1 470 0
 564              		.cfi_startproc
 565              	.LVL68:
 566 0000 F8B5     		push	{r3, r4, r5, r6, r7, lr}
 567              		.cfi_def_cfa_offset 24
 568              		.cfi_offset 3, -24
ARM GAS  C:\Users\ramanatg\AppData\Local\Temp\cc9tuycg.s 			page 35


 569              		.cfi_offset 4, -20
 570              		.cfi_offset 5, -16
 571              		.cfi_offset 6, -12
 572              		.cfi_offset 7, -8
 573              		.cfi_offset 14, -4
 574 0002 4F46     		mov	r7, r9
 575 0004 4646     		mov	r6, r8
 473:main.c        ****     {
 576              		.loc 1 473 0
 577 0006 D94C     		ldr	r4, .L112
 470:main.c        ****     CYBLE_API_RESULT_T apiResult = CYBLE_ERROR_OK;
 578              		.loc 1 470 0
 579 0008 C0B4     		push	{r6, r7}
 580              		.cfi_def_cfa_offset 32
 581              		.cfi_offset 8, -32
 582              		.cfi_offset 9, -28
 473:main.c        ****     {
 583              		.loc 1 473 0
 584 000a A37C     		ldrb	r3, [r4, #18]
 585 000c 092B     		cmp	r3, #9
 586 000e 08D8     		bhi	.L48
 587 0010 D74A     		ldr	r2, .L112+4
 588 0012 9B00     		lsl	r3, r3, #2
 589 0014 D358     		ldr	r3, [r2, r3]
 590 0016 9F46     		mov	pc, r3
 591              		.section	.rodata
 592              		.align	2
 593              	.L50:
 594 0000 92000000 		.word	.L49
 595 0004 E8000000 		.word	.L51
 596 0008 3A010000 		.word	.L52
 597 000c 86010000 		.word	.L53
 598 0010 DC010000 		.word	.L54
 599 0014 28020000 		.word	.L55
 600 0018 18000000 		.word	.L56
 601 001c 8A020000 		.word	.L57
 602 0020 40000000 		.word	.L58
 603 0024 84000000 		.word	.L59
 604              		.section	.text.ProcessI2CEvents
 605              	.L56:
 671:main.c        ****             {
 606              		.loc 1 671 0
 607 0018 FFF7FEFF 		bl	CyBle_GetBleSsState
 608              	.LVL69:
 609 001c 0228     		cmp	r0, #2
 610 001e 00D1     		bne	.LCB499
 611 0020 4AE1     		b	.L109	@long jump
 612              	.LCB499:
 613              	.L48:
 614 0022 2378     		ldrb	r3, [r4]
 615              	.L62:
 740:main.c        ****     {
 616              		.loc 1 740 0
 617 0024 0025     		mov	r5, #0
 618 0026 002B     		cmp	r3, #0
 619 0028 06D0     		beq	.L47
 620              	.LVL70:
ARM GAS  C:\Users\ramanatg\AppData\Local\Temp\cc9tuycg.s 			page 36


 621              	.L76:
 742:main.c        ****     }
 622              		.loc 1 742 0
 623 002a 0023     		mov	r3, #0
 624 002c 2370     		strb	r3, [r4]
 625              	.L77:
 746:main.c        ****     {
 626              		.loc 1 746 0
 627 002e 002D     		cmp	r5, #0
 628 0030 02D0     		beq	.L47
 748:main.c        ****     }
 629              		.loc 1 748 0 discriminator 1
 630 0032 0020     		mov	r0, #0
 631 0034 FFF7FEFF 		bl	CyHalt
 632              	.LVL71:
 633              	.L47:
 750:main.c        **** #endif
 634              		.loc 1 750 0
 635              		@ sp needed
 636 0038 0CBC     		pop	{r2, r3}
 637 003a 9046     		mov	r8, r2
 638 003c 9946     		mov	r9, r3
 639 003e F8BD     		pop	{r3, r4, r5, r6, r7, pc}
 640              	.LVL72:
 641              	.L58:
 714:main.c        ****             {
 642              		.loc 1 714 0
 643 0040 FFF7FEFF 		bl	CyBle_GetBleSsState
 644              	.LVL73:
 645 0044 0228     		cmp	r0, #2
 646 0046 ECD1     		bne	.L48
 717:main.c        ****             
 647              		.loc 1 717 0
 648 0048 0923     		mov	r3, #9
 649 004a A374     		strb	r3, [r4, #18]
 719:main.c        ****                 
 650              		.loc 1 719 0
 651 004c FFF7FEFF 		bl	CyBle_GappStopAdvertisement
 652              	.LVL74:
 653              	.L108:
 654              	.LBB48:
 655              	.LBB49:
1186:main.c        ****     CySysWdtDisable(CY_SYS_WDT_COUNTER1_MASK);
 656              		.loc 1 1186 0
 657 0050 FFF7FEFF 		bl	CySysWdtUnlock
 658              	.LVL75:
1187:main.c        ****     CySysWdtWriteMode(I2C_COUNTER, CY_SYS_WDT_MODE_INT);
 659              		.loc 1 1187 0
 660 0054 8020     		mov	r0, #128
 661 0056 4000     		lsl	r0, r0, #1
 662 0058 FFF7FEFF 		bl	CySysWdtDisable
 663              	.LVL76:
1188:main.c        ****     CySysWdtWriteClearOnMatch(I2C_COUNTER, COUNTER_ENABLE);
 664              		.loc 1 1188 0
 665 005c 0120     		mov	r0, #1
 666 005e 0121     		mov	r1, #1
 667 0060 FFF7FEFF 		bl	CySysWdtSetMode
ARM GAS  C:\Users\ramanatg\AppData\Local\Temp\cc9tuycg.s 			page 37


 668              	.LVL77:
1189:main.c        ****     CySysWdtWriteMatch(I2C_COUNTER, match);
 669              		.loc 1 1189 0
 670 0064 0120     		mov	r0, #1
 671 0066 0121     		mov	r1, #1
 672 0068 FFF7FEFF 		bl	CySysWdtSetClearOnMatch
 673              	.LVL78:
1190:main.c        ****     CySysWdtEnable(CY_SYS_WDT_COUNTER1_MASK);
 674              		.loc 1 1190 0
 675 006c C149     		ldr	r1, .L112+8
 676 006e 0120     		mov	r0, #1
 677 0070 FFF7FEFF 		bl	CySysWdtSetMatch
 678              	.LVL79:
1191:main.c        ****     CySysWdtLock();            
 679              		.loc 1 1191 0
 680 0074 8020     		mov	r0, #128
 681 0076 4000     		lsl	r0, r0, #1
 682 0078 FFF7FEFF 		bl	CySysWdtEnable
 683              	.LVL80:
1192:main.c        **** }
 684              		.loc 1 1192 0
 685 007c FFF7FEFF 		bl	CySysWdtLock
 686              	.LVL81:
 687 0080 2378     		ldrb	r3, [r4]
 688 0082 CFE7     		b	.L62
 689              	.LVL82:
 690              	.L59:
 691              	.LBE49:
 692              	.LBE48:
 728:main.c        ****             {
 693              		.loc 1 728 0
 694 0084 2378     		ldrb	r3, [r4]
 695 0086 002B     		cmp	r3, #0
 696 0088 D6D0     		beq	.L47
 731:main.c        ****             }
 697              		.loc 1 731 0
 698 008a 0123     		mov	r3, #1
 699 008c 0025     		mov	r5, #0
 700 008e A374     		strb	r3, [r4, #18]
 701 0090 CBE7     		b	.L76
 702              	.L49:
 478:main.c        ****             {
 703              		.loc 1 478 0
 704 0092 2378     		ldrb	r3, [r4]
 705 0094 002B     		cmp	r3, #0
 706 0096 CFD0     		beq	.L47
 480:main.c        **** 
 707              		.loc 1 480 0
 708 0098 FFF7FEFF 		bl	I2CM_Start
 709              	.LVL83:
 482:main.c        ****                 I2C_buffer[SI7020_WRITE_REG_INDEX_DATA] = USER_REG_SETTING;
 710              		.loc 1 482 0
 711 009c E623     		mov	r3, #230
 712 009e B649     		ldr	r1, .L112+12
 484:main.c        ****                                        I2C_buffer, 
 713              		.loc 1 484 0
 714 00a0 0222     		mov	r2, #2
ARM GAS  C:\Users\ramanatg\AppData\Local\Temp\cc9tuycg.s 			page 38


 482:main.c        ****                 I2C_buffer[SI7020_WRITE_REG_INDEX_DATA] = USER_REG_SETTING;
 715              		.loc 1 482 0
 716 00a2 0B70     		strb	r3, [r1]
 483:main.c        ****                 I2CM_I2CMasterWriteBuf(SI7020_SLAVE_ADDR, 
 717              		.loc 1 483 0
 718 00a4 AB3B     		sub	r3, r3, #171
 719 00a6 4B70     		strb	r3, [r1, #1]
 484:main.c        ****                                        I2C_buffer, 
 720              		.loc 1 484 0
 721 00a8 4020     		mov	r0, #64
 722 00aa 0023     		mov	r3, #0
 723 00ac FFF7FEFF 		bl	I2CM_I2CMasterWriteBuf
 724              	.LVL84:
 725              	.LBB50:
 726              	.LBB51:
1186:main.c        ****     CySysWdtDisable(CY_SYS_WDT_COUNTER1_MASK);
 727              		.loc 1 1186 0
 728 00b0 FFF7FEFF 		bl	CySysWdtUnlock
 729              	.LVL85:
1187:main.c        ****     CySysWdtWriteMode(I2C_COUNTER, CY_SYS_WDT_MODE_INT);
 730              		.loc 1 1187 0
 731 00b4 8020     		mov	r0, #128
 732 00b6 4000     		lsl	r0, r0, #1
 733 00b8 FFF7FEFF 		bl	CySysWdtDisable
 734              	.LVL86:
1188:main.c        ****     CySysWdtWriteClearOnMatch(I2C_COUNTER, COUNTER_ENABLE);
 735              		.loc 1 1188 0
 736 00bc 0120     		mov	r0, #1
 737 00be 0121     		mov	r1, #1
 738 00c0 FFF7FEFF 		bl	CySysWdtSetMode
 739              	.LVL87:
1189:main.c        ****     CySysWdtWriteMatch(I2C_COUNTER, match);
 740              		.loc 1 1189 0
 741 00c4 0120     		mov	r0, #1
 742 00c6 0121     		mov	r1, #1
 743 00c8 FFF7FEFF 		bl	CySysWdtSetClearOnMatch
 744              	.LVL88:
1190:main.c        ****     CySysWdtEnable(CY_SYS_WDT_COUNTER1_MASK);
 745              		.loc 1 1190 0
 746 00cc AB49     		ldr	r1, .L112+16
 747 00ce 0120     		mov	r0, #1
 748 00d0 FFF7FEFF 		bl	CySysWdtSetMatch
 749              	.LVL89:
1191:main.c        ****     CySysWdtLock();            
 750              		.loc 1 1191 0
 751 00d4 8020     		mov	r0, #128
 752 00d6 4000     		lsl	r0, r0, #1
 753 00d8 FFF7FEFF 		bl	CySysWdtEnable
 754              	.LVL90:
1192:main.c        **** }
 755              		.loc 1 1192 0
 756 00dc FFF7FEFF 		bl	CySysWdtLock
 757              	.LVL91:
 758              	.LBE51:
 759              	.LBE50:
 492:main.c        ****             }
 760              		.loc 1 492 0
ARM GAS  C:\Users\ramanatg\AppData\Local\Temp\cc9tuycg.s 			page 39


 761 00e0 0123     		mov	r3, #1
 762 00e2 A374     		strb	r3, [r4, #18]
 763 00e4 2378     		ldrb	r3, [r4]
 764 00e6 9DE7     		b	.L62
 765              	.LVL92:
 766              	.L51:
 499:main.c        ****             {
 767              		.loc 1 499 0
 768 00e8 2378     		ldrb	r3, [r4]
 769 00ea 002B     		cmp	r3, #0
 770 00ec A4D0     		beq	.L47
 501:main.c        ****                 
 771              		.loc 1 501 0
 772 00ee FFF7FEFF 		bl	I2CM_I2CMasterClearStatus
 773              	.LVL93:
 504:main.c        ****                 I2CM_I2CMasterWriteBuf(SI7020_SLAVE_ADDR, 
 774              		.loc 1 504 0
 775 00f2 F523     		mov	r3, #245
 776 00f4 A049     		ldr	r1, .L112+12
 505:main.c        ****                                        &I2C_buffer[I2C_BUFFER_HUM_OFFSET_CMD], 
 777              		.loc 1 505 0
 778 00f6 0122     		mov	r2, #1
 504:main.c        ****                 I2CM_I2CMasterWriteBuf(SI7020_SLAVE_ADDR, 
 779              		.loc 1 504 0
 780 00f8 0B70     		strb	r3, [r1]
 505:main.c        ****                                        &I2C_buffer[I2C_BUFFER_HUM_OFFSET_CMD], 
 781              		.loc 1 505 0
 782 00fa 4020     		mov	r0, #64
 783 00fc 0023     		mov	r3, #0
 784 00fe FFF7FEFF 		bl	I2CM_I2CMasterWriteBuf
 785              	.LVL94:
 786              	.LBB52:
 787              	.LBB53:
1186:main.c        ****     CySysWdtDisable(CY_SYS_WDT_COUNTER1_MASK);
 788              		.loc 1 1186 0
 789 0102 FFF7FEFF 		bl	CySysWdtUnlock
 790              	.LVL95:
1187:main.c        ****     CySysWdtWriteMode(I2C_COUNTER, CY_SYS_WDT_MODE_INT);
 791              		.loc 1 1187 0
 792 0106 8020     		mov	r0, #128
 793 0108 4000     		lsl	r0, r0, #1
 794 010a FFF7FEFF 		bl	CySysWdtDisable
 795              	.LVL96:
1188:main.c        ****     CySysWdtWriteClearOnMatch(I2C_COUNTER, COUNTER_ENABLE);
 796              		.loc 1 1188 0
 797 010e 0120     		mov	r0, #1
 798 0110 0121     		mov	r1, #1
 799 0112 FFF7FEFF 		bl	CySysWdtSetMode
 800              	.LVL97:
1189:main.c        ****     CySysWdtWriteMatch(I2C_COUNTER, match);
 801              		.loc 1 1189 0
 802 0116 0120     		mov	r0, #1
 803 0118 0121     		mov	r1, #1
 804 011a FFF7FEFF 		bl	CySysWdtSetClearOnMatch
 805              	.LVL98:
1190:main.c        ****     CySysWdtEnable(CY_SYS_WDT_COUNTER1_MASK);
 806              		.loc 1 1190 0
ARM GAS  C:\Users\ramanatg\AppData\Local\Temp\cc9tuycg.s 			page 40


 807 011e 9749     		ldr	r1, .L112+16
 808 0120 0120     		mov	r0, #1
 809 0122 FFF7FEFF 		bl	CySysWdtSetMatch
 810              	.LVL99:
1191:main.c        ****     CySysWdtLock();            
 811              		.loc 1 1191 0
 812 0126 8020     		mov	r0, #128
 813 0128 4000     		lsl	r0, r0, #1
 814 012a FFF7FEFF 		bl	CySysWdtEnable
 815              	.LVL100:
1192:main.c        **** }
 816              		.loc 1 1192 0
 817 012e FFF7FEFF 		bl	CySysWdtLock
 818              	.LVL101:
 819              	.LBE53:
 820              	.LBE52:
 513:main.c        ****             }
 821              		.loc 1 513 0
 822 0132 0223     		mov	r3, #2
 823 0134 A374     		strb	r3, [r4, #18]
 824 0136 2378     		ldrb	r3, [r4]
 825 0138 74E7     		b	.L62
 826              	.LVL102:
 827              	.L52:
 520:main.c        ****             {
 828              		.loc 1 520 0
 829 013a 2378     		ldrb	r3, [r4]
 830 013c 002B     		cmp	r3, #0
 831 013e 00D1     		bne	.LCB694
 832 0140 7AE7     		b	.L47	@long jump
 833              	.LCB694:
 523:main.c        ****                                       &I2C_buffer[I2C_BUFFER_HUM_OFFSET_DATA], 
 834              		.loc 1 523 0
 835 0142 0023     		mov	r3, #0
 836 0144 0222     		mov	r2, #2
 837 0146 8C49     		ldr	r1, .L112+12
 838 0148 4020     		mov	r0, #64
 839 014a FFF7FEFF 		bl	I2CM_I2CMasterReadBuf
 840              	.LVL103:
 841              	.LBB54:
 842              	.LBB55:
1186:main.c        ****     CySysWdtDisable(CY_SYS_WDT_COUNTER1_MASK);
 843              		.loc 1 1186 0
 844 014e FFF7FEFF 		bl	CySysWdtUnlock
 845              	.LVL104:
1187:main.c        ****     CySysWdtWriteMode(I2C_COUNTER, CY_SYS_WDT_MODE_INT);
 846              		.loc 1 1187 0
 847 0152 8020     		mov	r0, #128
 848 0154 4000     		lsl	r0, r0, #1
 849 0156 FFF7FEFF 		bl	CySysWdtDisable
 850              	.LVL105:
1188:main.c        ****     CySysWdtWriteClearOnMatch(I2C_COUNTER, COUNTER_ENABLE);
 851              		.loc 1 1188 0
 852 015a 0120     		mov	r0, #1
 853 015c 0121     		mov	r1, #1
 854 015e FFF7FEFF 		bl	CySysWdtSetMode
 855              	.LVL106:
ARM GAS  C:\Users\ramanatg\AppData\Local\Temp\cc9tuycg.s 			page 41


1189:main.c        ****     CySysWdtWriteMatch(I2C_COUNTER, match);
 856              		.loc 1 1189 0
 857 0162 0120     		mov	r0, #1
 858 0164 0121     		mov	r1, #1
 859 0166 FFF7FEFF 		bl	CySysWdtSetClearOnMatch
 860              	.LVL107:
1190:main.c        ****     CySysWdtEnable(CY_SYS_WDT_COUNTER1_MASK);
 861              		.loc 1 1190 0
 862 016a 8449     		ldr	r1, .L112+16
 863 016c 0120     		mov	r0, #1
 864 016e FFF7FEFF 		bl	CySysWdtSetMatch
 865              	.LVL108:
1191:main.c        ****     CySysWdtLock();            
 866              		.loc 1 1191 0
 867 0172 8020     		mov	r0, #128
 868 0174 4000     		lsl	r0, r0, #1
 869 0176 FFF7FEFF 		bl	CySysWdtEnable
 870              	.LVL109:
1192:main.c        **** }
 871              		.loc 1 1192 0
 872 017a FFF7FEFF 		bl	CySysWdtLock
 873              	.LVL110:
 874              	.LBE55:
 875              	.LBE54:
 531:main.c        ****             }
 876              		.loc 1 531 0
 877 017e 0323     		mov	r3, #3
 878 0180 A374     		strb	r3, [r4, #18]
 879 0182 2378     		ldrb	r3, [r4]
 880 0184 4EE7     		b	.L62
 881              	.LVL111:
 882              	.L53:
 538:main.c        ****             {
 883              		.loc 1 538 0
 884 0186 2378     		ldrb	r3, [r4]
 885 0188 002B     		cmp	r3, #0
 886 018a 00D1     		bne	.LCB740
 887 018c 54E7     		b	.L47	@long jump
 888              	.LCB740:
 540:main.c        ****                 
 889              		.loc 1 540 0
 890 018e FFF7FEFF 		bl	I2CM_I2CMasterClearStatus
 891              	.LVL112:
 543:main.c        ****                 I2CM_I2CMasterWriteBuf(SI7020_SLAVE_ADDR, 
 892              		.loc 1 543 0
 893 0192 E023     		mov	r3, #224
 894 0194 7849     		ldr	r1, .L112+12
 544:main.c        ****                                        &I2C_buffer[I2C_BUFFER_TEM_OFFSET_DATA], 
 895              		.loc 1 544 0
 896 0196 0122     		mov	r2, #1
 543:main.c        ****                 I2CM_I2CMasterWriteBuf(SI7020_SLAVE_ADDR, 
 897              		.loc 1 543 0
 898 0198 8B70     		strb	r3, [r1, #2]
 544:main.c        ****                                        &I2C_buffer[I2C_BUFFER_TEM_OFFSET_DATA], 
 899              		.loc 1 544 0
 900 019a 4020     		mov	r0, #64
 901 019c 0023     		mov	r3, #0
ARM GAS  C:\Users\ramanatg\AppData\Local\Temp\cc9tuycg.s 			page 42


 902 019e 0231     		add	r1, r1, #2
 903 01a0 FFF7FEFF 		bl	I2CM_I2CMasterWriteBuf
 904              	.LVL113:
 905              	.LBB56:
 906              	.LBB57:
1186:main.c        ****     CySysWdtDisable(CY_SYS_WDT_COUNTER1_MASK);
 907              		.loc 1 1186 0
 908 01a4 FFF7FEFF 		bl	CySysWdtUnlock
 909              	.LVL114:
1187:main.c        ****     CySysWdtWriteMode(I2C_COUNTER, CY_SYS_WDT_MODE_INT);
 910              		.loc 1 1187 0
 911 01a8 8020     		mov	r0, #128
 912 01aa 4000     		lsl	r0, r0, #1
 913 01ac FFF7FEFF 		bl	CySysWdtDisable
 914              	.LVL115:
1188:main.c        ****     CySysWdtWriteClearOnMatch(I2C_COUNTER, COUNTER_ENABLE);
 915              		.loc 1 1188 0
 916 01b0 0120     		mov	r0, #1
 917 01b2 0121     		mov	r1, #1
 918 01b4 FFF7FEFF 		bl	CySysWdtSetMode
 919              	.LVL116:
1189:main.c        ****     CySysWdtWriteMatch(I2C_COUNTER, match);
 920              		.loc 1 1189 0
 921 01b8 0120     		mov	r0, #1
 922 01ba 0121     		mov	r1, #1
 923 01bc FFF7FEFF 		bl	CySysWdtSetClearOnMatch
 924              	.LVL117:
1190:main.c        ****     CySysWdtEnable(CY_SYS_WDT_COUNTER1_MASK);
 925              		.loc 1 1190 0
 926 01c0 6E49     		ldr	r1, .L112+16
 927 01c2 0120     		mov	r0, #1
 928 01c4 FFF7FEFF 		bl	CySysWdtSetMatch
 929              	.LVL118:
1191:main.c        ****     CySysWdtLock();            
 930              		.loc 1 1191 0
 931 01c8 8020     		mov	r0, #128
 932 01ca 4000     		lsl	r0, r0, #1
 933 01cc FFF7FEFF 		bl	CySysWdtEnable
 934              	.LVL119:
1192:main.c        **** }
 935              		.loc 1 1192 0
 936 01d0 FFF7FEFF 		bl	CySysWdtLock
 937              	.LVL120:
 938              	.LBE57:
 939              	.LBE56:
 552:main.c        ****             }
 940              		.loc 1 552 0
 941 01d4 0423     		mov	r3, #4
 942 01d6 A374     		strb	r3, [r4, #18]
 943 01d8 2378     		ldrb	r3, [r4]
 944 01da 23E7     		b	.L62
 945              	.LVL121:
 946              	.L54:
 559:main.c        ****             {
 947              		.loc 1 559 0
 948 01dc 2378     		ldrb	r3, [r4]
 949 01de 002B     		cmp	r3, #0
ARM GAS  C:\Users\ramanatg\AppData\Local\Temp\cc9tuycg.s 			page 43


 950 01e0 00D1     		bne	.LCB791
 951 01e2 29E7     		b	.L47	@long jump
 952              	.LCB791:
 562:main.c        ****                                       &I2C_buffer[I2C_BUFFER_TEM_OFFSET_DATA], 
 953              		.loc 1 562 0
 954 01e4 0023     		mov	r3, #0
 955 01e6 0222     		mov	r2, #2
 956 01e8 6549     		ldr	r1, .L112+20
 957 01ea 4020     		mov	r0, #64
 958 01ec FFF7FEFF 		bl	I2CM_I2CMasterReadBuf
 959              	.LVL122:
 960              	.LBB58:
 961              	.LBB59:
1186:main.c        ****     CySysWdtDisable(CY_SYS_WDT_COUNTER1_MASK);
 962              		.loc 1 1186 0
 963 01f0 FFF7FEFF 		bl	CySysWdtUnlock
 964              	.LVL123:
1187:main.c        ****     CySysWdtWriteMode(I2C_COUNTER, CY_SYS_WDT_MODE_INT);
 965              		.loc 1 1187 0
 966 01f4 8020     		mov	r0, #128
 967 01f6 4000     		lsl	r0, r0, #1
 968 01f8 FFF7FEFF 		bl	CySysWdtDisable
 969              	.LVL124:
1188:main.c        ****     CySysWdtWriteClearOnMatch(I2C_COUNTER, COUNTER_ENABLE);
 970              		.loc 1 1188 0
 971 01fc 0120     		mov	r0, #1
 972 01fe 0121     		mov	r1, #1
 973 0200 FFF7FEFF 		bl	CySysWdtSetMode
 974              	.LVL125:
1189:main.c        ****     CySysWdtWriteMatch(I2C_COUNTER, match);
 975              		.loc 1 1189 0
 976 0204 0120     		mov	r0, #1
 977 0206 0121     		mov	r1, #1
 978 0208 FFF7FEFF 		bl	CySysWdtSetClearOnMatch
 979              	.LVL126:
1190:main.c        ****     CySysWdtEnable(CY_SYS_WDT_COUNTER1_MASK);
 980              		.loc 1 1190 0
 981 020c 5B49     		ldr	r1, .L112+16
 982 020e 0120     		mov	r0, #1
 983 0210 FFF7FEFF 		bl	CySysWdtSetMatch
 984              	.LVL127:
1191:main.c        ****     CySysWdtLock();            
 985              		.loc 1 1191 0
 986 0214 8020     		mov	r0, #128
 987 0216 4000     		lsl	r0, r0, #1
 988 0218 FFF7FEFF 		bl	CySysWdtEnable
 989              	.LVL128:
1192:main.c        **** }
 990              		.loc 1 1192 0
 991 021c FFF7FEFF 		bl	CySysWdtLock
 992              	.LVL129:
 993              	.LBE59:
 994              	.LBE58:
 570:main.c        ****             }
 995              		.loc 1 570 0
 996 0220 0523     		mov	r3, #5
 997 0222 A374     		strb	r3, [r4, #18]
ARM GAS  C:\Users\ramanatg\AppData\Local\Temp\cc9tuycg.s 			page 44


 998 0224 2378     		ldrb	r3, [r4]
 999 0226 FDE6     		b	.L62
 1000              	.LVL130:
 1001              	.L55:
 577:main.c        ****             {
 1002              		.loc 1 577 0
 1003 0228 2378     		ldrb	r3, [r4]
 1004 022a 002B     		cmp	r3, #0
 1005 022c 00D1     		bne	.LCB837
 1006 022e 03E7     		b	.L47	@long jump
 1007              	.LCB837:
 579:main.c        ****                 
 1008              		.loc 1 579 0
 1009 0230 FFF7FEFF 		bl	I2CM_I2CMasterClearStatus
 1010              	.LVL131:
 582:main.c        ****                 {
 1011              		.loc 1 582 0
 1012 0234 A58A     		ldrh	r5, [r4, #20]
 1013 0236 002D     		cmp	r5, #0
 1014 0238 00D1     		bne	.LCB842
 1015 023a 7FE0     		b	.L110	@long jump
 1016              	.LCB842:
 592:main.c        ****                 {
 1017              		.loc 1 592 0
 1018 023c 1F23     		mov	r3, #31
 1019 023e A669     		ldr	r6, [r4, #24]
 1020 0240 F356     		ldrsb	r3, [r6, r3]
 1021 0242 002B     		cmp	r3, #0
 1022 0244 58D1     		bne	.L65
 595:main.c        ****                     
 1023              		.loc 1 595 0
 1024 0246 4C4A     		ldr	r2, .L112+12
 1025 0248 4E4B     		ldr	r3, .L112+24
 1026 024a 1178     		ldrb	r1, [r2]
 1027 024c D976     		strb	r1, [r3, #27]
 598:main.c        ****                     
 1028              		.loc 1 598 0
 1029 024e 9278     		ldrb	r2, [r2, #2]
 1030 0250 1A77     		strb	r2, [r3, #28]
 601:main.c        ****                 }
 1031              		.loc 1 601 0
 1032 0252 0823     		mov	r3, #8
 1033 0254 A374     		strb	r3, [r4, #18]
 1034              	.L66:
 1035              	.LVL132:
 1036              	.LBB60:
 1037              	.LBB61:
1160:main.c        ****     /* Set advertising broadcast interval*/
 1038              		.loc 1 1160 0
 1039 0256 0521     		mov	r1, #5
 1040 0258 E800     		lsl	r0, r5, #3
 1041 025a FFF7FEFF 		bl	__aeabi_uidiv
 1042              	.LVL133:
1162:main.c        ****     cyBle_discoveryModeInfo.advParam->advIntvMax = RegisterIntervalValue;
 1043              		.loc 1 1162 0
 1044 025e 4A4B     		ldr	r3, .L112+28
1160:main.c        ****     /* Set advertising broadcast interval*/
ARM GAS  C:\Users\ramanatg\AppData\Local\Temp\cc9tuycg.s 			page 45


 1045              		.loc 1 1160 0
 1046 0260 80B2     		uxth	r0, r0
 1047              	.LVL134:
1162:main.c        ****     cyBle_discoveryModeInfo.advParam->advIntvMax = RegisterIntervalValue;
 1048              		.loc 1 1162 0
 1049 0262 5B68     		ldr	r3, [r3, #4]
 1050 0264 1880     		strh	r0, [r3]
1163:main.c        **** 
 1051              		.loc 1 1163 0
 1052 0266 5880     		strh	r0, [r3, #2]
1166:main.c        **** }
 1053              		.loc 1 1166 0
 1054 0268 0220     		mov	r0, #2
 1055              	.LVL135:
 1056 026a FFF7FEFF 		bl	CyBle_GappStartAdvertisement
 1057              	.LVL136:
 1058 026e 051C     		mov	r5, r0
 1059              	.LVL137:
 1060              	.LBE61:
 1061              	.LBE60:
 662:main.c        ****                 CySysWdtDisable(CY_SYS_WDT_COUNTER1_MASK);
 1062              		.loc 1 662 0
 1063 0270 FFF7FEFF 		bl	CySysWdtUnlock
 1064              	.LVL138:
 663:main.c        ****                 CySysWdtLock();
 1065              		.loc 1 663 0
 1066 0274 8020     		mov	r0, #128
 1067 0276 4000     		lsl	r0, r0, #1
 1068 0278 FFF7FEFF 		bl	CySysWdtDisable
 1069              	.LVL139:
 664:main.c        ****             }
 1070              		.loc 1 664 0
 1071 027c FFF7FEFF 		bl	CySysWdtLock
 1072              	.LVL140:
 1073              	.L72:
 740:main.c        ****     {
 1074              		.loc 1 740 0
 1075 0280 2378     		ldrb	r3, [r4]
 1076 0282 002B     		cmp	r3, #0
 1077 0284 00D1     		bne	.LCB896
 1078 0286 D2E6     		b	.L77	@long jump
 1079              	.LCB896:
 1080 0288 CFE6     		b	.L76
 1081              	.LVL141:
 1082              	.L57:
 697:main.c        ****             {
 1083              		.loc 1 697 0
 1084 028a FFF7FEFF 		bl	CyBle_GetBleSsState
 1085              	.LVL142:
 1086 028e 0228     		cmp	r0, #2
 1087 0290 00D0     		beq	.LCB905
 1088 0292 C6E6     		b	.L48	@long jump
 1089              	.LCB905:
 700:main.c        ****                 
 1090              		.loc 1 700 0
 1091 0294 A268     		ldr	r2, [r4, #8]
 699:main.c        ****                 ES_SEC_CNT_ms += CFG_interval;
ARM GAS  C:\Users\ramanatg\AppData\Local\Temp\cc9tuycg.s 			page 46


 1092              		.loc 1 699 0
 1093 0296 6368     		ldr	r3, [r4, #4]
 700:main.c        ****                 
 1094              		.loc 1 700 0
 1095 0298 9446     		mov	ip, r2
 699:main.c        ****                 ES_SEC_CNT_ms += CFG_interval;
 1096              		.loc 1 699 0
 1097 029a 0133     		add	r3, r3, #1
 1098 029c 6360     		str	r3, [r4, #4]
 700:main.c        ****                 
 1099              		.loc 1 700 0
 1100 029e A38A     		ldrh	r3, [r4, #20]
 1101 02a0 6344     		add	r3, r3, ip
 1102 02a2 A360     		str	r3, [r4, #8]
 1103              	.LVL143:
 1104              	.LBB62:
 1105              	.LBB63:
 1106 02a4 FFF7FEFF 		bl	UpdateAdData3.part.2
 1107              	.LVL144:
 1108              	.LBE63:
 1109              	.LBE62:
 705:main.c        ****                 
 1110              		.loc 1 705 0
 1111 02a8 0823     		mov	r3, #8
 707:main.c        ****             }
 1112              		.loc 1 707 0
 1113 02aa 3648     		ldr	r0, .L112+24
 1114 02ac 3749     		ldr	r1, .L112+32
 705:main.c        ****                 
 1115              		.loc 1 705 0
 1116 02ae A374     		strb	r3, [r4, #18]
 707:main.c        ****             }
 1117              		.loc 1 707 0
 1118 02b0 FFF7FEFF 		bl	CyBle_GapUpdateAdvData
 1119              	.LVL145:
 1120 02b4 051C     		mov	r5, r0
 1121              	.LVL146:
 1122 02b6 E3E7     		b	.L72
 1123              	.LVL147:
 1124              	.L109:
 674:main.c        ****                 
 1125              		.loc 1 674 0
 1126 02b8 A268     		ldr	r2, [r4, #8]
 673:main.c        ****                 ES_SEC_CNT_ms += CFG_interval;
 1127              		.loc 1 673 0
 1128 02ba 6368     		ldr	r3, [r4, #4]
 674:main.c        ****                 
 1129              		.loc 1 674 0
 1130 02bc 9446     		mov	ip, r2
 1131              	.LBB64:
 1132              	.LBB65:
1231:main.c        ****         
 1133              		.loc 1 1231 0
 1134 02be 3449     		ldr	r1, .L112+36
 1135              	.LBE65:
 1136              	.LBE64:
 673:main.c        ****                 ES_SEC_CNT_ms += CFG_interval;
ARM GAS  C:\Users\ramanatg\AppData\Local\Temp\cc9tuycg.s 			page 47


 1137              		.loc 1 673 0
 1138 02c0 0133     		add	r3, r3, #1
 1139              	.LBB73:
 1140              	.LBB66:
1231:main.c        ****         
 1141              		.loc 1 1231 0
 1142 02c2 0E7E     		ldrb	r6, [r1, #24]
1229:main.c        ****                    URL_FrameBuffer, 
 1143              		.loc 1 1229 0
 1144 02c4 334D     		ldr	r5, .L112+40
 1145              	.LBE66:
 1146              	.LBE73:
 673:main.c        ****                 ES_SEC_CNT_ms += CFG_interval;
 1147              		.loc 1 673 0
 1148 02c6 6360     		str	r3, [r4, #4]
 674:main.c        ****                 
 1149              		.loc 1 674 0
 1150 02c8 A38A     		ldrh	r3, [r4, #20]
 1151              	.LBB74:
 1152              	.LBB67:
1231:main.c        ****         
 1153              		.loc 1 1231 0
 1154 02ca 721C     		add	r2, r6, #1
 1155              	.LBE67:
 1156              	.LBE74:
 674:main.c        ****                 
 1157              		.loc 1 674 0
 1158 02cc 6344     		add	r3, r3, ip
 1159              	.LBB75:
 1160              	.LBB68:
1229:main.c        ****                    URL_FrameBuffer, 
 1161              		.loc 1 1229 0
 1162 02ce 1831     		add	r1, r1, #24
 1163 02d0 281C     		mov	r0, r5
 1164              	.LBE68:
 1165              	.LBE75:
 674:main.c        ****                 
 1166              		.loc 1 674 0
 1167 02d2 A360     		str	r3, [r4, #8]
 1168              	.LVL148:
 1169              	.LBB76:
 1170              	.LBB69:
1229:main.c        ****                    URL_FrameBuffer, 
 1171              		.loc 1 1229 0
 1172 02d4 FFF7FEFF 		bl	memcpy
 1173              	.LVL149:
 1174              	.LBE69:
 1175              	.LBE76:
 680:main.c        ****                 {
 1176              		.loc 1 680 0
 1177 02d8 3423     		mov	r3, #52
 1178 02da A269     		ldr	r2, [r4, #24]
 1179              	.LBB77:
 1180              	.LBB70:
1234:main.c        ****                                              ES_ADV_SVC_UUID_LENGTH + \
 1181              		.loc 1 1234 0
 1182 02dc E81F     		sub	r0, r5, #7
ARM GAS  C:\Users\ramanatg\AppData\Local\Temp\cc9tuycg.s 			page 48


 1183              	.LBE70:
 1184              	.LBE77:
 680:main.c        ****                 {
 1185              		.loc 1 680 0
 1186 02de D35C     		ldrb	r3, [r2, r3]
 687:main.c        ****                 }
 1187              		.loc 1 687 0
 1188 02e0 0822     		mov	r2, #8
 680:main.c        ****                 {
 1189              		.loc 1 680 0
 1190 02e2 5B07     		lsl	r3, r3, #29
 687:main.c        ****                 }
 1191              		.loc 1 687 0
 1192 02e4 DB0F     		lsr	r3, r3, #31
 1193 02e6 D31A     		sub	r3, r2, r3
 1194              	.LBB78:
 1195              	.LBB71:
1234:main.c        ****                                              ES_ADV_SVC_UUID_LENGTH + \
 1196              		.loc 1 1234 0
 1197 02e8 0836     		add	r6, r6, #8
 1198              	.LBE71:
 1199              	.LBE78:
 690:main.c        ****             }
 1200              		.loc 1 690 0
 1201 02ea 2849     		ldr	r1, .L112+32
 1202              	.LBB79:
 1203              	.LBB72:
1234:main.c        ****                                              ES_ADV_SVC_UUID_LENGTH + \
 1204              		.loc 1 1234 0
 1205 02ec C677     		strb	r6, [r0, #31]
 1206 02ee A374     		strb	r3, [r4, #18]
 1207              	.LBE72:
 1208              	.LBE79:
 690:main.c        ****             }
 1209              		.loc 1 690 0
 1210 02f0 FFF7FEFF 		bl	CyBle_GapUpdateAdvData
 1211              	.LVL150:
 1212 02f4 051C     		mov	r5, r0
 1213              	.LVL151:
 1214 02f6 C3E7     		b	.L72
 1215              	.LVL152:
 1216              	.L65:
 607:main.c        ****                     
 1217              		.loc 1 607 0
 1218 02f8 274A     		ldr	r2, .L112+44
 606:main.c        ****                     ES_SEC_CNT_ms += BEACON_PERIOD_SENS_ON_1FRAME;
 1219              		.loc 1 606 0
 1220 02fa 6368     		ldr	r3, [r4, #4]
 607:main.c        ****                     
 1221              		.loc 1 607 0
 1222 02fc 9446     		mov	ip, r2
 606:main.c        ****                     ES_SEC_CNT_ms += BEACON_PERIOD_SENS_ON_1FRAME;
 1223              		.loc 1 606 0
 1224 02fe 0133     		add	r3, r3, #1
 1225 0300 6360     		str	r3, [r4, #4]
 607:main.c        ****                     
 1226              		.loc 1 607 0
ARM GAS  C:\Users\ramanatg\AppData\Local\Temp\cc9tuycg.s 			page 49


 1227 0302 A368     		ldr	r3, [r4, #8]
 1228 0304 6344     		add	r3, r3, ip
 1229 0306 A360     		str	r3, [r4, #8]
 611:main.c        ****                     {
 1230              		.loc 1 611 0
 1231 0308 3423     		mov	r3, #52
 1232 030a F75C     		ldrb	r7, [r6, r3]
 1233 030c 9846     		mov	r8, r3
 1234 030e FB07     		lsl	r3, r7, #31
 1235 0310 1CD4     		bmi	.L111
 633:main.c        ****                     {
 1236              		.loc 1 633 0
 1237 0312 BB07     		lsl	r3, r7, #30
 1238 0314 15D5     		bpl	.L70
 1239              	.LVL153:
 1240              	.LBB80:
 1241              	.LBB81:
1229:main.c        ****                    URL_FrameBuffer, 
 1242              		.loc 1 1229 0
 1243 0316 1F4B     		ldr	r3, .L112+40
1231:main.c        ****         
 1244              		.loc 1 1231 0
 1245 0318 1D49     		ldr	r1, .L112+36
1229:main.c        ****                    URL_FrameBuffer, 
 1246              		.loc 1 1229 0
 1247 031a 9946     		mov	r9, r3
1231:main.c        ****         
 1248              		.loc 1 1231 0
 1249 031c 0F7E     		ldrb	r7, [r1, #24]
1229:main.c        ****                    URL_FrameBuffer, 
 1250              		.loc 1 1229 0
 1251 031e 181C     		mov	r0, r3
1231:main.c        ****         
 1252              		.loc 1 1231 0
 1253 0320 7A1C     		add	r2, r7, #1
1229:main.c        ****                    URL_FrameBuffer, 
 1254              		.loc 1 1229 0
 1255 0322 1831     		add	r1, r1, #24
 1256 0324 FFF7FEFF 		bl	memcpy
 1257              	.LVL154:
1234:main.c        ****                                              ES_ADV_SVC_UUID_LENGTH + \
 1258              		.loc 1 1234 0
 1259 0328 4B46     		mov	r3, r9
 1260 032a 0837     		add	r7, r7, #8
 1261 032c 1F76     		strb	r7, [r3, #24]
 1262              	.LBE81:
 1263              	.LBE80:
 639:main.c        ****                         {
 1264              		.loc 1 639 0
 1265 032e 4346     		mov	r3, r8
 1266 0330 F35C     		ldrb	r3, [r6, r3]
 1267 0332 5B07     		lsl	r3, r3, #29
 1268 0334 07D5     		bpl	.L107
 1269              	.LVL155:
 1270              	.L71:
 624:main.c        ****                         }
 1271              		.loc 1 624 0
ARM GAS  C:\Users\ramanatg\AppData\Local\Temp\cc9tuycg.s 			page 50


 1272 0336 0723     		mov	r3, #7
 1273 0338 A374     		strb	r3, [r4, #18]
 1274 033a 8CE7     		b	.L66
 1275              	.L110:
 585:main.c        ****                     
 1276              		.loc 1 585 0
 1277 033c 0923     		mov	r3, #9
 1278 033e A374     		strb	r3, [r4, #18]
 1279              	.LVL156:
 1280 0340 86E6     		b	.L108
 1281              	.LVL157:
 1282              	.L70:
 1283              	.LBB82:
 1284              	.LBB83:
 1285 0342 FFF7FEFF 		bl	UpdateAdData3.part.2
 1286              	.LVL158:
 1287              	.L107:
 1288              	.LBE83:
 1289              	.LBE82:
 655:main.c        ****                     }
 1290              		.loc 1 655 0
 1291 0346 0823     		mov	r3, #8
 1292 0348 A374     		strb	r3, [r4, #18]
 1293 034a 84E7     		b	.L66
 1294              	.L111:
 1295              	.LVL159:
 1296              	.LBB84:
 1297              	.LBB85:
1217:main.c        ****                    UID_FrameBuffer, 
 1298              		.loc 1 1217 0
 1299 034c 0D4E     		ldr	r6, .L112+24
 1300 034e 1049     		ldr	r1, .L112+36
 1301 0350 F01D     		add	r0, r6, #7
 1302 0352 1822     		mov	r2, #24
 1303 0354 FFF7FEFF 		bl	memcpy
 1304              	.LVL160:
1222:main.c        ****                                              ES_ADV_SVC_UUID_LENGTH + 
 1305              		.loc 1 1222 0
 1306 0358 1F23     		mov	r3, #31
 1307 035a F377     		strb	r3, [r6, #31]
 1308              	.LBE85:
 1309              	.LBE84:
 617:main.c        ****                         {
 1310              		.loc 1 617 0
 1311 035c BB07     		lsl	r3, r7, #30
 1312 035e 02D5     		bpl	.L68
 619:main.c        ****                         }
 1313              		.loc 1 619 0
 1314 0360 0623     		mov	r3, #6
 1315 0362 A374     		strb	r3, [r4, #18]
 1316 0364 77E7     		b	.L66
 1317              	.L68:
 622:main.c        ****                         {
 1318              		.loc 1 622 0
 1319 0366 7B07     		lsl	r3, r7, #29
 1320 0368 EDD5     		bpl	.L107
 1321 036a E4E7     		b	.L71
ARM GAS  C:\Users\ramanatg\AppData\Local\Temp\cc9tuycg.s 			page 51


 1322              	.L113:
 1323              		.align	2
 1324              	.L112:
 1325 036c 00000000 		.word	.LANCHOR0
 1326 0370 00000000 		.word	.L50
 1327 0374 FF7F0000 		.word	32767
 1328 0378 00000000 		.word	I2C_buffer
 1329 037c 8E020000 		.word	654
 1330 0380 02000000 		.word	I2C_buffer+2
 1331 0384 00000000 		.word	cyBle_discoveryData
 1332 0388 00000000 		.word	cyBle_discoveryModeInfo
 1333 038c 00000000 		.word	cyBle_scanRspData
 1334 0390 00000000 		.word	.LANCHOR2
 1335 0394 07000000 		.word	cyBle_discoveryData+7
 1336 0398 D4170000 		.word	6100
 1337              		.cfi_endproc
 1338              	.LFE42:
 1339              		.size	ProcessI2CEvents, .-ProcessI2CEvents
 1340              		.section	.text.ProcessBeaconEvents,"ax",%progbits
 1341              		.align	2
 1342              		.global	ProcessBeaconEvents
 1343              		.code	16
 1344              		.thumb_func
 1345              		.type	ProcessBeaconEvents, %function
 1346              	ProcessBeaconEvents:
 1347              	.LFB43:
 769:main.c        ****     CYBLE_API_RESULT_T apiResult = CYBLE_ERROR_OK;
 1348              		.loc 1 769 0
 1349              		.cfi_startproc
 1350              	.LVL161:
 1351 0000 F8B5     		push	{r3, r4, r5, r6, r7, lr}
 1352              		.cfi_def_cfa_offset 24
 1353              		.cfi_offset 3, -24
 1354              		.cfi_offset 4, -20
 1355              		.cfi_offset 5, -16
 1356              		.cfi_offset 6, -12
 1357              		.cfi_offset 7, -8
 1358              		.cfi_offset 14, -4
 1359 0002 4F46     		mov	r7, r9
 1360 0004 4646     		mov	r6, r8
 772:main.c        ****     {
 1361              		.loc 1 772 0
 1362 0006 7B4C     		ldr	r4, .L156
 769:main.c        ****     CYBLE_API_RESULT_T apiResult = CYBLE_ERROR_OK;
 1363              		.loc 1 769 0
 1364 0008 C0B4     		push	{r6, r7}
 1365              		.cfi_def_cfa_offset 32
 1366              		.cfi_offset 8, -32
 1367              		.cfi_offset 9, -28
 772:main.c        ****     {
 1368              		.loc 1 772 0
 1369 000a 237F     		ldrb	r3, [r4, #28]
 1370 000c 062B     		cmp	r3, #6
 1371 000e 2FD8     		bhi	.L114
 1372 0010 794A     		ldr	r2, .L156+4
 1373 0012 9B00     		lsl	r3, r3, #2
 1374 0014 D358     		ldr	r3, [r2, r3]
ARM GAS  C:\Users\ramanatg\AppData\Local\Temp\cc9tuycg.s 			page 52


 1375 0016 9F46     		mov	pc, r3
 1376              		.section	.rodata
 1377              		.align	2
 1378              	.L117:
 1379 0028 9E000000 		.word	.L116
 1380 002c 18000000 		.word	.L118
 1381 0030 70000000 		.word	.L114
 1382 0034 AE000000 		.word	.L119
 1383 0038 F0000000 		.word	.L120
 1384 003c 34010000 		.word	.L121
 1385 0040 78000000 		.word	.L122
 1386              		.section	.text.ProcessBeaconEvents
 1387              	.L118:
 789:main.c        ****             {
 1388              		.loc 1 789 0
 1389 0018 2378     		ldrb	r3, [r4]
 1390 001a 002B     		cmp	r3, #0
 1391 001c 28D0     		beq	.L114
 791:main.c        ****                 
 1392              		.loc 1 791 0
 1393 001e 0023     		mov	r3, #0
 1394 0020 2370     		strb	r3, [r4]
 794:main.c        ****                 CySysWdtDisable(CY_SYS_WDT_COUNTER1_MASK);
 1395              		.loc 1 794 0
 1396 0022 FFF7FEFF 		bl	CySysWdtUnlock
 1397              	.LVL162:
 795:main.c        ****                 CySysWdtLock();
 1398              		.loc 1 795 0
 1399 0026 8020     		mov	r0, #128
 799:main.c        ****                 
 1400              		.loc 1 799 0
 1401 0028 0226     		mov	r6, #2
 795:main.c        ****                 CySysWdtLock();
 1402              		.loc 1 795 0
 1403 002a 4000     		lsl	r0, r0, #1
 1404 002c FFF7FEFF 		bl	CySysWdtDisable
 1405              	.LVL163:
 796:main.c        ****                 
 1406              		.loc 1 796 0
 1407 0030 FFF7FEFF 		bl	CySysWdtLock
 1408              	.LVL164:
 803:main.c        ****                 {
 1409              		.loc 1 803 0
 1410 0034 A58A     		ldrh	r5, [r4, #20]
 799:main.c        ****                 
 1411              		.loc 1 799 0
 1412 0036 2677     		strb	r6, [r4, #28]
 803:main.c        ****                 {
 1413              		.loc 1 803 0
 1414 0038 002D     		cmp	r5, #0
 1415 003a 19D0     		beq	.L114
 809:main.c        ****                 {
 1416              		.loc 1 809 0
 1417 003c 1F23     		mov	r3, #31
 1418 003e A769     		ldr	r7, [r4, #24]
 1419 0040 FB56     		ldrsb	r3, [r7, r3]
 1420 0042 012B     		cmp	r3, #1
ARM GAS  C:\Users\ramanatg\AppData\Local\Temp\cc9tuycg.s 			page 53


 1421 0044 00D1     		bne	.LCB1199
 1422 0046 8FE0     		b	.L153	@long jump
 1423              	.LCB1199:
 864:main.c        ****                 {
 1424              		.loc 1 864 0
 1425 0048 022B     		cmp	r3, #2
 1426 004a 00D1     		bne	.LCB1201
 1427 004c AEE0     		b	.L154	@long jump
 1428              	.LCB1201:
 1429              	.L130:
 1430              	.LVL165:
 1431              	.LBB104:
 1432              	.LBB105:
1160:main.c        ****     /* Set advertising broadcast interval*/
 1433              		.loc 1 1160 0
 1434 004e E800     		lsl	r0, r5, #3
 1435 0050 0521     		mov	r1, #5
 1436 0052 FFF7FEFF 		bl	__aeabi_uidiv
 1437              	.LVL166:
1162:main.c        ****     cyBle_discoveryModeInfo.advParam->advIntvMax = RegisterIntervalValue;
 1438              		.loc 1 1162 0
 1439 0056 694B     		ldr	r3, .L156+8
1160:main.c        ****     /* Set advertising broadcast interval*/
 1440              		.loc 1 1160 0
 1441 0058 80B2     		uxth	r0, r0
 1442              	.LVL167:
1162:main.c        ****     cyBle_discoveryModeInfo.advParam->advIntvMax = RegisterIntervalValue;
 1443              		.loc 1 1162 0
 1444 005a 5B68     		ldr	r3, [r3, #4]
 1445 005c 1880     		strh	r0, [r3]
1163:main.c        **** 
 1446              		.loc 1 1163 0
 1447 005e 5880     		strh	r0, [r3, #2]
1166:main.c        **** }
 1448              		.loc 1 1166 0
 1449 0060 0220     		mov	r0, #2
 1450              	.LVL168:
 1451 0062 FFF7FEFF 		bl	CyBle_GappStartAdvertisement
 1452              	.LVL169:
 1453              	.L133:
 1454              	.LBE105:
 1455              	.LBE104:
 971:main.c        ****     {
 1456              		.loc 1 971 0
 1457 0066 0028     		cmp	r0, #0
 1458 0068 02D0     		beq	.L114
 973:main.c        ****     }
 1459              		.loc 1 973 0 discriminator 1
 1460 006a 0020     		mov	r0, #0
 1461              	.LVL170:
 1462 006c FFF7FEFF 		bl	CyHalt
 1463              	.LVL171:
 1464              	.L114:
 975:main.c        **** 
 1465              		.loc 1 975 0
 1466              		@ sp needed
 1467 0070 0CBC     		pop	{r2, r3}
ARM GAS  C:\Users\ramanatg\AppData\Local\Temp\cc9tuycg.s 			page 54


 1468 0072 9046     		mov	r8, r2
 1469 0074 9946     		mov	r9, r3
 1470 0076 F8BD     		pop	{r3, r4, r5, r6, r7, pc}
 1471              	.LVL172:
 1472              	.L122:
 954:main.c        ****             {
 1473              		.loc 1 954 0
 1474 0078 FFF7FEFF 		bl	CyBle_GetBleSsState
 1475              	.LVL173:
 1476 007c 0228     		cmp	r0, #2
 1477 007e F7D1     		bne	.L114
 957:main.c        ****                 
 1478              		.loc 1 957 0
 1479 0080 A268     		ldr	r2, [r4, #8]
 956:main.c        ****                 ES_SEC_CNT_ms += CFG_interval;
 1480              		.loc 1 956 0
 1481 0082 6368     		ldr	r3, [r4, #4]
 957:main.c        ****                 
 1482              		.loc 1 957 0
 1483 0084 9446     		mov	ip, r2
 956:main.c        ****                 ES_SEC_CNT_ms += CFG_interval;
 1484              		.loc 1 956 0
 1485 0086 0133     		add	r3, r3, #1
 1486 0088 6360     		str	r3, [r4, #4]
 957:main.c        ****                 
 1487              		.loc 1 957 0
 1488 008a A38A     		ldrh	r3, [r4, #20]
 1489 008c 6344     		add	r3, r3, ip
 1490 008e A360     		str	r3, [r4, #8]
 1491              	.LVL174:
 1492              	.LBB106:
 1493              	.LBB107:
 1494 0090 FFF7FEFF 		bl	UpdateAdData3.part.2
 1495              	.LVL175:
 1496              	.LBE107:
 1497              	.LBE106:
 962:main.c        ****             }
 1498              		.loc 1 962 0
 1499 0094 5A49     		ldr	r1, .L156+12
 1500 0096 5B48     		ldr	r0, .L156+16
 1501 0098 FFF7FEFF 		bl	CyBle_GapUpdateAdvData
 1502              	.LVL176:
 1503 009c E3E7     		b	.L133
 1504              	.LVL177:
 1505              	.L116:
 777:main.c        ****             {
 1506              		.loc 1 777 0
 1507 009e 2378     		ldrb	r3, [r4]
 1508 00a0 002B     		cmp	r3, #0
 1509 00a2 E5D0     		beq	.L114
 779:main.c        ****                 
 1510              		.loc 1 779 0
 1511 00a4 0023     		mov	r3, #0
 1512 00a6 2370     		strb	r3, [r4]
 782:main.c        ****             }
 1513              		.loc 1 782 0
 1514 00a8 0133     		add	r3, r3, #1
ARM GAS  C:\Users\ramanatg\AppData\Local\Temp\cc9tuycg.s 			page 55


 1515 00aa 2377     		strb	r3, [r4, #28]
 1516 00ac E0E7     		b	.L114
 1517              	.L119:
 876:main.c        ****             {
 1518              		.loc 1 876 0
 1519 00ae FFF7FEFF 		bl	CyBle_GetBleSsState
 1520              	.LVL178:
 1521 00b2 051E     		sub	r5, r0, #0
 1522 00b4 022D     		cmp	r5, #2
 1523 00b6 DBD1     		bne	.L114
 879:main.c        ****                 
 1524              		.loc 1 879 0
 1525 00b8 A268     		ldr	r2, [r4, #8]
 878:main.c        ****                 ES_SEC_CNT_ms += CFG_interval;
 1526              		.loc 1 878 0
 1527 00ba 6368     		ldr	r3, [r4, #4]
 879:main.c        ****                 
 1528              		.loc 1 879 0
 1529 00bc 9446     		mov	ip, r2
 878:main.c        ****                 ES_SEC_CNT_ms += CFG_interval;
 1530              		.loc 1 878 0
 1531 00be 0133     		add	r3, r3, #1
 1532              	.LBB108:
 1533              	.LBB109:
1217:main.c        ****                    UID_FrameBuffer, 
 1534              		.loc 1 1217 0
 1535 00c0 504E     		ldr	r6, .L156+16
 1536              	.LBE109:
 1537              	.LBE108:
 878:main.c        ****                 ES_SEC_CNT_ms += CFG_interval;
 1538              		.loc 1 878 0
 1539 00c2 6360     		str	r3, [r4, #4]
 879:main.c        ****                 
 1540              		.loc 1 879 0
 1541 00c4 A38A     		ldrh	r3, [r4, #20]
 1542              	.LBB114:
 1543              	.LBB110:
1217:main.c        ****                    UID_FrameBuffer, 
 1544              		.loc 1 1217 0
 1545 00c6 1822     		mov	r2, #24
 1546              	.LBE110:
 1547              	.LBE114:
 879:main.c        ****                 
 1548              		.loc 1 879 0
 1549 00c8 6344     		add	r3, r3, ip
 1550              	.LBB115:
 1551              	.LBB111:
1217:main.c        ****                    UID_FrameBuffer, 
 1552              		.loc 1 1217 0
 1553 00ca 4F49     		ldr	r1, .L156+20
 1554 00cc F01D     		add	r0, r6, #7
 1555              	.LBE111:
 1556              	.LBE115:
 879:main.c        ****                 
 1557              		.loc 1 879 0
 1558 00ce A360     		str	r3, [r4, #8]
 1559              	.LVL179:
ARM GAS  C:\Users\ramanatg\AppData\Local\Temp\cc9tuycg.s 			page 56


 1560              	.LBB116:
 1561              	.LBB112:
1217:main.c        ****                    UID_FrameBuffer, 
 1562              		.loc 1 1217 0
 1563 00d0 FFF7FEFF 		bl	memcpy
 1564              	.LVL180:
1222:main.c        ****                                              ES_ADV_SVC_UUID_LENGTH + 
 1565              		.loc 1 1222 0
 1566 00d4 1F23     		mov	r3, #31
 1567              	.LBE112:
 1568              	.LBE116:
 883:main.c        ****                 
 1569              		.loc 1 883 0
 1570 00d6 301C     		mov	r0, r6
 1571 00d8 4949     		ldr	r1, .L156+12
 1572              	.LBB117:
 1573              	.LBB113:
1222:main.c        ****                                              ES_ADV_SVC_UUID_LENGTH + 
 1574              		.loc 1 1222 0
 1575 00da F377     		strb	r3, [r6, #31]
 1576              	.LBE113:
 1577              	.LBE117:
 883:main.c        ****                 
 1578              		.loc 1 883 0
 1579 00dc FFF7FEFF 		bl	CyBle_GapUpdateAdvData
 1580              	.LVL181:
 887:main.c        ****                 {
 1581              		.loc 1 887 0
 1582 00e0 3423     		mov	r3, #52
 1583 00e2 A269     		ldr	r2, [r4, #24]
 1584 00e4 D35C     		ldrb	r3, [r2, r3]
 1585 00e6 1D42     		tst	r5, r3
 1586 00e8 21D0     		beq	.L151
 1587              	.LVL182:
 1588              	.L136:
 946:main.c        ****                 }
 1589              		.loc 1 946 0
 1590 00ea 0423     		mov	r3, #4
 1591 00ec 2377     		strb	r3, [r4, #28]
 1592 00ee BAE7     		b	.L133
 1593              	.LVL183:
 1594              	.L120:
 902:main.c        ****             {
 1595              		.loc 1 902 0
 1596 00f0 FFF7FEFF 		bl	CyBle_GetBleSsState
 1597              	.LVL184:
 1598 00f4 0228     		cmp	r0, #2
 1599 00f6 BBD1     		bne	.L114
 905:main.c        ****                 
 1600              		.loc 1 905 0
 1601 00f8 A268     		ldr	r2, [r4, #8]
 904:main.c        ****                 ES_SEC_CNT_ms += CFG_interval;
 1602              		.loc 1 904 0
 1603 00fa 6368     		ldr	r3, [r4, #4]
 905:main.c        ****                 
 1604              		.loc 1 905 0
 1605 00fc 9446     		mov	ip, r2
ARM GAS  C:\Users\ramanatg\AppData\Local\Temp\cc9tuycg.s 			page 57


 1606              	.LBB118:
 1607              	.LBB119:
1231:main.c        ****         
 1608              		.loc 1 1231 0
 1609 00fe 4249     		ldr	r1, .L156+20
 1610              	.LBE119:
 1611              	.LBE118:
 904:main.c        ****                 ES_SEC_CNT_ms += CFG_interval;
 1612              		.loc 1 904 0
 1613 0100 0133     		add	r3, r3, #1
 1614              	.LBB125:
 1615              	.LBB120:
1231:main.c        ****         
 1616              		.loc 1 1231 0
 1617 0102 0E7E     		ldrb	r6, [r1, #24]
1229:main.c        ****                    URL_FrameBuffer, 
 1618              		.loc 1 1229 0
 1619 0104 414D     		ldr	r5, .L156+24
 1620              	.LBE120:
 1621              	.LBE125:
 904:main.c        ****                 ES_SEC_CNT_ms += CFG_interval;
 1622              		.loc 1 904 0
 1623 0106 6360     		str	r3, [r4, #4]
 905:main.c        ****                 
 1624              		.loc 1 905 0
 1625 0108 A38A     		ldrh	r3, [r4, #20]
 1626              	.LBB126:
 1627              	.LBB121:
1231:main.c        ****         
 1628              		.loc 1 1231 0
 1629 010a 721C     		add	r2, r6, #1
 1630              	.LBE121:
 1631              	.LBE126:
 905:main.c        ****                 
 1632              		.loc 1 905 0
 1633 010c 6344     		add	r3, r3, ip
 1634              	.LBB127:
 1635              	.LBB122:
1229:main.c        ****                    URL_FrameBuffer, 
 1636              		.loc 1 1229 0
 1637 010e 1831     		add	r1, r1, #24
 1638 0110 281C     		mov	r0, r5
 1639              	.LBE122:
 1640              	.LBE127:
 905:main.c        ****                 
 1641              		.loc 1 905 0
 1642 0112 A360     		str	r3, [r4, #8]
 1643              	.LVL185:
 1644              	.LBB128:
 1645              	.LBB123:
1234:main.c        ****                                              ES_ADV_SVC_UUID_LENGTH + \
 1646              		.loc 1 1234 0
 1647 0114 0836     		add	r6, r6, #8
1229:main.c        ****                    URL_FrameBuffer, 
 1648              		.loc 1 1229 0
 1649 0116 FFF7FEFF 		bl	memcpy
 1650              	.LVL186:
ARM GAS  C:\Users\ramanatg\AppData\Local\Temp\cc9tuycg.s 			page 58


1234:main.c        ****                                              ES_ADV_SVC_UUID_LENGTH + \
 1651              		.loc 1 1234 0
 1652 011a E81F     		sub	r0, r5, #7
 1653              	.LBE123:
 1654              	.LBE128:
 909:main.c        ****                 
 1655              		.loc 1 909 0
 1656 011c 3849     		ldr	r1, .L156+12
 1657              	.LBB129:
 1658              	.LBB124:
1234:main.c        ****                                              ES_ADV_SVC_UUID_LENGTH + \
 1659              		.loc 1 1234 0
 1660 011e C677     		strb	r6, [r0, #31]
 1661              	.LBE124:
 1662              	.LBE129:
 909:main.c        ****                 
 1663              		.loc 1 909 0
 1664 0120 FFF7FEFF 		bl	CyBle_GapUpdateAdvData
 1665              	.LVL187:
 913:main.c        ****                 {
 1666              		.loc 1 913 0
 1667 0124 3423     		mov	r3, #52
 1668 0126 A269     		ldr	r2, [r4, #24]
 1669 0128 D35C     		ldrb	r3, [r2, r3]
 1670 012a 5B07     		lsl	r3, r3, #29
 1671 012c 19D5     		bpl	.L152
 1672              	.LVL188:
 1673              	.L151:
 915:main.c        ****                 }
 1674              		.loc 1 915 0
 1675 012e 0523     		mov	r3, #5
 1676 0130 2377     		strb	r3, [r4, #28]
 1677 0132 98E7     		b	.L133
 1678              	.LVL189:
 1679              	.L121:
 928:main.c        ****             {
 1680              		.loc 1 928 0
 1681 0134 FFF7FEFF 		bl	CyBle_GetBleSsState
 1682              	.LVL190:
 1683 0138 0228     		cmp	r0, #2
 1684 013a 99D1     		bne	.L114
 931:main.c        ****                 
 1685              		.loc 1 931 0
 1686 013c A268     		ldr	r2, [r4, #8]
 930:main.c        ****                 ES_SEC_CNT_ms += CFG_interval;
 1687              		.loc 1 930 0
 1688 013e 6368     		ldr	r3, [r4, #4]
 931:main.c        ****                 
 1689              		.loc 1 931 0
 1690 0140 9446     		mov	ip, r2
 930:main.c        ****                 ES_SEC_CNT_ms += CFG_interval;
 1691              		.loc 1 930 0
 1692 0142 0133     		add	r3, r3, #1
 1693 0144 6360     		str	r3, [r4, #4]
 931:main.c        ****                 
 1694              		.loc 1 931 0
 1695 0146 A38A     		ldrh	r3, [r4, #20]
ARM GAS  C:\Users\ramanatg\AppData\Local\Temp\cc9tuycg.s 			page 59


 1696 0148 6344     		add	r3, r3, ip
 1697 014a A360     		str	r3, [r4, #8]
 1698              	.LVL191:
 1699              	.LBB130:
 1700              	.LBB131:
 1701 014c FFF7FEFF 		bl	UpdateAdData3.part.2
 1702              	.LVL192:
 1703              	.LBE131:
 1704              	.LBE130:
 935:main.c        ****                 
 1705              		.loc 1 935 0
 1706 0150 2C48     		ldr	r0, .L156+16
 1707 0152 2B49     		ldr	r1, .L156+12
 1708 0154 FFF7FEFF 		bl	CyBle_GapUpdateAdvData
 1709              	.LVL193:
 939:main.c        ****                 {
 1710              		.loc 1 939 0
 1711 0158 3423     		mov	r3, #52
 1712 015a A269     		ldr	r2, [r4, #24]
 1713 015c D35C     		ldrb	r3, [r2, r3]
 1714 015e DB07     		lsl	r3, r3, #31
 1715 0160 C3D5     		bpl	.L136
 1716              	.LVL194:
 1717              	.L152:
 941:main.c        ****                 }
 1718              		.loc 1 941 0
 1719 0162 0323     		mov	r3, #3
 1720 0164 2377     		strb	r3, [r4, #28]
 1721 0166 7EE7     		b	.L133
 1722              	.LVL195:
 1723              	.L153:
 811:main.c        ****                     ES_SEC_CNT_ms += CFG_interval;
 1724              		.loc 1 811 0
 1725 0168 6268     		ldr	r2, [r4, #4]
 1726 016a 0132     		add	r2, r2, #1
 1727 016c 6260     		str	r2, [r4, #4]
 812:main.c        ****                     
 1728              		.loc 1 812 0
 1729 016e A268     		ldr	r2, [r4, #8]
 1730 0170 AA18     		add	r2, r5, r2
 1731 0172 A260     		str	r2, [r4, #8]
 816:main.c        ****                     {
 1732              		.loc 1 816 0
 1733 0174 3422     		mov	r2, #52
 1734 0176 9146     		mov	r9, r2
 1735 0178 BA5C     		ldrb	r2, [r7, r2]
 1736 017a 9046     		mov	r8, r2
 1737 017c 1342     		tst	r3, r2
 1738 017e 25D1     		bne	.L155
 838:main.c        ****                     {
 1739              		.loc 1 838 0
 1740 0180 1642     		tst	r6, r2
 1741 0182 1ED0     		beq	.L131
 1742              	.LVL196:
 1743              	.LBB132:
 1744              	.LBB133:
1229:main.c        ****                    URL_FrameBuffer, 
ARM GAS  C:\Users\ramanatg\AppData\Local\Temp\cc9tuycg.s 			page 60


 1745              		.loc 1 1229 0
 1746 0184 214B     		ldr	r3, .L156+24
1231:main.c        ****         
 1747              		.loc 1 1231 0
 1748 0186 2049     		ldr	r1, .L156+20
1229:main.c        ****                    URL_FrameBuffer, 
 1749              		.loc 1 1229 0
 1750 0188 9846     		mov	r8, r3
1231:main.c        ****         
 1751              		.loc 1 1231 0
 1752 018a 0E7E     		ldrb	r6, [r1, #24]
1229:main.c        ****                    URL_FrameBuffer, 
 1753              		.loc 1 1229 0
 1754 018c 181C     		mov	r0, r3
1231:main.c        ****         
 1755              		.loc 1 1231 0
 1756 018e 721C     		add	r2, r6, #1
1229:main.c        ****                    URL_FrameBuffer, 
 1757              		.loc 1 1229 0
 1758 0190 1831     		add	r1, r1, #24
 1759 0192 FFF7FEFF 		bl	memcpy
 1760              	.LVL197:
1234:main.c        ****                                              ES_ADV_SVC_UUID_LENGTH + \
 1761              		.loc 1 1234 0
 1762 0196 4346     		mov	r3, r8
 1763 0198 0836     		add	r6, r6, #8
 1764 019a 1E76     		strb	r6, [r3, #24]
 1765              	.LBE133:
 1766              	.LBE132:
 844:main.c        ****                         {
 1767              		.loc 1 844 0
 1768 019c 4B46     		mov	r3, r9
 1769 019e FB5C     		ldrb	r3, [r7, r3]
 1770 01a0 5B07     		lsl	r3, r3, #29
 1771 01a2 00D4     		bmi	.LCB1523
 1772 01a4 53E7     		b	.L130	@long jump
 1773              	.LCB1523:
 1774              	.LVL198:
 1775              	.L150:
 846:main.c        ****                         }
 1776              		.loc 1 846 0
 1777 01a6 0523     		mov	r3, #5
 1778 01a8 2377     		strb	r3, [r4, #28]
 1779 01aa 50E7     		b	.L130
 1780              	.L154:
 1781              	.LVL199:
 1782              	.LBB134:
 1783              	.LBB135:
1231:main.c        ****         
 1784              		.loc 1 1231 0
 1785 01ac 1649     		ldr	r1, .L156+20
1229:main.c        ****                    URL_FrameBuffer, 
 1786              		.loc 1 1229 0
 1787 01ae 174E     		ldr	r6, .L156+24
1231:main.c        ****         
 1788              		.loc 1 1231 0
 1789 01b0 0C7E     		ldrb	r4, [r1, #24]
ARM GAS  C:\Users\ramanatg\AppData\Local\Temp\cc9tuycg.s 			page 61


1229:main.c        ****                    URL_FrameBuffer, 
 1790              		.loc 1 1229 0
 1791 01b2 301C     		mov	r0, r6
1231:main.c        ****         
 1792              		.loc 1 1231 0
 1793 01b4 621C     		add	r2, r4, #1
1229:main.c        ****                    URL_FrameBuffer, 
 1794              		.loc 1 1229 0
 1795 01b6 1831     		add	r1, r1, #24
1234:main.c        ****                                              ES_ADV_SVC_UUID_LENGTH + \
 1796              		.loc 1 1234 0
 1797 01b8 0834     		add	r4, r4, #8
1229:main.c        ****                    URL_FrameBuffer, 
 1798              		.loc 1 1229 0
 1799 01ba FFF7FEFF 		bl	memcpy
 1800              	.LVL200:
1234:main.c        ****                                              ES_ADV_SVC_UUID_LENGTH + \
 1801              		.loc 1 1234 0
 1802 01be 3476     		strb	r4, [r6, #24]
 1803 01c0 45E7     		b	.L130
 1804              	.LVL201:
 1805              	.L131:
 1806              	.LBE135:
 1807              	.LBE134:
 1808              	.LBB136:
 1809              	.LBB137:
 1810 01c2 FFF7FEFF 		bl	UpdateAdData3.part.2
 1811              	.LVL202:
 1812              	.LBE137:
 1813              	.LBE136:
 860:main.c        ****                     }
 1814              		.loc 1 860 0
 1815 01c6 0623     		mov	r3, #6
 1816 01c8 2377     		strb	r3, [r4, #28]
 1817 01ca 40E7     		b	.L130
 1818              	.LVL203:
 1819              	.L155:
 1820              	.LBB138:
 1821              	.LBB139:
1217:main.c        ****                    UID_FrameBuffer, 
 1822              		.loc 1 1217 0
 1823 01cc 0D4F     		ldr	r7, .L156+16
 1824 01ce 0E49     		ldr	r1, .L156+20
 1825 01d0 F81D     		add	r0, r7, #7
 1826 01d2 1822     		mov	r2, #24
 1827 01d4 FFF7FEFF 		bl	memcpy
 1828              	.LVL204:
1222:main.c        ****                                              ES_ADV_SVC_UUID_LENGTH + 
 1829              		.loc 1 1222 0
 1830 01d8 1F23     		mov	r3, #31
 1831 01da FB77     		strb	r3, [r7, #31]
 1832              	.LBE139:
 1833              	.LBE138:
 822:main.c        ****                         {
 1834              		.loc 1 822 0
 1835 01dc 4346     		mov	r3, r8
 1836 01de 1E42     		tst	r6, r3
ARM GAS  C:\Users\ramanatg\AppData\Local\Temp\cc9tuycg.s 			page 62


 1837 01e0 02D0     		beq	.L129
 824:main.c        ****                         }
 1838              		.loc 1 824 0
 1839 01e2 0423     		mov	r3, #4
 1840 01e4 2377     		strb	r3, [r4, #28]
 1841 01e6 32E7     		b	.L130
 1842              	.L129:
 827:main.c        ****                         {
 1843              		.loc 1 827 0
 1844 01e8 4346     		mov	r3, r8
 1845 01ea 5B07     		lsl	r3, r3, #29
 1846 01ec 00D4     		bmi	.LCB1596
 1847 01ee 2EE7     		b	.L130	@long jump
 1848              	.LCB1596:
 1849 01f0 D9E7     		b	.L150
 1850              	.L157:
 1851 01f2 C046     		.align	2
 1852              	.L156:
 1853 01f4 00000000 		.word	.LANCHOR0
 1854 01f8 28000000 		.word	.L117
 1855 01fc 00000000 		.word	cyBle_discoveryModeInfo
 1856 0200 00000000 		.word	cyBle_scanRspData
 1857 0204 00000000 		.word	cyBle_discoveryData
 1858 0208 00000000 		.word	.LANCHOR2
 1859 020c 07000000 		.word	cyBle_discoveryData+7
 1860              		.cfi_endproc
 1861              	.LFE43:
 1862              		.size	ProcessBeaconEvents, .-ProcessBeaconEvents
 1863              		.section	.text.ReadAndApplyConfig,"ax",%progbits
 1864              		.align	2
 1865              		.global	ReadAndApplyConfig
 1866              		.code	16
 1867              		.thumb_func
 1868              		.type	ReadAndApplyConfig, %function
 1869              	ReadAndApplyConfig:
 1870              	.LFB44:
 991:main.c        ****     /* If UserSFlash is not empty and the storage format isn't older than the firmware 
 1871              		.loc 1 991 0
 1872              		.cfi_startproc
 1873 0000 70B5     		push	{r4, r5, r6, lr}
 1874              		.cfi_def_cfa_offset 16
 1875              		.cfi_offset 4, -16
 1876              		.cfi_offset 5, -12
 1877              		.cfi_offset 6, -8
 1878              		.cfi_offset 14, -4
 994:main.c        ****         (pBeaconConfig->DataFlag_Start == SFLASH_DATA_FLAG_VALID) && \
 1879              		.loc 1 994 0
 1880 0002 3B4C     		ldr	r4, .L169
 1881 0004 3B4A     		ldr	r2, .L169+4
 1882 0006 E36F     		ldr	r3, [r4, #124]
 1883 0008 9342     		cmp	r3, r2
 1884 000a 40D0     		beq	.L167
 1885              	.L165:
1003:main.c        ****     }
 1886              		.loc 1 1003 0
 1887 000c 3A4C     		ldr	r4, .L169+8
 1888              	.L159:
ARM GAS  C:\Users\ramanatg\AppData\Local\Temp\cc9tuycg.s 			page 63


 1889 000e 3B4A     		ldr	r2, .L169+12
 1890 0010 9461     		str	r4, [r2, #24]
1007:main.c        ****     {
 1891              		.loc 1 1007 0
 1892 0012 E17F     		ldrb	r1, [r4, #31]
 1893 0014 0029     		cmp	r1, #0
 1894 0016 44D0     		beq	.L168
1044:main.c        ****         CFG_txpwr    = pCFG->TXPowerLevels[pCFG->TXPowerMode];
 1895              		.loc 1 1044 0
 1896 0018 6023     		mov	r3, #96
 1897 001a E35A     		ldrh	r3, [r4, r3]
 1898 001c 9382     		strh	r3, [r2, #20]
1045:main.c        **** #if (I2C_SENSOR_ENABLE)
 1899              		.loc 1 1045 0
 1900 001e 5E23     		mov	r3, #94
 1901 0020 E35C     		ldrb	r3, [r4, r3]
 1902 0022 E318     		add	r3, r4, r3
 1903 0024 181C     		mov	r0, r3
 1904 0026 3030     		add	r0, r0, #48
 1905 0028 0078     		ldrb	r0, [r0]
 1906 002a 1074     		strb	r0, [r2, #16]
1048:main.c        **** #endif
 1907              		.loc 1 1048 0
 1908 002c 0229     		cmp	r1, #2
 1909 002e 36D0     		beq	.L166
1048:main.c        **** #endif
 1910              		.loc 1 1048 0 is_stmt 0 discriminator 1
 1911 0030 A17F     		ldrb	r1, [r4, #30]
 1912              	.L162:
1048:main.c        **** #endif
 1913              		.loc 1 1048 0 discriminator 4
 1914 0032 334A     		ldr	r2, .L169+16
1058:main.c        ****         memcpy(&(UID_FrameBuffer[ES_NID_INDEX_INFRAME]), pCFG->nid, NID_BYTES);
 1915              		.loc 1 1058 0 is_stmt 1 discriminator 4
 1916 0034 334D     		ldr	r5, .L169+20
1048:main.c        **** #endif
 1917              		.loc 1 1048 0 discriminator 4
 1918 0036 1170     		strb	r1, [r2]
1052:main.c        ****         cyBle_discoveryData.advData[ES_ADV_SVC_UUID_INDEX_TYPE] = ES_SVC_SOLICITATION;
 1919              		.loc 1 1052 0 discriminator 4
 1920 0038 0321     		mov	r1, #3
 1921 003a 334A     		ldr	r2, .L169+24
1058:main.c        ****         memcpy(&(UID_FrameBuffer[ES_NID_INDEX_INFRAME]), pCFG->nid, NID_BYTES);
 1922              		.loc 1 1058 0 discriminator 4
 1923 003c 5833     		add	r3, r3, #88
1052:main.c        ****         cyBle_discoveryData.advData[ES_ADV_SVC_UUID_INDEX_TYPE] = ES_SVC_SOLICITATION;
 1924              		.loc 1 1052 0 discriminator 4
 1925 003e D170     		strb	r1, [r2, #3]
1053:main.c        ****         cyBle_discoveryData.advData[ES_ADV_SVC_UUID_INDEX_LSB]  = ES_SVC_LSB;
 1926              		.loc 1 1053 0 discriminator 4
 1927 0040 1171     		strb	r1, [r2, #4]
1054:main.c        ****         cyBle_discoveryData.advData[ES_ADV_SVC_UUID_INDEX_MSB]  = ES_SVC_MSB;
 1928              		.loc 1 1054 0 discriminator 4
 1929 0042 A731     		add	r1, r1, #167
 1930 0044 5171     		strb	r1, [r2, #5]
1055:main.c        ****         
 1931              		.loc 1 1055 0 discriminator 4
ARM GAS  C:\Users\ramanatg\AppData\Local\Temp\cc9tuycg.s 			page 64


 1932 0046 5431     		add	r1, r1, #84
 1933 0048 9171     		strb	r1, [r2, #6]
1059:main.c        ****         memcpy(&(UID_FrameBuffer[ES_BID_INDEX_INFRAME]), pCFG->bid, BID_BYTES);
 1934              		.loc 1 1059 0 discriminator 4
 1935 004a 211C     		mov	r1, r4
1058:main.c        ****         memcpy(&(UID_FrameBuffer[ES_NID_INDEX_INFRAME]), pCFG->nid, NID_BYTES);
 1936              		.loc 1 1058 0 discriminator 4
 1937 004c 9E78     		ldrb	r6, [r3, #2]
1059:main.c        ****         memcpy(&(UID_FrameBuffer[ES_BID_INDEX_INFRAME]), pCFG->bid, BID_BYTES);
 1938              		.loc 1 1059 0 discriminator 4
 1939 004e 2031     		add	r1, r1, #32
 1940 0050 0A22     		mov	r2, #10
 1941 0052 A81D     		add	r0, r5, #6
1058:main.c        ****         memcpy(&(UID_FrameBuffer[ES_NID_INDEX_INFRAME]), pCFG->nid, NID_BYTES);
 1942              		.loc 1 1058 0 discriminator 4
 1943 0054 6E71     		strb	r6, [r5, #5]
1059:main.c        ****         memcpy(&(UID_FrameBuffer[ES_BID_INDEX_INFRAME]), pCFG->bid, BID_BYTES);
 1944              		.loc 1 1059 0 discriminator 4
 1945 0056 FFF7FEFF 		bl	memcpy
 1946              	.LVL205:
1060:main.c        ****         
 1947              		.loc 1 1060 0 discriminator 4
 1948 005a 281C     		mov	r0, r5
 1949 005c 211C     		mov	r1, r4
 1950 005e 0622     		mov	r2, #6
 1951 0060 2A31     		add	r1, r1, #42
 1952 0062 1030     		add	r0, r0, #16
 1953 0064 FFF7FEFF 		bl	memcpy
 1954              	.LVL206:
1063:main.c        ****         URL_FrameBuffer[ES_ADV_TXPL_INDEX_INFRAME]   = pCFG->Adv_TXPowerLevels[pCFG->TXPowerMode];
 1955              		.loc 1 1063 0 discriminator 4
 1956 0068 5923     		mov	r3, #89
 1957 006a 0F22     		mov	r2, #15
 1958 006c E35C     		ldrb	r3, [r4, r3]
1067:main.c        ****     }
 1959              		.loc 1 1067 0 discriminator 4
 1960 006e 281C     		mov	r0, r5
1063:main.c        ****         URL_FrameBuffer[ES_ADV_TXPL_INDEX_INFRAME]   = pCFG->Adv_TXPowerLevels[pCFG->TXPowerMode];
 1961              		.loc 1 1063 0 discriminator 4
 1962 0070 1340     		and	r3, r2
 1963 0072 1022     		mov	r2, #16
 1964 0074 1343     		orr	r3, r2
 1965 0076 2B77     		strb	r3, [r5, #28]
1066:main.c        ****         memcpy(&(URL_FrameBuffer[ES_URI_DATA_INDEX_INFRAME]), pCFG->URI_Data, pCFG->URI_Length);
 1966              		.loc 1 1066 0 discriminator 4
 1967 0078 4623     		mov	r3, #70
1067:main.c        ****     }
 1968              		.loc 1 1067 0 discriminator 4
 1969 007a 211C     		mov	r1, r4
1064:main.c        ****         
 1970              		.loc 1 1064 0 discriminator 4
 1971 007c 6E77     		strb	r6, [r5, #29]
1066:main.c        ****         memcpy(&(URL_FrameBuffer[ES_URI_DATA_INDEX_INFRAME]), pCFG->URI_Data, pCFG->URI_Length);
 1972              		.loc 1 1066 0 discriminator 4
 1973 007e E25C     		ldrb	r2, [r4, r3]
1067:main.c        ****     }
 1974              		.loc 1 1067 0 discriminator 4
ARM GAS  C:\Users\ramanatg\AppData\Local\Temp\cc9tuycg.s 			page 65


 1975 0080 1E30     		add	r0, r0, #30
1066:main.c        ****         memcpy(&(URL_FrameBuffer[ES_URI_DATA_INDEX_INFRAME]), pCFG->URI_Data, pCFG->URI_Length);
 1976              		.loc 1 1066 0 discriminator 4
 1977 0082 531D     		add	r3, r2, #5
1067:main.c        ****     }
 1978              		.loc 1 1067 0 discriminator 4
 1979 0084 4731     		add	r1, r1, #71
1066:main.c        ****         memcpy(&(URL_FrameBuffer[ES_URI_DATA_INDEX_INFRAME]), pCFG->URI_Data, pCFG->URI_Length);
 1980              		.loc 1 1066 0 discriminator 4
 1981 0086 2B76     		strb	r3, [r5, #24]
1067:main.c        ****     }
 1982              		.loc 1 1067 0 discriminator 4
 1983 0088 FFF7FEFF 		bl	memcpy
 1984              	.LVL207:
 1985              	.L158:
1071:main.c        **** 
 1986              		.loc 1 1071 0
 1987              		@ sp needed
 1988 008c 70BD     		pop	{r4, r5, r6, pc}
 1989              	.L167:
 994:main.c        ****         (pBeaconConfig->DataFlag_Start == SFLASH_DATA_FLAG_VALID) && \
 1990              		.loc 1 994 0 discriminator 1
 1991 008e 2268     		ldr	r2, [r4]
 1992 0090 9A42     		cmp	r2, r3
 1993 0092 BBD1     		bne	.L165
 995:main.c        ****         (pBeaconConfig->version_major_minor1 >= FW_VERSION)          )
 1994              		.loc 1 995 0
 1995 0094 1D4B     		ldr	r3, .L169+28
 1996 0096 A26F     		ldr	r2, [r4, #120]
 1997 0098 9A42     		cmp	r2, r3
 1998 009a B8D8     		bhi	.L159
 1999 009c B6E7     		b	.L165
 2000              	.L166:
1048:main.c        **** #endif
 2001              		.loc 1 1048 0
 2002 009e 0021     		mov	r1, #0
 2003 00a0 C7E7     		b	.L162
 2004              	.L168:
1009:main.c        ****         CFG_txpwr    = pCFG->txpwr;
 2005              		.loc 1 1009 0
 2006 00a2 238B     		ldrh	r3, [r4, #24]
1016:main.c        ****         cyBle_discoveryData.advData[BLEBEACON_AD_TYPE2_OFFSET]    = BLEBEACON_AD_TYPE2_VALUE;
 2007              		.loc 1 1016 0
 2008 00a4 184D     		ldr	r5, .L169+24
1009:main.c        ****         CFG_txpwr    = pCFG->txpwr;
 2009              		.loc 1 1009 0
 2010 00a6 9382     		strh	r3, [r2, #20]
1010:main.c        **** #if (I2C_SENSOR_ENABLE)
 2011              		.loc 1 1010 0
 2012 00a8 237F     		ldrb	r3, [r4, #28]
1024:main.c        **** 
 2013              		.loc 1 1024 0
 2014 00aa 281C     		mov	r0, r5
1010:main.c        **** #if (I2C_SENSOR_ENABLE)
 2015              		.loc 1 1010 0
 2016 00ac 1374     		strb	r3, [r2, #16]
1012:main.c        **** #endif
ARM GAS  C:\Users\ramanatg\AppData\Local\Temp\cc9tuycg.s 			page 66


 2017              		.loc 1 1012 0
 2018 00ae A27F     		ldrb	r2, [r4, #30]
 2019 00b0 134B     		ldr	r3, .L169+16
1024:main.c        **** 
 2020              		.loc 1 1024 0
 2021 00b2 0930     		add	r0, r0, #9
1012:main.c        **** #endif
 2022              		.loc 1 1012 0
 2023 00b4 1A70     		strb	r2, [r3]
1016:main.c        ****         cyBle_discoveryData.advData[BLEBEACON_AD_TYPE2_OFFSET]    = BLEBEACON_AD_TYPE2_VALUE;
 2024              		.loc 1 1016 0
 2025 00b6 1A23     		mov	r3, #26
 2026 00b8 EB70     		strb	r3, [r5, #3]
1017:main.c        ****         cyBle_discoveryData.advData[BLEBEACON_DEVICE_TYPE_OFFSET] = BLEBEACON_DEVICE_TYPE_VALUE;
 2027              		.loc 1 1017 0
 2028 00ba E533     		add	r3, r3, #229
 2029 00bc 2B71     		strb	r3, [r5, #4]
1018:main.c        ****         cyBle_discoveryData.advData[BLEBEACON_LENGTH3_OFFSET]     = BLEBEACON_LENGTH3_VALUE;
 2030              		.loc 1 1018 0
 2031 00be FD3B     		sub	r3, r3, #253
 2032 00c0 EB71     		strb	r3, [r5, #7]
1019:main.c        ****         
 2033              		.loc 1 1019 0
 2034 00c2 1333     		add	r3, r3, #19
 2035 00c4 2B72     		strb	r3, [r5, #8]
1024:main.c        **** 
 2036              		.loc 1 1024 0
 2037 00c6 1022     		mov	r2, #16
1021:main.c        ****         
 2038              		.loc 1 1021 0
 2039 00c8 0933     		add	r3, r3, #9
1024:main.c        **** 
 2040              		.loc 1 1024 0
 2041 00ca 211D     		add	r1, r4, #4
1021:main.c        ****         
 2042              		.loc 1 1021 0
 2043 00cc EB77     		strb	r3, [r5, #31]
1024:main.c        **** 
 2044              		.loc 1 1024 0
 2045 00ce FFF7FEFF 		bl	memcpy
 2046              	.LVL208:
1027:main.c        ****         cyBle_discoveryData.advData[ADDR_COID_OFFSET + 1] = pCFG->comID >> 8;
 2047              		.loc 1 1027 0
 2048 00d2 638B     		ldrh	r3, [r4, #26]
 2049 00d4 6B71     		strb	r3, [r5, #5]
1028:main.c        **** 
 2050              		.loc 1 1028 0
 2051 00d6 1B0A     		lsr	r3, r3, #8
 2052 00d8 AB71     		strb	r3, [r5, #6]
1031:main.c        ****         cyBle_discoveryData.advData[ADDR_MAJOR_OFFSET + 1] = pCFG->major & 0xFF;
 2053              		.loc 1 1031 0
 2054 00da A38A     		ldrh	r3, [r4, #20]
 2055 00dc 1A0A     		lsr	r2, r3, #8
 2056 00de 6A76     		strb	r2, [r5, #25]
1032:main.c        ****         
 2057              		.loc 1 1032 0
 2058 00e0 AB76     		strb	r3, [r5, #26]
ARM GAS  C:\Users\ramanatg\AppData\Local\Temp\cc9tuycg.s 			page 67


1035:main.c        ****         cyBle_discoveryData.advData[ADDR_MINOR_OFFSET + 1] = pCFG->minor & 0xFF;
 2059              		.loc 1 1035 0
 2060 00e2 E38A     		ldrh	r3, [r4, #22]
 2061 00e4 1A0A     		lsr	r2, r3, #8
 2062 00e6 EA76     		strb	r2, [r5, #27]
1036:main.c        ****         
 2063              		.loc 1 1036 0
 2064 00e8 2B77     		strb	r3, [r5, #28]
1039:main.c        ****     }
 2065              		.loc 1 1039 0
 2066 00ea 637F     		ldrb	r3, [r4, #29]
 2067 00ec 6B77     		strb	r3, [r5, #29]
 2068 00ee CDE7     		b	.L158
 2069              	.L170:
 2070              		.align	2
 2071              	.L169:
 2072 00f0 80F2FF0F 		.word	268432000
 2073 00f4 AA550000 		.word	21930
 2074 00f8 00000000 		.word	DefaultBeaconConfig
 2075 00fc 00000000 		.word	.LANCHOR0
 2076 0100 00000000 		.word	Sensor_Flag
 2077 0104 00000000 		.word	.LANCHOR2
 2078 0108 00000000 		.word	cyBle_discoveryData
 2079 010c 01000100 		.word	65537
 2080              		.cfi_endproc
 2081              	.LFE44:
 2082              		.size	ReadAndApplyConfig, .-ReadAndApplyConfig
 2083              		.section	.text.startup.main,"ax",%progbits
 2084              		.align	2
 2085              		.global	main
 2086              		.code	16
 2087              		.thumb_func
 2088              		.type	main, %function
 2089              	main:
 2090              	.LFB41:
 335:main.c        ****     CyGlobalIntEnable;
 2091              		.loc 1 335 0
 2092              		.cfi_startproc
 2093 0000 F0B5     		push	{r4, r5, r6, r7, lr}
 2094              		.cfi_def_cfa_offset 20
 2095              		.cfi_offset 4, -20
 2096              		.cfi_offset 5, -16
 2097              		.cfi_offset 6, -12
 2098              		.cfi_offset 7, -8
 2099              		.cfi_offset 14, -4
 2100 0002 8FB0     		sub	sp, sp, #60
 2101              		.cfi_def_cfa_offset 80
 336:main.c        **** 
 2102              		.loc 1 336 0
 2103              	@ 336 "main.c" 1
 2104 0004 62B6     		CPSIE   i
 2105              	@ 0 "" 2
 339:main.c        **** 
 2106              		.loc 1 339 0
 2107              		.code	16
 2108 0006 0320     		mov	r0, #3
 2109 0008 FFF7FEFF 		bl	CySysClkWriteEcoDiv
ARM GAS  C:\Users\ramanatg\AppData\Local\Temp\cc9tuycg.s 			page 68


 2110              	.LVL209:
 342:main.c        **** 
 2111              		.loc 1 342 0
 2112 000c FFF7FEFF 		bl	LowPower_WCO_ECO_Start
 2113              	.LVL210:
 345:main.c        ****     {
 2114              		.loc 1 345 0
 2115 0010 FFF7FEFF 		bl	USB_Detect_Read
 2116              	.LVL211:
 2117 0014 0128     		cmp	r0, #1
 2118 0016 67D0     		beq	.L193
 2119 0018 444C     		ldr	r4, .L198
 2120              	.L172:
 378:main.c        ****     
 2121              		.loc 1 378 0
 2122 001a FFF7FEFF 		bl	ReadAndApplyConfig
 2123              	.LVL212:
 381:main.c        ****     cyBle_discoveryModeInfo.advTo    = CYBLE_ADV_NO_TIMEOUT;
 2124              		.loc 1 381 0
 2125 001e 0322     		mov	r2, #3
 2126 0020 434B     		ldr	r3, .L198+4
 386:main.c        ****     
 2127              		.loc 1 386 0
 2128 0022 4448     		ldr	r0, .L198+8
 381:main.c        ****     cyBle_discoveryModeInfo.advTo    = CYBLE_ADV_NO_TIMEOUT;
 2129              		.loc 1 381 0
 2130 0024 1A71     		strb	r2, [r3, #4]
 382:main.c        ****     cyBle_discoveryModeInfo.discMode = CYBLE_GAPP_NONE_DISC_BROADCAST_MODE;
 2131              		.loc 1 382 0
 2132 0026 0022     		mov	r2, #0
 2133 0028 434B     		ldr	r3, .L198+12
 2134 002a 1A82     		strh	r2, [r3, #16]
 383:main.c        ****     cyBle_discoveryData.advData[ADV_DATA1_FLAGS_INDEX] = ADV_DATA1_FLAGS_NON_CONNECTABLE;
 2135              		.loc 1 383 0
 2136 002c 1A70     		strb	r2, [r3]
 384:main.c        ****     
 2137              		.loc 1 384 0
 2138 002e 0422     		mov	r2, #4
 2139 0030 424B     		ldr	r3, .L198+16
 2140 0032 9A70     		strb	r2, [r3, #2]
 386:main.c        ****     
 2141              		.loc 1 386 0
 2142 0034 FFF7FEFF 		bl	CyBle_Start
 2143              	.LVL213:
 2144 0038 414F     		ldr	r7, .L198+20
 2145              	.L175:
 390:main.c        ****     
 2146              		.loc 1 390 0
 2147 003a FFF7FEFF 		bl	CyBle_ProcessEvents
 2148              	.LVL214:
 2149              	.LBB143:
 2150              	.LBB144:
 280:main.c        **** 
 2151              		.loc 1 280 0
 2152 003e 0320     		mov	r0, #3
 2153 0040 FFF7FEFF 		bl	CyBle_EnterLPM
 2154              	.LVL215:
ARM GAS  C:\Users\ramanatg\AppData\Local\Temp\cc9tuycg.s 			page 69


 2155 0044 061C     		mov	r6, r0
 2156              	.LVL216:
 282:main.c        ****     
 2157              		.loc 1 282 0
 2158 0046 FFF7FEFF 		bl	CyEnterCriticalSection
 2159              	.LVL217:
 2160 004a 051C     		mov	r5, r0
 2161              	.LVL218:
 284:main.c        ****     /* Make sure BLESS is in Deep-Sleep before configuring system in Deep-Sleep mode */
 2162              		.loc 1 284 0
 2163 004c FFF7FEFF 		bl	CyBle_GetBleSsState
 2164              	.LVL219:
 286:main.c        ****     {
 2165              		.loc 1 286 0
 2166 0050 032E     		cmp	r6, #3
 2167 0052 42D0     		beq	.L195
 297:main.c        ****     {
 2168              		.loc 1 297 0
 2169 0054 0228     		cmp	r0, #2
 2170 0056 0BD0     		beq	.L177
 300:main.c        ****         
 2171              		.loc 1 300 0
 2172 0058 0220     		mov	r0, #2
 2173              	.LVL220:
 2174 005a FFF7FEFF 		bl	CySysClkWriteHfclkDirect
 2175              	.LVL221:
 303:main.c        ****       
 2176              		.loc 1 303 0
 2177 005e FFF7FEFF 		bl	CySysClkImoStop
 2178              	.LVL222:
 306:main.c        ****        
 2179              		.loc 1 306 0
 2180 0062 FFF7FEFF 		bl	CySysPmSleep
 2181              	.LVL223:
 309:main.c        ****         
 2182              		.loc 1 309 0
 2183 0066 FFF7FEFF 		bl	CySysClkImoStart
 2184              	.LVL224:
 312:main.c        ****     }
 2185              		.loc 1 312 0
 2186 006a 0020     		mov	r0, #0
 2187 006c FFF7FEFF 		bl	CySysClkWriteHfclkDirect
 2188              	.LVL225:
 2189              	.L177:
 315:main.c        ****     
 2190              		.loc 1 315 0
 2191 0070 281C     		mov	r0, r5
 2192 0072 FFF7FEFF 		bl	CyExitCriticalSection
 2193              	.LVL226:
 2194              	.LBE144:
 2195              	.LBE143:
 395:main.c        ****         {
 2196              		.loc 1 395 0
 2197 0076 637C     		ldrb	r3, [r4, #17]
 2198 0078 002B     		cmp	r3, #0
 2199 007a 13D1     		bne	.L196
 2200              	.L178:
ARM GAS  C:\Users\ramanatg\AppData\Local\Temp\cc9tuycg.s 			page 70


 427:main.c        ****         {
 2201              		.loc 1 427 0
 2202 007c 0023     		mov	r3, #0
 2203 007e FB56     		ldrsb	r3, [r7, r3]
 2204 0080 002B     		cmp	r3, #0
 2205 0082 0CD0     		beq	.L179
 430:main.c        ****             {
 2206              		.loc 1 430 0
 2207 0084 A37C     		ldrb	r3, [r4, #18]
 2208 0086 052B     		cmp	r3, #5
 2209 0088 06D8     		bhi	.L180
 432:main.c        ****                 
 2210              		.loc 1 432 0
 2211 008a FFF7FEFF 		bl	I2CM_Wakeup
 2212              	.LVL227:
 434:main.c        ****                 
 2213              		.loc 1 434 0
 2214 008e FFF7FEFF 		bl	ProcessI2CEvents
 2215              	.LVL228:
 436:main.c        ****                                        Put I2CM to sleep mode immediately to save power. */
 2216              		.loc 1 436 0
 2217 0092 FFF7FEFF 		bl	I2CM_Sleep
 2218              	.LVL229:
 2219 0096 D0E7     		b	.L175
 2220              	.L180:
 441:main.c        ****             }
 2221              		.loc 1 441 0
 2222 0098 FFF7FEFF 		bl	ProcessI2CEvents
 2223              	.LVL230:
 2224 009c CDE7     		b	.L175
 2225              	.L179:
 448:main.c        ****         }
 2226              		.loc 1 448 0
 2227 009e FFF7FEFF 		bl	ProcessBeaconEvents
 2228              	.LVL231:
 2229 00a2 CAE7     		b	.L175
 2230              	.L196:
 397:main.c        ****             
 2231              		.loc 1 397 0
 2232 00a4 0023     		mov	r3, #0
 2233 00a6 6374     		strb	r3, [r4, #17]
 399:main.c        ****             
 2234              		.loc 1 399 0
 2235 00a8 FFF7FEFF 		bl	CySysWdtUnlock
 2236              	.LVL232:
 401:main.c        ****             
 2237              		.loc 1 401 0
 2238 00ac 0120     		mov	r0, #1
 2239 00ae FFF7FEFF 		bl	CySysWdtDisable
 2240              	.LVL233:
 403:main.c        ****             
 2241              		.loc 1 403 0
 2242 00b2 0120     		mov	r0, #1
 2243 00b4 0121     		mov	r1, #1
 2244 00b6 FFF7FEFF 		bl	CySysWdtSetMode
 2245              	.LVL234:
 405:main.c        ****             
ARM GAS  C:\Users\ramanatg\AppData\Local\Temp\cc9tuycg.s 			page 71


 2246              		.loc 1 405 0
 2247 00ba 0120     		mov	r0, #1
 2248 00bc 0121     		mov	r1, #1
 2249 00be FFF7FEFF 		bl	CySysWdtSetClearOnMatch
 2250              	.LVL235:
 411:main.c        ****             }
 2251              		.loc 1 411 0
 2252 00c2 A321     		mov	r1, #163
 2253 00c4 0120     		mov	r0, #1
 2254 00c6 4900     		lsl	r1, r1, #1
 2255 00c8 FFF7FEFF 		bl	CySysWdtSetMatch
 2256              	.LVL236:
 420:main.c        ****             
 2257              		.loc 1 420 0
 2258 00cc 8020     		mov	r0, #128
 2259 00ce 4000     		lsl	r0, r0, #1
 2260 00d0 FFF7FEFF 		bl	CySysWdtEnable
 2261              	.LVL237:
 422:main.c        ****         }
 2262              		.loc 1 422 0
 2263 00d4 FFF7FEFF 		bl	CySysWdtLock
 2264              	.LVL238:
 2265 00d8 D0E7     		b	.L178
 2266              	.LVL239:
 2267              	.L195:
 2268              	.LBB146:
 2269              	.LBB145:
 290:main.c        ****         {
 2270              		.loc 1 290 0
 2271 00da FD23     		mov	r3, #253
 2272 00dc 1840     		and	r0, r3
 2273              	.LVL240:
 2274 00de 0428     		cmp	r0, #4
 2275 00e0 C6D1     		bne	.L177
 292:main.c        ****         }
 2276              		.loc 1 292 0
 2277 00e2 FFF7FEFF 		bl	CySysPmDeepSleep
 2278              	.LVL241:
 2279 00e6 C3E7     		b	.L177
 2280              	.LVL242:
 2281              	.L193:
 2282              	.LBE145:
 2283              	.LBE146:
 2284              	.LBB147:
 361:main.c        ****             {
 2285              		.loc 1 361 0
 2286 00e8 8025     		mov	r5, #128
 350:main.c        ****         
 2287              		.loc 1 350 0
 2288 00ea FFF7FEFF 		bl	ConfigRW_CheckVersion
 2289              	.LVL243:
 353:main.c        ****         EddystoneURL_Config_Init();
 2290              		.loc 1 353 0
 2291 00ee 6846     		mov	r0, sp
 2292 00f0 FFF7FEFF 		bl	UartCmd_Init
 2293              	.LVL244:
 367:main.c        ****             {
ARM GAS  C:\Users\ramanatg\AppData\Local\Temp\cc9tuycg.s 			page 72


 2294              		.loc 1 367 0
 2295 00f4 134C     		ldr	r4, .L198+24
 354:main.c        ****         
 2296              		.loc 1 354 0
 2297 00f6 FFF7FEFF 		bl	EddystoneURL_Config_Init
 2298              	.LVL245:
 2299 00fa 134E     		ldr	r6, .L198+28
 361:main.c        ****             {
 2300              		.loc 1 361 0
 2301 00fc 6D01     		lsl	r5, r5, #5
 2302              	.L189:
 359:main.c        ****             /* If user typed EXIT command. */
 2303              		.loc 1 359 0
 2304 00fe FFF7FEFF 		bl	CyBle_ProcessEvents
 2305              	.LVL246:
 361:main.c        ****             {
 2306              		.loc 1 361 0
 2307 0102 FFF7FEFF 		bl	UartCmd_ProcessInput
 2308              	.LVL247:
 2309 0106 A842     		cmp	r0, r5
 2310 0108 0AD0     		beq	.L197
 367:main.c        ****             {
 2311              		.loc 1 367 0
 2312 010a 1F23     		mov	r3, #31
 2313 010c E356     		ldrsb	r3, [r4, r3]
 2314 010e 022B     		cmp	r3, #2
 2315 0110 F5D1     		bne	.L189
 367:main.c        ****             {
 2316              		.loc 1 367 0 is_stmt 0 discriminator 1
 2317 0112 3378     		ldrb	r3, [r6]
 2318 0114 002B     		cmp	r3, #0
 2319 0116 F2D0     		beq	.L189
 369:main.c        ****                 break;
 2320              		.loc 1 369 0 is_stmt 1
 2321 0118 0123     		mov	r3, #1
 2322 011a 044C     		ldr	r4, .L198
 2323 011c 2377     		strb	r3, [r4, #28]
 370:main.c        ****             }
 2324              		.loc 1 370 0
 2325 011e 00E0     		b	.L173
 2326              	.L197:
 2327 0120 024C     		ldr	r4, .L198
 2328              	.L173:
 374:main.c        ****         UART_Stop();
 2329              		.loc 1 374 0
 2330 0122 FFF7FEFF 		bl	CyBle_Stop
 2331              	.LVL248:
 375:main.c        ****     }
 2332              		.loc 1 375 0
 2333 0126 FFF7FEFF 		bl	UART_Stop
 2334              	.LVL249:
 2335 012a 76E7     		b	.L172
 2336              	.L199:
 2337              		.align	2
 2338              	.L198:
 2339 012c 00000000 		.word	.LANCHOR0
 2340 0130 00000000 		.word	cyBle_discoveryParam
ARM GAS  C:\Users\ramanatg\AppData\Local\Temp\cc9tuycg.s 			page 73


 2341 0134 00000000 		.word	BLE_AppEventHandler
 2342 0138 00000000 		.word	cyBle_discoveryModeInfo
 2343 013c 00000000 		.word	cyBle_discoveryData
 2344 0140 00000000 		.word	Sensor_Flag
 2345 0144 80F2FF0F 		.word	268432000
 2346 0148 00000000 		.word	gatt_disconnect_flag
 2347              	.LBE147:
 2348              		.cfi_endproc
 2349              	.LFE41:
 2350              		.size	main, .-main
 2351              		.section	.text.UpdateTxPowerLeverl,"ax",%progbits
 2352              		.align	2
 2353              		.global	UpdateTxPowerLeverl
 2354              		.code	16
 2355              		.thumb_func
 2356              		.type	UpdateTxPowerLeverl, %function
 2357              	UpdateTxPowerLeverl:
 2358              	.LFB45:
1088:main.c        ****     CYBLE_BLESS_PWR_IN_DB_T t_pwr;
 2359              		.loc 1 1088 0
 2360              		.cfi_startproc
 2361              	.LVL250:
1093:main.c        ****     {
 2362              		.loc 1 1093 0
 2363 0000 031C     		mov	r3, r0
1088:main.c        ****     CYBLE_BLESS_PWR_IN_DB_T t_pwr;
 2364              		.loc 1 1088 0
 2365 0002 00B5     		push	{lr}
 2366              		.cfi_def_cfa_offset 4
 2367              		.cfi_offset 14, -4
 2368 0004 83B0     		sub	sp, sp, #12
 2369              		.cfi_def_cfa_offset 16
1093:main.c        ****     {
 2370              		.loc 1 1093 0
 2371 0006 1233     		add	r3, r3, #18
 2372 0008 1CD0     		beq	.L202
1097:main.c        ****     {
 2373              		.loc 1 1097 0
 2374 000a 031C     		mov	r3, r0
 2375 000c 0C33     		add	r3, r3, #12
 2376 000e 1BD0     		beq	.L203
1101:main.c        ****     {
 2377              		.loc 1 1101 0
 2378 0010 831D     		add	r3, r0, #6
 2379 0012 1BD0     		beq	.L204
1105:main.c        ****     {
 2380              		.loc 1 1105 0
 2381 0014 C31C     		add	r3, r0, #3
 2382 0016 13D0     		beq	.L205
1109:main.c        ****     {
 2383              		.loc 1 1109 0
 2384 0018 831C     		add	r3, r0, #2
 2385 001a 19D0     		beq	.L206
1113:main.c        ****     {
 2386              		.loc 1 1113 0
 2387 001c 431C     		add	r3, r0, #1
 2388 001e 19D0     		beq	.L207
ARM GAS  C:\Users\ramanatg\AppData\Local\Temp\cc9tuycg.s 			page 74


1119:main.c        ****     }
 2389              		.loc 1 1119 0
 2390 0020 0723     		mov	r3, #7
1117:main.c        ****     {
 2391              		.loc 1 1117 0
 2392 0022 0028     		cmp	r0, #0
 2393 0024 04D0     		beq	.L201
1127:main.c        ****     }
 2394              		.loc 1 1127 0
 2395 0026 0338     		sub	r0, r0, #3
 2396              	.LVL251:
 2397 0028 4342     		neg	r3, r0
 2398 002a 4341     		adc	r3, r3, r0
 2399 002c 0920     		mov	r0, #9
 2400 002e C31A     		sub	r3, r0, r3
 2401              	.L201:
 2402              	.LVL252:
1129:main.c        ****     t_pwr.bleSsChId = CYBLE_LL_ADV_CH_TYPE;
 2403              		.loc 1 1129 0
 2404 0030 01A8     		add	r0, sp, #4
 2405 0032 0370     		strb	r3, [r0]
1130:main.c        ****     CyBle_SetTxPowerLevel(&t_pwr);
 2406              		.loc 1 1130 0
 2407 0034 0023     		mov	r3, #0
 2408              	.LVL253:
 2409 0036 4370     		strb	r3, [r0, #1]
1131:main.c        ****     
 2410              		.loc 1 1131 0
 2411 0038 FFF7FEFF 		bl	CyBle_SetTxPowerLevel
 2412              	.LVL254:
1134:main.c        **** 
 2413              		.loc 1 1134 0
 2414 003c 03B0     		add	sp, sp, #12
 2415              		@ sp needed
 2416 003e 00BD     		pop	{pc}
 2417              	.LVL255:
 2418              	.L205:
1107:main.c        ****     }
 2419              		.loc 1 1107 0
 2420 0040 0423     		mov	r3, #4
 2421 0042 F5E7     		b	.L201
 2422              	.L202:
1095:main.c        ****     }
 2423              		.loc 1 1095 0
 2424 0044 0123     		mov	r3, #1
 2425 0046 F3E7     		b	.L201
 2426              	.L203:
1099:main.c        ****     }
 2427              		.loc 1 1099 0
 2428 0048 0223     		mov	r3, #2
 2429 004a F1E7     		b	.L201
 2430              	.L204:
1103:main.c        ****     }
 2431              		.loc 1 1103 0
 2432 004c 0323     		mov	r3, #3
 2433 004e EFE7     		b	.L201
 2434              	.L206:
ARM GAS  C:\Users\ramanatg\AppData\Local\Temp\cc9tuycg.s 			page 75


1111:main.c        ****     }
 2435              		.loc 1 1111 0
 2436 0050 0523     		mov	r3, #5
 2437 0052 EDE7     		b	.L201
 2438              	.L207:
1115:main.c        ****     }
 2439              		.loc 1 1115 0
 2440 0054 0623     		mov	r3, #6
 2441 0056 EBE7     		b	.L201
 2442              		.cfi_endproc
 2443              	.LFE45:
 2444              		.size	UpdateTxPowerLeverl, .-UpdateTxPowerLeverl
 2445              		.section	.text.Beacon_GappStartAdvertisement,"ax",%progbits
 2446              		.align	2
 2447              		.global	Beacon_GappStartAdvertisement
 2448              		.code	16
 2449              		.thumb_func
 2450              		.type	Beacon_GappStartAdvertisement, %function
 2451              	Beacon_GappStartAdvertisement:
 2452              	.LFB46:
1157:main.c        ****     uint16_t RegisterIntervalValue;
 2453              		.loc 1 1157 0
 2454              		.cfi_startproc
 2455              	.LVL256:
 2456 0000 08B5     		push	{r3, lr}
 2457              		.cfi_def_cfa_offset 8
 2458              		.cfi_offset 3, -8
 2459              		.cfi_offset 14, -4
1160:main.c        ****     /* Set advertising broadcast interval*/
 2460              		.loc 1 1160 0
 2461 0002 0521     		mov	r1, #5
 2462 0004 C000     		lsl	r0, r0, #3
 2463              	.LVL257:
 2464 0006 FFF7FEFF 		bl	__aeabi_uidiv
 2465              	.LVL258:
1162:main.c        ****     cyBle_discoveryModeInfo.advParam->advIntvMax = RegisterIntervalValue;
 2466              		.loc 1 1162 0
 2467 000a 044B     		ldr	r3, .L212
1160:main.c        ****     /* Set advertising broadcast interval*/
 2468              		.loc 1 1160 0
 2469 000c 80B2     		uxth	r0, r0
 2470              	.LVL259:
1162:main.c        ****     cyBle_discoveryModeInfo.advParam->advIntvMax = RegisterIntervalValue;
 2471              		.loc 1 1162 0
 2472 000e 5B68     		ldr	r3, [r3, #4]
1167:main.c        **** 
 2473              		.loc 1 1167 0
 2474              		@ sp needed
1162:main.c        ****     cyBle_discoveryModeInfo.advParam->advIntvMax = RegisterIntervalValue;
 2475              		.loc 1 1162 0
 2476 0010 1880     		strh	r0, [r3]
1163:main.c        **** 
 2477              		.loc 1 1163 0
 2478 0012 5880     		strh	r0, [r3, #2]
1166:main.c        **** }
 2479              		.loc 1 1166 0
 2480 0014 0220     		mov	r0, #2
ARM GAS  C:\Users\ramanatg\AppData\Local\Temp\cc9tuycg.s 			page 76


 2481              	.LVL260:
 2482 0016 FFF7FEFF 		bl	CyBle_GappStartAdvertisement
 2483              	.LVL261:
1167:main.c        **** 
 2484              		.loc 1 1167 0
 2485 001a 08BD     		pop	{r3, pc}
 2486              	.L213:
 2487              		.align	2
 2488              	.L212:
 2489 001c 00000000 		.word	cyBle_discoveryModeInfo
 2490              		.cfi_endproc
 2491              	.LFE46:
 2492              		.size	Beacon_GappStartAdvertisement, .-Beacon_GappStartAdvertisement
 2493              		.section	.text.UpdateAdData3,"ax",%progbits
 2494              		.align	2
 2495              		.global	UpdateAdData3
 2496              		.code	16
 2497              		.thumb_func
 2498              		.type	UpdateAdData3, %function
 2499              	UpdateAdData3:
 2500              	.LFB48:
1212:main.c        ****     switch(NewEdFrame)
 2501              		.loc 1 1212 0
 2502              		.cfi_startproc
 2503              	.LVL262:
 2504 0000 38B5     		push	{r3, r4, r5, lr}
 2505              		.cfi_def_cfa_offset 16
 2506              		.cfi_offset 3, -16
 2507              		.cfi_offset 4, -12
 2508              		.cfi_offset 5, -8
 2509              		.cfi_offset 14, -4
1213:main.c        ****     {
 2510              		.loc 1 1213 0
 2511 0002 1028     		cmp	r0, #16
 2512 0004 10D0     		beq	.L216
 2513 0006 2028     		cmp	r0, #32
 2514 0008 0BD0     		beq	.L217
 2515 000a 0028     		cmp	r0, #0
 2516 000c 00D0     		beq	.L219
 2517              	.LVL263:
 2518              	.L214:
 2519              		.loc 1 1285 0
 2520              		@ sp needed
 2521 000e 38BD     		pop	{r3, r4, r5, pc}
 2522              	.LVL264:
 2523              	.L219:
1217:main.c        ****                    UID_FrameBuffer, 
 2524              		.loc 1 1217 0
 2525 0010 0B4C     		ldr	r4, .L220
 2526 0012 0C49     		ldr	r1, .L220+4
 2527 0014 E01D     		add	r0, r4, #7
 2528              	.LVL265:
 2529 0016 1822     		mov	r2, #24
 2530 0018 FFF7FEFF 		bl	memcpy
 2531              	.LVL266:
1222:main.c        ****                                              ES_ADV_SVC_UUID_LENGTH + 
 2532              		.loc 1 1222 0
ARM GAS  C:\Users\ramanatg\AppData\Local\Temp\cc9tuycg.s 			page 77


 2533 001c 1F23     		mov	r3, #31
 2534 001e E377     		strb	r3, [r4, #31]
1225:main.c        ****         
 2535              		.loc 1 1225 0
 2536 0020 F5E7     		b	.L214
 2537              	.LVL267:
 2538              	.L217:
 2539 0022 FFF7FEFF 		bl	UpdateAdData3.part.2
 2540              	.LVL268:
 2541 0026 F2E7     		b	.L214
 2542              	.LVL269:
 2543              	.L216:
1231:main.c        ****         
 2544              		.loc 1 1231 0
 2545 0028 0649     		ldr	r1, .L220+4
1229:main.c        ****                    URL_FrameBuffer, 
 2546              		.loc 1 1229 0
 2547 002a 074D     		ldr	r5, .L220+8
1231:main.c        ****         
 2548              		.loc 1 1231 0
 2549 002c 0C7E     		ldrb	r4, [r1, #24]
1229:main.c        ****                    URL_FrameBuffer, 
 2550              		.loc 1 1229 0
 2551 002e 281C     		mov	r0, r5
 2552              	.LVL270:
1231:main.c        ****         
 2553              		.loc 1 1231 0
 2554 0030 621C     		add	r2, r4, #1
1229:main.c        ****                    URL_FrameBuffer, 
 2555              		.loc 1 1229 0
 2556 0032 1831     		add	r1, r1, #24
1234:main.c        ****                                              ES_ADV_SVC_UUID_LENGTH + \
 2557              		.loc 1 1234 0
 2558 0034 0834     		add	r4, r4, #8
1229:main.c        ****                    URL_FrameBuffer, 
 2559              		.loc 1 1229 0
 2560 0036 FFF7FEFF 		bl	memcpy
 2561              	.LVL271:
1234:main.c        ****                                              ES_ADV_SVC_UUID_LENGTH + \
 2562              		.loc 1 1234 0
 2563 003a 2C76     		strb	r4, [r5, #24]
1237:main.c        ****         
 2564              		.loc 1 1237 0
 2565 003c E7E7     		b	.L214
 2566              	.L221:
 2567 003e C046     		.align	2
 2568              	.L220:
 2569 0040 00000000 		.word	cyBle_discoveryData
 2570 0044 00000000 		.word	.LANCHOR2
 2571 0048 07000000 		.word	cyBle_discoveryData+7
 2572              		.cfi_endproc
 2573              	.LFE48:
 2574              		.size	UpdateAdData3, .-UpdateAdData3
 2575              		.global	beacon_state
 2576              		.global	wdt_trigger_on_flag
 2577              		.comm	Sensor_Flag,1,1
 2578              		.global	i2c_state
ARM GAS  C:\Users\ramanatg\AppData\Local\Temp\cc9tuycg.s 			page 78


 2579              		.comm	I2C_buffer,4,4
 2580              		.global	restartadvertisement
 2581              		.section	.rodata
 2582              		.align	2
 2583              		.set	.LANCHOR1,. + 0
 2584              		.type	DefaultTLMframe, %object
 2585              		.size	DefaultTLMframe, 18
 2586              	DefaultTLMframe:
 2587 0044 11       		.byte	17
 2588 0045 16       		.byte	22
 2589 0046 AA       		.byte	-86
 2590 0047 FE       		.byte	-2
 2591 0048 20       		.byte	32
 2592 0049 00       		.byte	0
 2593 004a 00       		.byte	0
 2594 004b 00       		.byte	0
 2595 004c 80       		.byte	-128
 2596 004d 00       		.byte	0
 2597 004e 00000000 		.space	8
 2597      00000000 
 2598 0056 0000     		.data
 2599              		.align	2
 2600              		.set	.LANCHOR2,. + 0
 2601              		.type	UID_FrameBuffer, %object
 2602              		.size	UID_FrameBuffer, 24
 2603              	UID_FrameBuffer:
 2604 0000 17       		.byte	23
 2605 0001 16       		.byte	22
 2606 0002 AA       		.byte	-86
 2607 0003 FE       		.byte	-2
 2608 0004 00       		.byte	0
 2609 0005 00000000 		.space	19
 2609      00000000 
 2609      00000000 
 2609      00000000 
 2609      000000
 2610              		.type	URL_FrameBuffer, %object
 2611              		.size	URL_FrameBuffer, 24
 2612              	URL_FrameBuffer:
 2613 0018 00       		.byte	0
 2614 0019 16       		.byte	22
 2615 001a AA       		.byte	-86
 2616 001b FE       		.byte	-2
 2617 001c 10       		.byte	16
 2618 001d 00000000 		.space	19
 2618      00000000 
 2618      00000000 
 2618      00000000 
 2618      000000
 2619              		.bss
 2620              		.align	2
 2621              		.set	.LANCHOR0,. + 0
 2622              		.type	wdt_trigger_on_flag, %object
 2623              		.size	wdt_trigger_on_flag, 1
 2624              	wdt_trigger_on_flag:
 2625 0000 00       		.space	1
 2626 0001 000000   		.space	3
ARM GAS  C:\Users\ramanatg\AppData\Local\Temp\cc9tuycg.s 			page 79


 2627              		.type	ES_ADV_CNT, %object
 2628              		.size	ES_ADV_CNT, 4
 2629              	ES_ADV_CNT:
 2630 0004 00000000 		.space	4
 2631              		.type	ES_SEC_CNT_ms, %object
 2632              		.size	ES_SEC_CNT_ms, 4
 2633              	ES_SEC_CNT_ms:
 2634 0008 00000000 		.space	4
 2635              		.type	ES_SEC_CNT, %object
 2636              		.size	ES_SEC_CNT, 4
 2637              	ES_SEC_CNT:
 2638 000c 00000000 		.space	4
 2639              		.type	CFG_txpwr, %object
 2640              		.size	CFG_txpwr, 1
 2641              	CFG_txpwr:
 2642 0010 00       		.space	1
 2643              		.type	restartadvertisement, %object
 2644              		.size	restartadvertisement, 1
 2645              	restartadvertisement:
 2646 0011 00       		.space	1
 2647              		.type	i2c_state, %object
 2648              		.size	i2c_state, 1
 2649              	i2c_state:
 2650 0012 00       		.space	1
 2651 0013 00       		.space	1
 2652              		.type	CFG_interval, %object
 2653              		.size	CFG_interval, 2
 2654              	CFG_interval:
 2655 0014 0000     		.space	2
 2656 0016 0000     		.space	2
 2657              		.type	pCFG, %object
 2658              		.size	pCFG, 4
 2659              	pCFG:
 2660 0018 00000000 		.space	4
 2661              		.type	beacon_state, %object
 2662              		.size	beacon_state, 1
 2663              	beacon_state:
 2664 001c 00       		.space	1
 2665 001d 000000   		.text
 2666              	.Letext0:
 2667              		.file 2 "c:\\program files (x86)\\cypress\\psoc creator\\4.0\\psoc creator\\import\\gnu\\arm\\4.9.
 2668              		.file 3 "c:\\program files (x86)\\cypress\\psoc creator\\4.0\\psoc creator\\import\\gnu\\arm\\4.9.
 2669              		.file 4 "Generated_Source\\PSoC4/cytypes.h"
 2670              		.file 5 "Generated_Source\\PSoC4/BLE_Stack.h"
 2671              		.file 6 "Generated_Source\\PSoC4/BLE_StackGap.h"
 2672              		.file 7 "Generated_Source\\PSoC4/BLE.h"
 2673              		.file 8 "./main.h"
 2674              		.file 9 "ConfigRW.h"
 2675              		.file 10 "Eddystone.h"
 2676              		.file 11 "Generated_Source\\PSoC4/CyLFClk.h"
 2677              		.file 12 "Generated_Source\\PSoC4/CyLib.h"
 2678              		.file 13 "Generated_Source\\PSoC4/WDT_Interrupt.h"
 2679              		.file 14 "Generated_Source\\PSoC4/cyPm.h"
 2680              		.file 15 "Generated_Source\\PSoC4/I2CM.h"
 2681              		.file 16 "Generated_Source\\PSoC4/I2CM_I2C.h"
 2682              		.file 17 "UartCmd.h"
 2683              		.file 18 "Generated_Source\\PSoC4/UART.h"
ARM GAS  C:\Users\ramanatg\AppData\Local\Temp\cc9tuycg.s 			page 80


 2684              		.file 19 "Generated_Source\\PSoC4/USB_Detect.h"
 2685              		.section	.debug_info,"",%progbits
 2686              	.Ldebug_info0:
 2687 0000 CA1F0000 		.4byte	0x1fca
 2688 0004 0400     		.2byte	0x4
 2689 0006 00000000 		.4byte	.Ldebug_abbrev0
 2690 000a 04       		.byte	0x4
 2691 000b 01       		.uleb128 0x1
 2692 000c 99110000 		.4byte	.LASF337
 2693 0010 01       		.byte	0x1
 2694 0011 05160000 		.4byte	.LASF338
 2695 0015 C9040000 		.4byte	.LASF339
 2696 0019 E0000000 		.4byte	.Ldebug_ranges0+0xe0
 2697 001d 00000000 		.4byte	0
 2698 0021 00000000 		.4byte	.Ldebug_line0
 2699 0025 02       		.uleb128 0x2
 2700 0026 B7100000 		.4byte	.LASF0
 2701 002a 02       		.byte	0x2
 2702 002b 1B       		.byte	0x1b
 2703 002c 30000000 		.4byte	0x30
 2704 0030 03       		.uleb128 0x3
 2705 0031 01       		.byte	0x1
 2706 0032 06       		.byte	0x6
 2707 0033 D91A0000 		.4byte	.LASF2
 2708 0037 02       		.uleb128 0x2
 2709 0038 9B150000 		.4byte	.LASF1
 2710 003c 02       		.byte	0x2
 2711 003d 1D       		.byte	0x1d
 2712 003e 42000000 		.4byte	0x42
 2713 0042 03       		.uleb128 0x3
 2714 0043 01       		.byte	0x1
 2715 0044 08       		.byte	0x8
 2716 0045 87180000 		.4byte	.LASF3
 2717 0049 02       		.uleb128 0x2
 2718 004a 300E0000 		.4byte	.LASF4
 2719 004e 02       		.byte	0x2
 2720 004f 29       		.byte	0x29
 2721 0050 54000000 		.4byte	0x54
 2722 0054 03       		.uleb128 0x3
 2723 0055 02       		.byte	0x2
 2724 0056 05       		.byte	0x5
 2725 0057 48130000 		.4byte	.LASF5
 2726 005b 02       		.uleb128 0x2
 2727 005c E0060000 		.4byte	.LASF6
 2728 0060 02       		.byte	0x2
 2729 0061 2B       		.byte	0x2b
 2730 0062 66000000 		.4byte	0x66
 2731 0066 03       		.uleb128 0x3
 2732 0067 02       		.byte	0x2
 2733 0068 07       		.byte	0x7
 2734 0069 E51A0000 		.4byte	.LASF7
 2735 006d 02       		.uleb128 0x2
 2736 006e 10030000 		.4byte	.LASF8
 2737 0072 02       		.byte	0x2
 2738 0073 3F       		.byte	0x3f
 2739 0074 78000000 		.4byte	0x78
 2740 0078 03       		.uleb128 0x3
ARM GAS  C:\Users\ramanatg\AppData\Local\Temp\cc9tuycg.s 			page 81


 2741 0079 04       		.byte	0x4
 2742 007a 05       		.byte	0x5
 2743 007b 71130000 		.4byte	.LASF9
 2744 007f 02       		.uleb128 0x2
 2745 0080 BD180000 		.4byte	.LASF10
 2746 0084 02       		.byte	0x2
 2747 0085 41       		.byte	0x41
 2748 0086 8A000000 		.4byte	0x8a
 2749 008a 03       		.uleb128 0x3
 2750 008b 04       		.byte	0x4
 2751 008c 07       		.byte	0x7
 2752 008d BC160000 		.4byte	.LASF11
 2753 0091 03       		.uleb128 0x3
 2754 0092 08       		.byte	0x8
 2755 0093 05       		.byte	0x5
 2756 0094 420C0000 		.4byte	.LASF12
 2757 0098 03       		.uleb128 0x3
 2758 0099 08       		.byte	0x8
 2759 009a 07       		.byte	0x7
 2760 009b 53060000 		.4byte	.LASF13
 2761 009f 04       		.uleb128 0x4
 2762 00a0 04       		.byte	0x4
 2763 00a1 05       		.byte	0x5
 2764 00a2 696E7400 		.ascii	"int\000"
 2765 00a6 03       		.uleb128 0x3
 2766 00a7 04       		.byte	0x4
 2767 00a8 07       		.byte	0x7
 2768 00a9 4B020000 		.4byte	.LASF14
 2769 00ad 02       		.uleb128 0x2
 2770 00ae 5A050000 		.4byte	.LASF15
 2771 00b2 03       		.byte	0x3
 2772 00b3 14       		.byte	0x14
 2773 00b4 25000000 		.4byte	0x25
 2774 00b8 02       		.uleb128 0x2
 2775 00b9 8B0C0000 		.4byte	.LASF16
 2776 00bd 03       		.byte	0x3
 2777 00be 15       		.byte	0x15
 2778 00bf 37000000 		.4byte	0x37
 2779 00c3 02       		.uleb128 0x2
 2780 00c4 26060000 		.4byte	.LASF17
 2781 00c8 03       		.byte	0x3
 2782 00c9 20       		.byte	0x20
 2783 00ca 49000000 		.4byte	0x49
 2784 00ce 02       		.uleb128 0x2
 2785 00cf 2B110000 		.4byte	.LASF18
 2786 00d3 03       		.byte	0x3
 2787 00d4 21       		.byte	0x21
 2788 00d5 5B000000 		.4byte	0x5b
 2789 00d9 02       		.uleb128 0x2
 2790 00da 4A170000 		.4byte	.LASF19
 2791 00de 03       		.byte	0x3
 2792 00df 2C       		.byte	0x2c
 2793 00e0 6D000000 		.4byte	0x6d
 2794 00e4 02       		.uleb128 0x2
 2795 00e5 51050000 		.4byte	.LASF20
 2796 00e9 03       		.byte	0x3
 2797 00ea 2D       		.byte	0x2d
ARM GAS  C:\Users\ramanatg\AppData\Local\Temp\cc9tuycg.s 			page 82


 2798 00eb 7F000000 		.4byte	0x7f
 2799 00ef 05       		.uleb128 0x5
 2800 00f0 7E1B0000 		.4byte	.LASF21
 2801 00f4 04       		.byte	0x4
 2802 00f5 B901     		.2byte	0x1b9
 2803 00f7 42000000 		.4byte	0x42
 2804 00fb 05       		.uleb128 0x5
 2805 00fc 3B0C0000 		.4byte	.LASF22
 2806 0100 04       		.byte	0x4
 2807 0101 BA01     		.2byte	0x1ba
 2808 0103 66000000 		.4byte	0x66
 2809 0107 05       		.uleb128 0x5
 2810 0108 6F0F0000 		.4byte	.LASF23
 2811 010c 04       		.byte	0x4
 2812 010d BB01     		.2byte	0x1bb
 2813 010f 8A000000 		.4byte	0x8a
 2814 0113 03       		.uleb128 0x3
 2815 0114 04       		.byte	0x4
 2816 0115 04       		.byte	0x4
 2817 0116 C1050000 		.4byte	.LASF24
 2818 011a 03       		.uleb128 0x3
 2819 011b 08       		.byte	0x8
 2820 011c 04       		.byte	0x4
 2821 011d F7080000 		.4byte	.LASF25
 2822 0121 03       		.uleb128 0x3
 2823 0122 01       		.byte	0x1
 2824 0123 08       		.byte	0x8
 2825 0124 160B0000 		.4byte	.LASF26
 2826 0128 05       		.uleb128 0x5
 2827 0129 22180000 		.4byte	.LASF27
 2828 012d 04       		.byte	0x4
 2829 012e 5B02     		.2byte	0x25b
 2830 0130 8A000000 		.4byte	0x8a
 2831 0134 05       		.uleb128 0x5
 2832 0135 BC0E0000 		.4byte	.LASF28
 2833 0139 04       		.byte	0x4
 2834 013a 7502     		.2byte	0x275
 2835 013c 40010000 		.4byte	0x140
 2836 0140 06       		.uleb128 0x6
 2837 0141 04       		.byte	0x4
 2838 0142 46010000 		.4byte	0x146
 2839 0146 07       		.uleb128 0x7
 2840 0147 03       		.uleb128 0x3
 2841 0148 04       		.byte	0x4
 2842 0149 07       		.byte	0x7
 2843 014a 92160000 		.4byte	.LASF29
 2844 014e 08       		.uleb128 0x8
 2845 014f 04       		.byte	0x4
 2846 0150 06       		.uleb128 0x6
 2847 0151 04       		.byte	0x4
 2848 0152 56010000 		.4byte	0x156
 2849 0156 09       		.uleb128 0x9
 2850 0157 66010000 		.4byte	0x166
 2851 015b 0A       		.uleb128 0xa
 2852 015c 07010000 		.4byte	0x107
 2853 0160 0A       		.uleb128 0xa
 2854 0161 4E010000 		.4byte	0x14e
ARM GAS  C:\Users\ramanatg\AppData\Local\Temp\cc9tuycg.s 			page 83


 2855 0165 00       		.byte	0
 2856 0166 0B       		.uleb128 0xb
 2857 0167 01       		.byte	0x1
 2858 0168 05       		.byte	0x5
 2859 0169 4D01     		.2byte	0x14d
 2860 016b 49030000 		.4byte	0x349
 2861 016f 0C       		.uleb128 0xc
 2862 0170 75140000 		.4byte	.LASF30
 2863 0174 00       		.sleb128 0
 2864 0175 0C       		.uleb128 0xc
 2865 0176 280C0000 		.4byte	.LASF31
 2866 017a 01       		.sleb128 1
 2867 017b 0C       		.uleb128 0xc
 2868 017c 79120000 		.4byte	.LASF32
 2869 0180 02       		.sleb128 2
 2870 0181 0C       		.uleb128 0xc
 2871 0182 27020000 		.4byte	.LASF33
 2872 0186 03       		.sleb128 3
 2873 0187 0C       		.uleb128 0xc
 2874 0188 D90A0000 		.4byte	.LASF34
 2875 018c 04       		.sleb128 4
 2876 018d 0C       		.uleb128 0xc
 2877 018e DD050000 		.4byte	.LASF35
 2878 0192 05       		.sleb128 5
 2879 0193 0C       		.uleb128 0xc
 2880 0194 09180000 		.4byte	.LASF36
 2881 0198 06       		.sleb128 6
 2882 0199 0C       		.uleb128 0xc
 2883 019a B5140000 		.4byte	.LASF37
 2884 019e 20       		.sleb128 32
 2885 019f 0C       		.uleb128 0xc
 2886 01a0 AB000000 		.4byte	.LASF38
 2887 01a4 21       		.sleb128 33
 2888 01a5 0C       		.uleb128 0xc
 2889 01a6 B8030000 		.4byte	.LASF39
 2890 01aa 22       		.sleb128 34
 2891 01ab 0C       		.uleb128 0xc
 2892 01ac E1090000 		.4byte	.LASF40
 2893 01b0 23       		.sleb128 35
 2894 01b1 0C       		.uleb128 0xc
 2895 01b2 A2080000 		.4byte	.LASF41
 2896 01b6 24       		.sleb128 36
 2897 01b7 0C       		.uleb128 0xc
 2898 01b8 F6060000 		.4byte	.LASF42
 2899 01bc 25       		.sleb128 37
 2900 01bd 0C       		.uleb128 0xc
 2901 01be 1B0F0000 		.4byte	.LASF43
 2902 01c2 26       		.sleb128 38
 2903 01c3 0C       		.uleb128 0xc
 2904 01c4 141A0000 		.4byte	.LASF44
 2905 01c8 27       		.sleb128 39
 2906 01c9 0C       		.uleb128 0xc
 2907 01ca A5150000 		.4byte	.LASF45
 2908 01ce 28       		.sleb128 40
 2909 01cf 0C       		.uleb128 0xc
 2910 01d0 98120000 		.4byte	.LASF46
 2911 01d4 29       		.sleb128 41
ARM GAS  C:\Users\ramanatg\AppData\Local\Temp\cc9tuycg.s 			page 84


 2912 01d5 0C       		.uleb128 0xc
 2913 01d6 64040000 		.4byte	.LASF47
 2914 01da 2A       		.sleb128 42
 2915 01db 0C       		.uleb128 0xc
 2916 01dc 0D080000 		.4byte	.LASF48
 2917 01e0 2B       		.sleb128 43
 2918 01e1 0C       		.uleb128 0xc
 2919 01e2 37150000 		.4byte	.LASF49
 2920 01e6 2C       		.sleb128 44
 2921 01e7 0C       		.uleb128 0xc
 2922 01e8 CD0D0000 		.4byte	.LASF50
 2923 01ec 2D       		.sleb128 45
 2924 01ed 0C       		.uleb128 0xc
 2925 01ee 37180000 		.4byte	.LASF51
 2926 01f2 2E       		.sleb128 46
 2927 01f3 0C       		.uleb128 0xc
 2928 01f4 AC0F0000 		.4byte	.LASF52
 2929 01f8 2F       		.sleb128 47
 2930 01f9 0C       		.uleb128 0xc
 2931 01fa 83130000 		.4byte	.LASF53
 2932 01fe 30       		.sleb128 48
 2933 01ff 0C       		.uleb128 0xc
 2934 0200 DB0C0000 		.4byte	.LASF54
 2935 0204 31       		.sleb128 49
 2936 0205 0C       		.uleb128 0xc
 2937 0206 EF140000 		.4byte	.LASF55
 2938 020a 32       		.sleb128 50
 2939 020b 0C       		.uleb128 0xc
 2940 020c C0100000 		.4byte	.LASF56
 2941 0210 33       		.sleb128 51
 2942 0211 0C       		.uleb128 0xc
 2943 0212 8F170000 		.4byte	.LASF57
 2944 0216 34       		.sleb128 52
 2945 0217 0C       		.uleb128 0xc
 2946 0218 97010000 		.4byte	.LASF58
 2947 021c 35       		.sleb128 53
 2948 021d 0C       		.uleb128 0xc
 2949 021e 8F1A0000 		.4byte	.LASF59
 2950 0222 36       		.sleb128 54
 2951 0223 0C       		.uleb128 0xc
 2952 0224 A6190000 		.4byte	.LASF60
 2953 0228 37       		.sleb128 55
 2954 0229 0C       		.uleb128 0xc
 2955 022a B30D0000 		.4byte	.LASF61
 2956 022e C000     		.sleb128 64
 2957 0230 0C       		.uleb128 0xc
 2958 0231 BA130000 		.4byte	.LASF62
 2959 0235 C100     		.sleb128 65
 2960 0237 0C       		.uleb128 0xc
 2961 0238 6E010000 		.4byte	.LASF63
 2962 023c C200     		.sleb128 66
 2963 023e 0C       		.uleb128 0xc
 2964 023f 601A0000 		.4byte	.LASF64
 2965 0243 C300     		.sleb128 67
 2966 0245 0C       		.uleb128 0xc
 2967 0246 FE080000 		.4byte	.LASF65
 2968 024a C400     		.sleb128 68
ARM GAS  C:\Users\ramanatg\AppData\Local\Temp\cc9tuycg.s 			page 85


 2969 024c 0C       		.uleb128 0xc
 2970 024d 10150000 		.4byte	.LASF66
 2971 0251 C500     		.sleb128 69
 2972 0253 0C       		.uleb128 0xc
 2973 0254 1B0B0000 		.4byte	.LASF67
 2974 0258 C600     		.sleb128 70
 2975 025a 0C       		.uleb128 0xc
 2976 025b 46070000 		.4byte	.LASF68
 2977 025f C700     		.sleb128 71
 2978 0261 0C       		.uleb128 0xc
 2979 0262 96070000 		.4byte	.LASF69
 2980 0266 C800     		.sleb128 72
 2981 0268 0C       		.uleb128 0xc
 2982 0269 02190000 		.4byte	.LASF70
 2983 026d C900     		.sleb128 73
 2984 026f 0C       		.uleb128 0xc
 2985 0270 74090000 		.4byte	.LASF71
 2986 0274 CA00     		.sleb128 74
 2987 0276 0C       		.uleb128 0xc
 2988 0277 FA130000 		.4byte	.LASF72
 2989 027b CB00     		.sleb128 75
 2990 027d 0C       		.uleb128 0xc
 2991 027e 6A060000 		.4byte	.LASF73
 2992 0282 CC00     		.sleb128 76
 2993 0284 0C       		.uleb128 0xc
 2994 0285 A7050000 		.4byte	.LASF74
 2995 0289 CD00     		.sleb128 77
 2996 028b 0C       		.uleb128 0xc
 2997 028c D9020000 		.4byte	.LASF75
 2998 0290 CE00     		.sleb128 78
 2999 0292 0C       		.uleb128 0xc
 3000 0293 411A0000 		.4byte	.LASF76
 3001 0297 CF00     		.sleb128 79
 3002 0299 0C       		.uleb128 0xc
 3003 029a DA070000 		.4byte	.LASF77
 3004 029e D000     		.sleb128 80
 3005 02a0 0C       		.uleb128 0xc
 3006 02a1 2C080000 		.4byte	.LASF78
 3007 02a5 D100     		.sleb128 81
 3008 02a7 0C       		.uleb128 0xc
 3009 02a8 2A000000 		.4byte	.LASF79
 3010 02ac D200     		.sleb128 82
 3011 02ae 0C       		.uleb128 0xc
 3012 02af 3E110000 		.4byte	.LASF80
 3013 02b3 D300     		.sleb128 83
 3014 02b5 0C       		.uleb128 0xc
 3015 02b6 43040000 		.4byte	.LASF81
 3016 02ba D400     		.sleb128 84
 3017 02bc 0C       		.uleb128 0xc
 3018 02bd E5010000 		.4byte	.LASF82
 3019 02c1 D500     		.sleb128 85
 3020 02c3 0C       		.uleb128 0xc
 3021 02c4 480D0000 		.4byte	.LASF83
 3022 02c8 D600     		.sleb128 86
 3023 02ca 0C       		.uleb128 0xc
 3024 02cb 62080000 		.4byte	.LASF84
 3025 02cf D700     		.sleb128 87
ARM GAS  C:\Users\ramanatg\AppData\Local\Temp\cc9tuycg.s 			page 86


 3026 02d1 0C       		.uleb128 0xc
 3027 02d2 42100000 		.4byte	.LASF85
 3028 02d6 D800     		.sleb128 88
 3029 02d8 0C       		.uleb128 0xc
 3030 02d9 650C0000 		.4byte	.LASF86
 3031 02dd F000     		.sleb128 112
 3032 02df 0C       		.uleb128 0xc
 3033 02e0 BB090000 		.4byte	.LASF87
 3034 02e4 F100     		.sleb128 113
 3035 02e6 0C       		.uleb128 0xc
 3036 02e7 F9050000 		.4byte	.LASF88
 3037 02eb F200     		.sleb128 114
 3038 02ed 0C       		.uleb128 0xc
 3039 02ee 0C000000 		.4byte	.LASF89
 3040 02f2 F300     		.sleb128 115
 3041 02f4 0C       		.uleb128 0xc
 3042 02f5 070A0000 		.4byte	.LASF90
 3043 02f9 F400     		.sleb128 116
 3044 02fb 0C       		.uleb128 0xc
 3045 02fc 36140000 		.4byte	.LASF91
 3046 0300 F500     		.sleb128 117
 3047 0302 0C       		.uleb128 0xc
 3048 0303 E9190000 		.4byte	.LASF92
 3049 0307 F600     		.sleb128 118
 3050 0309 0C       		.uleb128 0xc
 3051 030a 870F0000 		.4byte	.LASF93
 3052 030e F700     		.sleb128 119
 3053 0310 0C       		.uleb128 0xc
 3054 0311 DC030000 		.4byte	.LASF94
 3055 0315 F800     		.sleb128 120
 3056 0317 0C       		.uleb128 0xc
 3057 0318 A7020000 		.4byte	.LASF95
 3058 031c F900     		.sleb128 121
 3059 031e 0C       		.uleb128 0xc
 3060 031f 61170000 		.4byte	.LASF96
 3061 0323 FA00     		.sleb128 122
 3062 0325 0C       		.uleb128 0xc
 3063 0326 61050000 		.4byte	.LASF97
 3064 032a FA01     		.sleb128 250
 3065 032c 0C       		.uleb128 0xc
 3066 032d 58020000 		.4byte	.LASF98
 3067 0331 FB01     		.sleb128 251
 3068 0333 0C       		.uleb128 0xc
 3069 0334 E90F0000 		.4byte	.LASF99
 3070 0338 FC01     		.sleb128 252
 3071 033a 0C       		.uleb128 0xc
 3072 033b 2C090000 		.4byte	.LASF100
 3073 033f FD01     		.sleb128 253
 3074 0341 0C       		.uleb128 0xc
 3075 0342 D5130000 		.4byte	.LASF101
 3076 0346 FF01     		.sleb128 255
 3077 0348 00       		.byte	0
 3078 0349 0B       		.uleb128 0xb
 3079 034a 02       		.byte	0x2
 3080 034b 05       		.byte	0x5
 3081 034c 0204     		.2byte	0x402
 3082 034e 20040000 		.4byte	0x420
ARM GAS  C:\Users\ramanatg\AppData\Local\Temp\cc9tuycg.s 			page 87


 3083 0352 0C       		.uleb128 0xc
 3084 0353 841B0000 		.4byte	.LASF102
 3085 0357 00       		.sleb128 0
 3086 0358 0C       		.uleb128 0xc
 3087 0359 97140000 		.4byte	.LASF103
 3088 035d 01       		.sleb128 1
 3089 035e 0C       		.uleb128 0xc
 3090 035f 09020000 		.4byte	.LASF104
 3091 0363 02       		.sleb128 2
 3092 0364 0C       		.uleb128 0xc
 3093 0365 9F0A0000 		.4byte	.LASF105
 3094 0369 03       		.sleb128 3
 3095 036a 0C       		.uleb128 0xc
 3096 036b A30B0000 		.4byte	.LASF106
 3097 036f 04       		.sleb128 4
 3098 0370 0C       		.uleb128 0xc
 3099 0371 92090000 		.4byte	.LASF107
 3100 0375 05       		.sleb128 5
 3101 0376 0C       		.uleb128 0xc
 3102 0377 23170000 		.4byte	.LASF108
 3103 037b 06       		.sleb128 6
 3104 037c 0C       		.uleb128 0xc
 3105 037d 39030000 		.4byte	.LASF109
 3106 0381 07       		.sleb128 7
 3107 0382 0C       		.uleb128 0xc
 3108 0383 27120000 		.4byte	.LASF110
 3109 0387 08       		.sleb128 8
 3110 0388 0C       		.uleb128 0xc
 3111 0389 2C010000 		.4byte	.LASF111
 3112 038d 09       		.sleb128 9
 3113 038e 0C       		.uleb128 0xc
 3114 038f 65110000 		.4byte	.LASF112
 3115 0393 0A       		.sleb128 10
 3116 0394 0C       		.uleb128 0xc
 3117 0395 BE080000 		.4byte	.LASF113
 3118 0399 0B       		.sleb128 11
 3119 039a 0C       		.uleb128 0xc
 3120 039b FF0A0000 		.4byte	.LASF114
 3121 039f 0C       		.sleb128 12
 3122 03a0 0C       		.uleb128 0xc
 3123 03a1 E20E0000 		.4byte	.LASF115
 3124 03a5 0D       		.sleb128 13
 3125 03a6 0C       		.uleb128 0xc
 3126 03a7 D9160000 		.4byte	.LASF116
 3127 03ab 0E       		.sleb128 14
 3128 03ac 0C       		.uleb128 0xc
 3129 03ad 0E100000 		.4byte	.LASF117
 3130 03b1 0F       		.sleb128 15
 3131 03b2 0C       		.uleb128 0xc
 3132 03b3 6B0E0000 		.4byte	.LASF118
 3133 03b7 10       		.sleb128 16
 3134 03b8 0C       		.uleb128 0xc
 3135 03b9 77150000 		.4byte	.LASF119
 3136 03bd 11       		.sleb128 17
 3137 03be 0C       		.uleb128 0xc
 3138 03bf 5B1B0000 		.4byte	.LASF120
 3139 03c3 12       		.sleb128 18
ARM GAS  C:\Users\ramanatg\AppData\Local\Temp\cc9tuycg.s 			page 88


 3140 03c4 0C       		.uleb128 0xc
 3141 03c5 F60D0000 		.4byte	.LASF121
 3142 03c9 13       		.sleb128 19
 3143 03ca 0C       		.uleb128 0xc
 3144 03cb 930C0000 		.4byte	.LASF122
 3145 03cf 27       		.sleb128 39
 3146 03d0 0C       		.uleb128 0xc
 3147 03d1 520B0000 		.4byte	.LASF123
 3148 03d5 28       		.sleb128 40
 3149 03d6 0C       		.uleb128 0xc
 3150 03d7 ED0B0000 		.4byte	.LASF124
 3151 03db 29       		.sleb128 41
 3152 03dc 0C       		.uleb128 0xc
 3153 03dd 51010000 		.4byte	.LASF125
 3154 03e1 2A       		.sleb128 42
 3155 03e2 0C       		.uleb128 0xc
 3156 03e3 C4120000 		.4byte	.LASF126
 3157 03e7 2B       		.sleb128 43
 3158 03e8 0C       		.uleb128 0xc
 3159 03e9 45120000 		.4byte	.LASF127
 3160 03ed 2C       		.sleb128 44
 3161 03ee 0C       		.uleb128 0xc
 3162 03ef 3F1B0000 		.4byte	.LASF128
 3163 03f3 FE01     		.sleb128 254
 3164 03f5 0C       		.uleb128 0xc
 3165 03f6 3A0E0000 		.4byte	.LASF129
 3166 03fa FF01     		.sleb128 255
 3167 03fc 0C       		.uleb128 0xc
 3168 03fd 130D0000 		.4byte	.LASF130
 3169 0401 8002     		.sleb128 256
 3170 0403 0C       		.uleb128 0xc
 3171 0404 DE080000 		.4byte	.LASF131
 3172 0408 8102     		.sleb128 257
 3173 040a 0C       		.uleb128 0xc
 3174 040b F7120000 		.4byte	.LASF132
 3175 040f 8202     		.sleb128 258
 3176 0411 0C       		.uleb128 0xc
 3177 0412 8B030000 		.4byte	.LASF133
 3178 0416 8302     		.sleb128 259
 3179 0418 0C       		.uleb128 0xc
 3180 0419 2C0D0000 		.4byte	.LASF134
 3181 041d 8402     		.sleb128 260
 3182 041f 00       		.byte	0
 3183 0420 05       		.uleb128 0x5
 3184 0421 FB0F0000 		.4byte	.LASF135
 3185 0425 05       		.byte	0x5
 3186 0426 7104     		.2byte	0x471
 3187 0428 49030000 		.4byte	0x349
 3188 042c 0B       		.uleb128 0xb
 3189 042d 01       		.byte	0x1
 3190 042e 05       		.byte	0x5
 3191 042f 7504     		.2byte	0x475
 3192 0431 55040000 		.4byte	0x455
 3193 0435 0C       		.uleb128 0xc
 3194 0436 3B060000 		.4byte	.LASF136
 3195 043a 01       		.sleb128 1
 3196 043b 0C       		.uleb128 0xc
ARM GAS  C:\Users\ramanatg\AppData\Local\Temp\cc9tuycg.s 			page 89


 3197 043c B21B0000 		.4byte	.LASF137
 3198 0440 02       		.sleb128 2
 3199 0441 0C       		.uleb128 0xc
 3200 0442 D9140000 		.4byte	.LASF138
 3201 0446 03       		.sleb128 3
 3202 0447 0C       		.uleb128 0xc
 3203 0448 83190000 		.4byte	.LASF139
 3204 044c 04       		.sleb128 4
 3205 044d 0C       		.uleb128 0xc
 3206 044e D50F0000 		.4byte	.LASF140
 3207 0452 FF01     		.sleb128 255
 3208 0454 00       		.byte	0
 3209 0455 05       		.uleb128 0x5
 3210 0456 6A030000 		.4byte	.LASF141
 3211 045a 05       		.byte	0x5
 3212 045b 9104     		.2byte	0x491
 3213 045d 2C040000 		.4byte	0x42c
 3214 0461 0B       		.uleb128 0xb
 3215 0462 01       		.byte	0x1
 3216 0463 05       		.byte	0x5
 3217 0464 9504     		.2byte	0x495
 3218 0466 9C040000 		.4byte	0x49c
 3219 046a 0C       		.uleb128 0xc
 3220 046b D21B0000 		.4byte	.LASF142
 3221 046f 01       		.sleb128 1
 3222 0470 0C       		.uleb128 0xc
 3223 0471 EB1B0000 		.4byte	.LASF143
 3224 0475 02       		.sleb128 2
 3225 0476 0C       		.uleb128 0xc
 3226 0477 64070000 		.4byte	.LASF144
 3227 047b 03       		.sleb128 3
 3228 047c 0C       		.uleb128 0xc
 3229 047d 5C140000 		.4byte	.LASF145
 3230 0481 04       		.sleb128 4
 3231 0482 0C       		.uleb128 0xc
 3232 0483 1B190000 		.4byte	.LASF146
 3233 0487 05       		.sleb128 5
 3234 0488 0C       		.uleb128 0xc
 3235 0489 970D0000 		.4byte	.LASF147
 3236 048d 06       		.sleb128 6
 3237 048e 0C       		.uleb128 0xc
 3238 048f 5B150000 		.4byte	.LASF148
 3239 0493 07       		.sleb128 7
 3240 0494 0C       		.uleb128 0xc
 3241 0495 7F110000 		.4byte	.LASF149
 3242 0499 FF01     		.sleb128 255
 3243 049b 00       		.byte	0
 3244 049c 05       		.uleb128 0x5
 3245 049d B5170000 		.4byte	.LASF150
 3246 04a1 05       		.byte	0x5
 3247 04a2 A604     		.2byte	0x4a6
 3248 04a4 61040000 		.4byte	0x461
 3249 04a8 0B       		.uleb128 0xb
 3250 04a9 01       		.byte	0x1
 3251 04aa 05       		.byte	0x5
 3252 04ab AA04     		.2byte	0x4aa
 3253 04ad E8040000 		.4byte	0x4e8
ARM GAS  C:\Users\ramanatg\AppData\Local\Temp\cc9tuycg.s 			page 90


 3254 04b1 0C       		.uleb128 0xc
 3255 04b2 C7150000 		.4byte	.LASF151
 3256 04b6 01       		.sleb128 1
 3257 04b7 0C       		.uleb128 0xc
 3258 04b8 38190000 		.4byte	.LASF152
 3259 04bc 02       		.sleb128 2
 3260 04bd 0C       		.uleb128 0xc
 3261 04be DA000000 		.4byte	.LASF153
 3262 04c2 03       		.sleb128 3
 3263 04c3 0C       		.uleb128 0xc
 3264 04c4 8C020000 		.4byte	.LASF154
 3265 04c8 04       		.sleb128 4
 3266 04c9 0C       		.uleb128 0xc
 3267 04ca D20B0000 		.4byte	.LASF155
 3268 04ce 05       		.sleb128 5
 3269 04cf 0C       		.uleb128 0xc
 3270 04d0 77160000 		.4byte	.LASF156
 3271 04d4 06       		.sleb128 6
 3272 04d5 0C       		.uleb128 0xc
 3273 04d6 4B080000 		.4byte	.LASF157
 3274 04da 07       		.sleb128 7
 3275 04db 0C       		.uleb128 0xc
 3276 04dc 94060000 		.4byte	.LASF158
 3277 04e0 08       		.sleb128 8
 3278 04e1 0C       		.uleb128 0xc
 3279 04e2 F81A0000 		.4byte	.LASF159
 3280 04e6 09       		.sleb128 9
 3281 04e7 00       		.byte	0
 3282 04e8 05       		.uleb128 0x5
 3283 04e9 5B130000 		.4byte	.LASF160
 3284 04ed 05       		.byte	0x5
 3285 04ee C104     		.2byte	0x4c1
 3286 04f0 A8040000 		.4byte	0x4a8
 3287 04f4 0B       		.uleb128 0xb
 3288 04f5 01       		.byte	0x1
 3289 04f6 05       		.byte	0x5
 3290 04f7 C504     		.2byte	0x4c5
 3291 04f9 10050000 		.4byte	0x510
 3292 04fd 0C       		.uleb128 0xc
 3293 04fe 500C0000 		.4byte	.LASF161
 3294 0502 00       		.sleb128 0
 3295 0503 0C       		.uleb128 0xc
 3296 0504 C50C0000 		.4byte	.LASF162
 3297 0508 01       		.sleb128 1
 3298 0509 0C       		.uleb128 0xc
 3299 050a 0D1B0000 		.4byte	.LASF163
 3300 050e 02       		.sleb128 2
 3301 050f 00       		.byte	0
 3302 0510 05       		.uleb128 0x5
 3303 0511 5D120000 		.4byte	.LASF164
 3304 0515 05       		.byte	0x5
 3305 0516 CC04     		.2byte	0x4cc
 3306 0518 F4040000 		.4byte	0x4f4
 3307 051c 0D       		.uleb128 0xd
 3308 051d 02       		.byte	0x2
 3309 051e 05       		.byte	0x5
 3310 051f CF04     		.2byte	0x4cf
ARM GAS  C:\Users\ramanatg\AppData\Local\Temp\cc9tuycg.s 			page 91


 3311 0521 40050000 		.4byte	0x540
 3312 0525 0E       		.uleb128 0xe
 3313 0526 F1180000 		.4byte	.LASF165
 3314 052a 05       		.byte	0x5
 3315 052b D204     		.2byte	0x4d2
 3316 052d E8040000 		.4byte	0x4e8
 3317 0531 00       		.byte	0
 3318 0532 0E       		.uleb128 0xe
 3319 0533 E7100000 		.4byte	.LASF166
 3320 0537 05       		.byte	0x5
 3321 0538 D404     		.2byte	0x4d4
 3322 053a 10050000 		.4byte	0x510
 3323 053e 01       		.byte	0x1
 3324 053f 00       		.byte	0
 3325 0540 05       		.uleb128 0x5
 3326 0541 2B040000 		.4byte	.LASF167
 3327 0545 05       		.byte	0x5
 3328 0546 D504     		.2byte	0x4d5
 3329 0548 1C050000 		.4byte	0x51c
 3330 054c 0F       		.uleb128 0xf
 3331 054d EF000000 		.4byte	0xef
 3332 0551 5C050000 		.4byte	0x55c
 3333 0555 10       		.uleb128 0x10
 3334 0556 47010000 		.4byte	0x147
 3335 055a 05       		.byte	0x5
 3336 055b 00       		.byte	0
 3337 055c 06       		.uleb128 0x6
 3338 055d 04       		.byte	0x4
 3339 055e EF000000 		.4byte	0xef
 3340 0562 11       		.uleb128 0x11
 3341 0563 01       		.byte	0x1
 3342 0564 06       		.byte	0x6
 3343 0565 E0       		.byte	0xe0
 3344 0566 89050000 		.4byte	0x589
 3345 056a 0C       		.uleb128 0xc
 3346 056b 250A0000 		.4byte	.LASF168
 3347 056f 00       		.sleb128 0
 3348 0570 0C       		.uleb128 0xc
 3349 0571 5B180000 		.4byte	.LASF169
 3350 0575 01       		.sleb128 1
 3351 0576 0C       		.uleb128 0xc
 3352 0577 E5170000 		.4byte	.LASF170
 3353 057b 02       		.sleb128 2
 3354 057c 0C       		.uleb128 0xc
 3355 057d 10070000 		.4byte	.LASF171
 3356 0581 03       		.sleb128 3
 3357 0582 0C       		.uleb128 0xc
 3358 0583 560A0000 		.4byte	.LASF172
 3359 0587 04       		.sleb128 4
 3360 0588 00       		.byte	0
 3361 0589 02       		.uleb128 0x2
 3362 058a EE0A0000 		.4byte	.LASF173
 3363 058e 06       		.byte	0x6
 3364 058f F0       		.byte	0xf0
 3365 0590 62050000 		.4byte	0x562
 3366 0594 0D       		.uleb128 0xd
 3367 0595 10       		.byte	0x10
ARM GAS  C:\Users\ramanatg\AppData\Local\Temp\cc9tuycg.s 			page 92


 3368 0596 06       		.byte	0x6
 3369 0597 2102     		.2byte	0x221
 3370 0599 06060000 		.4byte	0x606
 3371 059d 0E       		.uleb128 0xe
 3372 059e EB060000 		.4byte	.LASF174
 3373 05a2 06       		.byte	0x6
 3374 05a3 2702     		.2byte	0x227
 3375 05a5 FB000000 		.4byte	0xfb
 3376 05a9 00       		.byte	0
 3377 05aa 0E       		.uleb128 0xe
 3378 05ab E3150000 		.4byte	.LASF175
 3379 05af 06       		.byte	0x6
 3380 05b0 2D02     		.2byte	0x22d
 3381 05b2 FB000000 		.4byte	0xfb
 3382 05b6 02       		.byte	0x2
 3383 05b7 0E       		.uleb128 0xe
 3384 05b8 2E1B0000 		.4byte	.LASF176
 3385 05bc 06       		.byte	0x6
 3386 05bd 3602     		.2byte	0x236
 3387 05bf 89050000 		.4byte	0x589
 3388 05c3 04       		.byte	0x4
 3389 05c4 0E       		.uleb128 0xe
 3390 05c5 C60B0000 		.4byte	.LASF177
 3391 05c9 06       		.byte	0x6
 3392 05ca 3E02     		.2byte	0x23e
 3393 05cc EF000000 		.4byte	0xef
 3394 05d0 05       		.byte	0x5
 3395 05d1 0E       		.uleb128 0xe
 3396 05d2 52170000 		.4byte	.LASF178
 3397 05d6 06       		.byte	0x6
 3398 05d7 4502     		.2byte	0x245
 3399 05d9 EF000000 		.4byte	0xef
 3400 05dd 06       		.byte	0x6
 3401 05de 0E       		.uleb128 0xe
 3402 05df F7020000 		.4byte	.LASF179
 3403 05e3 06       		.byte	0x6
 3404 05e4 4B02     		.2byte	0x24b
 3405 05e6 4C050000 		.4byte	0x54c
 3406 05ea 07       		.byte	0x7
 3407 05eb 0E       		.uleb128 0xe
 3408 05ec C41B0000 		.4byte	.LASF180
 3409 05f0 06       		.byte	0x6
 3410 05f1 5302     		.2byte	0x253
 3411 05f3 EF000000 		.4byte	0xef
 3412 05f7 0D       		.byte	0xd
 3413 05f8 0E       		.uleb128 0xe
 3414 05f9 A7100000 		.4byte	.LASF181
 3415 05fd 06       		.byte	0x6
 3416 05fe 5F02     		.2byte	0x25f
 3417 0600 EF000000 		.4byte	0xef
 3418 0604 0E       		.byte	0xe
 3419 0605 00       		.byte	0
 3420 0606 05       		.uleb128 0x5
 3421 0607 1A030000 		.4byte	.LASF182
 3422 060b 06       		.byte	0x6
 3423 060c 6102     		.2byte	0x261
 3424 060e 94050000 		.4byte	0x594
ARM GAS  C:\Users\ramanatg\AppData\Local\Temp\cc9tuycg.s 			page 93


 3425 0612 0D       		.uleb128 0xd
 3426 0613 20       		.byte	0x20
 3427 0614 06       		.byte	0x6
 3428 0615 6402     		.2byte	0x264
 3429 0617 36060000 		.4byte	0x636
 3430 061b 0E       		.uleb128 0xe
 3431 061c 200C0000 		.4byte	.LASF183
 3432 0620 06       		.byte	0x6
 3433 0621 6702     		.2byte	0x267
 3434 0623 36060000 		.4byte	0x636
 3435 0627 00       		.byte	0
 3436 0628 0E       		.uleb128 0xe
 3437 0629 0D170000 		.4byte	.LASF184
 3438 062d 06       		.byte	0x6
 3439 062e 6A02     		.2byte	0x26a
 3440 0630 EF000000 		.4byte	0xef
 3441 0634 1F       		.byte	0x1f
 3442 0635 00       		.byte	0
 3443 0636 0F       		.uleb128 0xf
 3444 0637 EF000000 		.4byte	0xef
 3445 063b 46060000 		.4byte	0x646
 3446 063f 10       		.uleb128 0x10
 3447 0640 47010000 		.4byte	0x147
 3448 0644 1E       		.byte	0x1e
 3449 0645 00       		.byte	0
 3450 0646 05       		.uleb128 0x5
 3451 0647 17160000 		.4byte	.LASF185
 3452 064b 06       		.byte	0x6
 3453 064c 6C02     		.2byte	0x26c
 3454 064e 12060000 		.4byte	0x612
 3455 0652 0D       		.uleb128 0xd
 3456 0653 20       		.byte	0x20
 3457 0654 06       		.byte	0x6
 3458 0655 6F02     		.2byte	0x26f
 3459 0657 76060000 		.4byte	0x676
 3460 065b 0E       		.uleb128 0xe
 3461 065c 95180000 		.4byte	.LASF186
 3462 0660 06       		.byte	0x6
 3463 0661 7302     		.2byte	0x273
 3464 0663 36060000 		.4byte	0x636
 3465 0667 00       		.byte	0
 3466 0668 0E       		.uleb128 0xe
 3467 0669 940B0000 		.4byte	.LASF187
 3468 066d 06       		.byte	0x6
 3469 066e 7602     		.2byte	0x276
 3470 0670 EF000000 		.4byte	0xef
 3471 0674 1F       		.byte	0x1f
 3472 0675 00       		.byte	0
 3473 0676 05       		.uleb128 0x5
 3474 0677 B4010000 		.4byte	.LASF188
 3475 067b 06       		.byte	0x6
 3476 067c 7802     		.2byte	0x278
 3477 067e 52060000 		.4byte	0x652
 3478 0682 0D       		.uleb128 0xd
 3479 0683 14       		.byte	0x14
 3480 0684 06       		.byte	0x6
 3481 0685 7B02     		.2byte	0x27b
ARM GAS  C:\Users\ramanatg\AppData\Local\Temp\cc9tuycg.s 			page 94


 3482 0687 CD060000 		.4byte	0x6cd
 3483 068b 0E       		.uleb128 0xe
 3484 068c D90E0000 		.4byte	.LASF189
 3485 0690 06       		.byte	0x6
 3486 0691 8302     		.2byte	0x283
 3487 0693 EF000000 		.4byte	0xef
 3488 0697 00       		.byte	0
 3489 0698 0E       		.uleb128 0xe
 3490 0699 7A130000 		.4byte	.LASF190
 3491 069d 06       		.byte	0x6
 3492 069e 8602     		.2byte	0x286
 3493 06a0 CD060000 		.4byte	0x6cd
 3494 06a4 04       		.byte	0x4
 3495 06a5 0E       		.uleb128 0xe
 3496 06a6 200C0000 		.4byte	.LASF183
 3497 06aa 06       		.byte	0x6
 3498 06ab 8802     		.2byte	0x288
 3499 06ad D3060000 		.4byte	0x6d3
 3500 06b1 08       		.byte	0x8
 3501 06b2 0E       		.uleb128 0xe
 3502 06b3 95180000 		.4byte	.LASF186
 3503 06b7 06       		.byte	0x6
 3504 06b8 8A02     		.2byte	0x28a
 3505 06ba D9060000 		.4byte	0x6d9
 3506 06be 0C       		.byte	0xc
 3507 06bf 0E       		.uleb128 0xe
 3508 06c0 5F110000 		.4byte	.LASF191
 3509 06c4 06       		.byte	0x6
 3510 06c5 9402     		.2byte	0x294
 3511 06c7 FB000000 		.4byte	0xfb
 3512 06cb 10       		.byte	0x10
 3513 06cc 00       		.byte	0
 3514 06cd 06       		.uleb128 0x6
 3515 06ce 04       		.byte	0x4
 3516 06cf 06060000 		.4byte	0x606
 3517 06d3 06       		.uleb128 0x6
 3518 06d4 04       		.byte	0x4
 3519 06d5 46060000 		.4byte	0x646
 3520 06d9 06       		.uleb128 0x6
 3521 06da 04       		.byte	0x4
 3522 06db 76060000 		.4byte	0x676
 3523 06df 05       		.uleb128 0x5
 3524 06e0 A1180000 		.4byte	.LASF192
 3525 06e4 06       		.byte	0x6
 3526 06e5 9602     		.2byte	0x296
 3527 06e7 82060000 		.4byte	0x682
 3528 06eb 05       		.uleb128 0x5
 3529 06ec 15060000 		.4byte	.LASF193
 3530 06f0 07       		.byte	0x7
 3531 06f1 0402     		.2byte	0x204
 3532 06f3 50010000 		.4byte	0x150
 3533 06f7 11       		.uleb128 0x11
 3534 06f8 01       		.byte	0x1
 3535 06f9 08       		.byte	0x8
 3536 06fa 9C       		.byte	0x9c
 3537 06fb 3C070000 		.4byte	0x73c
 3538 06ff 0C       		.uleb128 0xc
ARM GAS  C:\Users\ramanatg\AppData\Local\Temp\cc9tuycg.s 			page 95


 3539 0700 0A1A0000 		.4byte	.LASF194
 3540 0704 00       		.sleb128 0
 3541 0705 0C       		.uleb128 0xc
 3542 0706 4B000000 		.4byte	.LASF195
 3543 070a 01       		.sleb128 1
 3544 070b 0C       		.uleb128 0xc
 3545 070c C9170000 		.4byte	.LASF196
 3546 0710 02       		.sleb128 2
 3547 0711 0C       		.uleb128 0xc
 3548 0712 090C0000 		.4byte	.LASF197
 3549 0716 03       		.sleb128 3
 3550 0717 0C       		.uleb128 0xc
 3551 0718 55160000 		.4byte	.LASF198
 3552 071c 04       		.sleb128 4
 3553 071d 0C       		.uleb128 0xc
 3554 071e 02030000 		.4byte	.LASF199
 3555 0722 05       		.sleb128 5
 3556 0723 0C       		.uleb128 0xc
 3557 0724 D4060000 		.4byte	.LASF200
 3558 0728 06       		.sleb128 6
 3559 0729 0C       		.uleb128 0xc
 3560 072a 00000000 		.4byte	.LASF201
 3561 072e 07       		.sleb128 7
 3562 072f 0C       		.uleb128 0xc
 3563 0730 770B0000 		.4byte	.LASF202
 3564 0734 08       		.sleb128 8
 3565 0735 0C       		.uleb128 0xc
 3566 0736 7F050000 		.4byte	.LASF203
 3567 073a 09       		.sleb128 9
 3568 073b 00       		.byte	0
 3569 073c 02       		.uleb128 0x2
 3570 073d 2E160000 		.4byte	.LASF204
 3571 0741 08       		.byte	0x8
 3572 0742 BA       		.byte	0xba
 3573 0743 F7060000 		.4byte	0x6f7
 3574 0747 11       		.uleb128 0x11
 3575 0748 01       		.byte	0x1
 3576 0749 08       		.byte	0x8
 3577 074a C0       		.byte	0xc0
 3578 074b 7A070000 		.4byte	0x77a
 3579 074f 0C       		.uleb128 0xc
 3580 0750 2B180000 		.4byte	.LASF205
 3581 0754 00       		.sleb128 0
 3582 0755 0C       		.uleb128 0xc
 3583 0756 5E0E0000 		.4byte	.LASF206
 3584 075a 01       		.sleb128 1
 3585 075b 0C       		.uleb128 0xc
 3586 075c B0090000 		.4byte	.LASF207
 3587 0760 02       		.sleb128 2
 3588 0761 0C       		.uleb128 0xc
 3589 0762 0C160000 		.4byte	.LASF208
 3590 0766 03       		.sleb128 3
 3591 0767 0C       		.uleb128 0xc
 3592 0768 5D090000 		.4byte	.LASF209
 3593 076c 04       		.sleb128 4
 3594 076d 0C       		.uleb128 0xc
 3595 076e 7C0F0000 		.4byte	.LASF210
ARM GAS  C:\Users\ramanatg\AppData\Local\Temp\cc9tuycg.s 			page 96


 3596 0772 05       		.sleb128 5
 3597 0773 0C       		.uleb128 0xc
 3598 0774 4A0E0000 		.4byte	.LASF211
 3599 0778 06       		.sleb128 6
 3600 0779 00       		.byte	0
 3601 077a 02       		.uleb128 0x2
 3602 077b 7E1A0000 		.4byte	.LASF212
 3603 077f 08       		.byte	0x8
 3604 0780 D5       		.byte	0xd5
 3605 0781 47070000 		.4byte	0x747
 3606 0785 06       		.uleb128 0x6
 3607 0786 04       		.byte	0x4
 3608 0787 8B070000 		.4byte	0x78b
 3609 078b 12       		.uleb128 0x12
 3610 078c 13       		.uleb128 0x13
 3611 078d 01       		.byte	0x1
 3612 078e 09       		.byte	0x9
 3613 078f A3       		.byte	0xa3
 3614 0790 D1070000 		.4byte	0x7d1
 3615 0794 14       		.uleb128 0x14
 3616 0795 3D170000 		.4byte	.LASF213
 3617 0799 09       		.byte	0x9
 3618 079a A5       		.byte	0xa5
 3619 079b B8000000 		.4byte	0xb8
 3620 079f 01       		.byte	0x1
 3621 07a0 01       		.byte	0x1
 3622 07a1 07       		.byte	0x7
 3623 07a2 00       		.byte	0
 3624 07a3 14       		.uleb128 0x14
 3625 07a4 FF030000 		.4byte	.LASF214
 3626 07a8 09       		.byte	0x9
 3627 07a9 A6       		.byte	0xa6
 3628 07aa B8000000 		.4byte	0xb8
 3629 07ae 01       		.byte	0x1
 3630 07af 01       		.byte	0x1
 3631 07b0 06       		.byte	0x6
 3632 07b1 00       		.byte	0
 3633 07b2 14       		.uleb128 0x14
 3634 07b3 311C0000 		.4byte	.LASF215
 3635 07b7 09       		.byte	0x9
 3636 07b8 A7       		.byte	0xa7
 3637 07b9 B8000000 		.4byte	0xb8
 3638 07bd 01       		.byte	0x1
 3639 07be 01       		.byte	0x1
 3640 07bf 05       		.byte	0x5
 3641 07c0 00       		.byte	0
 3642 07c1 14       		.uleb128 0x14
 3643 07c2 361B0000 		.4byte	.LASF216
 3644 07c6 09       		.byte	0x9
 3645 07c7 A8       		.byte	0xa8
 3646 07c8 B8000000 		.4byte	0xb8
 3647 07cc 01       		.byte	0x1
 3648 07cd 05       		.byte	0x5
 3649 07ce 00       		.byte	0
 3650 07cf 00       		.byte	0
 3651 07d0 00       		.byte	0
 3652 07d1 02       		.uleb128 0x2
ARM GAS  C:\Users\ramanatg\AppData\Local\Temp\cc9tuycg.s 			page 97


 3653 07d2 68090000 		.4byte	.LASF217
 3654 07d6 09       		.byte	0x9
 3655 07d7 A9       		.byte	0xa9
 3656 07d8 8C070000 		.4byte	0x78c
 3657 07dc 13       		.uleb128 0x13
 3658 07dd 80       		.byte	0x80
 3659 07de 09       		.byte	0x9
 3660 07df AB       		.byte	0xab
 3661 07e0 1D090000 		.4byte	0x91d
 3662 07e4 15       		.uleb128 0x15
 3663 07e5 CA020000 		.4byte	.LASF218
 3664 07e9 09       		.byte	0x9
 3665 07ea AF       		.byte	0xaf
 3666 07eb D9000000 		.4byte	0xd9
 3667 07ef 00       		.byte	0
 3668 07f0 15       		.uleb128 0x15
 3669 07f1 58090000 		.4byte	.LASF219
 3670 07f5 09       		.byte	0x9
 3671 07f6 B1       		.byte	0xb1
 3672 07f7 1D090000 		.4byte	0x91d
 3673 07fb 04       		.byte	0x4
 3674 07fc 15       		.uleb128 0x15
 3675 07fd 7D190000 		.4byte	.LASF220
 3676 0801 09       		.byte	0x9
 3677 0802 B2       		.byte	0xb2
 3678 0803 CE000000 		.4byte	0xce
 3679 0807 14       		.byte	0x14
 3680 0808 15       		.uleb128 0x15
 3681 0809 580F0000 		.4byte	.LASF221
 3682 080d 09       		.byte	0x9
 3683 080e B3       		.byte	0xb3
 3684 080f CE000000 		.4byte	0xce
 3685 0813 16       		.byte	0x16
 3686 0814 15       		.uleb128 0x15
 3687 0815 26090000 		.4byte	.LASF222
 3688 0819 09       		.byte	0x9
 3689 081a B4       		.byte	0xb4
 3690 081b CE000000 		.4byte	0xce
 3691 081f 18       		.byte	0x18
 3692 0820 15       		.uleb128 0x15
 3693 0821 A60F0000 		.4byte	.LASF223
 3694 0825 09       		.byte	0x9
 3695 0826 B5       		.byte	0xb5
 3696 0827 CE000000 		.4byte	0xce
 3697 082b 1A       		.byte	0x1a
 3698 082c 15       		.uleb128 0x15
 3699 082d 3E1C0000 		.4byte	.LASF224
 3700 0831 09       		.byte	0x9
 3701 0832 B7       		.byte	0xb7
 3702 0833 AD000000 		.4byte	0xad
 3703 0837 1C       		.byte	0x1c
 3704 0838 15       		.uleb128 0x15
 3705 0839 920D0000 		.4byte	.LASF225
 3706 083d 09       		.byte	0x9
 3707 083e B8       		.byte	0xb8
 3708 083f AD000000 		.4byte	0xad
 3709 0843 1D       		.byte	0x1d
ARM GAS  C:\Users\ramanatg\AppData\Local\Temp\cc9tuycg.s 			page 98


 3710 0844 15       		.uleb128 0x15
 3711 0845 810A0000 		.4byte	.LASF226
 3712 0849 09       		.byte	0x9
 3713 084a BA       		.byte	0xba
 3714 084b AD000000 		.4byte	0xad
 3715 084f 1E       		.byte	0x1e
 3716 0850 15       		.uleb128 0x15
 3717 0851 0C040000 		.4byte	.LASF227
 3718 0855 09       		.byte	0x9
 3719 0856 BB       		.byte	0xbb
 3720 0857 AD000000 		.4byte	0xad
 3721 085b 1F       		.byte	0x1f
 3722 085c 16       		.uleb128 0x16
 3723 085d 6E696400 		.ascii	"nid\000"
 3724 0861 09       		.byte	0x9
 3725 0862 BD       		.byte	0xbd
 3726 0863 2D090000 		.4byte	0x92d
 3727 0867 20       		.byte	0x20
 3728 0868 16       		.uleb128 0x16
 3729 0869 62696400 		.ascii	"bid\000"
 3730 086d 09       		.byte	0x9
 3731 086e BE       		.byte	0xbe
 3732 086f 3D090000 		.4byte	0x93d
 3733 0873 2A       		.byte	0x2a
 3734 0874 15       		.uleb128 0x15
 3735 0875 A7170000 		.4byte	.LASF228
 3736 0879 09       		.byte	0x9
 3737 087a C0       		.byte	0xc0
 3738 087b 4D090000 		.4byte	0x94d
 3739 087f 30       		.byte	0x30
 3740 0880 15       		.uleb128 0x15
 3741 0881 B01A0000 		.4byte	.LASF229
 3742 0885 09       		.byte	0x9
 3743 0886 C2       		.byte	0xc2
 3744 0887 D1070000 		.4byte	0x7d1
 3745 088b 34       		.byte	0x34
 3746 088c 15       		.uleb128 0x15
 3747 088d 4E090000 		.4byte	.LASF230
 3748 0891 09       		.byte	0x9
 3749 0892 C4       		.byte	0xc4
 3750 0893 B8000000 		.4byte	0xb8
 3751 0897 35       		.byte	0x35
 3752 0898 15       		.uleb128 0x15
 3753 0899 430D0000 		.4byte	.LASF231
 3754 089d 09       		.byte	0x9
 3755 089e C5       		.byte	0xc5
 3756 089f 1D090000 		.4byte	0x91d
 3757 08a3 36       		.byte	0x36
 3758 08a4 15       		.uleb128 0x15
 3759 08a5 02170000 		.4byte	.LASF232
 3760 08a9 09       		.byte	0x9
 3761 08aa C7       		.byte	0xc7
 3762 08ab B8000000 		.4byte	0xb8
 3763 08af 46       		.byte	0x46
 3764 08b0 15       		.uleb128 0x15
 3765 08b1 1E0E0000 		.4byte	.LASF233
 3766 08b5 09       		.byte	0x9
ARM GAS  C:\Users\ramanatg\AppData\Local\Temp\cc9tuycg.s 			page 99


 3767 08b6 C8       		.byte	0xc8
 3768 08b7 5D090000 		.4byte	0x95d
 3769 08bb 47       		.byte	0x47
 3770 08bc 15       		.uleb128 0x15
 3771 08bd 1C090000 		.4byte	.LASF234
 3772 08c1 09       		.byte	0x9
 3773 08c2 C9       		.byte	0xc9
 3774 08c3 B8000000 		.4byte	0xb8
 3775 08c7 59       		.byte	0x59
 3776 08c8 15       		.uleb128 0x15
 3777 08c9 09110000 		.4byte	.LASF235
 3778 08cd 09       		.byte	0x9
 3779 08ce CB       		.byte	0xcb
 3780 08cf 4D090000 		.4byte	0x94d
 3781 08d3 5A       		.byte	0x5a
 3782 08d4 15       		.uleb128 0x15
 3783 08d5 CE070000 		.4byte	.LASF236
 3784 08d9 09       		.byte	0x9
 3785 08da CC       		.byte	0xcc
 3786 08db B8000000 		.4byte	0xb8
 3787 08df 5E       		.byte	0x5e
 3788 08e0 15       		.uleb128 0x15
 3789 08e1 34110000 		.4byte	.LASF237
 3790 08e5 09       		.byte	0x9
 3791 08e6 CE       		.byte	0xce
 3792 08e7 CE000000 		.4byte	0xce
 3793 08eb 60       		.byte	0x60
 3794 08ec 15       		.uleb128 0x15
 3795 08ed 361B0000 		.4byte	.LASF216
 3796 08f1 09       		.byte	0x9
 3797 08f2 D4       		.byte	0xd4
 3798 08f3 6D090000 		.4byte	0x96d
 3799 08f7 64       		.byte	0x64
 3800 08f8 15       		.uleb128 0x15
 3801 08f9 7C070000 		.4byte	.LASF238
 3802 08fd 09       		.byte	0x9
 3803 08fe D6       		.byte	0xd6
 3804 08ff E4000000 		.4byte	0xe4
 3805 0903 74       		.byte	0x74
 3806 0904 15       		.uleb128 0x15
 3807 0905 430F0000 		.4byte	.LASF239
 3808 0909 09       		.byte	0x9
 3809 090a D7       		.byte	0xd7
 3810 090b E4000000 		.4byte	0xe4
 3811 090f 78       		.byte	0x78
 3812 0910 15       		.uleb128 0x15
 3813 0911 AF0E0000 		.4byte	.LASF240
 3814 0915 09       		.byte	0x9
 3815 0916 D9       		.byte	0xd9
 3816 0917 D9000000 		.4byte	0xd9
 3817 091b 7C       		.byte	0x7c
 3818 091c 00       		.byte	0
 3819 091d 0F       		.uleb128 0xf
 3820 091e B8000000 		.4byte	0xb8
 3821 0922 2D090000 		.4byte	0x92d
 3822 0926 10       		.uleb128 0x10
 3823 0927 47010000 		.4byte	0x147
ARM GAS  C:\Users\ramanatg\AppData\Local\Temp\cc9tuycg.s 			page 100


 3824 092b 0F       		.byte	0xf
 3825 092c 00       		.byte	0
 3826 092d 0F       		.uleb128 0xf
 3827 092e B8000000 		.4byte	0xb8
 3828 0932 3D090000 		.4byte	0x93d
 3829 0936 10       		.uleb128 0x10
 3830 0937 47010000 		.4byte	0x147
 3831 093b 09       		.byte	0x9
 3832 093c 00       		.byte	0
 3833 093d 0F       		.uleb128 0xf
 3834 093e B8000000 		.4byte	0xb8
 3835 0942 4D090000 		.4byte	0x94d
 3836 0946 10       		.uleb128 0x10
 3837 0947 47010000 		.4byte	0x147
 3838 094b 05       		.byte	0x5
 3839 094c 00       		.byte	0
 3840 094d 0F       		.uleb128 0xf
 3841 094e AD000000 		.4byte	0xad
 3842 0952 5D090000 		.4byte	0x95d
 3843 0956 10       		.uleb128 0x10
 3844 0957 47010000 		.4byte	0x147
 3845 095b 03       		.byte	0x3
 3846 095c 00       		.byte	0
 3847 095d 0F       		.uleb128 0xf
 3848 095e B8000000 		.4byte	0xb8
 3849 0962 6D090000 		.4byte	0x96d
 3850 0966 10       		.uleb128 0x10
 3851 0967 47010000 		.4byte	0x147
 3852 096b 11       		.byte	0x11
 3853 096c 00       		.byte	0
 3854 096d 0F       		.uleb128 0xf
 3855 096e D9000000 		.4byte	0xd9
 3856 0972 7D090000 		.4byte	0x97d
 3857 0976 10       		.uleb128 0x10
 3858 0977 47010000 		.4byte	0x147
 3859 097b 03       		.byte	0x3
 3860 097c 00       		.byte	0
 3861 097d 02       		.uleb128 0x2
 3862 097e 1A130000 		.4byte	.LASF241
 3863 0982 09       		.byte	0x9
 3864 0983 DA       		.byte	0xda
 3865 0984 DC070000 		.4byte	0x7dc
 3866 0988 17       		.uleb128 0x17
 3867 0989 3A070000 		.4byte	.LASF292
 3868 098d 01       		.byte	0x1
 3869 098e AE       		.byte	0xae
 3870 098f 01       		.byte	0x1
 3871 0990 18       		.uleb128 0x18
 3872 0991 29050000 		.4byte	.LASF244
 3873 0995 01       		.byte	0x1
 3874 0996 7D       		.byte	0x7d
 3875 0997 01       		.byte	0x1
 3876 0998 B3090000 		.4byte	0x9b3
 3877 099c 19       		.uleb128 0x19
 3878 099d D7050000 		.4byte	.LASF242
 3879 09a1 01       		.byte	0x1
 3880 09a2 7D       		.byte	0x7d
ARM GAS  C:\Users\ramanatg\AppData\Local\Temp\cc9tuycg.s 			page 101


 3881 09a3 E4000000 		.4byte	0xe4
 3882 09a7 19       		.uleb128 0x19
 3883 09a8 8C010000 		.4byte	.LASF243
 3884 09ac 01       		.byte	0x1
 3885 09ad 7D       		.byte	0x7d
 3886 09ae 4E010000 		.4byte	0x14e
 3887 09b2 00       		.byte	0
 3888 09b3 1A       		.uleb128 0x1a
 3889 09b4 331A0000 		.4byte	.LASF245
 3890 09b8 01       		.byte	0x1
 3891 09b9 BB04     		.2byte	0x4bb
 3892 09bb 01       		.byte	0x1
 3893 09bc E7090000 		.4byte	0x9e7
 3894 09c0 1B       		.uleb128 0x1b
 3895 09c1 8C140000 		.4byte	.LASF246
 3896 09c5 01       		.byte	0x1
 3897 09c6 BB04     		.2byte	0x4bb
 3898 09c8 B8000000 		.4byte	0xb8
 3899 09cc 1C       		.uleb128 0x1c
 3900 09cd 1D       		.uleb128 0x1d
 3901 09ce 57140000 		.4byte	.LASF247
 3902 09d2 01       		.byte	0x1
 3903 09d3 F304     		.2byte	0x4f3
 3904 09d5 CE000000 		.4byte	0xce
 3905 09d9 1D       		.uleb128 0x1d
 3906 09da 930A0000 		.4byte	.LASF248
 3907 09de 01       		.byte	0x1
 3908 09df F404     		.2byte	0x4f4
 3909 09e1 C3000000 		.4byte	0xc3
 3910 09e5 00       		.byte	0
 3911 09e6 00       		.byte	0
 3912 09e7 1E       		.uleb128 0x1e
 3913 09e8 740D0000 		.4byte	.LASF290
 3914 09ec 01       		.byte	0x1
 3915 09ed 8404     		.2byte	0x484
 3916 09ef 20040000 		.4byte	0x420
 3917 09f3 01       		.byte	0x1
 3918 09f4 110A0000 		.4byte	0xa11
 3919 09f8 1B       		.uleb128 0x1b
 3920 09f9 F5000000 		.4byte	.LASF249
 3921 09fd 01       		.byte	0x1
 3922 09fe 8404     		.2byte	0x484
 3923 0a00 E4000000 		.4byte	0xe4
 3924 0a04 1D       		.uleb128 0x1d
 3925 0a05 CF010000 		.4byte	.LASF250
 3926 0a09 01       		.byte	0x1
 3927 0a0a 8604     		.2byte	0x486
 3928 0a0c CE000000 		.4byte	0xce
 3929 0a10 00       		.byte	0
 3930 0a11 1F       		.uleb128 0x1f
 3931 0a12 88090000 		.4byte	0x988
 3932 0a16 00000000 		.4byte	.LFB38
 3933 0a1a 30000000 		.4byte	.LFE38-.LFB38
 3934 0a1e 01       		.uleb128 0x1
 3935 0a1f 9C       		.byte	0x9c
 3936 0a20 5B0A0000 		.4byte	0xa5b
 3937 0a24 20       		.uleb128 0x20
ARM GAS  C:\Users\ramanatg\AppData\Local\Temp\cc9tuycg.s 			page 102


 3938 0a25 06000000 		.4byte	.LVL0
 3939 0a29 041D0000 		.4byte	0x1d04
 3940 0a2d 20       		.uleb128 0x20
 3941 0a2e 0E000000 		.4byte	.LVL1
 3942 0a32 041D0000 		.4byte	0x1d04
 3943 0a36 21       		.uleb128 0x21
 3944 0a37 1C000000 		.4byte	.LVL2
 3945 0a3b 0F1D0000 		.4byte	0x1d0f
 3946 0a3f 4B0A0000 		.4byte	0xa4b
 3947 0a43 22       		.uleb128 0x22
 3948 0a44 01       		.uleb128 0x1
 3949 0a45 50       		.byte	0x50
 3950 0a46 03       		.uleb128 0x3
 3951 0a47 0A       		.byte	0xa
 3952 0a48 0004     		.2byte	0x400
 3953 0a4a 00       		.byte	0
 3954 0a4b 23       		.uleb128 0x23
 3955 0a4c 2A000000 		.4byte	.LVL3
 3956 0a50 0F1D0000 		.4byte	0x1d0f
 3957 0a54 22       		.uleb128 0x22
 3958 0a55 01       		.uleb128 0x1
 3959 0a56 50       		.byte	0x50
 3960 0a57 01       		.uleb128 0x1
 3961 0a58 34       		.byte	0x34
 3962 0a59 00       		.byte	0
 3963 0a5a 00       		.byte	0
 3964 0a5b 24       		.uleb128 0x24
 3965 0a5c B3090000 		.4byte	0x9b3
 3966 0a60 00000000 		.4byte	.LFB51
 3967 0a64 9C000000 		.4byte	.LFE51-.LFB51
 3968 0a68 01       		.uleb128 0x1
 3969 0a69 9C       		.byte	0x9c
 3970 0a6a B90A0000 		.4byte	0xab9
 3971 0a6e 25       		.uleb128 0x25
 3972 0a6f C0090000 		.4byte	0x9c0
 3973 0a73 06       		.uleb128 0x6
 3974 0a74 FA       		.byte	0xfa
 3975 0a75 C0090000 		.4byte	0x9c0
 3976 0a79 9F       		.byte	0x9f
 3977 0a7a 26       		.uleb128 0x26
 3978 0a7b 56000000 		.4byte	.LBB11
 3979 0a7f 26000000 		.4byte	.LBE11-.LBB11
 3980 0a83 9A0A0000 		.4byte	0xa9a
 3981 0a87 27       		.uleb128 0x27
 3982 0a88 CD090000 		.4byte	0x9cd
 3983 0a8c 00000000 		.4byte	.LLST0
 3984 0a90 27       		.uleb128 0x27
 3985 0a91 D9090000 		.4byte	0x9d9
 3986 0a95 2A000000 		.4byte	.LLST1
 3987 0a99 00       		.byte	0
 3988 0a9a 23       		.uleb128 0x23
 3989 0a9b 0E000000 		.4byte	.LVL5
 3990 0a9f 201D0000 		.4byte	0x1d20
 3991 0aa3 22       		.uleb128 0x22
 3992 0aa4 01       		.uleb128 0x1
 3993 0aa5 52       		.byte	0x52
 3994 0aa6 01       		.uleb128 0x1
ARM GAS  C:\Users\ramanatg\AppData\Local\Temp\cc9tuycg.s 			page 103


 3995 0aa7 42       		.byte	0x42
 3996 0aa8 22       		.uleb128 0x22
 3997 0aa9 01       		.uleb128 0x1
 3998 0aaa 51       		.byte	0x51
 3999 0aab 05       		.uleb128 0x5
 4000 0aac 03       		.byte	0x3
 4001 0aad 44000000 		.4byte	.LANCHOR1
 4002 0ab1 22       		.uleb128 0x22
 4003 0ab2 01       		.uleb128 0x1
 4004 0ab3 50       		.byte	0x50
 4005 0ab4 02       		.uleb128 0x2
 4006 0ab5 74       		.byte	0x74
 4007 0ab6 07       		.sleb128 7
 4008 0ab7 00       		.byte	0
 4009 0ab8 00       		.byte	0
 4010 0ab9 1A       		.uleb128 0x1a
 4011 0aba 070F0000 		.4byte	.LASF251
 4012 0abe 01       		.byte	0x1
 4013 0abf 3F04     		.2byte	0x43f
 4014 0ac1 01       		.byte	0x1
 4015 0ac2 EB0A0000 		.4byte	0xaeb
 4016 0ac6 1B       		.uleb128 0x1b
 4017 0ac7 270E0000 		.4byte	.LASF252
 4018 0acb 01       		.byte	0x1
 4019 0acc 3F04     		.2byte	0x43f
 4020 0ace AD000000 		.4byte	0xad
 4021 0ad2 1D       		.uleb128 0x1d
 4022 0ad3 760F0000 		.4byte	.LASF253
 4023 0ad7 01       		.byte	0x1
 4024 0ad8 4104     		.2byte	0x441
 4025 0ada 40050000 		.4byte	0x540
 4026 0ade 1D       		.uleb128 0x1d
 4027 0adf 85170000 		.4byte	.LASF254
 4028 0ae3 01       		.byte	0x1
 4029 0ae4 4204     		.2byte	0x442
 4030 0ae6 E8040000 		.4byte	0x4e8
 4031 0aea 00       		.byte	0
 4032 0aeb 1F       		.uleb128 0x1f
 4033 0aec 90090000 		.4byte	0x990
 4034 0af0 00000000 		.4byte	.LFB37
 4035 0af4 98000000 		.4byte	.LFE37-.LFB37
 4036 0af8 01       		.uleb128 0x1
 4037 0af9 9C       		.byte	0x9c
 4038 0afa DD0B0000 		.4byte	0xbdd
 4039 0afe 28       		.uleb128 0x28
 4040 0aff 9C090000 		.4byte	0x99c
 4041 0b03 6D000000 		.4byte	.LLST2
 4042 0b07 28       		.uleb128 0x28
 4043 0b08 A7090000 		.4byte	0x9a7
 4044 0b0c B2000000 		.4byte	.LLST3
 4045 0b10 29       		.uleb128 0x29
 4046 0b11 0C000000 		.4byte	.LBB16
 4047 0b15 8C000000 		.4byte	.LBE16-.LBB16
 4048 0b19 2A       		.uleb128 0x2a
 4049 0b1a 9C090000 		.4byte	0x99c
 4050 0b1e 01       		.byte	0x1
 4051 0b1f 28       		.uleb128 0x28
ARM GAS  C:\Users\ramanatg\AppData\Local\Temp\cc9tuycg.s 			page 104


 4052 0b20 A7090000 		.4byte	0x9a7
 4053 0b24 EC000000 		.4byte	.LLST4
 4054 0b28 2B       		.uleb128 0x2b
 4055 0b29 B90A0000 		.4byte	0xab9
 4056 0b2d 10000000 		.4byte	.LBB18
 4057 0b31 00000000 		.4byte	.Ldebug_ranges0+0
 4058 0b35 01       		.byte	0x1
 4059 0b36 8A       		.byte	0x8a
 4060 0b37 6C0B0000 		.4byte	0xb6c
 4061 0b3b 28       		.uleb128 0x28
 4062 0b3c C60A0000 		.4byte	0xac6
 4063 0b40 0D010000 		.4byte	.LLST5
 4064 0b44 2C       		.uleb128 0x2c
 4065 0b45 00000000 		.4byte	.Ldebug_ranges0+0
 4066 0b49 2D       		.uleb128 0x2d
 4067 0b4a D20A0000 		.4byte	0xad2
 4068 0b4e 02       		.uleb128 0x2
 4069 0b4f 91       		.byte	0x91
 4070 0b50 74       		.sleb128 -12
 4071 0b51 27       		.uleb128 0x27
 4072 0b52 DE0A0000 		.4byte	0xade
 4073 0b56 2B010000 		.4byte	.LLST6
 4074 0b5a 23       		.uleb128 0x23
 4075 0b5b 4A000000 		.4byte	.LVL17
 4076 0b5f 3D1D0000 		.4byte	0x1d3d
 4077 0b63 22       		.uleb128 0x22
 4078 0b64 01       		.uleb128 0x1
 4079 0b65 50       		.byte	0x50
 4080 0b66 02       		.uleb128 0x2
 4081 0b67 91       		.byte	0x91
 4082 0b68 74       		.sleb128 -12
 4083 0b69 00       		.byte	0
 4084 0b6a 00       		.byte	0
 4085 0b6b 00       		.byte	0
 4086 0b6c 20       		.uleb128 0x20
 4087 0b6d 52000000 		.4byte	.LVL18
 4088 0b71 591D0000 		.4byte	0x1d59
 4089 0b75 21       		.uleb128 0x21
 4090 0b76 5A000000 		.4byte	.LVL19
 4091 0b7a 601D0000 		.4byte	0x1d60
 4092 0b7e 8D0B0000 		.4byte	0xb8d
 4093 0b82 22       		.uleb128 0x22
 4094 0b83 01       		.uleb128 0x1
 4095 0b84 51       		.byte	0x51
 4096 0b85 01       		.uleb128 0x1
 4097 0b86 31       		.byte	0x31
 4098 0b87 22       		.uleb128 0x22
 4099 0b88 01       		.uleb128 0x1
 4100 0b89 50       		.byte	0x50
 4101 0b8a 01       		.uleb128 0x1
 4102 0b8b 30       		.byte	0x30
 4103 0b8c 00       		.byte	0
 4104 0b8d 21       		.uleb128 0x21
 4105 0b8e 62000000 		.4byte	.LVL20
 4106 0b92 761D0000 		.4byte	0x1d76
 4107 0b96 A50B0000 		.4byte	0xba5
 4108 0b9a 22       		.uleb128 0x22
ARM GAS  C:\Users\ramanatg\AppData\Local\Temp\cc9tuycg.s 			page 105


 4109 0b9b 01       		.uleb128 0x1
 4110 0b9c 51       		.byte	0x51
 4111 0b9d 01       		.uleb128 0x1
 4112 0b9e 31       		.byte	0x31
 4113 0b9f 22       		.uleb128 0x22
 4114 0ba0 01       		.uleb128 0x1
 4115 0ba1 50       		.byte	0x50
 4116 0ba2 01       		.uleb128 0x1
 4117 0ba3 30       		.byte	0x30
 4118 0ba4 00       		.byte	0
 4119 0ba5 21       		.uleb128 0x21
 4120 0ba6 6A000000 		.4byte	.LVL21
 4121 0baa 8C1D0000 		.4byte	0x1d8c
 4122 0bae BF0B0000 		.4byte	0xbbf
 4123 0bb2 22       		.uleb128 0x22
 4124 0bb3 01       		.uleb128 0x1
 4125 0bb4 51       		.byte	0x51
 4126 0bb5 03       		.uleb128 0x3
 4127 0bb6 0A       		.byte	0xa
 4128 0bb7 CB0C     		.2byte	0xccb
 4129 0bb9 22       		.uleb128 0x22
 4130 0bba 01       		.uleb128 0x1
 4131 0bbb 50       		.byte	0x50
 4132 0bbc 01       		.uleb128 0x1
 4133 0bbd 30       		.byte	0x30
 4134 0bbe 00       		.byte	0
 4135 0bbf 21       		.uleb128 0x21
 4136 0bc0 70000000 		.4byte	.LVL22
 4137 0bc4 A21D0000 		.4byte	0x1da2
 4138 0bc8 D20B0000 		.4byte	0xbd2
 4139 0bcc 22       		.uleb128 0x22
 4140 0bcd 01       		.uleb128 0x1
 4141 0bce 50       		.byte	0x50
 4142 0bcf 01       		.uleb128 0x1
 4143 0bd0 31       		.byte	0x31
 4144 0bd1 00       		.byte	0
 4145 0bd2 20       		.uleb128 0x20
 4146 0bd3 74000000 		.4byte	.LVL23
 4147 0bd7 B31D0000 		.4byte	0x1db3
 4148 0bdb 00       		.byte	0
 4149 0bdc 00       		.byte	0
 4150 0bdd 2E       		.uleb128 0x2e
 4151 0bde A6040000 		.4byte	.LASF260
 4152 0be2 01       		.byte	0x1
 4153 0be3 CC       		.byte	0xcc
 4154 0be4 00000000 		.4byte	.LFB39
 4155 0be8 94000000 		.4byte	.LFE39-.LFB39
 4156 0bec 01       		.uleb128 0x1
 4157 0bed 9C       		.byte	0x9c
 4158 0bee 690D0000 		.4byte	0xd69
 4159 0bf2 20       		.uleb128 0x20
 4160 0bf3 06000000 		.4byte	.LVL25
 4161 0bf7 BA1D0000 		.4byte	0x1dba
 4162 0bfb 21       		.uleb128 0x21
 4163 0bfc 0C000000 		.4byte	.LVL26
 4164 0c00 C11D0000 		.4byte	0x1dc1
 4165 0c04 120C0000 		.4byte	0xc12
ARM GAS  C:\Users\ramanatg\AppData\Local\Temp\cc9tuycg.s 			page 106


 4166 0c08 22       		.uleb128 0x22
 4167 0c09 01       		.uleb128 0x1
 4168 0c0a 50       		.byte	0x50
 4169 0c0b 05       		.uleb128 0x5
 4170 0c0c 03       		.byte	0x3
 4171 0c0d 00000000 		.4byte	WDT_Handler
 4172 0c11 00       		.byte	0
 4173 0c12 20       		.uleb128 0x20
 4174 0c13 10000000 		.4byte	.LVL27
 4175 0c17 D21D0000 		.4byte	0x1dd2
 4176 0c1b 20       		.uleb128 0x20
 4177 0c1c 14000000 		.4byte	.LVL28
 4178 0c20 591D0000 		.4byte	0x1d59
 4179 0c24 21       		.uleb128 0x21
 4180 0c25 1C000000 		.4byte	.LVL29
 4181 0c29 601D0000 		.4byte	0x1d60
 4182 0c2d 3C0C0000 		.4byte	0xc3c
 4183 0c31 22       		.uleb128 0x22
 4184 0c32 01       		.uleb128 0x1
 4185 0c33 51       		.byte	0x51
 4186 0c34 01       		.uleb128 0x1
 4187 0c35 31       		.byte	0x31
 4188 0c36 22       		.uleb128 0x22
 4189 0c37 01       		.uleb128 0x1
 4190 0c38 50       		.byte	0x50
 4191 0c39 01       		.uleb128 0x1
 4192 0c3a 30       		.byte	0x30
 4193 0c3b 00       		.byte	0
 4194 0c3c 21       		.uleb128 0x21
 4195 0c3d 24000000 		.4byte	.LVL30
 4196 0c41 761D0000 		.4byte	0x1d76
 4197 0c45 540C0000 		.4byte	0xc54
 4198 0c49 22       		.uleb128 0x22
 4199 0c4a 01       		.uleb128 0x1
 4200 0c4b 51       		.byte	0x51
 4201 0c4c 01       		.uleb128 0x1
 4202 0c4d 31       		.byte	0x31
 4203 0c4e 22       		.uleb128 0x22
 4204 0c4f 01       		.uleb128 0x1
 4205 0c50 50       		.byte	0x50
 4206 0c51 01       		.uleb128 0x1
 4207 0c52 30       		.byte	0x30
 4208 0c53 00       		.byte	0
 4209 0c54 21       		.uleb128 0x21
 4210 0c55 2C000000 		.4byte	.LVL31
 4211 0c59 8C1D0000 		.4byte	0x1d8c
 4212 0c5d 6E0C0000 		.4byte	0xc6e
 4213 0c61 22       		.uleb128 0x22
 4214 0c62 01       		.uleb128 0x1
 4215 0c63 51       		.byte	0x51
 4216 0c64 03       		.uleb128 0x3
 4217 0c65 0A       		.byte	0xa
 4218 0c66 FF3F     		.2byte	0x3fff
 4219 0c68 22       		.uleb128 0x22
 4220 0c69 01       		.uleb128 0x1
 4221 0c6a 50       		.byte	0x50
 4222 0c6b 01       		.uleb128 0x1
ARM GAS  C:\Users\ramanatg\AppData\Local\Temp\cc9tuycg.s 			page 107


 4223 0c6c 30       		.byte	0x30
 4224 0c6d 00       		.byte	0
 4225 0c6e 21       		.uleb128 0x21
 4226 0c6f 32000000 		.4byte	.LVL32
 4227 0c73 A21D0000 		.4byte	0x1da2
 4228 0c77 810C0000 		.4byte	0xc81
 4229 0c7b 22       		.uleb128 0x22
 4230 0c7c 01       		.uleb128 0x1
 4231 0c7d 50       		.byte	0x50
 4232 0c7e 01       		.uleb128 0x1
 4233 0c7f 31       		.byte	0x31
 4234 0c80 00       		.byte	0
 4235 0c81 20       		.uleb128 0x20
 4236 0c82 36000000 		.4byte	.LVL33
 4237 0c86 B31D0000 		.4byte	0x1db3
 4238 0c8a 20       		.uleb128 0x20
 4239 0c8b 3A000000 		.4byte	.LVL34
 4240 0c8f D91D0000 		.4byte	0x1dd9
 4241 0c93 21       		.uleb128 0x21
 4242 0c94 40000000 		.4byte	.LVL35
 4243 0c98 E01D0000 		.4byte	0x1de0
 4244 0c9c A60C0000 		.4byte	0xca6
 4245 0ca0 22       		.uleb128 0x22
 4246 0ca1 01       		.uleb128 0x1
 4247 0ca2 50       		.byte	0x50
 4248 0ca3 01       		.uleb128 0x1
 4249 0ca4 31       		.byte	0x31
 4250 0ca5 00       		.byte	0
 4251 0ca6 20       		.uleb128 0x20
 4252 0ca7 44000000 		.4byte	.LVL36
 4253 0cab 591D0000 		.4byte	0x1d59
 4254 0caf 21       		.uleb128 0x21
 4255 0cb0 4C000000 		.4byte	.LVL37
 4256 0cb4 F51D0000 		.4byte	0x1df5
 4257 0cb8 C40C0000 		.4byte	0xcc4
 4258 0cbc 22       		.uleb128 0x22
 4259 0cbd 01       		.uleb128 0x1
 4260 0cbe 50       		.byte	0x50
 4261 0cbf 03       		.uleb128 0x3
 4262 0cc0 40       		.byte	0x40
 4263 0cc1 4A       		.byte	0x4a
 4264 0cc2 24       		.byte	0x24
 4265 0cc3 00       		.byte	0
 4266 0cc4 20       		.uleb128 0x20
 4267 0cc5 50000000 		.4byte	.LVL38
 4268 0cc9 B31D0000 		.4byte	0x1db3
 4269 0ccd 20       		.uleb128 0x20
 4270 0cce 54000000 		.4byte	.LVL39
 4271 0cd2 061E0000 		.4byte	0x1e06
 4272 0cd6 21       		.uleb128 0x21
 4273 0cd7 5A000000 		.4byte	.LVL40
 4274 0cdb 0D1E0000 		.4byte	0x1e0d
 4275 0cdf E90C0000 		.4byte	0xce9
 4276 0ce3 22       		.uleb128 0x22
 4277 0ce4 01       		.uleb128 0x1
 4278 0ce5 50       		.byte	0x50
 4279 0ce6 01       		.uleb128 0x1
ARM GAS  C:\Users\ramanatg\AppData\Local\Temp\cc9tuycg.s 			page 108


 4280 0ce7 30       		.byte	0x30
 4281 0ce8 00       		.byte	0
 4282 0ce9 20       		.uleb128 0x20
 4283 0cea 5E000000 		.4byte	.LVL41
 4284 0cee 591D0000 		.4byte	0x1d59
 4285 0cf2 21       		.uleb128 0x21
 4286 0cf3 64000000 		.4byte	.LVL42
 4287 0cf7 221E0000 		.4byte	0x1e22
 4288 0cfb 050D0000 		.4byte	0xd05
 4289 0cff 22       		.uleb128 0x22
 4290 0d00 01       		.uleb128 0x1
 4291 0d01 50       		.byte	0x50
 4292 0d02 01       		.uleb128 0x1
 4293 0d03 31       		.byte	0x31
 4294 0d04 00       		.byte	0
 4295 0d05 21       		.uleb128 0x21
 4296 0d06 6C000000 		.4byte	.LVL43
 4297 0d0a 8C1D0000 		.4byte	0x1d8c
 4298 0d0e 1E0D0000 		.4byte	0xd1e
 4299 0d12 22       		.uleb128 0x22
 4300 0d13 01       		.uleb128 0x1
 4301 0d14 51       		.byte	0x51
 4302 0d15 02       		.uleb128 0x2
 4303 0d16 08       		.byte	0x8
 4304 0d17 73       		.byte	0x73
 4305 0d18 22       		.uleb128 0x22
 4306 0d19 01       		.uleb128 0x1
 4307 0d1a 50       		.byte	0x50
 4308 0d1b 01       		.uleb128 0x1
 4309 0d1c 30       		.byte	0x30
 4310 0d1d 00       		.byte	0
 4311 0d1e 21       		.uleb128 0x21
 4312 0d1f 72000000 		.4byte	.LVL44
 4313 0d23 A21D0000 		.4byte	0x1da2
 4314 0d27 310D0000 		.4byte	0xd31
 4315 0d2b 22       		.uleb128 0x22
 4316 0d2c 01       		.uleb128 0x1
 4317 0d2d 50       		.byte	0x50
 4318 0d2e 01       		.uleb128 0x1
 4319 0d2f 31       		.byte	0x31
 4320 0d30 00       		.byte	0
 4321 0d31 20       		.uleb128 0x20
 4322 0d32 76000000 		.4byte	.LVL45
 4323 0d36 B31D0000 		.4byte	0x1db3
 4324 0d3a 20       		.uleb128 0x20
 4325 0d3b 7A000000 		.4byte	.LVL46
 4326 0d3f D91D0000 		.4byte	0x1dd9
 4327 0d43 20       		.uleb128 0x20
 4328 0d44 7E000000 		.4byte	.LVL47
 4329 0d48 591D0000 		.4byte	0x1d59
 4330 0d4c 21       		.uleb128 0x21
 4331 0d4d 84000000 		.4byte	.LVL48
 4332 0d51 221E0000 		.4byte	0x1e22
 4333 0d55 5F0D0000 		.4byte	0xd5f
 4334 0d59 22       		.uleb128 0x22
 4335 0d5a 01       		.uleb128 0x1
 4336 0d5b 50       		.byte	0x50
ARM GAS  C:\Users\ramanatg\AppData\Local\Temp\cc9tuycg.s 			page 109


 4337 0d5c 01       		.uleb128 0x1
 4338 0d5d 31       		.byte	0x31
 4339 0d5e 00       		.byte	0
 4340 0d5f 20       		.uleb128 0x20
 4341 0d60 88000000 		.4byte	.LVL49
 4342 0d64 B31D0000 		.4byte	0x1db3
 4343 0d68 00       		.byte	0
 4344 0d69 1A       		.uleb128 0x1a
 4345 0d6a 6F190000 		.4byte	.LASF255
 4346 0d6e 01       		.byte	0x1
 4347 0d6f 1201     		.2byte	0x112
 4348 0d71 01       		.byte	0x1
 4349 0d72 9B0D0000 		.4byte	0xd9b
 4350 0d76 1D       		.uleb128 0x1d
 4351 0d77 52130000 		.4byte	.LASF256
 4352 0d7b 01       		.byte	0x1
 4353 0d7c 1401     		.2byte	0x114
 4354 0d7e 55040000 		.4byte	0x455
 4355 0d82 1D       		.uleb128 0x1d
 4356 0d83 CE160000 		.4byte	.LASF257
 4357 0d87 01       		.byte	0x1
 4358 0d88 1501     		.2byte	0x115
 4359 0d8a 9C040000 		.4byte	0x49c
 4360 0d8e 1D       		.uleb128 0x1d
 4361 0d8f 44090000 		.4byte	.LASF258
 4362 0d93 01       		.byte	0x1
 4363 0d94 1601     		.2byte	0x116
 4364 0d96 B8000000 		.4byte	0xb8
 4365 0d9a 00       		.byte	0
 4366 0d9b 1F       		.uleb128 0x1f
 4367 0d9c 690D0000 		.4byte	0xd69
 4368 0da0 00000000 		.4byte	.LFB40
 4369 0da4 4A000000 		.4byte	.LFE40-.LFB40
 4370 0da8 01       		.uleb128 0x1
 4371 0da9 9C       		.byte	0x9c
 4372 0daa 4D0E0000 		.4byte	0xe4d
 4373 0dae 27       		.uleb128 0x27
 4374 0daf 760D0000 		.4byte	0xd76
 4375 0db3 3E010000 		.4byte	.LLST7
 4376 0db7 27       		.uleb128 0x27
 4377 0db8 820D0000 		.4byte	0xd82
 4378 0dbc 5C010000 		.4byte	.LLST8
 4379 0dc0 27       		.uleb128 0x27
 4380 0dc1 8E0D0000 		.4byte	0xd8e
 4381 0dc5 7A010000 		.4byte	.LLST9
 4382 0dc9 21       		.uleb128 0x21
 4383 0dca 08000000 		.4byte	.LVL51
 4384 0dce 331E0000 		.4byte	0x1e33
 4385 0dd2 DC0D0000 		.4byte	0xddc
 4386 0dd6 22       		.uleb128 0x22
 4387 0dd7 01       		.uleb128 0x1
 4388 0dd8 50       		.byte	0x50
 4389 0dd9 01       		.uleb128 0x1
 4390 0dda 33       		.byte	0x33
 4391 0ddb 00       		.byte	0
 4392 0ddc 20       		.uleb128 0x20
 4393 0ddd 0E000000 		.4byte	.LVL53
ARM GAS  C:\Users\ramanatg\AppData\Local\Temp\cc9tuycg.s 			page 110


 4394 0de1 491E0000 		.4byte	0x1e49
 4395 0de5 20       		.uleb128 0x20
 4396 0de6 14000000 		.4byte	.LVL55
 4397 0dea 541E0000 		.4byte	0x1e54
 4398 0dee 21       		.uleb128 0x21
 4399 0def 22000000 		.4byte	.LVL57
 4400 0df3 601E0000 		.4byte	0x1e60
 4401 0df7 010E0000 		.4byte	0xe01
 4402 0dfb 22       		.uleb128 0x22
 4403 0dfc 01       		.uleb128 0x1
 4404 0dfd 50       		.byte	0x50
 4405 0dfe 01       		.uleb128 0x1
 4406 0dff 32       		.byte	0x32
 4407 0e00 00       		.byte	0
 4408 0e01 20       		.uleb128 0x20
 4409 0e02 26000000 		.4byte	.LVL58
 4410 0e06 711E0000 		.4byte	0x1e71
 4411 0e0a 20       		.uleb128 0x20
 4412 0e0b 2A000000 		.4byte	.LVL59
 4413 0e0f 781E0000 		.4byte	0x1e78
 4414 0e13 20       		.uleb128 0x20
 4415 0e14 2E000000 		.4byte	.LVL60
 4416 0e18 7F1E0000 		.4byte	0x1e7f
 4417 0e1c 21       		.uleb128 0x21
 4418 0e1d 34000000 		.4byte	.LVL61
 4419 0e21 601E0000 		.4byte	0x1e60
 4420 0e25 2F0E0000 		.4byte	0xe2f
 4421 0e29 22       		.uleb128 0x22
 4422 0e2a 01       		.uleb128 0x1
 4423 0e2b 50       		.byte	0x50
 4424 0e2c 01       		.uleb128 0x1
 4425 0e2d 30       		.byte	0x30
 4426 0e2e 00       		.byte	0
 4427 0e2f 21       		.uleb128 0x21
 4428 0e30 3A000000 		.4byte	.LVL62
 4429 0e34 861E0000 		.4byte	0x1e86
 4430 0e38 430E0000 		.4byte	0xe43
 4431 0e3c 22       		.uleb128 0x22
 4432 0e3d 01       		.uleb128 0x1
 4433 0e3e 50       		.byte	0x50
 4434 0e3f 02       		.uleb128 0x2
 4435 0e40 74       		.byte	0x74
 4436 0e41 00       		.sleb128 0
 4437 0e42 00       		.byte	0
 4438 0e43 20       		.uleb128 0x20
 4439 0e44 48000000 		.4byte	.LVL67
 4440 0e48 D91D0000 		.4byte	0x1dd9
 4441 0e4c 00       		.byte	0
 4442 0e4d 2F       		.uleb128 0x2f
 4443 0e4e 091C0000 		.4byte	.LASF340
 4444 0e52 01       		.byte	0x1
 4445 0e53 A004     		.2byte	0x4a0
 4446 0e55 01       		.byte	0x1
 4447 0e56 670E0000 		.4byte	0xe67
 4448 0e5a 1B       		.uleb128 0x1b
 4449 0e5b 580E0000 		.4byte	.LASF259
 4450 0e5f 01       		.byte	0x1
ARM GAS  C:\Users\ramanatg\AppData\Local\Temp\cc9tuycg.s 			page 111


 4451 0e60 A004     		.2byte	0x4a0
 4452 0e62 E4000000 		.4byte	0xe4
 4453 0e66 00       		.byte	0
 4454 0e67 30       		.uleb128 0x30
 4455 0e68 AB160000 		.4byte	.LASF261
 4456 0e6c 01       		.byte	0x1
 4457 0e6d D501     		.2byte	0x1d5
 4458 0e6f 00000000 		.4byte	.LFB42
 4459 0e73 9C030000 		.4byte	.LFE42-.LFB42
 4460 0e77 01       		.uleb128 0x1
 4461 0e78 9C       		.byte	0x9c
 4462 0e79 17150000 		.4byte	0x1517
 4463 0e7d 31       		.uleb128 0x31
 4464 0e7e 6A0D0000 		.4byte	.LASF263
 4465 0e82 01       		.byte	0x1
 4466 0e83 D701     		.2byte	0x1d7
 4467 0e85 20040000 		.4byte	0x420
 4468 0e89 A4010000 		.4byte	.LLST10
 4469 0e8d 32       		.uleb128 0x32
 4470 0e8e 4D0E0000 		.4byte	0xe4d
 4471 0e92 50000000 		.4byte	.LBB48
 4472 0e96 34000000 		.4byte	.LBE48-.LBB48
 4473 0e9a 01       		.byte	0x1
 4474 0e9b D102     		.2byte	0x2d1
 4475 0e9d 310F0000 		.4byte	0xf31
 4476 0ea1 28       		.uleb128 0x28
 4477 0ea2 5A0E0000 		.4byte	0xe5a
 4478 0ea6 09020000 		.4byte	.LLST11
 4479 0eaa 20       		.uleb128 0x20
 4480 0eab 54000000 		.4byte	.LVL75
 4481 0eaf 591D0000 		.4byte	0x1d59
 4482 0eb3 21       		.uleb128 0x21
 4483 0eb4 5C000000 		.4byte	.LVL76
 4484 0eb8 221E0000 		.4byte	0x1e22
 4485 0ebc C80E0000 		.4byte	0xec8
 4486 0ec0 22       		.uleb128 0x22
 4487 0ec1 01       		.uleb128 0x1
 4488 0ec2 50       		.byte	0x50
 4489 0ec3 03       		.uleb128 0x3
 4490 0ec4 0A       		.byte	0xa
 4491 0ec5 0001     		.2byte	0x100
 4492 0ec7 00       		.byte	0
 4493 0ec8 21       		.uleb128 0x21
 4494 0ec9 64000000 		.4byte	.LVL77
 4495 0ecd 601D0000 		.4byte	0x1d60
 4496 0ed1 E00E0000 		.4byte	0xee0
 4497 0ed5 22       		.uleb128 0x22
 4498 0ed6 01       		.uleb128 0x1
 4499 0ed7 51       		.byte	0x51
 4500 0ed8 01       		.uleb128 0x1
 4501 0ed9 31       		.byte	0x31
 4502 0eda 22       		.uleb128 0x22
 4503 0edb 01       		.uleb128 0x1
 4504 0edc 50       		.byte	0x50
 4505 0edd 01       		.uleb128 0x1
 4506 0ede 31       		.byte	0x31
 4507 0edf 00       		.byte	0
ARM GAS  C:\Users\ramanatg\AppData\Local\Temp\cc9tuycg.s 			page 112


 4508 0ee0 21       		.uleb128 0x21
 4509 0ee1 6C000000 		.4byte	.LVL78
 4510 0ee5 761D0000 		.4byte	0x1d76
 4511 0ee9 F80E0000 		.4byte	0xef8
 4512 0eed 22       		.uleb128 0x22
 4513 0eee 01       		.uleb128 0x1
 4514 0eef 51       		.byte	0x51
 4515 0ef0 01       		.uleb128 0x1
 4516 0ef1 31       		.byte	0x31
 4517 0ef2 22       		.uleb128 0x22
 4518 0ef3 01       		.uleb128 0x1
 4519 0ef4 50       		.byte	0x50
 4520 0ef5 01       		.uleb128 0x1
 4521 0ef6 31       		.byte	0x31
 4522 0ef7 00       		.byte	0
 4523 0ef8 21       		.uleb128 0x21
 4524 0ef9 74000000 		.4byte	.LVL79
 4525 0efd 8C1D0000 		.4byte	0x1d8c
 4526 0f01 120F0000 		.4byte	0xf12
 4527 0f05 22       		.uleb128 0x22
 4528 0f06 01       		.uleb128 0x1
 4529 0f07 51       		.byte	0x51
 4530 0f08 03       		.uleb128 0x3
 4531 0f09 0A       		.byte	0xa
 4532 0f0a FF7F     		.2byte	0x7fff
 4533 0f0c 22       		.uleb128 0x22
 4534 0f0d 01       		.uleb128 0x1
 4535 0f0e 50       		.byte	0x50
 4536 0f0f 01       		.uleb128 0x1
 4537 0f10 31       		.byte	0x31
 4538 0f11 00       		.byte	0
 4539 0f12 21       		.uleb128 0x21
 4540 0f13 7C000000 		.4byte	.LVL80
 4541 0f17 A21D0000 		.4byte	0x1da2
 4542 0f1b 270F0000 		.4byte	0xf27
 4543 0f1f 22       		.uleb128 0x22
 4544 0f20 01       		.uleb128 0x1
 4545 0f21 50       		.byte	0x50
 4546 0f22 03       		.uleb128 0x3
 4547 0f23 0A       		.byte	0xa
 4548 0f24 0001     		.2byte	0x100
 4549 0f26 00       		.byte	0
 4550 0f27 20       		.uleb128 0x20
 4551 0f28 80000000 		.4byte	.LVL81
 4552 0f2c B31D0000 		.4byte	0x1db3
 4553 0f30 00       		.byte	0
 4554 0f31 32       		.uleb128 0x32
 4555 0f32 4D0E0000 		.4byte	0xe4d
 4556 0f36 B0000000 		.4byte	.LBB50
 4557 0f3a 30000000 		.4byte	.LBE50-.LBB50
 4558 0f3e 01       		.byte	0x1
 4559 0f3f E901     		.2byte	0x1e9
 4560 0f41 D50F0000 		.4byte	0xfd5
 4561 0f45 28       		.uleb128 0x28
 4562 0f46 5A0E0000 		.4byte	0xe5a
 4563 0f4a 1F020000 		.4byte	.LLST12
 4564 0f4e 20       		.uleb128 0x20
ARM GAS  C:\Users\ramanatg\AppData\Local\Temp\cc9tuycg.s 			page 113


 4565 0f4f B4000000 		.4byte	.LVL85
 4566 0f53 591D0000 		.4byte	0x1d59
 4567 0f57 21       		.uleb128 0x21
 4568 0f58 BC000000 		.4byte	.LVL86
 4569 0f5c 221E0000 		.4byte	0x1e22
 4570 0f60 6C0F0000 		.4byte	0xf6c
 4571 0f64 22       		.uleb128 0x22
 4572 0f65 01       		.uleb128 0x1
 4573 0f66 50       		.byte	0x50
 4574 0f67 03       		.uleb128 0x3
 4575 0f68 0A       		.byte	0xa
 4576 0f69 0001     		.2byte	0x100
 4577 0f6b 00       		.byte	0
 4578 0f6c 21       		.uleb128 0x21
 4579 0f6d C4000000 		.4byte	.LVL87
 4580 0f71 601D0000 		.4byte	0x1d60
 4581 0f75 840F0000 		.4byte	0xf84
 4582 0f79 22       		.uleb128 0x22
 4583 0f7a 01       		.uleb128 0x1
 4584 0f7b 51       		.byte	0x51
 4585 0f7c 01       		.uleb128 0x1
 4586 0f7d 31       		.byte	0x31
 4587 0f7e 22       		.uleb128 0x22
 4588 0f7f 01       		.uleb128 0x1
 4589 0f80 50       		.byte	0x50
 4590 0f81 01       		.uleb128 0x1
 4591 0f82 31       		.byte	0x31
 4592 0f83 00       		.byte	0
 4593 0f84 21       		.uleb128 0x21
 4594 0f85 CC000000 		.4byte	.LVL88
 4595 0f89 761D0000 		.4byte	0x1d76
 4596 0f8d 9C0F0000 		.4byte	0xf9c
 4597 0f91 22       		.uleb128 0x22
 4598 0f92 01       		.uleb128 0x1
 4599 0f93 51       		.byte	0x51
 4600 0f94 01       		.uleb128 0x1
 4601 0f95 31       		.byte	0x31
 4602 0f96 22       		.uleb128 0x22
 4603 0f97 01       		.uleb128 0x1
 4604 0f98 50       		.byte	0x50
 4605 0f99 01       		.uleb128 0x1
 4606 0f9a 31       		.byte	0x31
 4607 0f9b 00       		.byte	0
 4608 0f9c 21       		.uleb128 0x21
 4609 0f9d D4000000 		.4byte	.LVL89
 4610 0fa1 8C1D0000 		.4byte	0x1d8c
 4611 0fa5 B60F0000 		.4byte	0xfb6
 4612 0fa9 22       		.uleb128 0x22
 4613 0faa 01       		.uleb128 0x1
 4614 0fab 51       		.byte	0x51
 4615 0fac 03       		.uleb128 0x3
 4616 0fad 0A       		.byte	0xa
 4617 0fae 8E02     		.2byte	0x28e
 4618 0fb0 22       		.uleb128 0x22
 4619 0fb1 01       		.uleb128 0x1
 4620 0fb2 50       		.byte	0x50
 4621 0fb3 01       		.uleb128 0x1
ARM GAS  C:\Users\ramanatg\AppData\Local\Temp\cc9tuycg.s 			page 114


 4622 0fb4 31       		.byte	0x31
 4623 0fb5 00       		.byte	0
 4624 0fb6 21       		.uleb128 0x21
 4625 0fb7 DC000000 		.4byte	.LVL90
 4626 0fbb A21D0000 		.4byte	0x1da2
 4627 0fbf CB0F0000 		.4byte	0xfcb
 4628 0fc3 22       		.uleb128 0x22
 4629 0fc4 01       		.uleb128 0x1
 4630 0fc5 50       		.byte	0x50
 4631 0fc6 03       		.uleb128 0x3
 4632 0fc7 0A       		.byte	0xa
 4633 0fc8 0001     		.2byte	0x100
 4634 0fca 00       		.byte	0
 4635 0fcb 20       		.uleb128 0x20
 4636 0fcc E0000000 		.4byte	.LVL91
 4637 0fd0 B31D0000 		.4byte	0x1db3
 4638 0fd4 00       		.byte	0
 4639 0fd5 32       		.uleb128 0x32
 4640 0fd6 4D0E0000 		.4byte	0xe4d
 4641 0fda 02010000 		.4byte	.LBB52
 4642 0fde 30000000 		.4byte	.LBE52-.LBB52
 4643 0fe2 01       		.byte	0x1
 4644 0fe3 FE01     		.2byte	0x1fe
 4645 0fe5 79100000 		.4byte	0x1079
 4646 0fe9 28       		.uleb128 0x28
 4647 0fea 5A0E0000 		.4byte	0xe5a
 4648 0fee 35020000 		.4byte	.LLST13
 4649 0ff2 20       		.uleb128 0x20
 4650 0ff3 06010000 		.4byte	.LVL95
 4651 0ff7 591D0000 		.4byte	0x1d59
 4652 0ffb 21       		.uleb128 0x21
 4653 0ffc 0E010000 		.4byte	.LVL96
 4654 1000 221E0000 		.4byte	0x1e22
 4655 1004 10100000 		.4byte	0x1010
 4656 1008 22       		.uleb128 0x22
 4657 1009 01       		.uleb128 0x1
 4658 100a 50       		.byte	0x50
 4659 100b 03       		.uleb128 0x3
 4660 100c 0A       		.byte	0xa
 4661 100d 0001     		.2byte	0x100
 4662 100f 00       		.byte	0
 4663 1010 21       		.uleb128 0x21
 4664 1011 16010000 		.4byte	.LVL97
 4665 1015 601D0000 		.4byte	0x1d60
 4666 1019 28100000 		.4byte	0x1028
 4667 101d 22       		.uleb128 0x22
 4668 101e 01       		.uleb128 0x1
 4669 101f 51       		.byte	0x51
 4670 1020 01       		.uleb128 0x1
 4671 1021 31       		.byte	0x31
 4672 1022 22       		.uleb128 0x22
 4673 1023 01       		.uleb128 0x1
 4674 1024 50       		.byte	0x50
 4675 1025 01       		.uleb128 0x1
 4676 1026 31       		.byte	0x31
 4677 1027 00       		.byte	0
 4678 1028 21       		.uleb128 0x21
ARM GAS  C:\Users\ramanatg\AppData\Local\Temp\cc9tuycg.s 			page 115


 4679 1029 1E010000 		.4byte	.LVL98
 4680 102d 761D0000 		.4byte	0x1d76
 4681 1031 40100000 		.4byte	0x1040
 4682 1035 22       		.uleb128 0x22
 4683 1036 01       		.uleb128 0x1
 4684 1037 51       		.byte	0x51
 4685 1038 01       		.uleb128 0x1
 4686 1039 31       		.byte	0x31
 4687 103a 22       		.uleb128 0x22
 4688 103b 01       		.uleb128 0x1
 4689 103c 50       		.byte	0x50
 4690 103d 01       		.uleb128 0x1
 4691 103e 31       		.byte	0x31
 4692 103f 00       		.byte	0
 4693 1040 21       		.uleb128 0x21
 4694 1041 26010000 		.4byte	.LVL99
 4695 1045 8C1D0000 		.4byte	0x1d8c
 4696 1049 5A100000 		.4byte	0x105a
 4697 104d 22       		.uleb128 0x22
 4698 104e 01       		.uleb128 0x1
 4699 104f 51       		.byte	0x51
 4700 1050 03       		.uleb128 0x3
 4701 1051 0A       		.byte	0xa
 4702 1052 8E02     		.2byte	0x28e
 4703 1054 22       		.uleb128 0x22
 4704 1055 01       		.uleb128 0x1
 4705 1056 50       		.byte	0x50
 4706 1057 01       		.uleb128 0x1
 4707 1058 31       		.byte	0x31
 4708 1059 00       		.byte	0
 4709 105a 21       		.uleb128 0x21
 4710 105b 2E010000 		.4byte	.LVL100
 4711 105f A21D0000 		.4byte	0x1da2
 4712 1063 6F100000 		.4byte	0x106f
 4713 1067 22       		.uleb128 0x22
 4714 1068 01       		.uleb128 0x1
 4715 1069 50       		.byte	0x50
 4716 106a 03       		.uleb128 0x3
 4717 106b 0A       		.byte	0xa
 4718 106c 0001     		.2byte	0x100
 4719 106e 00       		.byte	0
 4720 106f 20       		.uleb128 0x20
 4721 1070 32010000 		.4byte	.LVL101
 4722 1074 B31D0000 		.4byte	0x1db3
 4723 1078 00       		.byte	0
 4724 1079 32       		.uleb128 0x32
 4725 107a 4D0E0000 		.4byte	0xe4d
 4726 107e 4E010000 		.4byte	.LBB54
 4727 1082 30000000 		.4byte	.LBE54-.LBB54
 4728 1086 01       		.byte	0x1
 4729 1087 1002     		.2byte	0x210
 4730 1089 1D110000 		.4byte	0x111d
 4731 108d 28       		.uleb128 0x28
 4732 108e 5A0E0000 		.4byte	0xe5a
 4733 1092 4B020000 		.4byte	.LLST14
 4734 1096 20       		.uleb128 0x20
 4735 1097 52010000 		.4byte	.LVL104
ARM GAS  C:\Users\ramanatg\AppData\Local\Temp\cc9tuycg.s 			page 116


 4736 109b 591D0000 		.4byte	0x1d59
 4737 109f 21       		.uleb128 0x21
 4738 10a0 5A010000 		.4byte	.LVL105
 4739 10a4 221E0000 		.4byte	0x1e22
 4740 10a8 B4100000 		.4byte	0x10b4
 4741 10ac 22       		.uleb128 0x22
 4742 10ad 01       		.uleb128 0x1
 4743 10ae 50       		.byte	0x50
 4744 10af 03       		.uleb128 0x3
 4745 10b0 0A       		.byte	0xa
 4746 10b1 0001     		.2byte	0x100
 4747 10b3 00       		.byte	0
 4748 10b4 21       		.uleb128 0x21
 4749 10b5 62010000 		.4byte	.LVL106
 4750 10b9 601D0000 		.4byte	0x1d60
 4751 10bd CC100000 		.4byte	0x10cc
 4752 10c1 22       		.uleb128 0x22
 4753 10c2 01       		.uleb128 0x1
 4754 10c3 51       		.byte	0x51
 4755 10c4 01       		.uleb128 0x1
 4756 10c5 31       		.byte	0x31
 4757 10c6 22       		.uleb128 0x22
 4758 10c7 01       		.uleb128 0x1
 4759 10c8 50       		.byte	0x50
 4760 10c9 01       		.uleb128 0x1
 4761 10ca 31       		.byte	0x31
 4762 10cb 00       		.byte	0
 4763 10cc 21       		.uleb128 0x21
 4764 10cd 6A010000 		.4byte	.LVL107
 4765 10d1 761D0000 		.4byte	0x1d76
 4766 10d5 E4100000 		.4byte	0x10e4
 4767 10d9 22       		.uleb128 0x22
 4768 10da 01       		.uleb128 0x1
 4769 10db 51       		.byte	0x51
 4770 10dc 01       		.uleb128 0x1
 4771 10dd 31       		.byte	0x31
 4772 10de 22       		.uleb128 0x22
 4773 10df 01       		.uleb128 0x1
 4774 10e0 50       		.byte	0x50
 4775 10e1 01       		.uleb128 0x1
 4776 10e2 31       		.byte	0x31
 4777 10e3 00       		.byte	0
 4778 10e4 21       		.uleb128 0x21
 4779 10e5 72010000 		.4byte	.LVL108
 4780 10e9 8C1D0000 		.4byte	0x1d8c
 4781 10ed FE100000 		.4byte	0x10fe
 4782 10f1 22       		.uleb128 0x22
 4783 10f2 01       		.uleb128 0x1
 4784 10f3 51       		.byte	0x51
 4785 10f4 03       		.uleb128 0x3
 4786 10f5 0A       		.byte	0xa
 4787 10f6 8E02     		.2byte	0x28e
 4788 10f8 22       		.uleb128 0x22
 4789 10f9 01       		.uleb128 0x1
 4790 10fa 50       		.byte	0x50
 4791 10fb 01       		.uleb128 0x1
 4792 10fc 31       		.byte	0x31
ARM GAS  C:\Users\ramanatg\AppData\Local\Temp\cc9tuycg.s 			page 117


 4793 10fd 00       		.byte	0
 4794 10fe 21       		.uleb128 0x21
 4795 10ff 7A010000 		.4byte	.LVL109
 4796 1103 A21D0000 		.4byte	0x1da2
 4797 1107 13110000 		.4byte	0x1113
 4798 110b 22       		.uleb128 0x22
 4799 110c 01       		.uleb128 0x1
 4800 110d 50       		.byte	0x50
 4801 110e 03       		.uleb128 0x3
 4802 110f 0A       		.byte	0xa
 4803 1110 0001     		.2byte	0x100
 4804 1112 00       		.byte	0
 4805 1113 20       		.uleb128 0x20
 4806 1114 7E010000 		.4byte	.LVL110
 4807 1118 B31D0000 		.4byte	0x1db3
 4808 111c 00       		.byte	0
 4809 111d 32       		.uleb128 0x32
 4810 111e 4D0E0000 		.4byte	0xe4d
 4811 1122 A4010000 		.4byte	.LBB56
 4812 1126 30000000 		.4byte	.LBE56-.LBB56
 4813 112a 01       		.byte	0x1
 4814 112b 2502     		.2byte	0x225
 4815 112d C1110000 		.4byte	0x11c1
 4816 1131 28       		.uleb128 0x28
 4817 1132 5A0E0000 		.4byte	0xe5a
 4818 1136 61020000 		.4byte	.LLST15
 4819 113a 20       		.uleb128 0x20
 4820 113b A8010000 		.4byte	.LVL114
 4821 113f 591D0000 		.4byte	0x1d59
 4822 1143 21       		.uleb128 0x21
 4823 1144 B0010000 		.4byte	.LVL115
 4824 1148 221E0000 		.4byte	0x1e22
 4825 114c 58110000 		.4byte	0x1158
 4826 1150 22       		.uleb128 0x22
 4827 1151 01       		.uleb128 0x1
 4828 1152 50       		.byte	0x50
 4829 1153 03       		.uleb128 0x3
 4830 1154 0A       		.byte	0xa
 4831 1155 0001     		.2byte	0x100
 4832 1157 00       		.byte	0
 4833 1158 21       		.uleb128 0x21
 4834 1159 B8010000 		.4byte	.LVL116
 4835 115d 601D0000 		.4byte	0x1d60
 4836 1161 70110000 		.4byte	0x1170
 4837 1165 22       		.uleb128 0x22
 4838 1166 01       		.uleb128 0x1
 4839 1167 51       		.byte	0x51
 4840 1168 01       		.uleb128 0x1
 4841 1169 31       		.byte	0x31
 4842 116a 22       		.uleb128 0x22
 4843 116b 01       		.uleb128 0x1
 4844 116c 50       		.byte	0x50
 4845 116d 01       		.uleb128 0x1
 4846 116e 31       		.byte	0x31
 4847 116f 00       		.byte	0
 4848 1170 21       		.uleb128 0x21
 4849 1171 C0010000 		.4byte	.LVL117
ARM GAS  C:\Users\ramanatg\AppData\Local\Temp\cc9tuycg.s 			page 118


 4850 1175 761D0000 		.4byte	0x1d76
 4851 1179 88110000 		.4byte	0x1188
 4852 117d 22       		.uleb128 0x22
 4853 117e 01       		.uleb128 0x1
 4854 117f 51       		.byte	0x51
 4855 1180 01       		.uleb128 0x1
 4856 1181 31       		.byte	0x31
 4857 1182 22       		.uleb128 0x22
 4858 1183 01       		.uleb128 0x1
 4859 1184 50       		.byte	0x50
 4860 1185 01       		.uleb128 0x1
 4861 1186 31       		.byte	0x31
 4862 1187 00       		.byte	0
 4863 1188 21       		.uleb128 0x21
 4864 1189 C8010000 		.4byte	.LVL118
 4865 118d 8C1D0000 		.4byte	0x1d8c
 4866 1191 A2110000 		.4byte	0x11a2
 4867 1195 22       		.uleb128 0x22
 4868 1196 01       		.uleb128 0x1
 4869 1197 51       		.byte	0x51
 4870 1198 03       		.uleb128 0x3
 4871 1199 0A       		.byte	0xa
 4872 119a 8E02     		.2byte	0x28e
 4873 119c 22       		.uleb128 0x22
 4874 119d 01       		.uleb128 0x1
 4875 119e 50       		.byte	0x50
 4876 119f 01       		.uleb128 0x1
 4877 11a0 31       		.byte	0x31
 4878 11a1 00       		.byte	0
 4879 11a2 21       		.uleb128 0x21
 4880 11a3 D0010000 		.4byte	.LVL119
 4881 11a7 A21D0000 		.4byte	0x1da2
 4882 11ab B7110000 		.4byte	0x11b7
 4883 11af 22       		.uleb128 0x22
 4884 11b0 01       		.uleb128 0x1
 4885 11b1 50       		.byte	0x50
 4886 11b2 03       		.uleb128 0x3
 4887 11b3 0A       		.byte	0xa
 4888 11b4 0001     		.2byte	0x100
 4889 11b6 00       		.byte	0
 4890 11b7 20       		.uleb128 0x20
 4891 11b8 D4010000 		.4byte	.LVL120
 4892 11bc B31D0000 		.4byte	0x1db3
 4893 11c0 00       		.byte	0
 4894 11c1 32       		.uleb128 0x32
 4895 11c2 4D0E0000 		.4byte	0xe4d
 4896 11c6 F0010000 		.4byte	.LBB58
 4897 11ca 30000000 		.4byte	.LBE58-.LBB58
 4898 11ce 01       		.byte	0x1
 4899 11cf 3702     		.2byte	0x237
 4900 11d1 65120000 		.4byte	0x1265
 4901 11d5 28       		.uleb128 0x28
 4902 11d6 5A0E0000 		.4byte	0xe5a
 4903 11da 77020000 		.4byte	.LLST16
 4904 11de 20       		.uleb128 0x20
 4905 11df F4010000 		.4byte	.LVL123
 4906 11e3 591D0000 		.4byte	0x1d59
ARM GAS  C:\Users\ramanatg\AppData\Local\Temp\cc9tuycg.s 			page 119


 4907 11e7 21       		.uleb128 0x21
 4908 11e8 FC010000 		.4byte	.LVL124
 4909 11ec 221E0000 		.4byte	0x1e22
 4910 11f0 FC110000 		.4byte	0x11fc
 4911 11f4 22       		.uleb128 0x22
 4912 11f5 01       		.uleb128 0x1
 4913 11f6 50       		.byte	0x50
 4914 11f7 03       		.uleb128 0x3
 4915 11f8 0A       		.byte	0xa
 4916 11f9 0001     		.2byte	0x100
 4917 11fb 00       		.byte	0
 4918 11fc 21       		.uleb128 0x21
 4919 11fd 04020000 		.4byte	.LVL125
 4920 1201 601D0000 		.4byte	0x1d60
 4921 1205 14120000 		.4byte	0x1214
 4922 1209 22       		.uleb128 0x22
 4923 120a 01       		.uleb128 0x1
 4924 120b 51       		.byte	0x51
 4925 120c 01       		.uleb128 0x1
 4926 120d 31       		.byte	0x31
 4927 120e 22       		.uleb128 0x22
 4928 120f 01       		.uleb128 0x1
 4929 1210 50       		.byte	0x50
 4930 1211 01       		.uleb128 0x1
 4931 1212 31       		.byte	0x31
 4932 1213 00       		.byte	0
 4933 1214 21       		.uleb128 0x21
 4934 1215 0C020000 		.4byte	.LVL126
 4935 1219 761D0000 		.4byte	0x1d76
 4936 121d 2C120000 		.4byte	0x122c
 4937 1221 22       		.uleb128 0x22
 4938 1222 01       		.uleb128 0x1
 4939 1223 51       		.byte	0x51
 4940 1224 01       		.uleb128 0x1
 4941 1225 31       		.byte	0x31
 4942 1226 22       		.uleb128 0x22
 4943 1227 01       		.uleb128 0x1
 4944 1228 50       		.byte	0x50
 4945 1229 01       		.uleb128 0x1
 4946 122a 31       		.byte	0x31
 4947 122b 00       		.byte	0
 4948 122c 21       		.uleb128 0x21
 4949 122d 14020000 		.4byte	.LVL127
 4950 1231 8C1D0000 		.4byte	0x1d8c
 4951 1235 46120000 		.4byte	0x1246
 4952 1239 22       		.uleb128 0x22
 4953 123a 01       		.uleb128 0x1
 4954 123b 51       		.byte	0x51
 4955 123c 03       		.uleb128 0x3
 4956 123d 0A       		.byte	0xa
 4957 123e 8E02     		.2byte	0x28e
 4958 1240 22       		.uleb128 0x22
 4959 1241 01       		.uleb128 0x1
 4960 1242 50       		.byte	0x50
 4961 1243 01       		.uleb128 0x1
 4962 1244 31       		.byte	0x31
 4963 1245 00       		.byte	0
ARM GAS  C:\Users\ramanatg\AppData\Local\Temp\cc9tuycg.s 			page 120


 4964 1246 21       		.uleb128 0x21
 4965 1247 1C020000 		.4byte	.LVL128
 4966 124b A21D0000 		.4byte	0x1da2
 4967 124f 5B120000 		.4byte	0x125b
 4968 1253 22       		.uleb128 0x22
 4969 1254 01       		.uleb128 0x1
 4970 1255 50       		.byte	0x50
 4971 1256 03       		.uleb128 0x3
 4972 1257 0A       		.byte	0xa
 4973 1258 0001     		.2byte	0x100
 4974 125a 00       		.byte	0
 4975 125b 20       		.uleb128 0x20
 4976 125c 20020000 		.4byte	.LVL129
 4977 1260 B31D0000 		.4byte	0x1db3
 4978 1264 00       		.byte	0
 4979 1265 32       		.uleb128 0x32
 4980 1266 E7090000 		.4byte	0x9e7
 4981 126a 56020000 		.4byte	.LBB60
 4982 126e 1A000000 		.4byte	.LBE60-.LBB60
 4983 1272 01       		.byte	0x1
 4984 1273 9302     		.2byte	0x293
 4985 1275 A5120000 		.4byte	0x12a5
 4986 1279 28       		.uleb128 0x28
 4987 127a F8090000 		.4byte	0x9f8
 4988 127e 8D020000 		.4byte	.LLST17
 4989 1282 29       		.uleb128 0x29
 4990 1283 56020000 		.4byte	.LBB61
 4991 1287 1A000000 		.4byte	.LBE61-.LBB61
 4992 128b 27       		.uleb128 0x27
 4993 128c 040A0000 		.4byte	0xa04
 4994 1290 A6020000 		.4byte	.LLST18
 4995 1294 23       		.uleb128 0x23
 4996 1295 6E020000 		.4byte	.LVL136
 4997 1299 971E0000 		.4byte	0x1e97
 4998 129d 22       		.uleb128 0x22
 4999 129e 01       		.uleb128 0x1
 5000 129f 50       		.byte	0x50
 5001 12a0 01       		.uleb128 0x1
 5002 12a1 32       		.byte	0x32
 5003 12a2 00       		.byte	0
 5004 12a3 00       		.byte	0
 5005 12a4 00       		.byte	0
 5006 12a5 32       		.uleb128 0x32
 5007 12a6 B3090000 		.4byte	0x9b3
 5008 12aa A4020000 		.4byte	.LBB62
 5009 12ae 04000000 		.4byte	.LBE62-.LBB62
 5010 12b2 01       		.byte	0x1
 5011 12b3 BE02     		.2byte	0x2be
 5012 12b5 D5120000 		.4byte	0x12d5
 5013 12b9 28       		.uleb128 0x28
 5014 12ba C0090000 		.4byte	0x9c0
 5015 12be C5020000 		.4byte	.LLST19
 5016 12c2 23       		.uleb128 0x23
 5017 12c3 A8020000 		.4byte	.LVL144
 5018 12c7 5B0A0000 		.4byte	0xa5b
 5019 12cb 33       		.uleb128 0x33
 5020 12cc C0090000 		.4byte	0x9c0
ARM GAS  C:\Users\ramanatg\AppData\Local\Temp\cc9tuycg.s 			page 121


 5021 12d0 02       		.uleb128 0x2
 5022 12d1 08       		.byte	0x8
 5023 12d2 20       		.byte	0x20
 5024 12d3 00       		.byte	0
 5025 12d4 00       		.byte	0
 5026 12d5 34       		.uleb128 0x34
 5027 12d6 B3090000 		.4byte	0x9b3
 5028 12da BE020000 		.4byte	.LBB64
 5029 12de 18000000 		.4byte	.Ldebug_ranges0+0x18
 5030 12e2 01       		.byte	0x1
 5031 12e3 A402     		.2byte	0x2a4
 5032 12e5 12130000 		.4byte	0x1312
 5033 12e9 28       		.uleb128 0x28
 5034 12ea C0090000 		.4byte	0x9c0
 5035 12ee DA020000 		.4byte	.LLST20
 5036 12f2 23       		.uleb128 0x23
 5037 12f3 D8020000 		.4byte	.LVL149
 5038 12f7 201D0000 		.4byte	0x1d20
 5039 12fb 22       		.uleb128 0x22
 5040 12fc 01       		.uleb128 0x1
 5041 12fd 52       		.byte	0x52
 5042 12fe 02       		.uleb128 0x2
 5043 12ff 76       		.byte	0x76
 5044 1300 01       		.sleb128 1
 5045 1301 22       		.uleb128 0x22
 5046 1302 01       		.uleb128 0x1
 5047 1303 51       		.byte	0x51
 5048 1304 05       		.uleb128 0x5
 5049 1305 03       		.byte	0x3
 5050 1306 18000000 		.4byte	.LANCHOR2+24
 5051 130a 22       		.uleb128 0x22
 5052 130b 01       		.uleb128 0x1
 5053 130c 50       		.byte	0x50
 5054 130d 02       		.uleb128 0x2
 5055 130e 75       		.byte	0x75
 5056 130f 00       		.sleb128 0
 5057 1310 00       		.byte	0
 5058 1311 00       		.byte	0
 5059 1312 32       		.uleb128 0x32
 5060 1313 B3090000 		.4byte	0x9b3
 5061 1317 16030000 		.4byte	.LBB80
 5062 131b 18000000 		.4byte	.LBE80-.LBB80
 5063 131f 01       		.byte	0x1
 5064 1320 7B02     		.2byte	0x27b
 5065 1322 4F130000 		.4byte	0x134f
 5066 1326 28       		.uleb128 0x28
 5067 1327 C0090000 		.4byte	0x9c0
 5068 132b EE020000 		.4byte	.LLST21
 5069 132f 23       		.uleb128 0x23
 5070 1330 28030000 		.4byte	.LVL154
 5071 1334 201D0000 		.4byte	0x1d20
 5072 1338 22       		.uleb128 0x22
 5073 1339 01       		.uleb128 0x1
 5074 133a 52       		.byte	0x52
 5075 133b 02       		.uleb128 0x2
 5076 133c 77       		.byte	0x77
 5077 133d 01       		.sleb128 1
ARM GAS  C:\Users\ramanatg\AppData\Local\Temp\cc9tuycg.s 			page 122


 5078 133e 22       		.uleb128 0x22
 5079 133f 01       		.uleb128 0x1
 5080 1340 51       		.byte	0x51
 5081 1341 05       		.uleb128 0x5
 5082 1342 03       		.byte	0x3
 5083 1343 18000000 		.4byte	.LANCHOR2+24
 5084 1347 22       		.uleb128 0x22
 5085 1348 01       		.uleb128 0x1
 5086 1349 50       		.byte	0x50
 5087 134a 02       		.uleb128 0x2
 5088 134b 79       		.byte	0x79
 5089 134c 00       		.sleb128 0
 5090 134d 00       		.byte	0
 5091 134e 00       		.byte	0
 5092 134f 32       		.uleb128 0x32
 5093 1350 B3090000 		.4byte	0x9b3
 5094 1354 42030000 		.4byte	.LBB82
 5095 1358 04000000 		.4byte	.LBE82-.LBB82
 5096 135c 01       		.byte	0x1
 5097 135d 8C02     		.2byte	0x28c
 5098 135f 7F130000 		.4byte	0x137f
 5099 1363 28       		.uleb128 0x28
 5100 1364 C0090000 		.4byte	0x9c0
 5101 1368 02030000 		.4byte	.LLST22
 5102 136c 23       		.uleb128 0x23
 5103 136d 46030000 		.4byte	.LVL158
 5104 1371 5B0A0000 		.4byte	0xa5b
 5105 1375 33       		.uleb128 0x33
 5106 1376 C0090000 		.4byte	0x9c0
 5107 137a 02       		.uleb128 0x2
 5108 137b 08       		.byte	0x8
 5109 137c 20       		.byte	0x20
 5110 137d 00       		.byte	0
 5111 137e 00       		.byte	0
 5112 137f 32       		.uleb128 0x32
 5113 1380 B3090000 		.4byte	0x9b3
 5114 1384 4C030000 		.4byte	.LBB84
 5115 1388 10000000 		.4byte	.LBE84-.LBB84
 5116 138c 01       		.byte	0x1
 5117 138d 6502     		.2byte	0x265
 5118 138f B8130000 		.4byte	0x13b8
 5119 1393 2A       		.uleb128 0x2a
 5120 1394 C0090000 		.4byte	0x9c0
 5121 1398 00       		.byte	0
 5122 1399 23       		.uleb128 0x23
 5123 139a 58030000 		.4byte	.LVL160
 5124 139e 201D0000 		.4byte	0x1d20
 5125 13a2 22       		.uleb128 0x22
 5126 13a3 01       		.uleb128 0x1
 5127 13a4 52       		.byte	0x52
 5128 13a5 01       		.uleb128 0x1
 5129 13a6 48       		.byte	0x48
 5130 13a7 22       		.uleb128 0x22
 5131 13a8 01       		.uleb128 0x1
 5132 13a9 51       		.byte	0x51
 5133 13aa 05       		.uleb128 0x5
 5134 13ab 03       		.byte	0x3
ARM GAS  C:\Users\ramanatg\AppData\Local\Temp\cc9tuycg.s 			page 123


 5135 13ac 00000000 		.4byte	.LANCHOR2
 5136 13b0 22       		.uleb128 0x22
 5137 13b1 01       		.uleb128 0x1
 5138 13b2 50       		.byte	0x50
 5139 13b3 02       		.uleb128 0x2
 5140 13b4 76       		.byte	0x76
 5141 13b5 07       		.sleb128 7
 5142 13b6 00       		.byte	0
 5143 13b7 00       		.byte	0
 5144 13b8 20       		.uleb128 0x20
 5145 13b9 1C000000 		.4byte	.LVL69
 5146 13bd 541E0000 		.4byte	0x1e54
 5147 13c1 21       		.uleb128 0x21
 5148 13c2 38000000 		.4byte	.LVL71
 5149 13c6 AD1E0000 		.4byte	0x1ead
 5150 13ca D4130000 		.4byte	0x13d4
 5151 13ce 22       		.uleb128 0x22
 5152 13cf 01       		.uleb128 0x1
 5153 13d0 50       		.byte	0x50
 5154 13d1 01       		.uleb128 0x1
 5155 13d2 30       		.byte	0x30
 5156 13d3 00       		.byte	0
 5157 13d4 20       		.uleb128 0x20
 5158 13d5 44000000 		.4byte	.LVL73
 5159 13d9 541E0000 		.4byte	0x1e54
 5160 13dd 20       		.uleb128 0x20
 5161 13de 50000000 		.4byte	.LVL74
 5162 13e2 BE1E0000 		.4byte	0x1ebe
 5163 13e6 20       		.uleb128 0x20
 5164 13e7 9C000000 		.4byte	.LVL83
 5165 13eb C61E0000 		.4byte	0x1ec6
 5166 13ef 21       		.uleb128 0x21
 5167 13f0 B0000000 		.4byte	.LVL84
 5168 13f4 CD1E0000 		.4byte	0x1ecd
 5169 13f8 16140000 		.4byte	0x1416
 5170 13fc 22       		.uleb128 0x22
 5171 13fd 01       		.uleb128 0x1
 5172 13fe 53       		.byte	0x53
 5173 13ff 01       		.uleb128 0x1
 5174 1400 30       		.byte	0x30
 5175 1401 22       		.uleb128 0x22
 5176 1402 01       		.uleb128 0x1
 5177 1403 52       		.byte	0x52
 5178 1404 01       		.uleb128 0x1
 5179 1405 32       		.byte	0x32
 5180 1406 22       		.uleb128 0x22
 5181 1407 01       		.uleb128 0x1
 5182 1408 51       		.byte	0x51
 5183 1409 05       		.uleb128 0x5
 5184 140a 03       		.byte	0x3
 5185 140b 00000000 		.4byte	I2C_buffer
 5186 140f 22       		.uleb128 0x22
 5187 1410 01       		.uleb128 0x1
 5188 1411 50       		.byte	0x50
 5189 1412 02       		.uleb128 0x2
 5190 1413 08       		.byte	0x8
 5191 1414 40       		.byte	0x40
ARM GAS  C:\Users\ramanatg\AppData\Local\Temp\cc9tuycg.s 			page 124


 5192 1415 00       		.byte	0
 5193 1416 20       		.uleb128 0x20
 5194 1417 F2000000 		.4byte	.LVL93
 5195 141b F21E0000 		.4byte	0x1ef2
 5196 141f 21       		.uleb128 0x21
 5197 1420 02010000 		.4byte	.LVL94
 5198 1424 CD1E0000 		.4byte	0x1ecd
 5199 1428 46140000 		.4byte	0x1446
 5200 142c 22       		.uleb128 0x22
 5201 142d 01       		.uleb128 0x1
 5202 142e 53       		.byte	0x53
 5203 142f 01       		.uleb128 0x1
 5204 1430 30       		.byte	0x30
 5205 1431 22       		.uleb128 0x22
 5206 1432 01       		.uleb128 0x1
 5207 1433 52       		.byte	0x52
 5208 1434 01       		.uleb128 0x1
 5209 1435 31       		.byte	0x31
 5210 1436 22       		.uleb128 0x22
 5211 1437 01       		.uleb128 0x1
 5212 1438 51       		.byte	0x51
 5213 1439 05       		.uleb128 0x5
 5214 143a 03       		.byte	0x3
 5215 143b 00000000 		.4byte	I2C_buffer
 5216 143f 22       		.uleb128 0x22
 5217 1440 01       		.uleb128 0x1
 5218 1441 50       		.byte	0x50
 5219 1442 02       		.uleb128 0x2
 5220 1443 08       		.byte	0x8
 5221 1444 40       		.byte	0x40
 5222 1445 00       		.byte	0
 5223 1446 21       		.uleb128 0x21
 5224 1447 4E010000 		.4byte	.LVL103
 5225 144b FE1E0000 		.4byte	0x1efe
 5226 144f 6D140000 		.4byte	0x146d
 5227 1453 22       		.uleb128 0x22
 5228 1454 01       		.uleb128 0x1
 5229 1455 53       		.byte	0x53
 5230 1456 01       		.uleb128 0x1
 5231 1457 30       		.byte	0x30
 5232 1458 22       		.uleb128 0x22
 5233 1459 01       		.uleb128 0x1
 5234 145a 52       		.byte	0x52
 5235 145b 01       		.uleb128 0x1
 5236 145c 32       		.byte	0x32
 5237 145d 22       		.uleb128 0x22
 5238 145e 01       		.uleb128 0x1
 5239 145f 51       		.byte	0x51
 5240 1460 05       		.uleb128 0x5
 5241 1461 03       		.byte	0x3
 5242 1462 00000000 		.4byte	I2C_buffer
 5243 1466 22       		.uleb128 0x22
 5244 1467 01       		.uleb128 0x1
 5245 1468 50       		.byte	0x50
 5246 1469 02       		.uleb128 0x2
 5247 146a 08       		.byte	0x8
 5248 146b 40       		.byte	0x40
ARM GAS  C:\Users\ramanatg\AppData\Local\Temp\cc9tuycg.s 			page 125


 5249 146c 00       		.byte	0
 5250 146d 20       		.uleb128 0x20
 5251 146e 92010000 		.4byte	.LVL112
 5252 1472 F21E0000 		.4byte	0x1ef2
 5253 1476 21       		.uleb128 0x21
 5254 1477 A4010000 		.4byte	.LVL113
 5255 147b CD1E0000 		.4byte	0x1ecd
 5256 147f 9D140000 		.4byte	0x149d
 5257 1483 22       		.uleb128 0x22
 5258 1484 01       		.uleb128 0x1
 5259 1485 53       		.byte	0x53
 5260 1486 01       		.uleb128 0x1
 5261 1487 30       		.byte	0x30
 5262 1488 22       		.uleb128 0x22
 5263 1489 01       		.uleb128 0x1
 5264 148a 52       		.byte	0x52
 5265 148b 01       		.uleb128 0x1
 5266 148c 31       		.byte	0x31
 5267 148d 22       		.uleb128 0x22
 5268 148e 01       		.uleb128 0x1
 5269 148f 51       		.byte	0x51
 5270 1490 05       		.uleb128 0x5
 5271 1491 03       		.byte	0x3
 5272 1492 02000000 		.4byte	I2C_buffer+2
 5273 1496 22       		.uleb128 0x22
 5274 1497 01       		.uleb128 0x1
 5275 1498 50       		.byte	0x50
 5276 1499 02       		.uleb128 0x2
 5277 149a 08       		.byte	0x8
 5278 149b 40       		.byte	0x40
 5279 149c 00       		.byte	0
 5280 149d 21       		.uleb128 0x21
 5281 149e F0010000 		.4byte	.LVL122
 5282 14a2 FE1E0000 		.4byte	0x1efe
 5283 14a6 C4140000 		.4byte	0x14c4
 5284 14aa 22       		.uleb128 0x22
 5285 14ab 01       		.uleb128 0x1
 5286 14ac 53       		.byte	0x53
 5287 14ad 01       		.uleb128 0x1
 5288 14ae 30       		.byte	0x30
 5289 14af 22       		.uleb128 0x22
 5290 14b0 01       		.uleb128 0x1
 5291 14b1 52       		.byte	0x52
 5292 14b2 01       		.uleb128 0x1
 5293 14b3 32       		.byte	0x32
 5294 14b4 22       		.uleb128 0x22
 5295 14b5 01       		.uleb128 0x1
 5296 14b6 51       		.byte	0x51
 5297 14b7 05       		.uleb128 0x5
 5298 14b8 03       		.byte	0x3
 5299 14b9 02000000 		.4byte	I2C_buffer+2
 5300 14bd 22       		.uleb128 0x22
 5301 14be 01       		.uleb128 0x1
 5302 14bf 50       		.byte	0x50
 5303 14c0 02       		.uleb128 0x2
 5304 14c1 08       		.byte	0x8
 5305 14c2 40       		.byte	0x40
ARM GAS  C:\Users\ramanatg\AppData\Local\Temp\cc9tuycg.s 			page 126


 5306 14c3 00       		.byte	0
 5307 14c4 20       		.uleb128 0x20
 5308 14c5 34020000 		.4byte	.LVL131
 5309 14c9 F21E0000 		.4byte	0x1ef2
 5310 14cd 20       		.uleb128 0x20
 5311 14ce 74020000 		.4byte	.LVL138
 5312 14d2 591D0000 		.4byte	0x1d59
 5313 14d6 21       		.uleb128 0x21
 5314 14d7 7C020000 		.4byte	.LVL139
 5315 14db 221E0000 		.4byte	0x1e22
 5316 14df EB140000 		.4byte	0x14eb
 5317 14e3 22       		.uleb128 0x22
 5318 14e4 01       		.uleb128 0x1
 5319 14e5 50       		.byte	0x50
 5320 14e6 03       		.uleb128 0x3
 5321 14e7 0A       		.byte	0xa
 5322 14e8 0001     		.2byte	0x100
 5323 14ea 00       		.byte	0
 5324 14eb 20       		.uleb128 0x20
 5325 14ec 80020000 		.4byte	.LVL140
 5326 14f0 B31D0000 		.4byte	0x1db3
 5327 14f4 20       		.uleb128 0x20
 5328 14f5 8E020000 		.4byte	.LVL142
 5329 14f9 541E0000 		.4byte	0x1e54
 5330 14fd 20       		.uleb128 0x20
 5331 14fe B4020000 		.4byte	.LVL145
 5332 1502 231F0000 		.4byte	0x1f23
 5333 1506 23       		.uleb128 0x23
 5334 1507 F4020000 		.4byte	.LVL150
 5335 150b 231F0000 		.4byte	0x1f23
 5336 150f 22       		.uleb128 0x22
 5337 1510 01       		.uleb128 0x1
 5338 1511 50       		.byte	0x50
 5339 1512 02       		.uleb128 0x2
 5340 1513 75       		.byte	0x75
 5341 1514 79       		.sleb128 -7
 5342 1515 00       		.byte	0
 5343 1516 00       		.byte	0
 5344 1517 30       		.uleb128 0x30
 5345 1518 FF0C0000 		.4byte	.LASF262
 5346 151c 01       		.byte	0x1
 5347 151d 0003     		.2byte	0x300
 5348 151f 00000000 		.4byte	.LFB43
 5349 1523 10020000 		.4byte	.LFE43-.LFB43
 5350 1527 01       		.uleb128 0x1
 5351 1528 9C       		.byte	0x9c
 5352 1529 D2170000 		.4byte	0x17d2
 5353 152d 31       		.uleb128 0x31
 5354 152e 6A0D0000 		.4byte	.LASF263
 5355 1532 01       		.byte	0x1
 5356 1533 0203     		.2byte	0x302
 5357 1535 20040000 		.4byte	0x420
 5358 1539 17030000 		.4byte	.LLST23
 5359 153d 32       		.uleb128 0x32
 5360 153e E7090000 		.4byte	0x9e7
 5361 1542 4E000000 		.4byte	.LBB104
 5362 1546 18000000 		.4byte	.LBE104-.LBB104
ARM GAS  C:\Users\ramanatg\AppData\Local\Temp\cc9tuycg.s 			page 127


 5363 154a 01       		.byte	0x1
 5364 154b 6503     		.2byte	0x365
 5365 154d 7D150000 		.4byte	0x157d
 5366 1551 28       		.uleb128 0x28
 5367 1552 F8090000 		.4byte	0x9f8
 5368 1556 9E030000 		.4byte	.LLST24
 5369 155a 29       		.uleb128 0x29
 5370 155b 4E000000 		.4byte	.LBB105
 5371 155f 18000000 		.4byte	.LBE105-.LBB105
 5372 1563 27       		.uleb128 0x27
 5373 1564 040A0000 		.4byte	0xa04
 5374 1568 B1030000 		.4byte	.LLST25
 5375 156c 23       		.uleb128 0x23
 5376 156d 66000000 		.4byte	.LVL169
 5377 1571 971E0000 		.4byte	0x1e97
 5378 1575 22       		.uleb128 0x22
 5379 1576 01       		.uleb128 0x1
 5380 1577 50       		.byte	0x50
 5381 1578 01       		.uleb128 0x1
 5382 1579 32       		.byte	0x32
 5383 157a 00       		.byte	0
 5384 157b 00       		.byte	0
 5385 157c 00       		.byte	0
 5386 157d 32       		.uleb128 0x32
 5387 157e B3090000 		.4byte	0x9b3
 5388 1582 90000000 		.4byte	.LBB106
 5389 1586 04000000 		.4byte	.LBE106-.LBB106
 5390 158a 01       		.byte	0x1
 5391 158b C003     		.2byte	0x3c0
 5392 158d AD150000 		.4byte	0x15ad
 5393 1591 28       		.uleb128 0x28
 5394 1592 C0090000 		.4byte	0x9c0
 5395 1596 D0030000 		.4byte	.LLST26
 5396 159a 23       		.uleb128 0x23
 5397 159b 94000000 		.4byte	.LVL175
 5398 159f 5B0A0000 		.4byte	0xa5b
 5399 15a3 33       		.uleb128 0x33
 5400 15a4 C0090000 		.4byte	0x9c0
 5401 15a8 02       		.uleb128 0x2
 5402 15a9 08       		.byte	0x8
 5403 15aa 20       		.byte	0x20
 5404 15ab 00       		.byte	0
 5405 15ac 00       		.byte	0
 5406 15ad 34       		.uleb128 0x34
 5407 15ae B3090000 		.4byte	0x9b3
 5408 15b2 C0000000 		.4byte	.LBB108
 5409 15b6 60000000 		.4byte	.Ldebug_ranges0+0x60
 5410 15ba 01       		.byte	0x1
 5411 15bb 7103     		.2byte	0x371
 5412 15bd E9150000 		.4byte	0x15e9
 5413 15c1 28       		.uleb128 0x28
 5414 15c2 C0090000 		.4byte	0x9c0
 5415 15c6 E5030000 		.4byte	.LLST27
 5416 15ca 23       		.uleb128 0x23
 5417 15cb D4000000 		.4byte	.LVL180
 5418 15cf 201D0000 		.4byte	0x1d20
 5419 15d3 22       		.uleb128 0x22
ARM GAS  C:\Users\ramanatg\AppData\Local\Temp\cc9tuycg.s 			page 128


 5420 15d4 01       		.uleb128 0x1
 5421 15d5 52       		.byte	0x52
 5422 15d6 01       		.uleb128 0x1
 5423 15d7 48       		.byte	0x48
 5424 15d8 22       		.uleb128 0x22
 5425 15d9 01       		.uleb128 0x1
 5426 15da 51       		.byte	0x51
 5427 15db 05       		.uleb128 0x5
 5428 15dc 03       		.byte	0x3
 5429 15dd 00000000 		.4byte	.LANCHOR2
 5430 15e1 22       		.uleb128 0x22
 5431 15e2 01       		.uleb128 0x1
 5432 15e3 50       		.byte	0x50
 5433 15e4 02       		.uleb128 0x2
 5434 15e5 76       		.byte	0x76
 5435 15e6 07       		.sleb128 7
 5436 15e7 00       		.byte	0
 5437 15e8 00       		.byte	0
 5438 15e9 34       		.uleb128 0x34
 5439 15ea B3090000 		.4byte	0x9b3
 5440 15ee FE000000 		.4byte	.LBB118
 5441 15f2 90000000 		.4byte	.Ldebug_ranges0+0x90
 5442 15f6 01       		.byte	0x1
 5443 15f7 8B03     		.2byte	0x38b
 5444 15f9 26160000 		.4byte	0x1626
 5445 15fd 28       		.uleb128 0x28
 5446 15fe C0090000 		.4byte	0x9c0
 5447 1602 F9030000 		.4byte	.LLST28
 5448 1606 23       		.uleb128 0x23
 5449 1607 1A010000 		.4byte	.LVL186
 5450 160b 201D0000 		.4byte	0x1d20
 5451 160f 22       		.uleb128 0x22
 5452 1610 01       		.uleb128 0x1
 5453 1611 52       		.byte	0x52
 5454 1612 02       		.uleb128 0x2
 5455 1613 76       		.byte	0x76
 5456 1614 79       		.sleb128 -7
 5457 1615 22       		.uleb128 0x22
 5458 1616 01       		.uleb128 0x1
 5459 1617 51       		.byte	0x51
 5460 1618 05       		.uleb128 0x5
 5461 1619 03       		.byte	0x3
 5462 161a 18000000 		.4byte	.LANCHOR2+24
 5463 161e 22       		.uleb128 0x22
 5464 161f 01       		.uleb128 0x1
 5465 1620 50       		.byte	0x50
 5466 1621 02       		.uleb128 0x2
 5467 1622 75       		.byte	0x75
 5468 1623 00       		.sleb128 0
 5469 1624 00       		.byte	0
 5470 1625 00       		.byte	0
 5471 1626 32       		.uleb128 0x32
 5472 1627 B3090000 		.4byte	0x9b3
 5473 162b 4C010000 		.4byte	.LBB130
 5474 162f 04000000 		.4byte	.LBE130-.LBB130
 5475 1633 01       		.byte	0x1
 5476 1634 A503     		.2byte	0x3a5
ARM GAS  C:\Users\ramanatg\AppData\Local\Temp\cc9tuycg.s 			page 129


 5477 1636 56160000 		.4byte	0x1656
 5478 163a 28       		.uleb128 0x28
 5479 163b C0090000 		.4byte	0x9c0
 5480 163f 0D040000 		.4byte	.LLST29
 5481 1643 23       		.uleb128 0x23
 5482 1644 50010000 		.4byte	.LVL192
 5483 1648 5B0A0000 		.4byte	0xa5b
 5484 164c 33       		.uleb128 0x33
 5485 164d C0090000 		.4byte	0x9c0
 5486 1651 02       		.uleb128 0x2
 5487 1652 08       		.byte	0x8
 5488 1653 20       		.byte	0x20
 5489 1654 00       		.byte	0
 5490 1655 00       		.byte	0
 5491 1656 32       		.uleb128 0x32
 5492 1657 B3090000 		.4byte	0x9b3
 5493 165b 84010000 		.4byte	.LBB132
 5494 165f 18000000 		.4byte	.LBE132-.LBB132
 5495 1663 01       		.byte	0x1
 5496 1664 4803     		.2byte	0x348
 5497 1666 93160000 		.4byte	0x1693
 5498 166a 28       		.uleb128 0x28
 5499 166b C0090000 		.4byte	0x9c0
 5500 166f 22040000 		.4byte	.LLST30
 5501 1673 23       		.uleb128 0x23
 5502 1674 96010000 		.4byte	.LVL197
 5503 1678 201D0000 		.4byte	0x1d20
 5504 167c 22       		.uleb128 0x22
 5505 167d 01       		.uleb128 0x1
 5506 167e 52       		.byte	0x52
 5507 167f 02       		.uleb128 0x2
 5508 1680 76       		.byte	0x76
 5509 1681 01       		.sleb128 1
 5510 1682 22       		.uleb128 0x22
 5511 1683 01       		.uleb128 0x1
 5512 1684 51       		.byte	0x51
 5513 1685 05       		.uleb128 0x5
 5514 1686 03       		.byte	0x3
 5515 1687 18000000 		.4byte	.LANCHOR2+24
 5516 168b 22       		.uleb128 0x22
 5517 168c 01       		.uleb128 0x1
 5518 168d 50       		.byte	0x50
 5519 168e 02       		.uleb128 0x2
 5520 168f 78       		.byte	0x78
 5521 1690 00       		.sleb128 0
 5522 1691 00       		.byte	0
 5523 1692 00       		.byte	0
 5524 1693 32       		.uleb128 0x32
 5525 1694 B3090000 		.4byte	0x9b3
 5526 1698 AC010000 		.4byte	.LBB134
 5527 169c 16000000 		.4byte	.LBE134-.LBB134
 5528 16a0 01       		.byte	0x1
 5529 16a1 6203     		.2byte	0x362
 5530 16a3 D0160000 		.4byte	0x16d0
 5531 16a7 28       		.uleb128 0x28
 5532 16a8 C0090000 		.4byte	0x9c0
 5533 16ac 36040000 		.4byte	.LLST31
ARM GAS  C:\Users\ramanatg\AppData\Local\Temp\cc9tuycg.s 			page 130


 5534 16b0 23       		.uleb128 0x23
 5535 16b1 BE010000 		.4byte	.LVL200
 5536 16b5 201D0000 		.4byte	0x1d20
 5537 16b9 22       		.uleb128 0x22
 5538 16ba 01       		.uleb128 0x1
 5539 16bb 52       		.byte	0x52
 5540 16bc 02       		.uleb128 0x2
 5541 16bd 74       		.byte	0x74
 5542 16be 79       		.sleb128 -7
 5543 16bf 22       		.uleb128 0x22
 5544 16c0 01       		.uleb128 0x1
 5545 16c1 51       		.byte	0x51
 5546 16c2 05       		.uleb128 0x5
 5547 16c3 03       		.byte	0x3
 5548 16c4 18000000 		.4byte	.LANCHOR2+24
 5549 16c8 22       		.uleb128 0x22
 5550 16c9 01       		.uleb128 0x1
 5551 16ca 50       		.byte	0x50
 5552 16cb 02       		.uleb128 0x2
 5553 16cc 76       		.byte	0x76
 5554 16cd 00       		.sleb128 0
 5555 16ce 00       		.byte	0
 5556 16cf 00       		.byte	0
 5557 16d0 32       		.uleb128 0x32
 5558 16d1 B3090000 		.4byte	0x9b3
 5559 16d5 C2010000 		.4byte	.LBB136
 5560 16d9 04000000 		.4byte	.LBE136-.LBB136
 5561 16dd 01       		.byte	0x1
 5562 16de 5903     		.2byte	0x359
 5563 16e0 00170000 		.4byte	0x1700
 5564 16e4 28       		.uleb128 0x28
 5565 16e5 C0090000 		.4byte	0x9c0
 5566 16e9 4A040000 		.4byte	.LLST32
 5567 16ed 23       		.uleb128 0x23
 5568 16ee C6010000 		.4byte	.LVL202
 5569 16f2 5B0A0000 		.4byte	0xa5b
 5570 16f6 33       		.uleb128 0x33
 5571 16f7 C0090000 		.4byte	0x9c0
 5572 16fb 02       		.uleb128 0x2
 5573 16fc 08       		.byte	0x8
 5574 16fd 20       		.byte	0x20
 5575 16fe 00       		.byte	0
 5576 16ff 00       		.byte	0
 5577 1700 32       		.uleb128 0x32
 5578 1701 B3090000 		.4byte	0x9b3
 5579 1705 CC010000 		.4byte	.LBB138
 5580 1709 10000000 		.4byte	.LBE138-.LBB138
 5581 170d 01       		.byte	0x1
 5582 170e 3203     		.2byte	0x332
 5583 1710 39170000 		.4byte	0x1739
 5584 1714 2A       		.uleb128 0x2a
 5585 1715 C0090000 		.4byte	0x9c0
 5586 1719 00       		.byte	0
 5587 171a 23       		.uleb128 0x23
 5588 171b D8010000 		.4byte	.LVL204
 5589 171f 201D0000 		.4byte	0x1d20
 5590 1723 22       		.uleb128 0x22
ARM GAS  C:\Users\ramanatg\AppData\Local\Temp\cc9tuycg.s 			page 131


 5591 1724 01       		.uleb128 0x1
 5592 1725 52       		.byte	0x52
 5593 1726 01       		.uleb128 0x1
 5594 1727 48       		.byte	0x48
 5595 1728 22       		.uleb128 0x22
 5596 1729 01       		.uleb128 0x1
 5597 172a 51       		.byte	0x51
 5598 172b 05       		.uleb128 0x5
 5599 172c 03       		.byte	0x3
 5600 172d 00000000 		.4byte	.LANCHOR2
 5601 1731 22       		.uleb128 0x22
 5602 1732 01       		.uleb128 0x1
 5603 1733 50       		.byte	0x50
 5604 1734 02       		.uleb128 0x2
 5605 1735 77       		.byte	0x77
 5606 1736 07       		.sleb128 7
 5607 1737 00       		.byte	0
 5608 1738 00       		.byte	0
 5609 1739 20       		.uleb128 0x20
 5610 173a 26000000 		.4byte	.LVL162
 5611 173e 591D0000 		.4byte	0x1d59
 5612 1742 21       		.uleb128 0x21
 5613 1743 30000000 		.4byte	.LVL163
 5614 1747 221E0000 		.4byte	0x1e22
 5615 174b 57170000 		.4byte	0x1757
 5616 174f 22       		.uleb128 0x22
 5617 1750 01       		.uleb128 0x1
 5618 1751 50       		.byte	0x50
 5619 1752 03       		.uleb128 0x3
 5620 1753 0A       		.byte	0xa
 5621 1754 0001     		.2byte	0x100
 5622 1756 00       		.byte	0
 5623 1757 20       		.uleb128 0x20
 5624 1758 34000000 		.4byte	.LVL164
 5625 175c B31D0000 		.4byte	0x1db3
 5626 1760 21       		.uleb128 0x21
 5627 1761 70000000 		.4byte	.LVL171
 5628 1765 AD1E0000 		.4byte	0x1ead
 5629 1769 73170000 		.4byte	0x1773
 5630 176d 22       		.uleb128 0x22
 5631 176e 01       		.uleb128 0x1
 5632 176f 50       		.byte	0x50
 5633 1770 01       		.uleb128 0x1
 5634 1771 30       		.byte	0x30
 5635 1772 00       		.byte	0
 5636 1773 20       		.uleb128 0x20
 5637 1774 7C000000 		.4byte	.LVL173
 5638 1778 541E0000 		.4byte	0x1e54
 5639 177c 20       		.uleb128 0x20
 5640 177d 9C000000 		.4byte	.LVL176
 5641 1781 231F0000 		.4byte	0x1f23
 5642 1785 20       		.uleb128 0x20
 5643 1786 B2000000 		.4byte	.LVL178
 5644 178a 541E0000 		.4byte	0x1e54
 5645 178e 21       		.uleb128 0x21
 5646 178f E0000000 		.4byte	.LVL181
 5647 1793 231F0000 		.4byte	0x1f23
ARM GAS  C:\Users\ramanatg\AppData\Local\Temp\cc9tuycg.s 			page 132


 5648 1797 A2170000 		.4byte	0x17a2
 5649 179b 22       		.uleb128 0x22
 5650 179c 01       		.uleb128 0x1
 5651 179d 50       		.byte	0x50
 5652 179e 02       		.uleb128 0x2
 5653 179f 76       		.byte	0x76
 5654 17a0 00       		.sleb128 0
 5655 17a1 00       		.byte	0
 5656 17a2 20       		.uleb128 0x20
 5657 17a3 F4000000 		.4byte	.LVL184
 5658 17a7 541E0000 		.4byte	0x1e54
 5659 17ab 21       		.uleb128 0x21
 5660 17ac 24010000 		.4byte	.LVL187
 5661 17b0 231F0000 		.4byte	0x1f23
 5662 17b4 BF170000 		.4byte	0x17bf
 5663 17b8 22       		.uleb128 0x22
 5664 17b9 01       		.uleb128 0x1
 5665 17ba 50       		.byte	0x50
 5666 17bb 02       		.uleb128 0x2
 5667 17bc 75       		.byte	0x75
 5668 17bd 79       		.sleb128 -7
 5669 17be 00       		.byte	0
 5670 17bf 20       		.uleb128 0x20
 5671 17c0 38010000 		.4byte	.LVL190
 5672 17c4 541E0000 		.4byte	0x1e54
 5673 17c8 20       		.uleb128 0x20
 5674 17c9 58010000 		.4byte	.LVL193
 5675 17cd 231F0000 		.4byte	0x1f23
 5676 17d1 00       		.byte	0
 5677 17d2 35       		.uleb128 0x35
 5678 17d3 A5030000 		.4byte	.LASF264
 5679 17d7 01       		.byte	0x1
 5680 17d8 DE03     		.2byte	0x3de
 5681 17da 00000000 		.4byte	.LFB44
 5682 17de 10010000 		.4byte	.LFE44-.LFB44
 5683 17e2 01       		.uleb128 0x1
 5684 17e3 9C       		.byte	0x9c
 5685 17e4 5D180000 		.4byte	0x185d
 5686 17e8 21       		.uleb128 0x21
 5687 17e9 5A000000 		.4byte	.LVL205
 5688 17ed 201D0000 		.4byte	0x1d20
 5689 17f1 07180000 		.4byte	0x1807
 5690 17f5 22       		.uleb128 0x22
 5691 17f6 01       		.uleb128 0x1
 5692 17f7 52       		.byte	0x52
 5693 17f8 01       		.uleb128 0x1
 5694 17f9 3A       		.byte	0x3a
 5695 17fa 22       		.uleb128 0x22
 5696 17fb 01       		.uleb128 0x1
 5697 17fc 51       		.byte	0x51
 5698 17fd 02       		.uleb128 0x2
 5699 17fe 74       		.byte	0x74
 5700 17ff 20       		.sleb128 32
 5701 1800 22       		.uleb128 0x22
 5702 1801 01       		.uleb128 0x1
 5703 1802 50       		.byte	0x50
 5704 1803 02       		.uleb128 0x2
ARM GAS  C:\Users\ramanatg\AppData\Local\Temp\cc9tuycg.s 			page 133


 5705 1804 75       		.byte	0x75
 5706 1805 06       		.sleb128 6
 5707 1806 00       		.byte	0
 5708 1807 21       		.uleb128 0x21
 5709 1808 68000000 		.4byte	.LVL206
 5710 180c 201D0000 		.4byte	0x1d20
 5711 1810 26180000 		.4byte	0x1826
 5712 1814 22       		.uleb128 0x22
 5713 1815 01       		.uleb128 0x1
 5714 1816 52       		.byte	0x52
 5715 1817 01       		.uleb128 0x1
 5716 1818 36       		.byte	0x36
 5717 1819 22       		.uleb128 0x22
 5718 181a 01       		.uleb128 0x1
 5719 181b 51       		.byte	0x51
 5720 181c 02       		.uleb128 0x2
 5721 181d 74       		.byte	0x74
 5722 181e 2A       		.sleb128 42
 5723 181f 22       		.uleb128 0x22
 5724 1820 01       		.uleb128 0x1
 5725 1821 50       		.byte	0x50
 5726 1822 02       		.uleb128 0x2
 5727 1823 75       		.byte	0x75
 5728 1824 10       		.sleb128 16
 5729 1825 00       		.byte	0
 5730 1826 21       		.uleb128 0x21
 5731 1827 8C000000 		.4byte	.LVL207
 5732 182b 201D0000 		.4byte	0x1d20
 5733 182f 41180000 		.4byte	0x1841
 5734 1833 22       		.uleb128 0x22
 5735 1834 01       		.uleb128 0x1
 5736 1835 51       		.byte	0x51
 5737 1836 03       		.uleb128 0x3
 5738 1837 74       		.byte	0x74
 5739 1838 C700     		.sleb128 71
 5740 183a 22       		.uleb128 0x22
 5741 183b 01       		.uleb128 0x1
 5742 183c 50       		.byte	0x50
 5743 183d 02       		.uleb128 0x2
 5744 183e 75       		.byte	0x75
 5745 183f 1E       		.sleb128 30
 5746 1840 00       		.byte	0
 5747 1841 23       		.uleb128 0x23
 5748 1842 D2000000 		.4byte	.LVL208
 5749 1846 201D0000 		.4byte	0x1d20
 5750 184a 22       		.uleb128 0x22
 5751 184b 01       		.uleb128 0x1
 5752 184c 52       		.byte	0x52
 5753 184d 01       		.uleb128 0x1
 5754 184e 40       		.byte	0x40
 5755 184f 22       		.uleb128 0x22
 5756 1850 01       		.uleb128 0x1
 5757 1851 51       		.byte	0x51
 5758 1852 02       		.uleb128 0x2
 5759 1853 74       		.byte	0x74
 5760 1854 04       		.sleb128 4
 5761 1855 22       		.uleb128 0x22
ARM GAS  C:\Users\ramanatg\AppData\Local\Temp\cc9tuycg.s 			page 134


 5762 1856 01       		.uleb128 0x1
 5763 1857 50       		.byte	0x50
 5764 1858 02       		.uleb128 0x2
 5765 1859 75       		.byte	0x75
 5766 185a 09       		.sleb128 9
 5767 185b 00       		.byte	0
 5768 185c 00       		.byte	0
 5769 185d 36       		.uleb128 0x36
 5770 185e 291B0000 		.4byte	.LASF265
 5771 1862 01       		.byte	0x1
 5772 1863 4E01     		.2byte	0x14e
 5773 1865 9F000000 		.4byte	0x9f
 5774 1869 00000000 		.4byte	.LFB41
 5775 186d 4C010000 		.4byte	.LFE41-.LFB41
 5776 1871 01       		.uleb128 0x1
 5777 1872 9C       		.byte	0x9c
 5778 1873 981A0000 		.4byte	0x1a98
 5779 1877 34       		.uleb128 0x34
 5780 1878 690D0000 		.4byte	0xd69
 5781 187c 3E000000 		.4byte	.LBB143
 5782 1880 C8000000 		.4byte	.Ldebug_ranges0+0xc8
 5783 1884 01       		.byte	0x1
 5784 1885 8801     		.2byte	0x188
 5785 1887 30190000 		.4byte	0x1930
 5786 188b 2C       		.uleb128 0x2c
 5787 188c C8000000 		.4byte	.Ldebug_ranges0+0xc8
 5788 1890 27       		.uleb128 0x27
 5789 1891 760D0000 		.4byte	0xd76
 5790 1895 5F040000 		.4byte	.LLST33
 5791 1899 27       		.uleb128 0x27
 5792 189a 820D0000 		.4byte	0xd82
 5793 189e 72040000 		.4byte	.LLST34
 5794 18a2 27       		.uleb128 0x27
 5795 18a3 8E0D0000 		.4byte	0xd8e
 5796 18a7 90040000 		.4byte	.LLST35
 5797 18ab 21       		.uleb128 0x21
 5798 18ac 44000000 		.4byte	.LVL215
 5799 18b0 331E0000 		.4byte	0x1e33
 5800 18b4 BE180000 		.4byte	0x18be
 5801 18b8 22       		.uleb128 0x22
 5802 18b9 01       		.uleb128 0x1
 5803 18ba 50       		.byte	0x50
 5804 18bb 01       		.uleb128 0x1
 5805 18bc 33       		.byte	0x33
 5806 18bd 00       		.byte	0
 5807 18be 20       		.uleb128 0x20
 5808 18bf 4A000000 		.4byte	.LVL217
 5809 18c3 491E0000 		.4byte	0x1e49
 5810 18c7 20       		.uleb128 0x20
 5811 18c8 50000000 		.4byte	.LVL219
 5812 18cc 541E0000 		.4byte	0x1e54
 5813 18d0 21       		.uleb128 0x21
 5814 18d1 5E000000 		.4byte	.LVL221
 5815 18d5 601E0000 		.4byte	0x1e60
 5816 18d9 E3180000 		.4byte	0x18e3
 5817 18dd 22       		.uleb128 0x22
 5818 18de 01       		.uleb128 0x1
ARM GAS  C:\Users\ramanatg\AppData\Local\Temp\cc9tuycg.s 			page 135


 5819 18df 50       		.byte	0x50
 5820 18e0 01       		.uleb128 0x1
 5821 18e1 32       		.byte	0x32
 5822 18e2 00       		.byte	0
 5823 18e3 20       		.uleb128 0x20
 5824 18e4 62000000 		.4byte	.LVL222
 5825 18e8 711E0000 		.4byte	0x1e71
 5826 18ec 20       		.uleb128 0x20
 5827 18ed 66000000 		.4byte	.LVL223
 5828 18f1 781E0000 		.4byte	0x1e78
 5829 18f5 20       		.uleb128 0x20
 5830 18f6 6A000000 		.4byte	.LVL224
 5831 18fa 7F1E0000 		.4byte	0x1e7f
 5832 18fe 21       		.uleb128 0x21
 5833 18ff 70000000 		.4byte	.LVL225
 5834 1903 601E0000 		.4byte	0x1e60
 5835 1907 11190000 		.4byte	0x1911
 5836 190b 22       		.uleb128 0x22
 5837 190c 01       		.uleb128 0x1
 5838 190d 50       		.byte	0x50
 5839 190e 01       		.uleb128 0x1
 5840 190f 30       		.byte	0x30
 5841 1910 00       		.byte	0
 5842 1911 21       		.uleb128 0x21
 5843 1912 76000000 		.4byte	.LVL226
 5844 1916 861E0000 		.4byte	0x1e86
 5845 191a 25190000 		.4byte	0x1925
 5846 191e 22       		.uleb128 0x22
 5847 191f 01       		.uleb128 0x1
 5848 1920 50       		.byte	0x50
 5849 1921 02       		.uleb128 0x2
 5850 1922 75       		.byte	0x75
 5851 1923 00       		.sleb128 0
 5852 1924 00       		.byte	0
 5853 1925 20       		.uleb128 0x20
 5854 1926 E6000000 		.4byte	.LVL241
 5855 192a D91D0000 		.4byte	0x1dd9
 5856 192e 00       		.byte	0
 5857 192f 00       		.byte	0
 5858 1930 26       		.uleb128 0x26
 5859 1931 E8000000 		.4byte	.LBB147
 5860 1935 64000000 		.4byte	.LBE147-.LBB147
 5861 1939 98190000 		.4byte	0x1998
 5862 193d 37       		.uleb128 0x37
 5863 193e CD1A0000 		.4byte	.LASF266
 5864 1942 01       		.byte	0x1
 5865 1943 5B01     		.2byte	0x15b
 5866 1945 981A0000 		.4byte	0x1a98
 5867 1949 03       		.uleb128 0x3
 5868 194a 91       		.byte	0x91
 5869 194b B07F     		.sleb128 -80
 5870 194d 20       		.uleb128 0x20
 5871 194e EE000000 		.4byte	.LVL243
 5872 1952 3E1F0000 		.4byte	0x1f3e
 5873 1956 21       		.uleb128 0x21
 5874 1957 F4000000 		.4byte	.LVL244
 5875 195b 491F0000 		.4byte	0x1f49
ARM GAS  C:\Users\ramanatg\AppData\Local\Temp\cc9tuycg.s 			page 136


 5876 195f 6A190000 		.4byte	0x196a
 5877 1963 22       		.uleb128 0x22
 5878 1964 01       		.uleb128 0x1
 5879 1965 50       		.byte	0x50
 5880 1966 02       		.uleb128 0x2
 5881 1967 7D       		.byte	0x7d
 5882 1968 00       		.sleb128 0
 5883 1969 00       		.byte	0
 5884 196a 20       		.uleb128 0x20
 5885 196b FA000000 		.4byte	.LVL245
 5886 196f 641F0000 		.4byte	0x1f64
 5887 1973 20       		.uleb128 0x20
 5888 1974 02010000 		.4byte	.LVL246
 5889 1978 6B1F0000 		.4byte	0x1f6b
 5890 197c 20       		.uleb128 0x20
 5891 197d 06010000 		.4byte	.LVL247
 5892 1981 731F0000 		.4byte	0x1f73
 5893 1985 20       		.uleb128 0x20
 5894 1986 26010000 		.4byte	.LVL248
 5895 198a 7E1F0000 		.4byte	0x1f7e
 5896 198e 20       		.uleb128 0x20
 5897 198f 2A010000 		.4byte	.LVL249
 5898 1993 861F0000 		.4byte	0x1f86
 5899 1997 00       		.byte	0
 5900 1998 21       		.uleb128 0x21
 5901 1999 0C000000 		.4byte	.LVL209
 5902 199d 8D1F0000 		.4byte	0x1f8d
 5903 19a1 AB190000 		.4byte	0x19ab
 5904 19a5 22       		.uleb128 0x22
 5905 19a6 01       		.uleb128 0x1
 5906 19a7 50       		.byte	0x50
 5907 19a8 01       		.uleb128 0x1
 5908 19a9 33       		.byte	0x33
 5909 19aa 00       		.byte	0
 5910 19ab 20       		.uleb128 0x20
 5911 19ac 10000000 		.4byte	.LVL210
 5912 19b0 DD0B0000 		.4byte	0xbdd
 5913 19b4 20       		.uleb128 0x20
 5914 19b5 14000000 		.4byte	.LVL211
 5915 19b9 9E1F0000 		.4byte	0x1f9e
 5916 19bd 20       		.uleb128 0x20
 5917 19be 1E000000 		.4byte	.LVL212
 5918 19c2 D2170000 		.4byte	0x17d2
 5919 19c6 21       		.uleb128 0x21
 5920 19c7 38000000 		.4byte	.LVL213
 5921 19cb A91F0000 		.4byte	0x1fa9
 5922 19cf DD190000 		.4byte	0x19dd
 5923 19d3 22       		.uleb128 0x22
 5924 19d4 01       		.uleb128 0x1
 5925 19d5 50       		.byte	0x50
 5926 19d6 05       		.uleb128 0x5
 5927 19d7 03       		.byte	0x3
 5928 19d8 00000000 		.4byte	BLE_AppEventHandler
 5929 19dc 00       		.byte	0
 5930 19dd 20       		.uleb128 0x20
 5931 19de 3E000000 		.4byte	.LVL214
 5932 19e2 6B1F0000 		.4byte	0x1f6b
ARM GAS  C:\Users\ramanatg\AppData\Local\Temp\cc9tuycg.s 			page 137


 5933 19e6 20       		.uleb128 0x20
 5934 19e7 8E000000 		.4byte	.LVL227
 5935 19eb BF1F0000 		.4byte	0x1fbf
 5936 19ef 20       		.uleb128 0x20
 5937 19f0 92000000 		.4byte	.LVL228
 5938 19f4 670E0000 		.4byte	0xe67
 5939 19f8 20       		.uleb128 0x20
 5940 19f9 96000000 		.4byte	.LVL229
 5941 19fd C61F0000 		.4byte	0x1fc6
 5942 1a01 20       		.uleb128 0x20
 5943 1a02 9C000000 		.4byte	.LVL230
 5944 1a06 670E0000 		.4byte	0xe67
 5945 1a0a 20       		.uleb128 0x20
 5946 1a0b A2000000 		.4byte	.LVL231
 5947 1a0f 17150000 		.4byte	0x1517
 5948 1a13 20       		.uleb128 0x20
 5949 1a14 AC000000 		.4byte	.LVL232
 5950 1a18 591D0000 		.4byte	0x1d59
 5951 1a1c 21       		.uleb128 0x21
 5952 1a1d B2000000 		.4byte	.LVL233
 5953 1a21 221E0000 		.4byte	0x1e22
 5954 1a25 2F1A0000 		.4byte	0x1a2f
 5955 1a29 22       		.uleb128 0x22
 5956 1a2a 01       		.uleb128 0x1
 5957 1a2b 50       		.byte	0x50
 5958 1a2c 01       		.uleb128 0x1
 5959 1a2d 31       		.byte	0x31
 5960 1a2e 00       		.byte	0
 5961 1a2f 21       		.uleb128 0x21
 5962 1a30 BA000000 		.4byte	.LVL234
 5963 1a34 601D0000 		.4byte	0x1d60
 5964 1a38 471A0000 		.4byte	0x1a47
 5965 1a3c 22       		.uleb128 0x22
 5966 1a3d 01       		.uleb128 0x1
 5967 1a3e 51       		.byte	0x51
 5968 1a3f 01       		.uleb128 0x1
 5969 1a40 31       		.byte	0x31
 5970 1a41 22       		.uleb128 0x22
 5971 1a42 01       		.uleb128 0x1
 5972 1a43 50       		.byte	0x50
 5973 1a44 01       		.uleb128 0x1
 5974 1a45 31       		.byte	0x31
 5975 1a46 00       		.byte	0
 5976 1a47 21       		.uleb128 0x21
 5977 1a48 C2000000 		.4byte	.LVL235
 5978 1a4c 761D0000 		.4byte	0x1d76
 5979 1a50 5F1A0000 		.4byte	0x1a5f
 5980 1a54 22       		.uleb128 0x22
 5981 1a55 01       		.uleb128 0x1
 5982 1a56 51       		.byte	0x51
 5983 1a57 01       		.uleb128 0x1
 5984 1a58 31       		.byte	0x31
 5985 1a59 22       		.uleb128 0x22
 5986 1a5a 01       		.uleb128 0x1
 5987 1a5b 50       		.byte	0x50
 5988 1a5c 01       		.uleb128 0x1
 5989 1a5d 31       		.byte	0x31
ARM GAS  C:\Users\ramanatg\AppData\Local\Temp\cc9tuycg.s 			page 138


 5990 1a5e 00       		.byte	0
 5991 1a5f 21       		.uleb128 0x21
 5992 1a60 CC000000 		.4byte	.LVL236
 5993 1a64 8C1D0000 		.4byte	0x1d8c
 5994 1a68 791A0000 		.4byte	0x1a79
 5995 1a6c 22       		.uleb128 0x22
 5996 1a6d 01       		.uleb128 0x1
 5997 1a6e 51       		.byte	0x51
 5998 1a6f 03       		.uleb128 0x3
 5999 1a70 0A       		.byte	0xa
 6000 1a71 4601     		.2byte	0x146
 6001 1a73 22       		.uleb128 0x22
 6002 1a74 01       		.uleb128 0x1
 6003 1a75 50       		.byte	0x50
 6004 1a76 01       		.uleb128 0x1
 6005 1a77 31       		.byte	0x31
 6006 1a78 00       		.byte	0
 6007 1a79 21       		.uleb128 0x21
 6008 1a7a D4000000 		.4byte	.LVL237
 6009 1a7e A21D0000 		.4byte	0x1da2
 6010 1a82 8E1A0000 		.4byte	0x1a8e
 6011 1a86 22       		.uleb128 0x22
 6012 1a87 01       		.uleb128 0x1
 6013 1a88 50       		.byte	0x50
 6014 1a89 03       		.uleb128 0x3
 6015 1a8a 0A       		.byte	0xa
 6016 1a8b 0001     		.2byte	0x100
 6017 1a8d 00       		.byte	0
 6018 1a8e 20       		.uleb128 0x20
 6019 1a8f D8000000 		.4byte	.LVL238
 6020 1a93 B31D0000 		.4byte	0x1db3
 6021 1a97 00       		.byte	0
 6022 1a98 0F       		.uleb128 0xf
 6023 1a99 B8000000 		.4byte	0xb8
 6024 1a9d A81A0000 		.4byte	0x1aa8
 6025 1aa1 10       		.uleb128 0x10
 6026 1aa2 47010000 		.4byte	0x147
 6027 1aa6 35       		.byte	0x35
 6028 1aa7 00       		.byte	0
 6029 1aa8 1F       		.uleb128 0x1f
 6030 1aa9 B90A0000 		.4byte	0xab9
 6031 1aad 00000000 		.4byte	.LFB45
 6032 1ab1 58000000 		.4byte	.LFE45-.LFB45
 6033 1ab5 01       		.uleb128 0x1
 6034 1ab6 9C       		.byte	0x9c
 6035 1ab7 E61A0000 		.4byte	0x1ae6
 6036 1abb 28       		.uleb128 0x28
 6037 1abc C60A0000 		.4byte	0xac6
 6038 1ac0 AF040000 		.4byte	.LLST36
 6039 1ac4 2D       		.uleb128 0x2d
 6040 1ac5 D20A0000 		.4byte	0xad2
 6041 1ac9 02       		.uleb128 0x2
 6042 1aca 91       		.byte	0x91
 6043 1acb 74       		.sleb128 -12
 6044 1acc 27       		.uleb128 0x27
 6045 1acd DE0A0000 		.4byte	0xade
 6046 1ad1 DB040000 		.4byte	.LLST37
ARM GAS  C:\Users\ramanatg\AppData\Local\Temp\cc9tuycg.s 			page 139


 6047 1ad5 23       		.uleb128 0x23
 6048 1ad6 3C000000 		.4byte	.LVL254
 6049 1ada 3D1D0000 		.4byte	0x1d3d
 6050 1ade 22       		.uleb128 0x22
 6051 1adf 01       		.uleb128 0x1
 6052 1ae0 50       		.byte	0x50
 6053 1ae1 02       		.uleb128 0x2
 6054 1ae2 91       		.byte	0x91
 6055 1ae3 74       		.sleb128 -12
 6056 1ae4 00       		.byte	0
 6057 1ae5 00       		.byte	0
 6058 1ae6 24       		.uleb128 0x24
 6059 1ae7 E7090000 		.4byte	0x9e7
 6060 1aeb 00000000 		.4byte	.LFB46
 6061 1aef 20000000 		.4byte	.LFE46-.LFB46
 6062 1af3 01       		.uleb128 0x1
 6063 1af4 9C       		.byte	0x9c
 6064 1af5 1B1B0000 		.4byte	0x1b1b
 6065 1af9 28       		.uleb128 0x28
 6066 1afa F8090000 		.4byte	0x9f8
 6067 1afe FA040000 		.4byte	.LLST38
 6068 1b02 27       		.uleb128 0x27
 6069 1b03 040A0000 		.4byte	0xa04
 6070 1b07 1B050000 		.4byte	.LLST39
 6071 1b0b 23       		.uleb128 0x23
 6072 1b0c 1A000000 		.4byte	.LVL261
 6073 1b10 971E0000 		.4byte	0x1e97
 6074 1b14 22       		.uleb128 0x22
 6075 1b15 01       		.uleb128 0x1
 6076 1b16 50       		.byte	0x50
 6077 1b17 01       		.uleb128 0x1
 6078 1b18 32       		.byte	0x32
 6079 1b19 00       		.byte	0
 6080 1b1a 00       		.byte	0
 6081 1b1b 1F       		.uleb128 0x1f
 6082 1b1c B3090000 		.4byte	0x9b3
 6083 1b20 00000000 		.4byte	.LFB48
 6084 1b24 4C000000 		.4byte	.LFE48-.LFB48
 6085 1b28 01       		.uleb128 0x1
 6086 1b29 9C       		.byte	0x9c
 6087 1b2a 8F1B0000 		.4byte	0x1b8f
 6088 1b2e 28       		.uleb128 0x28
 6089 1b2f C0090000 		.4byte	0x9c0
 6090 1b33 3A050000 		.4byte	.LLST40
 6091 1b37 21       		.uleb128 0x21
 6092 1b38 1C000000 		.4byte	.LVL266
 6093 1b3c 201D0000 		.4byte	0x1d20
 6094 1b40 591B0000 		.4byte	0x1b59
 6095 1b44 22       		.uleb128 0x22
 6096 1b45 01       		.uleb128 0x1
 6097 1b46 52       		.byte	0x52
 6098 1b47 01       		.uleb128 0x1
 6099 1b48 48       		.byte	0x48
 6100 1b49 22       		.uleb128 0x22
 6101 1b4a 01       		.uleb128 0x1
 6102 1b4b 51       		.byte	0x51
 6103 1b4c 05       		.uleb128 0x5
ARM GAS  C:\Users\ramanatg\AppData\Local\Temp\cc9tuycg.s 			page 140


 6104 1b4d 03       		.byte	0x3
 6105 1b4e 00000000 		.4byte	.LANCHOR2
 6106 1b52 22       		.uleb128 0x22
 6107 1b53 01       		.uleb128 0x1
 6108 1b54 50       		.byte	0x50
 6109 1b55 02       		.uleb128 0x2
 6110 1b56 74       		.byte	0x74
 6111 1b57 07       		.sleb128 7
 6112 1b58 00       		.byte	0
 6113 1b59 21       		.uleb128 0x21
 6114 1b5a 26000000 		.4byte	.LVL268
 6115 1b5e 5B0A0000 		.4byte	0xa5b
 6116 1b62 6F1B0000 		.4byte	0x1b6f
 6117 1b66 33       		.uleb128 0x33
 6118 1b67 C0090000 		.4byte	0x9c0
 6119 1b6b 02       		.uleb128 0x2
 6120 1b6c 08       		.byte	0x8
 6121 1b6d 20       		.byte	0x20
 6122 1b6e 00       		.byte	0
 6123 1b6f 23       		.uleb128 0x23
 6124 1b70 3A000000 		.4byte	.LVL271
 6125 1b74 201D0000 		.4byte	0x1d20
 6126 1b78 22       		.uleb128 0x22
 6127 1b79 01       		.uleb128 0x1
 6128 1b7a 52       		.byte	0x52
 6129 1b7b 02       		.uleb128 0x2
 6130 1b7c 74       		.byte	0x74
 6131 1b7d 79       		.sleb128 -7
 6132 1b7e 22       		.uleb128 0x22
 6133 1b7f 01       		.uleb128 0x1
 6134 1b80 51       		.byte	0x51
 6135 1b81 05       		.uleb128 0x5
 6136 1b82 03       		.byte	0x3
 6137 1b83 18000000 		.4byte	.LANCHOR2+24
 6138 1b87 22       		.uleb128 0x22
 6139 1b88 01       		.uleb128 0x1
 6140 1b89 50       		.byte	0x50
 6141 1b8a 02       		.uleb128 0x2
 6142 1b8b 75       		.byte	0x75
 6143 1b8c 00       		.sleb128 0
 6144 1b8d 00       		.byte	0
 6145 1b8e 00       		.byte	0
 6146 1b8f 38       		.uleb128 0x38
 6147 1b90 4E060000 		.4byte	.LASF267
 6148 1b94 01       		.byte	0x1
 6149 1b95 35       		.byte	0x35
 6150 1b96 A01B0000 		.4byte	0x1ba0
 6151 1b9a 05       		.uleb128 0x5
 6152 1b9b 03       		.byte	0x3
 6153 1b9c 18000000 		.4byte	pCFG
 6154 1ba0 06       		.uleb128 0x6
 6155 1ba1 04       		.byte	0x4
 6156 1ba2 7D090000 		.4byte	0x97d
 6157 1ba6 38       		.uleb128 0x38
 6158 1ba7 2E060000 		.4byte	.LASF268
 6159 1bab 01       		.byte	0x1
 6160 1bac 36       		.byte	0x36
ARM GAS  C:\Users\ramanatg\AppData\Local\Temp\cc9tuycg.s 			page 141


 6161 1bad CE000000 		.4byte	0xce
 6162 1bb1 05       		.uleb128 0x5
 6163 1bb2 03       		.byte	0x3
 6164 1bb3 14000000 		.4byte	CFG_interval
 6165 1bb7 38       		.uleb128 0x38
 6166 1bb8 9D1B0000 		.4byte	.LASF269
 6167 1bbc 01       		.byte	0x1
 6168 1bbd 37       		.byte	0x37
 6169 1bbe AD000000 		.4byte	0xad
 6170 1bc2 05       		.uleb128 0x5
 6171 1bc3 03       		.byte	0x3
 6172 1bc4 10000000 		.4byte	CFG_txpwr
 6173 1bc8 0F       		.uleb128 0xf
 6174 1bc9 B8000000 		.4byte	0xb8
 6175 1bcd D81B0000 		.4byte	0x1bd8
 6176 1bd1 10       		.uleb128 0x10
 6177 1bd2 47010000 		.4byte	0x147
 6178 1bd6 17       		.byte	0x17
 6179 1bd7 00       		.byte	0
 6180 1bd8 38       		.uleb128 0x38
 6181 1bd9 B50C0000 		.4byte	.LASF270
 6182 1bdd 01       		.byte	0x1
 6183 1bde 42       		.byte	0x42
 6184 1bdf C81B0000 		.4byte	0x1bc8
 6185 1be3 05       		.uleb128 0x5
 6186 1be4 03       		.byte	0x3
 6187 1be5 00000000 		.4byte	UID_FrameBuffer
 6188 1be9 38       		.uleb128 0x38
 6189 1bea 41010000 		.4byte	.LASF271
 6190 1bee 01       		.byte	0x1
 6191 1bef 48       		.byte	0x48
 6192 1bf0 C81B0000 		.4byte	0x1bc8
 6193 1bf4 05       		.uleb128 0x5
 6194 1bf5 03       		.byte	0x3
 6195 1bf6 18000000 		.4byte	URL_FrameBuffer
 6196 1bfa 38       		.uleb128 0x38
 6197 1bfb 1B110000 		.4byte	.LASF272
 6198 1bff 01       		.byte	0x1
 6199 1c00 4F       		.byte	0x4f
 6200 1c01 0B1C0000 		.4byte	0x1c0b
 6201 1c05 05       		.uleb128 0x5
 6202 1c06 03       		.byte	0x3
 6203 1c07 44000000 		.4byte	DefaultTLMframe
 6204 1c0b 39       		.uleb128 0x39
 6205 1c0c 5D090000 		.4byte	0x95d
 6206 1c10 38       		.uleb128 0x38
 6207 1c11 40020000 		.4byte	.LASF273
 6208 1c15 01       		.byte	0x1
 6209 1c16 5A       		.byte	0x5a
 6210 1c17 E4000000 		.4byte	0xe4
 6211 1c1b 05       		.uleb128 0x5
 6212 1c1c 03       		.byte	0x3
 6213 1c1d 04000000 		.4byte	ES_ADV_CNT
 6214 1c21 38       		.uleb128 0x38
 6215 1c22 8B070000 		.4byte	.LASF274
 6216 1c26 01       		.byte	0x1
 6217 1c27 5B       		.byte	0x5b
ARM GAS  C:\Users\ramanatg\AppData\Local\Temp\cc9tuycg.s 			page 142


 6218 1c28 E4000000 		.4byte	0xe4
 6219 1c2c 05       		.uleb128 0x5
 6220 1c2d 03       		.byte	0x3
 6221 1c2e 0C000000 		.4byte	ES_SEC_CNT
 6222 1c32 38       		.uleb128 0x38
 6223 1c33 DB190000 		.4byte	.LASF275
 6224 1c37 01       		.byte	0x1
 6225 1c38 5C       		.byte	0x5c
 6226 1c39 E4000000 		.4byte	0xe4
 6227 1c3d 05       		.uleb128 0x5
 6228 1c3e 03       		.byte	0x3
 6229 1c3f 08000000 		.4byte	ES_SEC_CNT_ms
 6230 1c43 3A       		.uleb128 0x3a
 6231 1c44 77020000 		.4byte	.LASF276
 6232 1c48 07       		.byte	0x7
 6233 1c49 B402     		.2byte	0x2b4
 6234 1c4b 06060000 		.4byte	0x606
 6235 1c4f 3A       		.uleb128 0x3a
 6236 1c50 C8180000 		.4byte	.LASF277
 6237 1c54 07       		.byte	0x7
 6238 1c55 B502     		.2byte	0x2b5
 6239 1c57 46060000 		.4byte	0x646
 6240 1c5b 3A       		.uleb128 0x3a
 6241 1c5c 43160000 		.4byte	.LASF278
 6242 1c60 07       		.byte	0x7
 6243 1c61 B602     		.2byte	0x2b6
 6244 1c63 76060000 		.4byte	0x676
 6245 1c67 3A       		.uleb128 0x3a
 6246 1c68 C2000000 		.4byte	.LASF279
 6247 1c6c 07       		.byte	0x7
 6248 1c6d B702     		.2byte	0x2b7
 6249 1c6f DF060000 		.4byte	0x6df
 6250 1c73 3B       		.uleb128 0x3b
 6251 1c74 DC180000 		.4byte	.LASF280
 6252 1c78 0A       		.byte	0xa
 6253 1c79 87       		.byte	0x87
 6254 1c7a B8000000 		.4byte	0xb8
 6255 1c7e 3B       		.uleb128 0x3b
 6256 1c7f C0060000 		.4byte	.LASF281
 6257 1c83 09       		.byte	0x9
 6258 1c84 F0       		.byte	0xf0
 6259 1c85 891C0000 		.4byte	0x1c89
 6260 1c89 39       		.uleb128 0x39
 6261 1c8a 7D090000 		.4byte	0x97d
 6262 1c8e 3C       		.uleb128 0x3c
 6263 1c8f C40A0000 		.4byte	.LASF282
 6264 1c93 01       		.byte	0x1
 6265 1c94 34       		.byte	0x34
 6266 1c95 B8000000 		.4byte	0xb8
 6267 1c99 05       		.uleb128 0x5
 6268 1c9a 03       		.byte	0x3
 6269 1c9b 00000000 		.4byte	restartadvertisement
 6270 1c9f 0F       		.uleb128 0xf
 6271 1ca0 B8000000 		.4byte	0xb8
 6272 1ca4 AF1C0000 		.4byte	0x1caf
 6273 1ca8 10       		.uleb128 0x10
 6274 1ca9 47010000 		.4byte	0x147
ARM GAS  C:\Users\ramanatg\AppData\Local\Temp\cc9tuycg.s 			page 143


 6275 1cad 03       		.byte	0x3
 6276 1cae 00       		.byte	0
 6277 1caf 3C       		.uleb128 0x3c
 6278 1cb0 18170000 		.4byte	.LASF283
 6279 1cb4 01       		.byte	0x1
 6280 1cb5 3A       		.byte	0x3a
 6281 1cb6 9F1C0000 		.4byte	0x1c9f
 6282 1cba 05       		.uleb128 0x5
 6283 1cbb 03       		.byte	0x3
 6284 1cbc 00000000 		.4byte	I2C_buffer
 6285 1cc0 3C       		.uleb128 0x3c
 6286 1cc1 931B0000 		.4byte	.LASF284
 6287 1cc5 01       		.byte	0x1
 6288 1cc6 3B       		.byte	0x3b
 6289 1cc7 3C070000 		.4byte	0x73c
 6290 1ccb 05       		.uleb128 0x5
 6291 1ccc 03       		.byte	0x3
 6292 1ccd 00000000 		.4byte	i2c_state
 6293 1cd1 3C       		.uleb128 0x3c
 6294 1cd2 BD040000 		.4byte	.LASF285
 6295 1cd6 01       		.byte	0x1
 6296 1cd7 3C       		.byte	0x3c
 6297 1cd8 AD000000 		.4byte	0xad
 6298 1cdc 05       		.uleb128 0x5
 6299 1cdd 03       		.byte	0x3
 6300 1cde 00000000 		.4byte	Sensor_Flag
 6301 1ce2 3C       		.uleb128 0x3c
 6302 1ce3 56030000 		.4byte	.LASF286
 6303 1ce7 01       		.byte	0x1
 6304 1ce8 3E       		.byte	0x3e
 6305 1ce9 B8000000 		.4byte	0xb8
 6306 1ced 05       		.uleb128 0x5
 6307 1cee 03       		.byte	0x3
 6308 1cef 00000000 		.4byte	wdt_trigger_on_flag
 6309 1cf3 3C       		.uleb128 0x3c
 6310 1cf4 3B130000 		.4byte	.LASF287
 6311 1cf8 01       		.byte	0x1
 6312 1cf9 3F       		.byte	0x3f
 6313 1cfa 7A070000 		.4byte	0x77a
 6314 1cfe 05       		.uleb128 0x5
 6315 1cff 03       		.byte	0x3
 6316 1d00 00000000 		.4byte	beacon_state
 6317 1d04 3D       		.uleb128 0x3d
 6318 1d05 54190000 		.4byte	.LASF309
 6319 1d09 0B       		.byte	0xb
 6320 1d0a 75       		.byte	0x75
 6321 1d0b 07010000 		.4byte	0x107
 6322 1d0f 3E       		.uleb128 0x3e
 6323 1d10 8B080000 		.4byte	.LASF288
 6324 1d14 0B       		.byte	0xb
 6325 1d15 76       		.byte	0x76
 6326 1d16 201D0000 		.4byte	0x1d20
 6327 1d1a 0A       		.uleb128 0xa
 6328 1d1b 07010000 		.4byte	0x107
 6329 1d1f 00       		.byte	0
 6330 1d20 3F       		.uleb128 0x3f
 6331 1d21 221B0000 		.4byte	.LASF289
ARM GAS  C:\Users\ramanatg\AppData\Local\Temp\cc9tuycg.s 			page 144


 6332 1d25 4E010000 		.4byte	0x14e
 6333 1d29 3D1D0000 		.4byte	0x1d3d
 6334 1d2d 0A       		.uleb128 0xa
 6335 1d2e 4E010000 		.4byte	0x14e
 6336 1d32 0A       		.uleb128 0xa
 6337 1d33 85070000 		.4byte	0x785
 6338 1d37 0A       		.uleb128 0xa
 6339 1d38 47010000 		.4byte	0x147
 6340 1d3c 00       		.byte	0
 6341 1d3d 40       		.uleb128 0x40
 6342 1d3e 1B1C0000 		.4byte	.LASF291
 6343 1d42 05       		.byte	0x5
 6344 1d43 8308     		.2byte	0x883
 6345 1d45 20040000 		.4byte	0x420
 6346 1d49 531D0000 		.4byte	0x1d53
 6347 1d4d 0A       		.uleb128 0xa
 6348 1d4e 531D0000 		.4byte	0x1d53
 6349 1d52 00       		.byte	0
 6350 1d53 06       		.uleb128 0x6
 6351 1d54 04       		.byte	0x4
 6352 1d55 40050000 		.4byte	0x540
 6353 1d59 41       		.uleb128 0x41
 6354 1d5a 33100000 		.4byte	.LASF293
 6355 1d5e 0B       		.byte	0xb
 6356 1d5f 66       		.byte	0x66
 6357 1d60 3E       		.uleb128 0x3e
 6358 1d61 C90E0000 		.4byte	.LASF294
 6359 1d65 0B       		.byte	0xb
 6360 1d66 67       		.byte	0x67
 6361 1d67 761D0000 		.4byte	0x1d76
 6362 1d6b 0A       		.uleb128 0xa
 6363 1d6c 07010000 		.4byte	0x107
 6364 1d70 0A       		.uleb128 0xa
 6365 1d71 07010000 		.4byte	0x107
 6366 1d75 00       		.byte	0
 6367 1d76 3E       		.uleb128 0x3e
 6368 1d77 65100000 		.4byte	.LASF295
 6369 1d7b 0B       		.byte	0xb
 6370 1d7c 6A       		.byte	0x6a
 6371 1d7d 8C1D0000 		.4byte	0x1d8c
 6372 1d81 0A       		.uleb128 0xa
 6373 1d82 07010000 		.4byte	0x107
 6374 1d86 0A       		.uleb128 0xa
 6375 1d87 07010000 		.4byte	0x107
 6376 1d8b 00       		.byte	0
 6377 1d8c 3E       		.uleb128 0x3e
 6378 1d8d 19140000 		.4byte	.LASF296
 6379 1d91 0B       		.byte	0xb
 6380 1d92 70       		.byte	0x70
 6381 1d93 A21D0000 		.4byte	0x1da2
 6382 1d97 0A       		.uleb128 0xa
 6383 1d98 07010000 		.4byte	0x107
 6384 1d9c 0A       		.uleb128 0xa
 6385 1d9d 07010000 		.4byte	0x107
 6386 1da1 00       		.byte	0
 6387 1da2 3E       		.uleb128 0x3e
 6388 1da3 B5120000 		.4byte	.LASF297
ARM GAS  C:\Users\ramanatg\AppData\Local\Temp\cc9tuycg.s 			page 145


 6389 1da7 0B       		.byte	0xb
 6390 1da8 6C       		.byte	0x6c
 6391 1da9 B31D0000 		.4byte	0x1db3
 6392 1dad 0A       		.uleb128 0xa
 6393 1dae 07010000 		.4byte	0x107
 6394 1db2 00       		.byte	0
 6395 1db3 41       		.uleb128 0x41
 6396 1db4 09010000 		.4byte	.LASF298
 6397 1db8 0B       		.byte	0xb
 6398 1db9 65       		.byte	0x65
 6399 1dba 41       		.uleb128 0x41
 6400 1dbb 88050000 		.4byte	.LASF299
 6401 1dbf 0C       		.byte	0xc
 6402 1dc0 85       		.byte	0x85
 6403 1dc1 3E       		.uleb128 0x3e
 6404 1dc2 16010000 		.4byte	.LASF300
 6405 1dc6 0D       		.byte	0xd
 6406 1dc7 18       		.byte	0x18
 6407 1dc8 D21D0000 		.4byte	0x1dd2
 6408 1dcc 0A       		.uleb128 0xa
 6409 1dcd 34010000 		.4byte	0x134
 6410 1dd1 00       		.byte	0
 6411 1dd2 41       		.uleb128 0x41
 6412 1dd3 7A030000 		.4byte	.LASF301
 6413 1dd7 0B       		.byte	0xb
 6414 1dd8 4F       		.byte	0x4f
 6415 1dd9 41       		.uleb128 0x41
 6416 1dda BD070000 		.4byte	.LASF302
 6417 1dde 0E       		.byte	0xe
 6418 1ddf 57       		.byte	0x57
 6419 1de0 42       		.uleb128 0x42
 6420 1de1 F1100000 		.4byte	.LASF303
 6421 1de5 0B       		.byte	0xb
 6422 1de6 51       		.byte	0x51
 6423 1de7 07010000 		.4byte	0x107
 6424 1deb F51D0000 		.4byte	0x1df5
 6425 1def 0A       		.uleb128 0xa
 6426 1df0 07010000 		.4byte	0x107
 6427 1df4 00       		.byte	0
 6428 1df5 3E       		.uleb128 0x3e
 6429 1df6 EE150000 		.4byte	.LASF304
 6430 1dfa 0B       		.byte	0xb
 6431 1dfb 46       		.byte	0x46
 6432 1dfc 061E0000 		.4byte	0x1e06
 6433 1e00 0A       		.uleb128 0xa
 6434 1e01 07010000 		.4byte	0x107
 6435 1e05 00       		.byte	0
 6436 1e06 41       		.uleb128 0x41
 6437 1e07 9B160000 		.4byte	.LASF305
 6438 1e0b 0B       		.byte	0xb
 6439 1e0c 2A       		.byte	0x2a
 6440 1e0d 42       		.uleb128 0x42
 6441 1e0e 5E0F0000 		.4byte	.LASF306
 6442 1e12 0C       		.byte	0xc
 6443 1e13 84       		.byte	0x84
 6444 1e14 28010000 		.4byte	0x128
 6445 1e18 221E0000 		.4byte	0x1e22
ARM GAS  C:\Users\ramanatg\AppData\Local\Temp\cc9tuycg.s 			page 146


 6446 1e1c 0A       		.uleb128 0xa
 6447 1e1d 07010000 		.4byte	0x107
 6448 1e21 00       		.byte	0
 6449 1e22 3E       		.uleb128 0x3e
 6450 1e23 C7050000 		.4byte	.LASF307
 6451 1e27 0B       		.byte	0xb
 6452 1e28 6D       		.byte	0x6d
 6453 1e29 331E0000 		.4byte	0x1e33
 6454 1e2d 0A       		.uleb128 0xa
 6455 1e2e 07010000 		.4byte	0x107
 6456 1e32 00       		.byte	0
 6457 1e33 40       		.uleb128 0x40
 6458 1e34 98050000 		.4byte	.LASF308
 6459 1e38 05       		.byte	0x5
 6460 1e39 AA07     		.2byte	0x7aa
 6461 1e3b 55040000 		.4byte	0x455
 6462 1e3f 491E0000 		.4byte	0x1e49
 6463 1e43 0A       		.uleb128 0xa
 6464 1e44 55040000 		.4byte	0x455
 6465 1e48 00       		.byte	0
 6466 1e49 3D       		.uleb128 0x3d
 6467 1e4a B61A0000 		.4byte	.LASF310
 6468 1e4e 0C       		.byte	0xc
 6469 1e4f E5       		.byte	0xe5
 6470 1e50 EF000000 		.4byte	0xef
 6471 1e54 43       		.uleb128 0x43
 6472 1e55 F9070000 		.4byte	.LASF311
 6473 1e59 05       		.byte	0x5
 6474 1e5a 150A     		.2byte	0xa15
 6475 1e5c 9C040000 		.4byte	0x49c
 6476 1e60 3E       		.uleb128 0x3e
 6477 1e61 8D040000 		.4byte	.LASF312
 6478 1e65 0C       		.byte	0xc
 6479 1e66 59       		.byte	0x59
 6480 1e67 711E0000 		.4byte	0x1e71
 6481 1e6b 0A       		.uleb128 0xa
 6482 1e6c 07010000 		.4byte	0x107
 6483 1e70 00       		.byte	0
 6484 1e71 41       		.uleb128 0x41
 6485 1e72 840B0000 		.4byte	.LASF313
 6486 1e76 0C       		.byte	0xc
 6487 1e77 58       		.byte	0x58
 6488 1e78 41       		.uleb128 0x41
 6489 1e79 8B120000 		.4byte	.LASF314
 6490 1e7d 0E       		.byte	0xe
 6491 1e7e 56       		.byte	0x56
 6492 1e7f 41       		.uleb128 0x41
 6493 1e80 96100000 		.4byte	.LASF315
 6494 1e84 0C       		.byte	0xc
 6495 1e85 57       		.byte	0x57
 6496 1e86 3E       		.uleb128 0x3e
 6497 1e87 3C0B0000 		.4byte	.LASF316
 6498 1e8b 0C       		.byte	0xc
 6499 1e8c E6       		.byte	0xe6
 6500 1e8d 971E0000 		.4byte	0x1e97
 6501 1e91 0A       		.uleb128 0xa
 6502 1e92 EF000000 		.4byte	0xef
ARM GAS  C:\Users\ramanatg\AppData\Local\Temp\cc9tuycg.s 			page 147


 6503 1e96 00       		.byte	0
 6504 1e97 40       		.uleb128 0x40
 6505 1e98 66000000 		.4byte	.LASF317
 6506 1e9c 07       		.byte	0x7
 6507 1e9d 8102     		.2byte	0x281
 6508 1e9f 20040000 		.4byte	0x420
 6509 1ea3 AD1E0000 		.4byte	0x1ead
 6510 1ea7 0A       		.uleb128 0xa
 6511 1ea8 EF000000 		.4byte	0xef
 6512 1eac 00       		.byte	0
 6513 1ead 3E       		.uleb128 0x3e
 6514 1eae 32030000 		.4byte	.LASF318
 6515 1eb2 0C       		.byte	0xc
 6516 1eb3 E7       		.byte	0xe7
 6517 1eb4 BE1E0000 		.4byte	0x1ebe
 6518 1eb8 0A       		.uleb128 0xa
 6519 1eb9 EF000000 		.4byte	0xef
 6520 1ebd 00       		.byte	0
 6521 1ebe 44       		.uleb128 0x44
 6522 1ebf 8F000000 		.4byte	.LASF319
 6523 1ec3 07       		.byte	0x7
 6524 1ec4 8202     		.2byte	0x282
 6525 1ec6 41       		.uleb128 0x41
 6526 1ec7 880A0000 		.4byte	.LASF320
 6527 1ecb 0F       		.byte	0xf
 6528 1ecc 6E       		.byte	0x6e
 6529 1ecd 40       		.uleb128 0x40
 6530 1ece 441C0000 		.4byte	.LASF321
 6531 1ed2 10       		.byte	0x10
 6532 1ed3 1301     		.2byte	0x113
 6533 1ed5 07010000 		.4byte	0x107
 6534 1ed9 F21E0000 		.4byte	0x1ef2
 6535 1edd 0A       		.uleb128 0xa
 6536 1ede 07010000 		.4byte	0x107
 6537 1ee2 0A       		.uleb128 0xa
 6538 1ee3 5C050000 		.4byte	0x55c
 6539 1ee7 0A       		.uleb128 0xa
 6540 1ee8 07010000 		.4byte	0x107
 6541 1eec 0A       		.uleb128 0xa
 6542 1eed 07010000 		.4byte	0x107
 6543 1ef1 00       		.byte	0
 6544 1ef2 43       		.uleb128 0x43
 6545 1ef3 11040000 		.4byte	.LASF322
 6546 1ef7 10       		.byte	0x10
 6547 1ef8 1001     		.2byte	0x110
 6548 1efa 07010000 		.4byte	0x107
 6549 1efe 40       		.uleb128 0x40
 6550 1eff A4130000 		.4byte	.LASF323
 6551 1f03 10       		.byte	0x10
 6552 1f04 1401     		.2byte	0x114
 6553 1f06 07010000 		.4byte	0x107
 6554 1f0a 231F0000 		.4byte	0x1f23
 6555 1f0e 0A       		.uleb128 0xa
 6556 1f0f 07010000 		.4byte	0x107
 6557 1f13 0A       		.uleb128 0xa
 6558 1f14 5C050000 		.4byte	0x55c
 6559 1f18 0A       		.uleb128 0xa
ARM GAS  C:\Users\ramanatg\AppData\Local\Temp\cc9tuycg.s 			page 148


 6560 1f19 07010000 		.4byte	0x107
 6561 1f1d 0A       		.uleb128 0xa
 6562 1f1e 07010000 		.4byte	0x107
 6563 1f22 00       		.byte	0
 6564 1f23 40       		.uleb128 0x40
 6565 1f24 E3130000 		.4byte	.LASF324
 6566 1f28 06       		.byte	0x6
 6567 1f29 D709     		.2byte	0x9d7
 6568 1f2b 20040000 		.4byte	0x420
 6569 1f2f 3E1F0000 		.4byte	0x1f3e
 6570 1f33 0A       		.uleb128 0xa
 6571 1f34 D3060000 		.4byte	0x6d3
 6572 1f38 0A       		.uleb128 0xa
 6573 1f39 D9060000 		.4byte	0x6d9
 6574 1f3d 00       		.byte	0
 6575 1f3e 3D       		.uleb128 0x3d
 6576 1f3f 990E0000 		.4byte	.LASF325
 6577 1f43 09       		.byte	0x9
 6578 1f44 F8       		.byte	0xf8
 6579 1f45 D9000000 		.4byte	0xd9
 6580 1f49 42       		.uleb128 0x42
 6581 1f4a 99190000 		.4byte	.LASF326
 6582 1f4e 11       		.byte	0x11
 6583 1f4f F1       		.byte	0xf1
 6584 1f50 D9000000 		.4byte	0xd9
 6585 1f54 5E1F0000 		.4byte	0x1f5e
 6586 1f58 0A       		.uleb128 0xa
 6587 1f59 5E1F0000 		.4byte	0x1f5e
 6588 1f5d 00       		.byte	0
 6589 1f5e 06       		.uleb128 0x6
 6590 1f5f 04       		.byte	0x4
 6591 1f60 B8000000 		.4byte	0xb8
 6592 1f64 41       		.uleb128 0x41
 6593 1f65 7D100000 		.4byte	.LASF327
 6594 1f69 0A       		.byte	0xa
 6595 1f6a 8D       		.byte	0x8d
 6596 1f6b 44       		.uleb128 0x44
 6597 1f6c 27130000 		.4byte	.LASF328
 6598 1f70 05       		.byte	0x5
 6599 1f71 E107     		.2byte	0x7e1
 6600 1f73 3D       		.uleb128 0x3d
 6601 1f74 AB060000 		.4byte	.LASF329
 6602 1f78 11       		.byte	0x11
 6603 1f79 F2       		.byte	0xf2
 6604 1f7a D9000000 		.4byte	0xd9
 6605 1f7e 44       		.uleb128 0x44
 6606 1f7f 4B0A0000 		.4byte	.LASF330
 6607 1f83 07       		.byte	0x7
 6608 1f84 7202     		.2byte	0x272
 6609 1f86 41       		.uleb128 0x41
 6610 1f87 6D160000 		.4byte	.LASF331
 6611 1f8b 12       		.byte	0x12
 6612 1f8c 6F       		.byte	0x6f
 6613 1f8d 3E       		.uleb128 0x3e
 6614 1f8e 3D050000 		.4byte	.LASF332
 6615 1f92 0C       		.byte	0xc
 6616 1f93 89       		.byte	0x89
ARM GAS  C:\Users\ramanatg\AppData\Local\Temp\cc9tuycg.s 			page 149


 6617 1f94 9E1F0000 		.4byte	0x1f9e
 6618 1f98 0A       		.uleb128 0xa
 6619 1f99 07010000 		.4byte	0x107
 6620 1f9d 00       		.byte	0
 6621 1f9e 3D       		.uleb128 0x3d
 6622 1f9f 84060000 		.4byte	.LASF333
 6623 1fa3 13       		.byte	0x13
 6624 1fa4 32       		.byte	0x32
 6625 1fa5 EF000000 		.4byte	0xef
 6626 1fa9 40       		.uleb128 0x40
 6627 1faa 83000000 		.4byte	.LASF334
 6628 1fae 07       		.byte	0x7
 6629 1faf 7102     		.2byte	0x271
 6630 1fb1 20040000 		.4byte	0x420
 6631 1fb5 BF1F0000 		.4byte	0x1fbf
 6632 1fb9 0A       		.uleb128 0xa
 6633 1fba EB060000 		.4byte	0x6eb
 6634 1fbe 00       		.byte	0
 6635 1fbf 41       		.uleb128 0x41
 6636 1fc0 2A140000 		.4byte	.LASF335
 6637 1fc4 0F       		.byte	0xf
 6638 1fc5 79       		.byte	0x79
 6639 1fc6 41       		.uleb128 0x41
 6640 1fc7 A71B0000 		.4byte	.LASF336
 6641 1fcb 0F       		.byte	0xf
 6642 1fcc 78       		.byte	0x78
 6643 1fcd 00       		.byte	0
 6644              		.section	.debug_abbrev,"",%progbits
 6645              	.Ldebug_abbrev0:
 6646 0000 01       		.uleb128 0x1
 6647 0001 11       		.uleb128 0x11
 6648 0002 01       		.byte	0x1
 6649 0003 25       		.uleb128 0x25
 6650 0004 0E       		.uleb128 0xe
 6651 0005 13       		.uleb128 0x13
 6652 0006 0B       		.uleb128 0xb
 6653 0007 03       		.uleb128 0x3
 6654 0008 0E       		.uleb128 0xe
 6655 0009 1B       		.uleb128 0x1b
 6656 000a 0E       		.uleb128 0xe
 6657 000b 55       		.uleb128 0x55
 6658 000c 17       		.uleb128 0x17
 6659 000d 11       		.uleb128 0x11
 6660 000e 01       		.uleb128 0x1
 6661 000f 10       		.uleb128 0x10
 6662 0010 17       		.uleb128 0x17
 6663 0011 00       		.byte	0
 6664 0012 00       		.byte	0
 6665 0013 02       		.uleb128 0x2
 6666 0014 16       		.uleb128 0x16
 6667 0015 00       		.byte	0
 6668 0016 03       		.uleb128 0x3
 6669 0017 0E       		.uleb128 0xe
 6670 0018 3A       		.uleb128 0x3a
 6671 0019 0B       		.uleb128 0xb
 6672 001a 3B       		.uleb128 0x3b
 6673 001b 0B       		.uleb128 0xb
ARM GAS  C:\Users\ramanatg\AppData\Local\Temp\cc9tuycg.s 			page 150


 6674 001c 49       		.uleb128 0x49
 6675 001d 13       		.uleb128 0x13
 6676 001e 00       		.byte	0
 6677 001f 00       		.byte	0
 6678 0020 03       		.uleb128 0x3
 6679 0021 24       		.uleb128 0x24
 6680 0022 00       		.byte	0
 6681 0023 0B       		.uleb128 0xb
 6682 0024 0B       		.uleb128 0xb
 6683 0025 3E       		.uleb128 0x3e
 6684 0026 0B       		.uleb128 0xb
 6685 0027 03       		.uleb128 0x3
 6686 0028 0E       		.uleb128 0xe
 6687 0029 00       		.byte	0
 6688 002a 00       		.byte	0
 6689 002b 04       		.uleb128 0x4
 6690 002c 24       		.uleb128 0x24
 6691 002d 00       		.byte	0
 6692 002e 0B       		.uleb128 0xb
 6693 002f 0B       		.uleb128 0xb
 6694 0030 3E       		.uleb128 0x3e
 6695 0031 0B       		.uleb128 0xb
 6696 0032 03       		.uleb128 0x3
 6697 0033 08       		.uleb128 0x8
 6698 0034 00       		.byte	0
 6699 0035 00       		.byte	0
 6700 0036 05       		.uleb128 0x5
 6701 0037 16       		.uleb128 0x16
 6702 0038 00       		.byte	0
 6703 0039 03       		.uleb128 0x3
 6704 003a 0E       		.uleb128 0xe
 6705 003b 3A       		.uleb128 0x3a
 6706 003c 0B       		.uleb128 0xb
 6707 003d 3B       		.uleb128 0x3b
 6708 003e 05       		.uleb128 0x5
 6709 003f 49       		.uleb128 0x49
 6710 0040 13       		.uleb128 0x13
 6711 0041 00       		.byte	0
 6712 0042 00       		.byte	0
 6713 0043 06       		.uleb128 0x6
 6714 0044 0F       		.uleb128 0xf
 6715 0045 00       		.byte	0
 6716 0046 0B       		.uleb128 0xb
 6717 0047 0B       		.uleb128 0xb
 6718 0048 49       		.uleb128 0x49
 6719 0049 13       		.uleb128 0x13
 6720 004a 00       		.byte	0
 6721 004b 00       		.byte	0
 6722 004c 07       		.uleb128 0x7
 6723 004d 15       		.uleb128 0x15
 6724 004e 00       		.byte	0
 6725 004f 27       		.uleb128 0x27
 6726 0050 19       		.uleb128 0x19
 6727 0051 00       		.byte	0
 6728 0052 00       		.byte	0
 6729 0053 08       		.uleb128 0x8
 6730 0054 0F       		.uleb128 0xf
ARM GAS  C:\Users\ramanatg\AppData\Local\Temp\cc9tuycg.s 			page 151


 6731 0055 00       		.byte	0
 6732 0056 0B       		.uleb128 0xb
 6733 0057 0B       		.uleb128 0xb
 6734 0058 00       		.byte	0
 6735 0059 00       		.byte	0
 6736 005a 09       		.uleb128 0x9
 6737 005b 15       		.uleb128 0x15
 6738 005c 01       		.byte	0x1
 6739 005d 27       		.uleb128 0x27
 6740 005e 19       		.uleb128 0x19
 6741 005f 01       		.uleb128 0x1
 6742 0060 13       		.uleb128 0x13
 6743 0061 00       		.byte	0
 6744 0062 00       		.byte	0
 6745 0063 0A       		.uleb128 0xa
 6746 0064 05       		.uleb128 0x5
 6747 0065 00       		.byte	0
 6748 0066 49       		.uleb128 0x49
 6749 0067 13       		.uleb128 0x13
 6750 0068 00       		.byte	0
 6751 0069 00       		.byte	0
 6752 006a 0B       		.uleb128 0xb
 6753 006b 04       		.uleb128 0x4
 6754 006c 01       		.byte	0x1
 6755 006d 0B       		.uleb128 0xb
 6756 006e 0B       		.uleb128 0xb
 6757 006f 3A       		.uleb128 0x3a
 6758 0070 0B       		.uleb128 0xb
 6759 0071 3B       		.uleb128 0x3b
 6760 0072 05       		.uleb128 0x5
 6761 0073 01       		.uleb128 0x1
 6762 0074 13       		.uleb128 0x13
 6763 0075 00       		.byte	0
 6764 0076 00       		.byte	0
 6765 0077 0C       		.uleb128 0xc
 6766 0078 28       		.uleb128 0x28
 6767 0079 00       		.byte	0
 6768 007a 03       		.uleb128 0x3
 6769 007b 0E       		.uleb128 0xe
 6770 007c 1C       		.uleb128 0x1c
 6771 007d 0D       		.uleb128 0xd
 6772 007e 00       		.byte	0
 6773 007f 00       		.byte	0
 6774 0080 0D       		.uleb128 0xd
 6775 0081 13       		.uleb128 0x13
 6776 0082 01       		.byte	0x1
 6777 0083 0B       		.uleb128 0xb
 6778 0084 0B       		.uleb128 0xb
 6779 0085 3A       		.uleb128 0x3a
 6780 0086 0B       		.uleb128 0xb
 6781 0087 3B       		.uleb128 0x3b
 6782 0088 05       		.uleb128 0x5
 6783 0089 01       		.uleb128 0x1
 6784 008a 13       		.uleb128 0x13
 6785 008b 00       		.byte	0
 6786 008c 00       		.byte	0
 6787 008d 0E       		.uleb128 0xe
ARM GAS  C:\Users\ramanatg\AppData\Local\Temp\cc9tuycg.s 			page 152


 6788 008e 0D       		.uleb128 0xd
 6789 008f 00       		.byte	0
 6790 0090 03       		.uleb128 0x3
 6791 0091 0E       		.uleb128 0xe
 6792 0092 3A       		.uleb128 0x3a
 6793 0093 0B       		.uleb128 0xb
 6794 0094 3B       		.uleb128 0x3b
 6795 0095 05       		.uleb128 0x5
 6796 0096 49       		.uleb128 0x49
 6797 0097 13       		.uleb128 0x13
 6798 0098 38       		.uleb128 0x38
 6799 0099 0B       		.uleb128 0xb
 6800 009a 00       		.byte	0
 6801 009b 00       		.byte	0
 6802 009c 0F       		.uleb128 0xf
 6803 009d 01       		.uleb128 0x1
 6804 009e 01       		.byte	0x1
 6805 009f 49       		.uleb128 0x49
 6806 00a0 13       		.uleb128 0x13
 6807 00a1 01       		.uleb128 0x1
 6808 00a2 13       		.uleb128 0x13
 6809 00a3 00       		.byte	0
 6810 00a4 00       		.byte	0
 6811 00a5 10       		.uleb128 0x10
 6812 00a6 21       		.uleb128 0x21
 6813 00a7 00       		.byte	0
 6814 00a8 49       		.uleb128 0x49
 6815 00a9 13       		.uleb128 0x13
 6816 00aa 2F       		.uleb128 0x2f
 6817 00ab 0B       		.uleb128 0xb
 6818 00ac 00       		.byte	0
 6819 00ad 00       		.byte	0
 6820 00ae 11       		.uleb128 0x11
 6821 00af 04       		.uleb128 0x4
 6822 00b0 01       		.byte	0x1
 6823 00b1 0B       		.uleb128 0xb
 6824 00b2 0B       		.uleb128 0xb
 6825 00b3 3A       		.uleb128 0x3a
 6826 00b4 0B       		.uleb128 0xb
 6827 00b5 3B       		.uleb128 0x3b
 6828 00b6 0B       		.uleb128 0xb
 6829 00b7 01       		.uleb128 0x1
 6830 00b8 13       		.uleb128 0x13
 6831 00b9 00       		.byte	0
 6832 00ba 00       		.byte	0
 6833 00bb 12       		.uleb128 0x12
 6834 00bc 26       		.uleb128 0x26
 6835 00bd 00       		.byte	0
 6836 00be 00       		.byte	0
 6837 00bf 00       		.byte	0
 6838 00c0 13       		.uleb128 0x13
 6839 00c1 13       		.uleb128 0x13
 6840 00c2 01       		.byte	0x1
 6841 00c3 0B       		.uleb128 0xb
 6842 00c4 0B       		.uleb128 0xb
 6843 00c5 3A       		.uleb128 0x3a
 6844 00c6 0B       		.uleb128 0xb
ARM GAS  C:\Users\ramanatg\AppData\Local\Temp\cc9tuycg.s 			page 153


 6845 00c7 3B       		.uleb128 0x3b
 6846 00c8 0B       		.uleb128 0xb
 6847 00c9 01       		.uleb128 0x1
 6848 00ca 13       		.uleb128 0x13
 6849 00cb 00       		.byte	0
 6850 00cc 00       		.byte	0
 6851 00cd 14       		.uleb128 0x14
 6852 00ce 0D       		.uleb128 0xd
 6853 00cf 00       		.byte	0
 6854 00d0 03       		.uleb128 0x3
 6855 00d1 0E       		.uleb128 0xe
 6856 00d2 3A       		.uleb128 0x3a
 6857 00d3 0B       		.uleb128 0xb
 6858 00d4 3B       		.uleb128 0x3b
 6859 00d5 0B       		.uleb128 0xb
 6860 00d6 49       		.uleb128 0x49
 6861 00d7 13       		.uleb128 0x13
 6862 00d8 0B       		.uleb128 0xb
 6863 00d9 0B       		.uleb128 0xb
 6864 00da 0D       		.uleb128 0xd
 6865 00db 0B       		.uleb128 0xb
 6866 00dc 0C       		.uleb128 0xc
 6867 00dd 0B       		.uleb128 0xb
 6868 00de 38       		.uleb128 0x38
 6869 00df 0B       		.uleb128 0xb
 6870 00e0 00       		.byte	0
 6871 00e1 00       		.byte	0
 6872 00e2 15       		.uleb128 0x15
 6873 00e3 0D       		.uleb128 0xd
 6874 00e4 00       		.byte	0
 6875 00e5 03       		.uleb128 0x3
 6876 00e6 0E       		.uleb128 0xe
 6877 00e7 3A       		.uleb128 0x3a
 6878 00e8 0B       		.uleb128 0xb
 6879 00e9 3B       		.uleb128 0x3b
 6880 00ea 0B       		.uleb128 0xb
 6881 00eb 49       		.uleb128 0x49
 6882 00ec 13       		.uleb128 0x13
 6883 00ed 38       		.uleb128 0x38
 6884 00ee 0B       		.uleb128 0xb
 6885 00ef 00       		.byte	0
 6886 00f0 00       		.byte	0
 6887 00f1 16       		.uleb128 0x16
 6888 00f2 0D       		.uleb128 0xd
 6889 00f3 00       		.byte	0
 6890 00f4 03       		.uleb128 0x3
 6891 00f5 08       		.uleb128 0x8
 6892 00f6 3A       		.uleb128 0x3a
 6893 00f7 0B       		.uleb128 0xb
 6894 00f8 3B       		.uleb128 0x3b
 6895 00f9 0B       		.uleb128 0xb
 6896 00fa 49       		.uleb128 0x49
 6897 00fb 13       		.uleb128 0x13
 6898 00fc 38       		.uleb128 0x38
 6899 00fd 0B       		.uleb128 0xb
 6900 00fe 00       		.byte	0
 6901 00ff 00       		.byte	0
ARM GAS  C:\Users\ramanatg\AppData\Local\Temp\cc9tuycg.s 			page 154


 6902 0100 17       		.uleb128 0x17
 6903 0101 2E       		.uleb128 0x2e
 6904 0102 00       		.byte	0
 6905 0103 3F       		.uleb128 0x3f
 6906 0104 19       		.uleb128 0x19
 6907 0105 03       		.uleb128 0x3
 6908 0106 0E       		.uleb128 0xe
 6909 0107 3A       		.uleb128 0x3a
 6910 0108 0B       		.uleb128 0xb
 6911 0109 3B       		.uleb128 0x3b
 6912 010a 0B       		.uleb128 0xb
 6913 010b 27       		.uleb128 0x27
 6914 010c 19       		.uleb128 0x19
 6915 010d 20       		.uleb128 0x20
 6916 010e 0B       		.uleb128 0xb
 6917 010f 00       		.byte	0
 6918 0110 00       		.byte	0
 6919 0111 18       		.uleb128 0x18
 6920 0112 2E       		.uleb128 0x2e
 6921 0113 01       		.byte	0x1
 6922 0114 3F       		.uleb128 0x3f
 6923 0115 19       		.uleb128 0x19
 6924 0116 03       		.uleb128 0x3
 6925 0117 0E       		.uleb128 0xe
 6926 0118 3A       		.uleb128 0x3a
 6927 0119 0B       		.uleb128 0xb
 6928 011a 3B       		.uleb128 0x3b
 6929 011b 0B       		.uleb128 0xb
 6930 011c 27       		.uleb128 0x27
 6931 011d 19       		.uleb128 0x19
 6932 011e 20       		.uleb128 0x20
 6933 011f 0B       		.uleb128 0xb
 6934 0120 01       		.uleb128 0x1
 6935 0121 13       		.uleb128 0x13
 6936 0122 00       		.byte	0
 6937 0123 00       		.byte	0
 6938 0124 19       		.uleb128 0x19
 6939 0125 05       		.uleb128 0x5
 6940 0126 00       		.byte	0
 6941 0127 03       		.uleb128 0x3
 6942 0128 0E       		.uleb128 0xe
 6943 0129 3A       		.uleb128 0x3a
 6944 012a 0B       		.uleb128 0xb
 6945 012b 3B       		.uleb128 0x3b
 6946 012c 0B       		.uleb128 0xb
 6947 012d 49       		.uleb128 0x49
 6948 012e 13       		.uleb128 0x13
 6949 012f 00       		.byte	0
 6950 0130 00       		.byte	0
 6951 0131 1A       		.uleb128 0x1a
 6952 0132 2E       		.uleb128 0x2e
 6953 0133 01       		.byte	0x1
 6954 0134 3F       		.uleb128 0x3f
 6955 0135 19       		.uleb128 0x19
 6956 0136 03       		.uleb128 0x3
 6957 0137 0E       		.uleb128 0xe
 6958 0138 3A       		.uleb128 0x3a
ARM GAS  C:\Users\ramanatg\AppData\Local\Temp\cc9tuycg.s 			page 155


 6959 0139 0B       		.uleb128 0xb
 6960 013a 3B       		.uleb128 0x3b
 6961 013b 05       		.uleb128 0x5
 6962 013c 27       		.uleb128 0x27
 6963 013d 19       		.uleb128 0x19
 6964 013e 20       		.uleb128 0x20
 6965 013f 0B       		.uleb128 0xb
 6966 0140 01       		.uleb128 0x1
 6967 0141 13       		.uleb128 0x13
 6968 0142 00       		.byte	0
 6969 0143 00       		.byte	0
 6970 0144 1B       		.uleb128 0x1b
 6971 0145 05       		.uleb128 0x5
 6972 0146 00       		.byte	0
 6973 0147 03       		.uleb128 0x3
 6974 0148 0E       		.uleb128 0xe
 6975 0149 3A       		.uleb128 0x3a
 6976 014a 0B       		.uleb128 0xb
 6977 014b 3B       		.uleb128 0x3b
 6978 014c 05       		.uleb128 0x5
 6979 014d 49       		.uleb128 0x49
 6980 014e 13       		.uleb128 0x13
 6981 014f 00       		.byte	0
 6982 0150 00       		.byte	0
 6983 0151 1C       		.uleb128 0x1c
 6984 0152 0B       		.uleb128 0xb
 6985 0153 01       		.byte	0x1
 6986 0154 00       		.byte	0
 6987 0155 00       		.byte	0
 6988 0156 1D       		.uleb128 0x1d
 6989 0157 34       		.uleb128 0x34
 6990 0158 00       		.byte	0
 6991 0159 03       		.uleb128 0x3
 6992 015a 0E       		.uleb128 0xe
 6993 015b 3A       		.uleb128 0x3a
 6994 015c 0B       		.uleb128 0xb
 6995 015d 3B       		.uleb128 0x3b
 6996 015e 05       		.uleb128 0x5
 6997 015f 49       		.uleb128 0x49
 6998 0160 13       		.uleb128 0x13
 6999 0161 00       		.byte	0
 7000 0162 00       		.byte	0
 7001 0163 1E       		.uleb128 0x1e
 7002 0164 2E       		.uleb128 0x2e
 7003 0165 01       		.byte	0x1
 7004 0166 3F       		.uleb128 0x3f
 7005 0167 19       		.uleb128 0x19
 7006 0168 03       		.uleb128 0x3
 7007 0169 0E       		.uleb128 0xe
 7008 016a 3A       		.uleb128 0x3a
 7009 016b 0B       		.uleb128 0xb
 7010 016c 3B       		.uleb128 0x3b
 7011 016d 05       		.uleb128 0x5
 7012 016e 27       		.uleb128 0x27
 7013 016f 19       		.uleb128 0x19
 7014 0170 49       		.uleb128 0x49
 7015 0171 13       		.uleb128 0x13
ARM GAS  C:\Users\ramanatg\AppData\Local\Temp\cc9tuycg.s 			page 156


 7016 0172 20       		.uleb128 0x20
 7017 0173 0B       		.uleb128 0xb
 7018 0174 01       		.uleb128 0x1
 7019 0175 13       		.uleb128 0x13
 7020 0176 00       		.byte	0
 7021 0177 00       		.byte	0
 7022 0178 1F       		.uleb128 0x1f
 7023 0179 2E       		.uleb128 0x2e
 7024 017a 01       		.byte	0x1
 7025 017b 31       		.uleb128 0x31
 7026 017c 13       		.uleb128 0x13
 7027 017d 11       		.uleb128 0x11
 7028 017e 01       		.uleb128 0x1
 7029 017f 12       		.uleb128 0x12
 7030 0180 06       		.uleb128 0x6
 7031 0181 40       		.uleb128 0x40
 7032 0182 18       		.uleb128 0x18
 7033 0183 9742     		.uleb128 0x2117
 7034 0185 19       		.uleb128 0x19
 7035 0186 01       		.uleb128 0x1
 7036 0187 13       		.uleb128 0x13
 7037 0188 00       		.byte	0
 7038 0189 00       		.byte	0
 7039 018a 20       		.uleb128 0x20
 7040 018b 898201   		.uleb128 0x4109
 7041 018e 00       		.byte	0
 7042 018f 11       		.uleb128 0x11
 7043 0190 01       		.uleb128 0x1
 7044 0191 31       		.uleb128 0x31
 7045 0192 13       		.uleb128 0x13
 7046 0193 00       		.byte	0
 7047 0194 00       		.byte	0
 7048 0195 21       		.uleb128 0x21
 7049 0196 898201   		.uleb128 0x4109
 7050 0199 01       		.byte	0x1
 7051 019a 11       		.uleb128 0x11
 7052 019b 01       		.uleb128 0x1
 7053 019c 31       		.uleb128 0x31
 7054 019d 13       		.uleb128 0x13
 7055 019e 01       		.uleb128 0x1
 7056 019f 13       		.uleb128 0x13
 7057 01a0 00       		.byte	0
 7058 01a1 00       		.byte	0
 7059 01a2 22       		.uleb128 0x22
 7060 01a3 8A8201   		.uleb128 0x410a
 7061 01a6 00       		.byte	0
 7062 01a7 02       		.uleb128 0x2
 7063 01a8 18       		.uleb128 0x18
 7064 01a9 9142     		.uleb128 0x2111
 7065 01ab 18       		.uleb128 0x18
 7066 01ac 00       		.byte	0
 7067 01ad 00       		.byte	0
 7068 01ae 23       		.uleb128 0x23
 7069 01af 898201   		.uleb128 0x4109
 7070 01b2 01       		.byte	0x1
 7071 01b3 11       		.uleb128 0x11
 7072 01b4 01       		.uleb128 0x1
ARM GAS  C:\Users\ramanatg\AppData\Local\Temp\cc9tuycg.s 			page 157


 7073 01b5 31       		.uleb128 0x31
 7074 01b6 13       		.uleb128 0x13
 7075 01b7 00       		.byte	0
 7076 01b8 00       		.byte	0
 7077 01b9 24       		.uleb128 0x24
 7078 01ba 2E       		.uleb128 0x2e
 7079 01bb 01       		.byte	0x1
 7080 01bc 31       		.uleb128 0x31
 7081 01bd 13       		.uleb128 0x13
 7082 01be 11       		.uleb128 0x11
 7083 01bf 01       		.uleb128 0x1
 7084 01c0 12       		.uleb128 0x12
 7085 01c1 06       		.uleb128 0x6
 7086 01c2 40       		.uleb128 0x40
 7087 01c3 18       		.uleb128 0x18
 7088 01c4 9642     		.uleb128 0x2116
 7089 01c6 19       		.uleb128 0x19
 7090 01c7 01       		.uleb128 0x1
 7091 01c8 13       		.uleb128 0x13
 7092 01c9 00       		.byte	0
 7093 01ca 00       		.byte	0
 7094 01cb 25       		.uleb128 0x25
 7095 01cc 05       		.uleb128 0x5
 7096 01cd 00       		.byte	0
 7097 01ce 31       		.uleb128 0x31
 7098 01cf 13       		.uleb128 0x13
 7099 01d0 02       		.uleb128 0x2
 7100 01d1 18       		.uleb128 0x18
 7101 01d2 00       		.byte	0
 7102 01d3 00       		.byte	0
 7103 01d4 26       		.uleb128 0x26
 7104 01d5 0B       		.uleb128 0xb
 7105 01d6 01       		.byte	0x1
 7106 01d7 11       		.uleb128 0x11
 7107 01d8 01       		.uleb128 0x1
 7108 01d9 12       		.uleb128 0x12
 7109 01da 06       		.uleb128 0x6
 7110 01db 01       		.uleb128 0x1
 7111 01dc 13       		.uleb128 0x13
 7112 01dd 00       		.byte	0
 7113 01de 00       		.byte	0
 7114 01df 27       		.uleb128 0x27
 7115 01e0 34       		.uleb128 0x34
 7116 01e1 00       		.byte	0
 7117 01e2 31       		.uleb128 0x31
 7118 01e3 13       		.uleb128 0x13
 7119 01e4 02       		.uleb128 0x2
 7120 01e5 17       		.uleb128 0x17
 7121 01e6 00       		.byte	0
 7122 01e7 00       		.byte	0
 7123 01e8 28       		.uleb128 0x28
 7124 01e9 05       		.uleb128 0x5
 7125 01ea 00       		.byte	0
 7126 01eb 31       		.uleb128 0x31
 7127 01ec 13       		.uleb128 0x13
 7128 01ed 02       		.uleb128 0x2
 7129 01ee 17       		.uleb128 0x17
ARM GAS  C:\Users\ramanatg\AppData\Local\Temp\cc9tuycg.s 			page 158


 7130 01ef 00       		.byte	0
 7131 01f0 00       		.byte	0
 7132 01f1 29       		.uleb128 0x29
 7133 01f2 0B       		.uleb128 0xb
 7134 01f3 01       		.byte	0x1
 7135 01f4 11       		.uleb128 0x11
 7136 01f5 01       		.uleb128 0x1
 7137 01f6 12       		.uleb128 0x12
 7138 01f7 06       		.uleb128 0x6
 7139 01f8 00       		.byte	0
 7140 01f9 00       		.byte	0
 7141 01fa 2A       		.uleb128 0x2a
 7142 01fb 05       		.uleb128 0x5
 7143 01fc 00       		.byte	0
 7144 01fd 31       		.uleb128 0x31
 7145 01fe 13       		.uleb128 0x13
 7146 01ff 1C       		.uleb128 0x1c
 7147 0200 0B       		.uleb128 0xb
 7148 0201 00       		.byte	0
 7149 0202 00       		.byte	0
 7150 0203 2B       		.uleb128 0x2b
 7151 0204 1D       		.uleb128 0x1d
 7152 0205 01       		.byte	0x1
 7153 0206 31       		.uleb128 0x31
 7154 0207 13       		.uleb128 0x13
 7155 0208 52       		.uleb128 0x52
 7156 0209 01       		.uleb128 0x1
 7157 020a 55       		.uleb128 0x55
 7158 020b 17       		.uleb128 0x17
 7159 020c 58       		.uleb128 0x58
 7160 020d 0B       		.uleb128 0xb
 7161 020e 59       		.uleb128 0x59
 7162 020f 0B       		.uleb128 0xb
 7163 0210 01       		.uleb128 0x1
 7164 0211 13       		.uleb128 0x13
 7165 0212 00       		.byte	0
 7166 0213 00       		.byte	0
 7167 0214 2C       		.uleb128 0x2c
 7168 0215 0B       		.uleb128 0xb
 7169 0216 01       		.byte	0x1
 7170 0217 55       		.uleb128 0x55
 7171 0218 17       		.uleb128 0x17
 7172 0219 00       		.byte	0
 7173 021a 00       		.byte	0
 7174 021b 2D       		.uleb128 0x2d
 7175 021c 34       		.uleb128 0x34
 7176 021d 00       		.byte	0
 7177 021e 31       		.uleb128 0x31
 7178 021f 13       		.uleb128 0x13
 7179 0220 02       		.uleb128 0x2
 7180 0221 18       		.uleb128 0x18
 7181 0222 00       		.byte	0
 7182 0223 00       		.byte	0
 7183 0224 2E       		.uleb128 0x2e
 7184 0225 2E       		.uleb128 0x2e
 7185 0226 01       		.byte	0x1
 7186 0227 3F       		.uleb128 0x3f
ARM GAS  C:\Users\ramanatg\AppData\Local\Temp\cc9tuycg.s 			page 159


 7187 0228 19       		.uleb128 0x19
 7188 0229 03       		.uleb128 0x3
 7189 022a 0E       		.uleb128 0xe
 7190 022b 3A       		.uleb128 0x3a
 7191 022c 0B       		.uleb128 0xb
 7192 022d 3B       		.uleb128 0x3b
 7193 022e 0B       		.uleb128 0xb
 7194 022f 27       		.uleb128 0x27
 7195 0230 19       		.uleb128 0x19
 7196 0231 11       		.uleb128 0x11
 7197 0232 01       		.uleb128 0x1
 7198 0233 12       		.uleb128 0x12
 7199 0234 06       		.uleb128 0x6
 7200 0235 40       		.uleb128 0x40
 7201 0236 18       		.uleb128 0x18
 7202 0237 9742     		.uleb128 0x2117
 7203 0239 19       		.uleb128 0x19
 7204 023a 01       		.uleb128 0x1
 7205 023b 13       		.uleb128 0x13
 7206 023c 00       		.byte	0
 7207 023d 00       		.byte	0
 7208 023e 2F       		.uleb128 0x2f
 7209 023f 2E       		.uleb128 0x2e
 7210 0240 01       		.byte	0x1
 7211 0241 03       		.uleb128 0x3
 7212 0242 0E       		.uleb128 0xe
 7213 0243 3A       		.uleb128 0x3a
 7214 0244 0B       		.uleb128 0xb
 7215 0245 3B       		.uleb128 0x3b
 7216 0246 05       		.uleb128 0x5
 7217 0247 27       		.uleb128 0x27
 7218 0248 19       		.uleb128 0x19
 7219 0249 20       		.uleb128 0x20
 7220 024a 0B       		.uleb128 0xb
 7221 024b 01       		.uleb128 0x1
 7222 024c 13       		.uleb128 0x13
 7223 024d 00       		.byte	0
 7224 024e 00       		.byte	0
 7225 024f 30       		.uleb128 0x30
 7226 0250 2E       		.uleb128 0x2e
 7227 0251 01       		.byte	0x1
 7228 0252 3F       		.uleb128 0x3f
 7229 0253 19       		.uleb128 0x19
 7230 0254 03       		.uleb128 0x3
 7231 0255 0E       		.uleb128 0xe
 7232 0256 3A       		.uleb128 0x3a
 7233 0257 0B       		.uleb128 0xb
 7234 0258 3B       		.uleb128 0x3b
 7235 0259 05       		.uleb128 0x5
 7236 025a 27       		.uleb128 0x27
 7237 025b 19       		.uleb128 0x19
 7238 025c 11       		.uleb128 0x11
 7239 025d 01       		.uleb128 0x1
 7240 025e 12       		.uleb128 0x12
 7241 025f 06       		.uleb128 0x6
 7242 0260 40       		.uleb128 0x40
 7243 0261 18       		.uleb128 0x18
ARM GAS  C:\Users\ramanatg\AppData\Local\Temp\cc9tuycg.s 			page 160


 7244 0262 9642     		.uleb128 0x2116
 7245 0264 19       		.uleb128 0x19
 7246 0265 01       		.uleb128 0x1
 7247 0266 13       		.uleb128 0x13
 7248 0267 00       		.byte	0
 7249 0268 00       		.byte	0
 7250 0269 31       		.uleb128 0x31
 7251 026a 34       		.uleb128 0x34
 7252 026b 00       		.byte	0
 7253 026c 03       		.uleb128 0x3
 7254 026d 0E       		.uleb128 0xe
 7255 026e 3A       		.uleb128 0x3a
 7256 026f 0B       		.uleb128 0xb
 7257 0270 3B       		.uleb128 0x3b
 7258 0271 05       		.uleb128 0x5
 7259 0272 49       		.uleb128 0x49
 7260 0273 13       		.uleb128 0x13
 7261 0274 02       		.uleb128 0x2
 7262 0275 17       		.uleb128 0x17
 7263 0276 00       		.byte	0
 7264 0277 00       		.byte	0
 7265 0278 32       		.uleb128 0x32
 7266 0279 1D       		.uleb128 0x1d
 7267 027a 01       		.byte	0x1
 7268 027b 31       		.uleb128 0x31
 7269 027c 13       		.uleb128 0x13
 7270 027d 11       		.uleb128 0x11
 7271 027e 01       		.uleb128 0x1
 7272 027f 12       		.uleb128 0x12
 7273 0280 06       		.uleb128 0x6
 7274 0281 58       		.uleb128 0x58
 7275 0282 0B       		.uleb128 0xb
 7276 0283 59       		.uleb128 0x59
 7277 0284 05       		.uleb128 0x5
 7278 0285 01       		.uleb128 0x1
 7279 0286 13       		.uleb128 0x13
 7280 0287 00       		.byte	0
 7281 0288 00       		.byte	0
 7282 0289 33       		.uleb128 0x33
 7283 028a 8A8201   		.uleb128 0x410a
 7284 028d 00       		.byte	0
 7285 028e 31       		.uleb128 0x31
 7286 028f 13       		.uleb128 0x13
 7287 0290 9142     		.uleb128 0x2111
 7288 0292 18       		.uleb128 0x18
 7289 0293 00       		.byte	0
 7290 0294 00       		.byte	0
 7291 0295 34       		.uleb128 0x34
 7292 0296 1D       		.uleb128 0x1d
 7293 0297 01       		.byte	0x1
 7294 0298 31       		.uleb128 0x31
 7295 0299 13       		.uleb128 0x13
 7296 029a 52       		.uleb128 0x52
 7297 029b 01       		.uleb128 0x1
 7298 029c 55       		.uleb128 0x55
 7299 029d 17       		.uleb128 0x17
 7300 029e 58       		.uleb128 0x58
ARM GAS  C:\Users\ramanatg\AppData\Local\Temp\cc9tuycg.s 			page 161


 7301 029f 0B       		.uleb128 0xb
 7302 02a0 59       		.uleb128 0x59
 7303 02a1 05       		.uleb128 0x5
 7304 02a2 01       		.uleb128 0x1
 7305 02a3 13       		.uleb128 0x13
 7306 02a4 00       		.byte	0
 7307 02a5 00       		.byte	0
 7308 02a6 35       		.uleb128 0x35
 7309 02a7 2E       		.uleb128 0x2e
 7310 02a8 01       		.byte	0x1
 7311 02a9 3F       		.uleb128 0x3f
 7312 02aa 19       		.uleb128 0x19
 7313 02ab 03       		.uleb128 0x3
 7314 02ac 0E       		.uleb128 0xe
 7315 02ad 3A       		.uleb128 0x3a
 7316 02ae 0B       		.uleb128 0xb
 7317 02af 3B       		.uleb128 0x3b
 7318 02b0 05       		.uleb128 0x5
 7319 02b1 27       		.uleb128 0x27
 7320 02b2 19       		.uleb128 0x19
 7321 02b3 11       		.uleb128 0x11
 7322 02b4 01       		.uleb128 0x1
 7323 02b5 12       		.uleb128 0x12
 7324 02b6 06       		.uleb128 0x6
 7325 02b7 40       		.uleb128 0x40
 7326 02b8 18       		.uleb128 0x18
 7327 02b9 9742     		.uleb128 0x2117
 7328 02bb 19       		.uleb128 0x19
 7329 02bc 01       		.uleb128 0x1
 7330 02bd 13       		.uleb128 0x13
 7331 02be 00       		.byte	0
 7332 02bf 00       		.byte	0
 7333 02c0 36       		.uleb128 0x36
 7334 02c1 2E       		.uleb128 0x2e
 7335 02c2 01       		.byte	0x1
 7336 02c3 3F       		.uleb128 0x3f
 7337 02c4 19       		.uleb128 0x19
 7338 02c5 03       		.uleb128 0x3
 7339 02c6 0E       		.uleb128 0xe
 7340 02c7 3A       		.uleb128 0x3a
 7341 02c8 0B       		.uleb128 0xb
 7342 02c9 3B       		.uleb128 0x3b
 7343 02ca 05       		.uleb128 0x5
 7344 02cb 49       		.uleb128 0x49
 7345 02cc 13       		.uleb128 0x13
 7346 02cd 11       		.uleb128 0x11
 7347 02ce 01       		.uleb128 0x1
 7348 02cf 12       		.uleb128 0x12
 7349 02d0 06       		.uleb128 0x6
 7350 02d1 40       		.uleb128 0x40
 7351 02d2 18       		.uleb128 0x18
 7352 02d3 9742     		.uleb128 0x2117
 7353 02d5 19       		.uleb128 0x19
 7354 02d6 01       		.uleb128 0x1
 7355 02d7 13       		.uleb128 0x13
 7356 02d8 00       		.byte	0
 7357 02d9 00       		.byte	0
ARM GAS  C:\Users\ramanatg\AppData\Local\Temp\cc9tuycg.s 			page 162


 7358 02da 37       		.uleb128 0x37
 7359 02db 34       		.uleb128 0x34
 7360 02dc 00       		.byte	0
 7361 02dd 03       		.uleb128 0x3
 7362 02de 0E       		.uleb128 0xe
 7363 02df 3A       		.uleb128 0x3a
 7364 02e0 0B       		.uleb128 0xb
 7365 02e1 3B       		.uleb128 0x3b
 7366 02e2 05       		.uleb128 0x5
 7367 02e3 49       		.uleb128 0x49
 7368 02e4 13       		.uleb128 0x13
 7369 02e5 02       		.uleb128 0x2
 7370 02e6 18       		.uleb128 0x18
 7371 02e7 00       		.byte	0
 7372 02e8 00       		.byte	0
 7373 02e9 38       		.uleb128 0x38
 7374 02ea 34       		.uleb128 0x34
 7375 02eb 00       		.byte	0
 7376 02ec 03       		.uleb128 0x3
 7377 02ed 0E       		.uleb128 0xe
 7378 02ee 3A       		.uleb128 0x3a
 7379 02ef 0B       		.uleb128 0xb
 7380 02f0 3B       		.uleb128 0x3b
 7381 02f1 0B       		.uleb128 0xb
 7382 02f2 49       		.uleb128 0x49
 7383 02f3 13       		.uleb128 0x13
 7384 02f4 02       		.uleb128 0x2
 7385 02f5 18       		.uleb128 0x18
 7386 02f6 00       		.byte	0
 7387 02f7 00       		.byte	0
 7388 02f8 39       		.uleb128 0x39
 7389 02f9 26       		.uleb128 0x26
 7390 02fa 00       		.byte	0
 7391 02fb 49       		.uleb128 0x49
 7392 02fc 13       		.uleb128 0x13
 7393 02fd 00       		.byte	0
 7394 02fe 00       		.byte	0
 7395 02ff 3A       		.uleb128 0x3a
 7396 0300 34       		.uleb128 0x34
 7397 0301 00       		.byte	0
 7398 0302 03       		.uleb128 0x3
 7399 0303 0E       		.uleb128 0xe
 7400 0304 3A       		.uleb128 0x3a
 7401 0305 0B       		.uleb128 0xb
 7402 0306 3B       		.uleb128 0x3b
 7403 0307 05       		.uleb128 0x5
 7404 0308 49       		.uleb128 0x49
 7405 0309 13       		.uleb128 0x13
 7406 030a 3F       		.uleb128 0x3f
 7407 030b 19       		.uleb128 0x19
 7408 030c 3C       		.uleb128 0x3c
 7409 030d 19       		.uleb128 0x19
 7410 030e 00       		.byte	0
 7411 030f 00       		.byte	0
 7412 0310 3B       		.uleb128 0x3b
 7413 0311 34       		.uleb128 0x34
 7414 0312 00       		.byte	0
ARM GAS  C:\Users\ramanatg\AppData\Local\Temp\cc9tuycg.s 			page 163


 7415 0313 03       		.uleb128 0x3
 7416 0314 0E       		.uleb128 0xe
 7417 0315 3A       		.uleb128 0x3a
 7418 0316 0B       		.uleb128 0xb
 7419 0317 3B       		.uleb128 0x3b
 7420 0318 0B       		.uleb128 0xb
 7421 0319 49       		.uleb128 0x49
 7422 031a 13       		.uleb128 0x13
 7423 031b 3F       		.uleb128 0x3f
 7424 031c 19       		.uleb128 0x19
 7425 031d 3C       		.uleb128 0x3c
 7426 031e 19       		.uleb128 0x19
 7427 031f 00       		.byte	0
 7428 0320 00       		.byte	0
 7429 0321 3C       		.uleb128 0x3c
 7430 0322 34       		.uleb128 0x34
 7431 0323 00       		.byte	0
 7432 0324 03       		.uleb128 0x3
 7433 0325 0E       		.uleb128 0xe
 7434 0326 3A       		.uleb128 0x3a
 7435 0327 0B       		.uleb128 0xb
 7436 0328 3B       		.uleb128 0x3b
 7437 0329 0B       		.uleb128 0xb
 7438 032a 49       		.uleb128 0x49
 7439 032b 13       		.uleb128 0x13
 7440 032c 3F       		.uleb128 0x3f
 7441 032d 19       		.uleb128 0x19
 7442 032e 02       		.uleb128 0x2
 7443 032f 18       		.uleb128 0x18
 7444 0330 00       		.byte	0
 7445 0331 00       		.byte	0
 7446 0332 3D       		.uleb128 0x3d
 7447 0333 2E       		.uleb128 0x2e
 7448 0334 00       		.byte	0
 7449 0335 3F       		.uleb128 0x3f
 7450 0336 19       		.uleb128 0x19
 7451 0337 03       		.uleb128 0x3
 7452 0338 0E       		.uleb128 0xe
 7453 0339 3A       		.uleb128 0x3a
 7454 033a 0B       		.uleb128 0xb
 7455 033b 3B       		.uleb128 0x3b
 7456 033c 0B       		.uleb128 0xb
 7457 033d 27       		.uleb128 0x27
 7458 033e 19       		.uleb128 0x19
 7459 033f 49       		.uleb128 0x49
 7460 0340 13       		.uleb128 0x13
 7461 0341 3C       		.uleb128 0x3c
 7462 0342 19       		.uleb128 0x19
 7463 0343 00       		.byte	0
 7464 0344 00       		.byte	0
 7465 0345 3E       		.uleb128 0x3e
 7466 0346 2E       		.uleb128 0x2e
 7467 0347 01       		.byte	0x1
 7468 0348 3F       		.uleb128 0x3f
 7469 0349 19       		.uleb128 0x19
 7470 034a 03       		.uleb128 0x3
 7471 034b 0E       		.uleb128 0xe
ARM GAS  C:\Users\ramanatg\AppData\Local\Temp\cc9tuycg.s 			page 164


 7472 034c 3A       		.uleb128 0x3a
 7473 034d 0B       		.uleb128 0xb
 7474 034e 3B       		.uleb128 0x3b
 7475 034f 0B       		.uleb128 0xb
 7476 0350 27       		.uleb128 0x27
 7477 0351 19       		.uleb128 0x19
 7478 0352 3C       		.uleb128 0x3c
 7479 0353 19       		.uleb128 0x19
 7480 0354 01       		.uleb128 0x1
 7481 0355 13       		.uleb128 0x13
 7482 0356 00       		.byte	0
 7483 0357 00       		.byte	0
 7484 0358 3F       		.uleb128 0x3f
 7485 0359 2E       		.uleb128 0x2e
 7486 035a 01       		.byte	0x1
 7487 035b 3F       		.uleb128 0x3f
 7488 035c 19       		.uleb128 0x19
 7489 035d 03       		.uleb128 0x3
 7490 035e 0E       		.uleb128 0xe
 7491 035f 27       		.uleb128 0x27
 7492 0360 19       		.uleb128 0x19
 7493 0361 49       		.uleb128 0x49
 7494 0362 13       		.uleb128 0x13
 7495 0363 34       		.uleb128 0x34
 7496 0364 19       		.uleb128 0x19
 7497 0365 3C       		.uleb128 0x3c
 7498 0366 19       		.uleb128 0x19
 7499 0367 01       		.uleb128 0x1
 7500 0368 13       		.uleb128 0x13
 7501 0369 00       		.byte	0
 7502 036a 00       		.byte	0
 7503 036b 40       		.uleb128 0x40
 7504 036c 2E       		.uleb128 0x2e
 7505 036d 01       		.byte	0x1
 7506 036e 3F       		.uleb128 0x3f
 7507 036f 19       		.uleb128 0x19
 7508 0370 03       		.uleb128 0x3
 7509 0371 0E       		.uleb128 0xe
 7510 0372 3A       		.uleb128 0x3a
 7511 0373 0B       		.uleb128 0xb
 7512 0374 3B       		.uleb128 0x3b
 7513 0375 05       		.uleb128 0x5
 7514 0376 27       		.uleb128 0x27
 7515 0377 19       		.uleb128 0x19
 7516 0378 49       		.uleb128 0x49
 7517 0379 13       		.uleb128 0x13
 7518 037a 3C       		.uleb128 0x3c
 7519 037b 19       		.uleb128 0x19
 7520 037c 01       		.uleb128 0x1
 7521 037d 13       		.uleb128 0x13
 7522 037e 00       		.byte	0
 7523 037f 00       		.byte	0
 7524 0380 41       		.uleb128 0x41
 7525 0381 2E       		.uleb128 0x2e
 7526 0382 00       		.byte	0
 7527 0383 3F       		.uleb128 0x3f
 7528 0384 19       		.uleb128 0x19
ARM GAS  C:\Users\ramanatg\AppData\Local\Temp\cc9tuycg.s 			page 165


 7529 0385 03       		.uleb128 0x3
 7530 0386 0E       		.uleb128 0xe
 7531 0387 3A       		.uleb128 0x3a
 7532 0388 0B       		.uleb128 0xb
 7533 0389 3B       		.uleb128 0x3b
 7534 038a 0B       		.uleb128 0xb
 7535 038b 27       		.uleb128 0x27
 7536 038c 19       		.uleb128 0x19
 7537 038d 3C       		.uleb128 0x3c
 7538 038e 19       		.uleb128 0x19
 7539 038f 00       		.byte	0
 7540 0390 00       		.byte	0
 7541 0391 42       		.uleb128 0x42
 7542 0392 2E       		.uleb128 0x2e
 7543 0393 01       		.byte	0x1
 7544 0394 3F       		.uleb128 0x3f
 7545 0395 19       		.uleb128 0x19
 7546 0396 03       		.uleb128 0x3
 7547 0397 0E       		.uleb128 0xe
 7548 0398 3A       		.uleb128 0x3a
 7549 0399 0B       		.uleb128 0xb
 7550 039a 3B       		.uleb128 0x3b
 7551 039b 0B       		.uleb128 0xb
 7552 039c 27       		.uleb128 0x27
 7553 039d 19       		.uleb128 0x19
 7554 039e 49       		.uleb128 0x49
 7555 039f 13       		.uleb128 0x13
 7556 03a0 3C       		.uleb128 0x3c
 7557 03a1 19       		.uleb128 0x19
 7558 03a2 01       		.uleb128 0x1
 7559 03a3 13       		.uleb128 0x13
 7560 03a4 00       		.byte	0
 7561 03a5 00       		.byte	0
 7562 03a6 43       		.uleb128 0x43
 7563 03a7 2E       		.uleb128 0x2e
 7564 03a8 00       		.byte	0
 7565 03a9 3F       		.uleb128 0x3f
 7566 03aa 19       		.uleb128 0x19
 7567 03ab 03       		.uleb128 0x3
 7568 03ac 0E       		.uleb128 0xe
 7569 03ad 3A       		.uleb128 0x3a
 7570 03ae 0B       		.uleb128 0xb
 7571 03af 3B       		.uleb128 0x3b
 7572 03b0 05       		.uleb128 0x5
 7573 03b1 27       		.uleb128 0x27
 7574 03b2 19       		.uleb128 0x19
 7575 03b3 49       		.uleb128 0x49
 7576 03b4 13       		.uleb128 0x13
 7577 03b5 3C       		.uleb128 0x3c
 7578 03b6 19       		.uleb128 0x19
 7579 03b7 00       		.byte	0
 7580 03b8 00       		.byte	0
 7581 03b9 44       		.uleb128 0x44
 7582 03ba 2E       		.uleb128 0x2e
 7583 03bb 00       		.byte	0
 7584 03bc 3F       		.uleb128 0x3f
 7585 03bd 19       		.uleb128 0x19
ARM GAS  C:\Users\ramanatg\AppData\Local\Temp\cc9tuycg.s 			page 166


 7586 03be 03       		.uleb128 0x3
 7587 03bf 0E       		.uleb128 0xe
 7588 03c0 3A       		.uleb128 0x3a
 7589 03c1 0B       		.uleb128 0xb
 7590 03c2 3B       		.uleb128 0x3b
 7591 03c3 05       		.uleb128 0x5
 7592 03c4 27       		.uleb128 0x27
 7593 03c5 19       		.uleb128 0x19
 7594 03c6 3C       		.uleb128 0x3c
 7595 03c7 19       		.uleb128 0x19
 7596 03c8 00       		.byte	0
 7597 03c9 00       		.byte	0
 7598 03ca 00       		.byte	0
 7599              		.section	.debug_loc,"",%progbits
 7600              	.Ldebug_loc0:
 7601              	.LLST0:
 7602 0000 56000000 		.4byte	.LVL8
 7603 0004 75000000 		.4byte	.LVL9-1
 7604 0008 1800     		.2byte	0x18
 7605 000a 03       		.byte	0x3
 7606 000b 02000000 		.4byte	I2C_buffer+2
 7607 000f 94       		.byte	0x94
 7608 0010 01       		.byte	0x1
 7609 0011 08       		.byte	0x8
 7610 0012 FF       		.byte	0xff
 7611 0013 1A       		.byte	0x1a
 7612 0014 38       		.byte	0x38
 7613 0015 24       		.byte	0x24
 7614 0016 03       		.byte	0x3
 7615 0017 03000000 		.4byte	I2C_buffer+3
 7616 001b 94       		.byte	0x94
 7617 001c 01       		.byte	0x1
 7618 001d 08       		.byte	0x8
 7619 001e FF       		.byte	0xff
 7620 001f 1A       		.byte	0x1a
 7621 0020 21       		.byte	0x21
 7622 0021 9F       		.byte	0x9f
 7623 0022 00000000 		.4byte	0
 7624 0026 00000000 		.4byte	0
 7625              	.LLST1:
 7626 002a 56000000 		.4byte	.LVL8
 7627 002e 75000000 		.4byte	.LVL9-1
 7628 0032 2600     		.2byte	0x26
 7629 0034 03       		.byte	0x3
 7630 0035 02000000 		.4byte	I2C_buffer+2
 7631 0039 94       		.byte	0x94
 7632 003a 01       		.byte	0x1
 7633 003b 08       		.byte	0x8
 7634 003c FF       		.byte	0xff
 7635 003d 1A       		.byte	0x1a
 7636 003e 38       		.byte	0x38
 7637 003f 24       		.byte	0x24
 7638 0040 03       		.byte	0x3
 7639 0041 03000000 		.4byte	I2C_buffer+3
 7640 0045 94       		.byte	0x94
 7641 0046 01       		.byte	0x1
 7642 0047 08       		.byte	0x8
ARM GAS  C:\Users\ramanatg\AppData\Local\Temp\cc9tuycg.s 			page 167


 7643 0048 FF       		.byte	0xff
 7644 0049 1A       		.byte	0x1a
 7645 004a 21       		.byte	0x21
 7646 004b 0A       		.byte	0xa
 7647 004c FFFF     		.2byte	0xffff
 7648 004e 1A       		.byte	0x1a
 7649 004f 0A       		.byte	0xa
 7650 0050 A444     		.2byte	0x44a4
 7651 0052 1E       		.byte	0x1e
 7652 0053 40       		.byte	0x40
 7653 0054 26       		.byte	0x26
 7654 0055 0A       		.byte	0xa
 7655 0056 4D12     		.2byte	0x124d
 7656 0058 1C       		.byte	0x1c
 7657 0059 9F       		.byte	0x9f
 7658 005a 76000000 		.4byte	.LVL9
 7659 005e 7C000000 		.4byte	.LVL10
 7660 0062 0100     		.2byte	0x1
 7661 0064 50       		.byte	0x50
 7662 0065 00000000 		.4byte	0
 7663 0069 00000000 		.4byte	0
 7664              	.LLST2:
 7665 006d 00000000 		.4byte	.LVL11
 7666 0071 08000000 		.4byte	.LVL12
 7667 0075 0100     		.2byte	0x1
 7668 0077 50       		.byte	0x50
 7669 0078 08000000 		.4byte	.LVL12
 7670 007c 0C000000 		.4byte	.LVL13
 7671 0080 0400     		.2byte	0x4
 7672 0082 F3       		.byte	0xf3
 7673 0083 01       		.uleb128 0x1
 7674 0084 50       		.byte	0x50
 7675 0085 9F       		.byte	0x9f
 7676 0086 0C000000 		.4byte	.LVL13
 7677 008a 42000000 		.4byte	.LVL16
 7678 008e 0100     		.2byte	0x1
 7679 0090 50       		.byte	0x50
 7680 0091 42000000 		.4byte	.LVL16
 7681 0095 76000000 		.4byte	.LVL24
 7682 0099 0400     		.2byte	0x4
 7683 009b F3       		.byte	0xf3
 7684 009c 01       		.uleb128 0x1
 7685 009d 50       		.byte	0x50
 7686 009e 9F       		.byte	0x9f
 7687 009f 76000000 		.4byte	.LVL24
 7688 00a3 98000000 		.4byte	.LFE37
 7689 00a7 0100     		.2byte	0x1
 7690 00a9 50       		.byte	0x50
 7691 00aa 00000000 		.4byte	0
 7692 00ae 00000000 		.4byte	0
 7693              	.LLST3:
 7694 00b2 00000000 		.4byte	.LVL11
 7695 00b6 08000000 		.4byte	.LVL12
 7696 00ba 0100     		.2byte	0x1
 7697 00bc 51       		.byte	0x51
 7698 00bd 08000000 		.4byte	.LVL12
 7699 00c1 0C000000 		.4byte	.LVL13
ARM GAS  C:\Users\ramanatg\AppData\Local\Temp\cc9tuycg.s 			page 168


 7700 00c5 0400     		.2byte	0x4
 7701 00c7 F3       		.byte	0xf3
 7702 00c8 01       		.uleb128 0x1
 7703 00c9 51       		.byte	0x51
 7704 00ca 9F       		.byte	0x9f
 7705 00cb 0C000000 		.4byte	.LVL13
 7706 00cf 10000000 		.4byte	.LVL14
 7707 00d3 0100     		.2byte	0x1
 7708 00d5 51       		.byte	0x51
 7709 00d6 10000000 		.4byte	.LVL14
 7710 00da 98000000 		.4byte	.LFE37
 7711 00de 0400     		.2byte	0x4
 7712 00e0 F3       		.byte	0xf3
 7713 00e1 01       		.uleb128 0x1
 7714 00e2 51       		.byte	0x51
 7715 00e3 9F       		.byte	0x9f
 7716 00e4 00000000 		.4byte	0
 7717 00e8 00000000 		.4byte	0
 7718              	.LLST4:
 7719 00ec 0C000000 		.4byte	.LVL13
 7720 00f0 10000000 		.4byte	.LVL14
 7721 00f4 0100     		.2byte	0x1
 7722 00f6 51       		.byte	0x51
 7723 00f7 10000000 		.4byte	.LVL14
 7724 00fb 98000000 		.4byte	.LFE37
 7725 00ff 0400     		.2byte	0x4
 7726 0101 F3       		.byte	0xf3
 7727 0102 01       		.uleb128 0x1
 7728 0103 51       		.byte	0x51
 7729 0104 9F       		.byte	0x9f
 7730 0105 00000000 		.4byte	0
 7731 0109 00000000 		.4byte	0
 7732              	.LLST5:
 7733 010d 10000000 		.4byte	.LVL14
 7734 0111 49000000 		.4byte	.LVL17-1
 7735 0115 0100     		.2byte	0x1
 7736 0117 51       		.byte	0x51
 7737 0118 76000000 		.4byte	.LVL24
 7738 011c 98000000 		.4byte	.LFE37
 7739 0120 0100     		.2byte	0x1
 7740 0122 51       		.byte	0x51
 7741 0123 00000000 		.4byte	0
 7742 0127 00000000 		.4byte	0
 7743              	.LLST6:
 7744 012b 3E000000 		.4byte	.LVL15
 7745 012f 49000000 		.4byte	.LVL17-1
 7746 0133 0100     		.2byte	0x1
 7747 0135 52       		.byte	0x52
 7748 0136 00000000 		.4byte	0
 7749 013a 00000000 		.4byte	0
 7750              	.LLST7:
 7751 013e 0A000000 		.4byte	.LVL52
 7752 0142 3A000000 		.4byte	.LVL64
 7753 0146 0100     		.2byte	0x1
 7754 0148 55       		.byte	0x55
 7755 0149 3C000000 		.4byte	.LVL65
 7756 014d 4A000000 		.4byte	.LFE40
ARM GAS  C:\Users\ramanatg\AppData\Local\Temp\cc9tuycg.s 			page 169


 7757 0151 0100     		.2byte	0x1
 7758 0153 55       		.byte	0x55
 7759 0154 00000000 		.4byte	0
 7760 0158 00000000 		.4byte	0
 7761              	.LLST8:
 7762 015c 14000000 		.4byte	.LVL55
 7763 0160 1E000000 		.4byte	.LVL56
 7764 0164 0100     		.2byte	0x1
 7765 0166 50       		.byte	0x50
 7766 0167 3C000000 		.4byte	.LVL65
 7767 016b 40000000 		.4byte	.LVL66
 7768 016f 0100     		.2byte	0x1
 7769 0171 50       		.byte	0x50
 7770 0172 00000000 		.4byte	0
 7771 0176 00000000 		.4byte	0
 7772              	.LLST9:
 7773 017a 00000000 		.4byte	.LVL50
 7774 017e 10000000 		.4byte	.LVL54
 7775 0182 0200     		.2byte	0x2
 7776 0184 30       		.byte	0x30
 7777 0185 9F       		.byte	0x9f
 7778 0186 10000000 		.4byte	.LVL54
 7779 018a 3A000000 		.4byte	.LVL63
 7780 018e 0100     		.2byte	0x1
 7781 0190 54       		.byte	0x54
 7782 0191 3C000000 		.4byte	.LVL65
 7783 0195 4A000000 		.4byte	.LFE40
 7784 0199 0100     		.2byte	0x1
 7785 019b 54       		.byte	0x54
 7786 019c 00000000 		.4byte	0
 7787 01a0 00000000 		.4byte	0
 7788              	.LLST10:
 7789 01a4 00000000 		.4byte	.LVL68
 7790 01a8 2A000000 		.4byte	.LVL70
 7791 01ac 0200     		.2byte	0x2
 7792 01ae 30       		.byte	0x30
 7793 01af 9F       		.byte	0x9f
 7794 01b0 40000000 		.4byte	.LVL72
 7795 01b4 70020000 		.4byte	.LVL137
 7796 01b8 0200     		.2byte	0x2
 7797 01ba 30       		.byte	0x30
 7798 01bb 9F       		.byte	0x9f
 7799 01bc 80020000 		.4byte	.LVL140
 7800 01c0 8A020000 		.4byte	.LVL141
 7801 01c4 0100     		.2byte	0x1
 7802 01c6 55       		.byte	0x55
 7803 01c7 8A020000 		.4byte	.LVL141
 7804 01cb B6020000 		.4byte	.LVL146
 7805 01cf 0200     		.2byte	0x2
 7806 01d1 30       		.byte	0x30
 7807 01d2 9F       		.byte	0x9f
 7808 01d3 B6020000 		.4byte	.LVL146
 7809 01d7 B8020000 		.4byte	.LVL147
 7810 01db 0100     		.2byte	0x1
 7811 01dd 50       		.byte	0x50
 7812 01de B8020000 		.4byte	.LVL147
 7813 01e2 F6020000 		.4byte	.LVL151
ARM GAS  C:\Users\ramanatg\AppData\Local\Temp\cc9tuycg.s 			page 170


 7814 01e6 0200     		.2byte	0x2
 7815 01e8 30       		.byte	0x30
 7816 01e9 9F       		.byte	0x9f
 7817 01ea F6020000 		.4byte	.LVL151
 7818 01ee F8020000 		.4byte	.LVL152
 7819 01f2 0100     		.2byte	0x1
 7820 01f4 50       		.byte	0x50
 7821 01f5 F8020000 		.4byte	.LVL152
 7822 01f9 9C030000 		.4byte	.LFE42
 7823 01fd 0200     		.2byte	0x2
 7824 01ff 30       		.byte	0x30
 7825 0200 9F       		.byte	0x9f
 7826 0201 00000000 		.4byte	0
 7827 0205 00000000 		.4byte	0
 7828              	.LLST11:
 7829 0209 50000000 		.4byte	.LVL74
 7830 020d 84000000 		.4byte	.LVL82
 7831 0211 0400     		.2byte	0x4
 7832 0213 0A       		.byte	0xa
 7833 0214 FF7F     		.2byte	0x7fff
 7834 0216 9F       		.byte	0x9f
 7835 0217 00000000 		.4byte	0
 7836 021b 00000000 		.4byte	0
 7837              	.LLST12:
 7838 021f B0000000 		.4byte	.LVL84
 7839 0223 E8000000 		.4byte	.LVL92
 7840 0227 0400     		.2byte	0x4
 7841 0229 0A       		.byte	0xa
 7842 022a 8E02     		.2byte	0x28e
 7843 022c 9F       		.byte	0x9f
 7844 022d 00000000 		.4byte	0
 7845 0231 00000000 		.4byte	0
 7846              	.LLST13:
 7847 0235 02010000 		.4byte	.LVL94
 7848 0239 3A010000 		.4byte	.LVL102
 7849 023d 0400     		.2byte	0x4
 7850 023f 0A       		.byte	0xa
 7851 0240 8E02     		.2byte	0x28e
 7852 0242 9F       		.byte	0x9f
 7853 0243 00000000 		.4byte	0
 7854 0247 00000000 		.4byte	0
 7855              	.LLST14:
 7856 024b 4E010000 		.4byte	.LVL103
 7857 024f 86010000 		.4byte	.LVL111
 7858 0253 0400     		.2byte	0x4
 7859 0255 0A       		.byte	0xa
 7860 0256 8E02     		.2byte	0x28e
 7861 0258 9F       		.byte	0x9f
 7862 0259 00000000 		.4byte	0
 7863 025d 00000000 		.4byte	0
 7864              	.LLST15:
 7865 0261 A4010000 		.4byte	.LVL113
 7866 0265 DC010000 		.4byte	.LVL121
 7867 0269 0400     		.2byte	0x4
 7868 026b 0A       		.byte	0xa
 7869 026c 8E02     		.2byte	0x28e
 7870 026e 9F       		.byte	0x9f
ARM GAS  C:\Users\ramanatg\AppData\Local\Temp\cc9tuycg.s 			page 171


 7871 026f 00000000 		.4byte	0
 7872 0273 00000000 		.4byte	0
 7873              	.LLST16:
 7874 0277 F0010000 		.4byte	.LVL122
 7875 027b 28020000 		.4byte	.LVL130
 7876 027f 0400     		.2byte	0x4
 7877 0281 0A       		.byte	0xa
 7878 0282 8E02     		.2byte	0x28e
 7879 0284 9F       		.byte	0x9f
 7880 0285 00000000 		.4byte	0
 7881 0289 00000000 		.4byte	0
 7882              	.LLST17:
 7883 028d 56020000 		.4byte	.LVL132
 7884 0291 70020000 		.4byte	.LVL137
 7885 0295 0700     		.2byte	0x7
 7886 0297 75       		.byte	0x75
 7887 0298 00       		.sleb128 0
 7888 0299 0A       		.byte	0xa
 7889 029a FFFF     		.2byte	0xffff
 7890 029c 1A       		.byte	0x1a
 7891 029d 9F       		.byte	0x9f
 7892 029e 00000000 		.4byte	0
 7893 02a2 00000000 		.4byte	0
 7894              	.LLST18:
 7895 02a6 62020000 		.4byte	.LVL134
 7896 02aa 6A020000 		.4byte	.LVL135
 7897 02ae 0100     		.2byte	0x1
 7898 02b0 50       		.byte	0x50
 7899 02b1 6A020000 		.4byte	.LVL135
 7900 02b5 6D020000 		.4byte	.LVL136-1
 7901 02b9 0200     		.2byte	0x2
 7902 02bb 73       		.byte	0x73
 7903 02bc 00       		.sleb128 0
 7904 02bd 00000000 		.4byte	0
 7905 02c1 00000000 		.4byte	0
 7906              	.LLST19:
 7907 02c5 A4020000 		.4byte	.LVL143
 7908 02c9 B8020000 		.4byte	.LVL147
 7909 02cd 0300     		.2byte	0x3
 7910 02cf 08       		.byte	0x8
 7911 02d0 20       		.byte	0x20
 7912 02d1 9F       		.byte	0x9f
 7913 02d2 00000000 		.4byte	0
 7914 02d6 00000000 		.4byte	0
 7915              	.LLST20:
 7916 02da D4020000 		.4byte	.LVL148
 7917 02de F8020000 		.4byte	.LVL152
 7918 02e2 0200     		.2byte	0x2
 7919 02e4 40       		.byte	0x40
 7920 02e5 9F       		.byte	0x9f
 7921 02e6 00000000 		.4byte	0
 7922 02ea 00000000 		.4byte	0
 7923              	.LLST21:
 7924 02ee 16030000 		.4byte	.LVL153
 7925 02f2 36030000 		.4byte	.LVL155
 7926 02f6 0200     		.2byte	0x2
 7927 02f8 40       		.byte	0x40
ARM GAS  C:\Users\ramanatg\AppData\Local\Temp\cc9tuycg.s 			page 172


 7928 02f9 9F       		.byte	0x9f
 7929 02fa 00000000 		.4byte	0
 7930 02fe 00000000 		.4byte	0
 7931              	.LLST22:
 7932 0302 42030000 		.4byte	.LVL157
 7933 0306 46030000 		.4byte	.LVL158
 7934 030a 0300     		.2byte	0x3
 7935 030c 08       		.byte	0x8
 7936 030d 20       		.byte	0x20
 7937 030e 9F       		.byte	0x9f
 7938 030f 00000000 		.4byte	0
 7939 0313 00000000 		.4byte	0
 7940              	.LLST23:
 7941 0317 00000000 		.4byte	.LVL161
 7942 031b 66000000 		.4byte	.LVL169
 7943 031f 0200     		.2byte	0x2
 7944 0321 30       		.byte	0x30
 7945 0322 9F       		.byte	0x9f
 7946 0323 66000000 		.4byte	.LVL169
 7947 0327 6C000000 		.4byte	.LVL170
 7948 032b 0100     		.2byte	0x1
 7949 032d 50       		.byte	0x50
 7950 032e 78000000 		.4byte	.LVL172
 7951 0332 9C000000 		.4byte	.LVL176
 7952 0336 0200     		.2byte	0x2
 7953 0338 30       		.byte	0x30
 7954 0339 9F       		.byte	0x9f
 7955 033a 9C000000 		.4byte	.LVL176
 7956 033e 9E000000 		.4byte	.LVL177
 7957 0342 0100     		.2byte	0x1
 7958 0344 50       		.byte	0x50
 7959 0345 9E000000 		.4byte	.LVL177
 7960 0349 E0000000 		.4byte	.LVL181
 7961 034d 0200     		.2byte	0x2
 7962 034f 30       		.byte	0x30
 7963 0350 9F       		.byte	0x9f
 7964 0351 E0000000 		.4byte	.LVL181
 7965 0355 EA000000 		.4byte	.LVL182
 7966 0359 0100     		.2byte	0x1
 7967 035b 50       		.byte	0x50
 7968 035c F0000000 		.4byte	.LVL183
 7969 0360 24010000 		.4byte	.LVL187
 7970 0364 0200     		.2byte	0x2
 7971 0366 30       		.byte	0x30
 7972 0367 9F       		.byte	0x9f
 7973 0368 24010000 		.4byte	.LVL187
 7974 036c 2E010000 		.4byte	.LVL188
 7975 0370 0100     		.2byte	0x1
 7976 0372 50       		.byte	0x50
 7977 0373 34010000 		.4byte	.LVL189
 7978 0377 58010000 		.4byte	.LVL193
 7979 037b 0200     		.2byte	0x2
 7980 037d 30       		.byte	0x30
 7981 037e 9F       		.byte	0x9f
 7982 037f 58010000 		.4byte	.LVL193
 7983 0383 62010000 		.4byte	.LVL194
 7984 0387 0100     		.2byte	0x1
ARM GAS  C:\Users\ramanatg\AppData\Local\Temp\cc9tuycg.s 			page 173


 7985 0389 50       		.byte	0x50
 7986 038a 68010000 		.4byte	.LVL195
 7987 038e 10020000 		.4byte	.LFE43
 7988 0392 0200     		.2byte	0x2
 7989 0394 30       		.byte	0x30
 7990 0395 9F       		.byte	0x9f
 7991 0396 00000000 		.4byte	0
 7992 039a 00000000 		.4byte	0
 7993              	.LLST24:
 7994 039e 4E000000 		.4byte	.LVL165
 7995 03a2 66000000 		.4byte	.LVL169
 7996 03a6 0100     		.2byte	0x1
 7997 03a8 55       		.byte	0x55
 7998 03a9 00000000 		.4byte	0
 7999 03ad 00000000 		.4byte	0
 8000              	.LLST25:
 8001 03b1 5A000000 		.4byte	.LVL167
 8002 03b5 62000000 		.4byte	.LVL168
 8003 03b9 0100     		.2byte	0x1
 8004 03bb 50       		.byte	0x50
 8005 03bc 62000000 		.4byte	.LVL168
 8006 03c0 65000000 		.4byte	.LVL169-1
 8007 03c4 0200     		.2byte	0x2
 8008 03c6 73       		.byte	0x73
 8009 03c7 00       		.sleb128 0
 8010 03c8 00000000 		.4byte	0
 8011 03cc 00000000 		.4byte	0
 8012              	.LLST26:
 8013 03d0 90000000 		.4byte	.LVL174
 8014 03d4 9E000000 		.4byte	.LVL177
 8015 03d8 0300     		.2byte	0x3
 8016 03da 08       		.byte	0x8
 8017 03db 20       		.byte	0x20
 8018 03dc 9F       		.byte	0x9f
 8019 03dd 00000000 		.4byte	0
 8020 03e1 00000000 		.4byte	0
 8021              	.LLST27:
 8022 03e5 D0000000 		.4byte	.LVL179
 8023 03e9 EA000000 		.4byte	.LVL182
 8024 03ed 0200     		.2byte	0x2
 8025 03ef 30       		.byte	0x30
 8026 03f0 9F       		.byte	0x9f
 8027 03f1 00000000 		.4byte	0
 8028 03f5 00000000 		.4byte	0
 8029              	.LLST28:
 8030 03f9 14010000 		.4byte	.LVL185
 8031 03fd 2E010000 		.4byte	.LVL188
 8032 0401 0200     		.2byte	0x2
 8033 0403 40       		.byte	0x40
 8034 0404 9F       		.byte	0x9f
 8035 0405 00000000 		.4byte	0
 8036 0409 00000000 		.4byte	0
 8037              	.LLST29:
 8038 040d 4C010000 		.4byte	.LVL191
 8039 0411 62010000 		.4byte	.LVL194
 8040 0415 0300     		.2byte	0x3
 8041 0417 08       		.byte	0x8
ARM GAS  C:\Users\ramanatg\AppData\Local\Temp\cc9tuycg.s 			page 174


 8042 0418 20       		.byte	0x20
 8043 0419 9F       		.byte	0x9f
 8044 041a 00000000 		.4byte	0
 8045 041e 00000000 		.4byte	0
 8046              	.LLST30:
 8047 0422 84010000 		.4byte	.LVL196
 8048 0426 A6010000 		.4byte	.LVL198
 8049 042a 0200     		.2byte	0x2
 8050 042c 40       		.byte	0x40
 8051 042d 9F       		.byte	0x9f
 8052 042e 00000000 		.4byte	0
 8053 0432 00000000 		.4byte	0
 8054              	.LLST31:
 8055 0436 AC010000 		.4byte	.LVL199
 8056 043a C2010000 		.4byte	.LVL201
 8057 043e 0200     		.2byte	0x2
 8058 0440 40       		.byte	0x40
 8059 0441 9F       		.byte	0x9f
 8060 0442 00000000 		.4byte	0
 8061 0446 00000000 		.4byte	0
 8062              	.LLST32:
 8063 044a C2010000 		.4byte	.LVL201
 8064 044e CC010000 		.4byte	.LVL203
 8065 0452 0300     		.2byte	0x3
 8066 0454 08       		.byte	0x8
 8067 0455 20       		.byte	0x20
 8068 0456 9F       		.byte	0x9f
 8069 0457 00000000 		.4byte	0
 8070 045b 00000000 		.4byte	0
 8071              	.LLST33:
 8072 045f 46000000 		.4byte	.LVL216
 8073 0463 E8000000 		.4byte	.LVL242
 8074 0467 0100     		.2byte	0x1
 8075 0469 56       		.byte	0x56
 8076 046a 00000000 		.4byte	0
 8077 046e 00000000 		.4byte	0
 8078              	.LLST34:
 8079 0472 50000000 		.4byte	.LVL219
 8080 0476 5A000000 		.4byte	.LVL220
 8081 047a 0100     		.2byte	0x1
 8082 047c 50       		.byte	0x50
 8083 047d DA000000 		.4byte	.LVL239
 8084 0481 DE000000 		.4byte	.LVL240
 8085 0485 0100     		.2byte	0x1
 8086 0487 50       		.byte	0x50
 8087 0488 00000000 		.4byte	0
 8088 048c 00000000 		.4byte	0
 8089              	.LLST35:
 8090 0490 3E000000 		.4byte	.LVL214
 8091 0494 4C000000 		.4byte	.LVL218
 8092 0498 0200     		.2byte	0x2
 8093 049a 30       		.byte	0x30
 8094 049b 9F       		.byte	0x9f
 8095 049c 4C000000 		.4byte	.LVL218
 8096 04a0 E8000000 		.4byte	.LVL242
 8097 04a4 0100     		.2byte	0x1
 8098 04a6 55       		.byte	0x55
ARM GAS  C:\Users\ramanatg\AppData\Local\Temp\cc9tuycg.s 			page 175


 8099 04a7 00000000 		.4byte	0
 8100 04ab 00000000 		.4byte	0
 8101              	.LLST36:
 8102 04af 00000000 		.4byte	.LVL250
 8103 04b3 28000000 		.4byte	.LVL251
 8104 04b7 0100     		.2byte	0x1
 8105 04b9 50       		.byte	0x50
 8106 04ba 28000000 		.4byte	.LVL251
 8107 04be 40000000 		.4byte	.LVL255
 8108 04c2 0400     		.2byte	0x4
 8109 04c4 F3       		.byte	0xf3
 8110 04c5 01       		.uleb128 0x1
 8111 04c6 50       		.byte	0x50
 8112 04c7 9F       		.byte	0x9f
 8113 04c8 40000000 		.4byte	.LVL255
 8114 04cc 58000000 		.4byte	.LFE45
 8115 04d0 0100     		.2byte	0x1
 8116 04d2 50       		.byte	0x50
 8117 04d3 00000000 		.4byte	0
 8118 04d7 00000000 		.4byte	0
 8119              	.LLST37:
 8120 04db 30000000 		.4byte	.LVL252
 8121 04df 36000000 		.4byte	.LVL253
 8122 04e3 0100     		.2byte	0x1
 8123 04e5 53       		.byte	0x53
 8124 04e6 36000000 		.4byte	.LVL253
 8125 04ea 3B000000 		.4byte	.LVL254-1
 8126 04ee 0200     		.2byte	0x2
 8127 04f0 70       		.byte	0x70
 8128 04f1 00       		.sleb128 0
 8129 04f2 00000000 		.4byte	0
 8130 04f6 00000000 		.4byte	0
 8131              	.LLST38:
 8132 04fa 00000000 		.4byte	.LVL256
 8133 04fe 06000000 		.4byte	.LVL257
 8134 0502 0100     		.2byte	0x1
 8135 0504 50       		.byte	0x50
 8136 0505 06000000 		.4byte	.LVL257
 8137 0509 20000000 		.4byte	.LFE46
 8138 050d 0400     		.2byte	0x4
 8139 050f F3       		.byte	0xf3
 8140 0510 01       		.uleb128 0x1
 8141 0511 50       		.byte	0x50
 8142 0512 9F       		.byte	0x9f
 8143 0513 00000000 		.4byte	0
 8144 0517 00000000 		.4byte	0
 8145              	.LLST39:
 8146 051b 0E000000 		.4byte	.LVL259
 8147 051f 16000000 		.4byte	.LVL260
 8148 0523 0100     		.2byte	0x1
 8149 0525 50       		.byte	0x50
 8150 0526 16000000 		.4byte	.LVL260
 8151 052a 19000000 		.4byte	.LVL261-1
 8152 052e 0200     		.2byte	0x2
 8153 0530 73       		.byte	0x73
 8154 0531 00       		.sleb128 0
 8155 0532 00000000 		.4byte	0
ARM GAS  C:\Users\ramanatg\AppData\Local\Temp\cc9tuycg.s 			page 176


 8156 0536 00000000 		.4byte	0
 8157              	.LLST40:
 8158 053a 00000000 		.4byte	.LVL262
 8159 053e 0E000000 		.4byte	.LVL263
 8160 0542 0100     		.2byte	0x1
 8161 0544 50       		.byte	0x50
 8162 0545 0E000000 		.4byte	.LVL263
 8163 0549 10000000 		.4byte	.LVL264
 8164 054d 0400     		.2byte	0x4
 8165 054f F3       		.byte	0xf3
 8166 0550 01       		.uleb128 0x1
 8167 0551 50       		.byte	0x50
 8168 0552 9F       		.byte	0x9f
 8169 0553 10000000 		.4byte	.LVL264
 8170 0557 16000000 		.4byte	.LVL265
 8171 055b 0100     		.2byte	0x1
 8172 055d 50       		.byte	0x50
 8173 055e 16000000 		.4byte	.LVL265
 8174 0562 22000000 		.4byte	.LVL267
 8175 0566 0400     		.2byte	0x4
 8176 0568 F3       		.byte	0xf3
 8177 0569 01       		.uleb128 0x1
 8178 056a 50       		.byte	0x50
 8179 056b 9F       		.byte	0x9f
 8180 056c 22000000 		.4byte	.LVL267
 8181 0570 25000000 		.4byte	.LVL268-1
 8182 0574 0100     		.2byte	0x1
 8183 0576 50       		.byte	0x50
 8184 0577 25000000 		.4byte	.LVL268-1
 8185 057b 28000000 		.4byte	.LVL269
 8186 057f 0400     		.2byte	0x4
 8187 0581 F3       		.byte	0xf3
 8188 0582 01       		.uleb128 0x1
 8189 0583 50       		.byte	0x50
 8190 0584 9F       		.byte	0x9f
 8191 0585 28000000 		.4byte	.LVL269
 8192 0589 30000000 		.4byte	.LVL270
 8193 058d 0100     		.2byte	0x1
 8194 058f 50       		.byte	0x50
 8195 0590 30000000 		.4byte	.LVL270
 8196 0594 4C000000 		.4byte	.LFE48
 8197 0598 0400     		.2byte	0x4
 8198 059a F3       		.byte	0xf3
 8199 059b 01       		.uleb128 0x1
 8200 059c 50       		.byte	0x50
 8201 059d 9F       		.byte	0x9f
 8202 059e 00000000 		.4byte	0
 8203 05a2 00000000 		.4byte	0
 8204              		.section	.debug_aranges,"",%progbits
 8205 0000 74000000 		.4byte	0x74
 8206 0004 0200     		.2byte	0x2
 8207 0006 00000000 		.4byte	.Ldebug_info0
 8208 000a 04       		.byte	0x4
 8209 000b 00       		.byte	0
 8210 000c 0000     		.2byte	0
 8211 000e 0000     		.2byte	0
 8212 0010 00000000 		.4byte	.LFB38
ARM GAS  C:\Users\ramanatg\AppData\Local\Temp\cc9tuycg.s 			page 177


 8213 0014 30000000 		.4byte	.LFE38-.LFB38
 8214 0018 00000000 		.4byte	.LFB51
 8215 001c 9C000000 		.4byte	.LFE51-.LFB51
 8216 0020 00000000 		.4byte	.LFB37
 8217 0024 98000000 		.4byte	.LFE37-.LFB37
 8218 0028 00000000 		.4byte	.LFB39
 8219 002c 94000000 		.4byte	.LFE39-.LFB39
 8220 0030 00000000 		.4byte	.LFB40
 8221 0034 4A000000 		.4byte	.LFE40-.LFB40
 8222 0038 00000000 		.4byte	.LFB42
 8223 003c 9C030000 		.4byte	.LFE42-.LFB42
 8224 0040 00000000 		.4byte	.LFB43
 8225 0044 10020000 		.4byte	.LFE43-.LFB43
 8226 0048 00000000 		.4byte	.LFB44
 8227 004c 10010000 		.4byte	.LFE44-.LFB44
 8228 0050 00000000 		.4byte	.LFB41
 8229 0054 4C010000 		.4byte	.LFE41-.LFB41
 8230 0058 00000000 		.4byte	.LFB45
 8231 005c 58000000 		.4byte	.LFE45-.LFB45
 8232 0060 00000000 		.4byte	.LFB46
 8233 0064 20000000 		.4byte	.LFE46-.LFB46
 8234 0068 00000000 		.4byte	.LFB48
 8235 006c 4C000000 		.4byte	.LFE48-.LFB48
 8236 0070 00000000 		.4byte	0
 8237 0074 00000000 		.4byte	0
 8238              		.section	.debug_ranges,"",%progbits
 8239              	.Ldebug_ranges0:
 8240 0000 10000000 		.4byte	.LBB18
 8241 0004 4A000000 		.4byte	.LBE18
 8242 0008 76000000 		.4byte	.LBB21
 8243 000c 98000000 		.4byte	.LBE21
 8244 0010 00000000 		.4byte	0
 8245 0014 00000000 		.4byte	0
 8246 0018 BE020000 		.4byte	.LBB64
 8247 001c C0020000 		.4byte	.LBE64
 8248 0020 C2020000 		.4byte	.LBB73
 8249 0024 C6020000 		.4byte	.LBE73
 8250 0028 CA020000 		.4byte	.LBB74
 8251 002c CC020000 		.4byte	.LBE74
 8252 0030 CE020000 		.4byte	.LBB75
 8253 0034 D2020000 		.4byte	.LBE75
 8254 0038 D4020000 		.4byte	.LBB76
 8255 003c D8020000 		.4byte	.LBE76
 8256 0040 DC020000 		.4byte	.LBB77
 8257 0044 DE020000 		.4byte	.LBE77
 8258 0048 E8020000 		.4byte	.LBB78
 8259 004c EA020000 		.4byte	.LBE78
 8260 0050 EC020000 		.4byte	.LBB79
 8261 0054 F0020000 		.4byte	.LBE79
 8262 0058 00000000 		.4byte	0
 8263 005c 00000000 		.4byte	0
 8264 0060 C0000000 		.4byte	.LBB108
 8265 0064 C2000000 		.4byte	.LBE108
 8266 0068 C6000000 		.4byte	.LBB114
 8267 006c C8000000 		.4byte	.LBE114
 8268 0070 CA000000 		.4byte	.LBB115
 8269 0074 CE000000 		.4byte	.LBE115
ARM GAS  C:\Users\ramanatg\AppData\Local\Temp\cc9tuycg.s 			page 178


 8270 0078 D0000000 		.4byte	.LBB116
 8271 007c D6000000 		.4byte	.LBE116
 8272 0080 DA000000 		.4byte	.LBB117
 8273 0084 DC000000 		.4byte	.LBE117
 8274 0088 00000000 		.4byte	0
 8275 008c 00000000 		.4byte	0
 8276 0090 FE000000 		.4byte	.LBB118
 8277 0094 00010000 		.4byte	.LBE118
 8278 0098 02010000 		.4byte	.LBB125
 8279 009c 06010000 		.4byte	.LBE125
 8280 00a0 0A010000 		.4byte	.LBB126
 8281 00a4 0C010000 		.4byte	.LBE126
 8282 00a8 0E010000 		.4byte	.LBB127
 8283 00ac 12010000 		.4byte	.LBE127
 8284 00b0 14010000 		.4byte	.LBB128
 8285 00b4 1C010000 		.4byte	.LBE128
 8286 00b8 1E010000 		.4byte	.LBB129
 8287 00bc 20010000 		.4byte	.LBE129
 8288 00c0 00000000 		.4byte	0
 8289 00c4 00000000 		.4byte	0
 8290 00c8 3E000000 		.4byte	.LBB143
 8291 00cc 76000000 		.4byte	.LBE143
 8292 00d0 DA000000 		.4byte	.LBB146
 8293 00d4 E8000000 		.4byte	.LBE146
 8294 00d8 00000000 		.4byte	0
 8295 00dc 00000000 		.4byte	0
 8296 00e0 00000000 		.4byte	.LFB38
 8297 00e4 30000000 		.4byte	.LFE38
 8298 00e8 00000000 		.4byte	.LFB51
 8299 00ec 9C000000 		.4byte	.LFE51
 8300 00f0 00000000 		.4byte	.LFB37
 8301 00f4 98000000 		.4byte	.LFE37
 8302 00f8 00000000 		.4byte	.LFB39
 8303 00fc 94000000 		.4byte	.LFE39
 8304 0100 00000000 		.4byte	.LFB40
 8305 0104 4A000000 		.4byte	.LFE40
 8306 0108 00000000 		.4byte	.LFB42
 8307 010c 9C030000 		.4byte	.LFE42
 8308 0110 00000000 		.4byte	.LFB43
 8309 0114 10020000 		.4byte	.LFE43
 8310 0118 00000000 		.4byte	.LFB44
 8311 011c 10010000 		.4byte	.LFE44
 8312 0120 00000000 		.4byte	.LFB41
 8313 0124 4C010000 		.4byte	.LFE41
 8314 0128 00000000 		.4byte	.LFB45
 8315 012c 58000000 		.4byte	.LFE45
 8316 0130 00000000 		.4byte	.LFB46
 8317 0134 20000000 		.4byte	.LFE46
 8318 0138 00000000 		.4byte	.LFB48
 8319 013c 4C000000 		.4byte	.LFE48
 8320 0140 00000000 		.4byte	0
 8321 0144 00000000 		.4byte	0
 8322              		.section	.debug_line,"",%progbits
 8323              	.Ldebug_line0:
 8324 0000 C5060000 		.section	.debug_str,"MS",%progbits,1
 8324      02000002 
 8324      00000201 
ARM GAS  C:\Users\ramanatg\AppData\Local\Temp\cc9tuycg.s 			page 179


 8324      FB0E0D00 
 8324      01010101 
 8325              	.LASF201:
 8326 0000 4932435F 		.ascii	"I2C_ADV_TLM\000"
 8326      4144565F 
 8326      544C4D00 
 8327              	.LASF89:
 8328 000c 4359424C 		.ascii	"CYBLE_EVT_L2CAP_CBFC_CONN_IND\000"
 8328      455F4556 
 8328      545F4C32 
 8328      4341505F 
 8328      43424643 
 8329              	.LASF79:
 8330 002a 4359424C 		.ascii	"CYBLE_EVT_GATTC_HANDLE_VALUE_NTF\000"
 8330      455F4556 
 8330      545F4741 
 8330      5454435F 
 8330      48414E44 
 8331              	.LASF195:
 8332 004b 4932435F 		.ascii	"I2C_READ_HUMIDITY_SEND_CMD\000"
 8332      52454144 
 8332      5F48554D 
 8332      49444954 
 8332      595F5345 
 8333              	.LASF317:
 8334 0066 4379426C 		.ascii	"CyBle_GappStartAdvertisement\000"
 8334      655F4761 
 8334      70705374 
 8334      61727441 
 8334      64766572 
 8335              	.LASF334:
 8336 0083 4379426C 		.ascii	"CyBle_Start\000"
 8336      655F5374 
 8336      61727400 
 8337              	.LASF319:
 8338 008f 4379426C 		.ascii	"CyBle_GappStopAdvertisement\000"
 8338      655F4761 
 8338      70705374 
 8338      6F704164 
 8338      76657274 
 8339              	.LASF38:
 8340 00ab 4359424C 		.ascii	"CYBLE_EVT_GAP_AUTH_REQ\000"
 8340      455F4556 
 8340      545F4741 
 8340      505F4155 
 8340      54485F52 
 8341              	.LASF279:
 8342 00c2 6379426C 		.ascii	"cyBle_discoveryModeInfo\000"
 8342      655F6469 
 8342      73636F76 
 8342      6572794D 
 8342      6F646549 
 8343              	.LASF153:
 8344 00da 4359424C 		.ascii	"CYBLE_LL_PWR_LVL_NEG_6_DBM\000"
 8344      455F4C4C 
 8344      5F505752 
 8344      5F4C564C 
ARM GAS  C:\Users\ramanatg\AppData\Local\Temp\cc9tuycg.s 			page 180


 8344      5F4E4547 
 8345              	.LASF249:
 8346 00f5 61647665 		.ascii	"advertisingInterval\000"
 8346      72746973 
 8346      696E6749 
 8346      6E746572 
 8346      76616C00 
 8347              	.LASF298:
 8348 0109 43795379 		.ascii	"CySysWdtLock\000"
 8348      73576474 
 8348      4C6F636B 
 8348      00
 8349              	.LASF300:
 8350 0116 5744545F 		.ascii	"WDT_Interrupt_StartEx\000"
 8350      496E7465 
 8350      72727570 
 8350      745F5374 
 8350      61727445 
 8351              	.LASF111:
 8352 012c 4359424C 		.ascii	"CYBLE_ERROR_GAP_ROLE\000"
 8352      455F4552 
 8352      524F525F 
 8352      4741505F 
 8352      524F4C45 
 8353              	.LASF271:
 8354 0141 55524C5F 		.ascii	"URL_FrameBuffer\000"
 8354      4672616D 
 8354      65427566 
 8354      66657200 
 8355              	.LASF125:
 8356 0151 4359424C 		.ascii	"CYBLE_ERROR_HARDWARE_FAILURE\000"
 8356      455F4552 
 8356      524F525F 
 8356      48415244 
 8356      57415245 
 8357              	.LASF63:
 8358 016e 4359424C 		.ascii	"CYBLE_EVT_GATT_DISCONNECT_IND\000"
 8358      455F4556 
 8358      545F4741 
 8358      54545F44 
 8358      4953434F 
 8359              	.LASF243:
 8360 018c 6576656E 		.ascii	"eventParam\000"
 8360      74506172 
 8360      616D00
 8361              	.LASF58:
 8362 0197 4359424C 		.ascii	"CYBLE_EVT_GAP_SCAN_REQ_RECVD\000"
 8362      455F4556 
 8362      545F4741 
 8362      505F5343 
 8362      414E5F52 
 8363              	.LASF188:
 8364 01b4 4359424C 		.ascii	"CYBLE_GAPP_SCAN_RSP_DATA_T\000"
 8364      455F4741 
 8364      50505F53 
 8364      43414E5F 
 8364      5253505F 
ARM GAS  C:\Users\ramanatg\AppData\Local\Temp\cc9tuycg.s 			page 181


 8365              	.LASF250:
 8366 01cf 52656769 		.ascii	"RegisterIntervalValue\000"
 8366      73746572 
 8366      496E7465 
 8366      7276616C 
 8366      56616C75 
 8367              	.LASF82:
 8368 01e5 4359424C 		.ascii	"CYBLE_EVT_GATTS_DATA_SIGNED_CMD_REQ\000"
 8368      455F4556 
 8368      545F4741 
 8368      5454535F 
 8368      44415441 
 8369              	.LASF104:
 8370 0209 4359424C 		.ascii	"CYBLE_ERROR_INVALID_OPERATION\000"
 8370      455F4552 
 8370      524F525F 
 8370      494E5641 
 8370      4C49445F 
 8371              	.LASF33:
 8372 0227 4359424C 		.ascii	"CYBLE_EVT_HARDWARE_ERROR\000"
 8372      455F4556 
 8372      545F4841 
 8372      52445741 
 8372      52455F45 
 8373              	.LASF273:
 8374 0240 45535F41 		.ascii	"ES_ADV_CNT\000"
 8374      44565F43 
 8374      4E5400
 8375              	.LASF14:
 8376 024b 756E7369 		.ascii	"unsigned int\000"
 8376      676E6564 
 8376      20696E74 
 8376      00
 8377              	.LASF98:
 8378 0258 4359424C 		.ascii	"CYBLE_EVT_LE_PING_AUTH_TIMEOUT\000"
 8378      455F4556 
 8378      545F4C45 
 8378      5F50494E 
 8378      475F4155 
 8379              	.LASF276:
 8380 0277 6379426C 		.ascii	"cyBle_discoveryParam\000"
 8380      655F6469 
 8380      73636F76 
 8380      65727950 
 8380      6172616D 
 8381              	.LASF154:
 8382 028c 4359424C 		.ascii	"CYBLE_LL_PWR_LVL_NEG_3_DBM\000"
 8382      455F4C4C 
 8382      5F505752 
 8382      5F4C564C 
 8382      5F4E4547 
 8383              	.LASF95:
 8384 02a7 4359424C 		.ascii	"CYBLE_EVT_L2CAP_CBFC_TX_CREDIT_IND\000"
 8384      455F4556 
 8384      545F4C32 
 8384      4341505F 
 8384      43424643 
ARM GAS  C:\Users\ramanatg\AppData\Local\Temp\cc9tuycg.s 			page 182


 8385              	.LASF218:
 8386 02ca 44617461 		.ascii	"DataFlag_Start\000"
 8386      466C6167 
 8386      5F537461 
 8386      727400
 8387              	.LASF75:
 8388 02d9 4359424C 		.ascii	"CYBLE_EVT_GATTS_WRITE_CMD_REQ\000"
 8388      455F4556 
 8388      545F4741 
 8388      5454535F 
 8388      57524954 
 8389              	.LASF179:
 8390 02f7 64697265 		.ascii	"directAddr\000"
 8390      63744164 
 8390      647200
 8391              	.LASF199:
 8392 0302 4932435F 		.ascii	"I2C_START_ADV\000"
 8392      53544152 
 8392      545F4144 
 8392      5600
 8393              	.LASF8:
 8394 0310 5F5F696E 		.ascii	"__int32_t\000"
 8394      7433325F 
 8394      7400
 8395              	.LASF182:
 8396 031a 4359424C 		.ascii	"CYBLE_GAPP_DISC_PARAM_T\000"
 8396      455F4741 
 8396      50505F44 
 8396      4953435F 
 8396      50415241 
 8397              	.LASF318:
 8398 0332 43794861 		.ascii	"CyHalt\000"
 8398      6C7400
 8399              	.LASF109:
 8400 0339 4359424C 		.ascii	"CYBLE_ERROR_NO_DEVICE_ENTITY\000"
 8400      455F4552 
 8400      524F525F 
 8400      4E4F5F44 
 8400      45564943 
 8401              	.LASF286:
 8402 0356 7764745F 		.ascii	"wdt_trigger_on_flag\000"
 8402      74726967 
 8402      6765725F 
 8402      6F6E5F66 
 8402      6C616700 
 8403              	.LASF141:
 8404 036a 4359424C 		.ascii	"CYBLE_LP_MODE_T\000"
 8404      455F4C50 
 8404      5F4D4F44 
 8404      455F5400 
 8405              	.LASF301:
 8406 037a 43795379 		.ascii	"CySysClkWcoStart\000"
 8406      73436C6B 
 8406      57636F53 
 8406      74617274 
 8406      00
 8407              	.LASF133:
ARM GAS  C:\Users\ramanatg\AppData\Local\Temp\cc9tuycg.s 			page 183


 8408 038b 4359424C 		.ascii	"CYBLE_ERROR_INVALID_STATE\000"
 8408      455F4552 
 8408      524F525F 
 8408      494E5641 
 8408      4C49445F 
 8409              	.LASF264:
 8410 03a5 52656164 		.ascii	"ReadAndApplyConfig\000"
 8410      416E6441 
 8410      70706C79 
 8410      436F6E66 
 8410      696700
 8411              	.LASF39:
 8412 03b8 4359424C 		.ascii	"CYBLE_EVT_GAP_PASSKEY_ENTRY_REQUEST\000"
 8412      455F4556 
 8412      545F4741 
 8412      505F5041 
 8412      53534B45 
 8413              	.LASF94:
 8414 03dc 4359424C 		.ascii	"CYBLE_EVT_L2CAP_CBFC_RX_CREDIT_IND\000"
 8414      455F4556 
 8414      545F4C32 
 8414      4341505F 
 8414      43424643 
 8415              	.LASF214:
 8416 03ff 55524C69 		.ascii	"URLisEnabled\000"
 8416      73456E61 
 8416      626C6564 
 8416      00
 8417              	.LASF227:
 8418 040c 6D6F6465 		.ascii	"mode\000"
 8418      00
 8419              	.LASF322:
 8420 0411 4932434D 		.ascii	"I2CM_I2CMasterClearStatus\000"
 8420      5F493243 
 8420      4D617374 
 8420      6572436C 
 8420      65617253 
 8421              	.LASF167:
 8422 042b 4359424C 		.ascii	"CYBLE_BLESS_PWR_IN_DB_T\000"
 8422      455F424C 
 8422      4553535F 
 8422      5057525F 
 8422      494E5F44 
 8423              	.LASF81:
 8424 0443 4359424C 		.ascii	"CYBLE_EVT_GATTS_HANDLE_VALUE_CNF\000"
 8424      455F4556 
 8424      545F4741 
 8424      5454535F 
 8424      48414E44 
 8425              	.LASF47:
 8426 0464 4359424C 		.ascii	"CYBLE_EVT_GAP_CONNECTION_UPDATE_COMPLETE\000"
 8426      455F4556 
 8426      545F4741 
 8426      505F434F 
 8426      4E4E4543 
 8427              	.LASF312:
 8428 048d 43795379 		.ascii	"CySysClkWriteHfclkDirect\000"
ARM GAS  C:\Users\ramanatg\AppData\Local\Temp\cc9tuycg.s 			page 184


 8428      73436C6B 
 8428      57726974 
 8428      65486663 
 8428      6C6B4469 
 8429              	.LASF260:
 8430 04a6 4C6F7750 		.ascii	"LowPower_WCO_ECO_Start\000"
 8430      6F776572 
 8430      5F57434F 
 8430      5F45434F 
 8430      5F537461 
 8431              	.LASF285:
 8432 04bd 53656E73 		.ascii	"Sensor_Flag\000"
 8432      6F725F46 
 8432      6C616700 
 8433              	.LASF339:
 8434 04c9 443A5C52 		.ascii	"D:\\Research\\GitHubRepos\\smart-sensing\\cypress-s"
 8434      65736561 
 8434      7263685C 
 8434      47697448 
 8434      75625265 
 8435 04f8 6F6C6172 		.ascii	"olar-ble\\Solar_BLE_Sensor\\Solar_BLE_Sensor.cydsn\000"
 8435      2D626C65 
 8435      5C536F6C 
 8435      61725F42 
 8435      4C455F53 
 8436              	.LASF244:
 8437 0529 424C455F 		.ascii	"BLE_AppEventHandler\000"
 8437      41707045 
 8437      76656E74 
 8437      48616E64 
 8437      6C657200 
 8438              	.LASF332:
 8439 053d 43795379 		.ascii	"CySysClkWriteEcoDiv\000"
 8439      73436C6B 
 8439      57726974 
 8439      6545636F 
 8439      44697600 
 8440              	.LASF20:
 8441 0551 75696E74 		.ascii	"uint32_t\000"
 8441      33325F74 
 8441      00
 8442              	.LASF15:
 8443 055a 696E7438 		.ascii	"int8_t\000"
 8443      5F7400
 8444              	.LASF97:
 8445 0561 4359424C 		.ascii	"CYBLE_EVT_PENDING_FLASH_WRITE\000"
 8445      455F4556 
 8445      545F5045 
 8445      4E44494E 
 8445      475F464C 
 8446              	.LASF203:
 8447 057f 4932435F 		.ascii	"I2C_WAIT\000"
 8447      57414954 
 8447      00
 8448              	.LASF299:
 8449 0588 43795379 		.ascii	"CySysClkEcoStop\000"
 8449      73436C6B 
ARM GAS  C:\Users\ramanatg\AppData\Local\Temp\cc9tuycg.s 			page 185


 8449      45636F53 
 8449      746F7000 
 8450              	.LASF308:
 8451 0598 4379426C 		.ascii	"CyBle_EnterLPM\000"
 8451      655F456E 
 8451      7465724C 
 8451      504D00
 8452              	.LASF74:
 8453 05a7 4359424C 		.ascii	"CYBLE_EVT_GATTC_WRITE_RSP\000"
 8453      455F4556 
 8453      545F4741 
 8453      5454435F 
 8453      57524954 
 8454              	.LASF24:
 8455 05c1 666C6F61 		.ascii	"float\000"
 8455      7400
 8456              	.LASF307:
 8457 05c7 43795379 		.ascii	"CySysWdtDisable\000"
 8457      73576474 
 8457      44697361 
 8457      626C6500 
 8458              	.LASF242:
 8459 05d7 6576656E 		.ascii	"event\000"
 8459      7400
 8460              	.LASF35:
 8461 05dd 4359424C 		.ascii	"CYBLE_EVT_STACK_BUSY_STATUS\000"
 8461      455F4556 
 8461      545F5354 
 8461      41434B5F 
 8461      42555359 
 8462              	.LASF88:
 8463 05f9 4359424C 		.ascii	"CYBLE_EVT_L2CAP_COMMAND_REJ\000"
 8463      455F4556 
 8463      545F4C32 
 8463      4341505F 
 8463      434F4D4D 
 8464              	.LASF193:
 8465 0615 4359424C 		.ascii	"CYBLE_CALLBACK_T\000"
 8465      455F4341 
 8465      4C4C4241 
 8465      434B5F54 
 8465      00
 8466              	.LASF17:
 8467 0626 696E7431 		.ascii	"int16_t\000"
 8467      365F7400 
 8468              	.LASF268:
 8469 062e 4346475F 		.ascii	"CFG_interval\000"
 8469      696E7465 
 8469      7276616C 
 8469      00
 8470              	.LASF136:
 8471 063b 4359424C 		.ascii	"CYBLE_BLESS_ACTIVE\000"
 8471      455F424C 
 8471      4553535F 
 8471      41435449 
 8471      564500
 8472              	.LASF267:
ARM GAS  C:\Users\ramanatg\AppData\Local\Temp\cc9tuycg.s 			page 186


 8473 064e 70434647 		.ascii	"pCFG\000"
 8473      00
 8474              	.LASF13:
 8475 0653 6C6F6E67 		.ascii	"long long unsigned int\000"
 8475      206C6F6E 
 8475      6720756E 
 8475      7369676E 
 8475      65642069 
 8476              	.LASF73:
 8477 066a 4359424C 		.ascii	"CYBLE_EVT_GATTS_WRITE_REQ\000"
 8477      455F4556 
 8477      545F4741 
 8477      5454535F 
 8477      57524954 
 8478              	.LASF333:
 8479 0684 5553425F 		.ascii	"USB_Detect_Read\000"
 8479      44657465 
 8479      63745F52 
 8479      65616400 
 8480              	.LASF158:
 8481 0694 4359424C 		.ascii	"CYBLE_LL_PWR_LVL_3_DBM\000"
 8481      455F4C4C 
 8481      5F505752 
 8481      5F4C564C 
 8481      5F335F44 
 8482              	.LASF329:
 8483 06ab 55617274 		.ascii	"UartCmd_ProcessInput\000"
 8483      436D645F 
 8483      50726F63 
 8483      65737349 
 8483      6E707574 
 8484              	.LASF281:
 8485 06c0 44656661 		.ascii	"DefaultBeaconConfig\000"
 8485      756C7442 
 8485      6561636F 
 8485      6E436F6E 
 8485      66696700 
 8486              	.LASF200:
 8487 06d4 4932435F 		.ascii	"I2C_ADV_URL\000"
 8487      4144565F 
 8487      55524C00 
 8488              	.LASF6:
 8489 06e0 5F5F7569 		.ascii	"__uint16_t\000"
 8489      6E743136 
 8489      5F7400
 8490              	.LASF174:
 8491 06eb 61647649 		.ascii	"advIntvMin\000"
 8491      6E74764D 
 8491      696E00
 8492              	.LASF42:
 8493 06f6 4359424C 		.ascii	"CYBLE_EVT_GAP_AUTH_FAILED\000"
 8493      455F4556 
 8493      545F4741 
 8493      505F4155 
 8493      54485F46 
 8494              	.LASF171:
 8495 0710 4359424C 		.ascii	"CYBLE_GAPP_NON_CONNECTABLE_UNDIRECTED_ADV\000"
ARM GAS  C:\Users\ramanatg\AppData\Local\Temp\cc9tuycg.s 			page 187


 8495      455F4741 
 8495      50505F4E 
 8495      4F4E5F43 
 8495      4F4E4E45 
 8496              	.LASF292:
 8497 073a 5744545F 		.ascii	"WDT_Handler\000"
 8497      48616E64 
 8497      6C657200 
 8498              	.LASF68:
 8499 0746 4359424C 		.ascii	"CYBLE_EVT_GATTC_FIND_INFO_RSP\000"
 8499      455F4556 
 8499      545F4741 
 8499      5454435F 
 8499      46494E44 
 8500              	.LASF144:
 8501 0764 4359424C 		.ascii	"CYBLE_BLESS_STATE_SLEEP\000"
 8501      455F424C 
 8501      4553535F 
 8501      53544154 
 8501      455F534C 
 8502              	.LASF238:
 8503 077c 76657273 		.ascii	"version_minor2\000"
 8503      696F6E5F 
 8503      6D696E6F 
 8503      723200
 8504              	.LASF274:
 8505 078b 45535F53 		.ascii	"ES_SEC_CNT\000"
 8505      45435F43 
 8505      4E5400
 8506              	.LASF69:
 8507 0796 4359424C 		.ascii	"CYBLE_EVT_GATTC_FIND_BY_TYPE_VALUE_RSP\000"
 8507      455F4556 
 8507      545F4741 
 8507      5454435F 
 8507      46494E44 
 8508              	.LASF302:
 8509 07bd 43795379 		.ascii	"CySysPmDeepSleep\000"
 8509      73506D44 
 8509      65657053 
 8509      6C656570 
 8509      00
 8510              	.LASF236:
 8511 07ce 5458506F 		.ascii	"TXPowerMode\000"
 8511      7765724D 
 8511      6F646500 
 8512              	.LASF77:
 8513 07da 4359424C 		.ascii	"CYBLE_EVT_GATTS_EXEC_WRITE_REQ\000"
 8513      455F4556 
 8513      545F4741 
 8513      5454535F 
 8513      45584543 
 8514              	.LASF311:
 8515 07f9 4379426C 		.ascii	"CyBle_GetBleSsState\000"
 8515      655F4765 
 8515      74426C65 
 8515      53735374 
 8515      61746500 
ARM GAS  C:\Users\ramanatg\AppData\Local\Temp\cc9tuycg.s 			page 188


 8516              	.LASF48:
 8517 080d 4359424C 		.ascii	"CYBLE_EVT_GAPC_SCAN_START_STOP\000"
 8517      455F4556 
 8517      545F4741 
 8517      50435F53 
 8517      43414E5F 
 8518              	.LASF78:
 8519 082c 4359424C 		.ascii	"CYBLE_EVT_GATTC_EXEC_WRITE_RSP\000"
 8519      455F4556 
 8519      545F4741 
 8519      5454435F 
 8519      45584543 
 8520              	.LASF157:
 8521 084b 4359424C 		.ascii	"CYBLE_LL_PWR_LVL_0_DBM\000"
 8521      455F4C4C 
 8521      5F505752 
 8521      5F4C564C 
 8521      5F305F44 
 8522              	.LASF84:
 8523 0862 4359424C 		.ascii	"CYBLE_EVT_GATTS_READ_CHAR_VAL_ACCESS_REQ\000"
 8523      455F4556 
 8523      545F4741 
 8523      5454535F 
 8523      52454144 
 8524              	.LASF288:
 8525 088b 43795379 		.ascii	"CySysWdtClearInterrupt\000"
 8525      73576474 
 8525      436C6561 
 8525      72496E74 
 8525      65727275 
 8526              	.LASF41:
 8527 08a2 4359424C 		.ascii	"CYBLE_EVT_GAP_AUTH_COMPLETE\000"
 8527      455F4556 
 8527      545F4741 
 8527      505F4155 
 8527      54485F43 
 8528              	.LASF113:
 8529 08be 4359424C 		.ascii	"CYBLE_ERROR_BT_ON_NOT_COMPLETED\000"
 8529      455F4552 
 8529      524F525F 
 8529      42545F4F 
 8529      4E5F4E4F 
 8530              	.LASF131:
 8531 08de 4359424C 		.ascii	"CYBLE_ERROR_IND_DISABLED\000"
 8531      455F4552 
 8531      524F525F 
 8531      494E445F 
 8531      44495341 
 8532              	.LASF25:
 8533 08f7 646F7562 		.ascii	"double\000"
 8533      6C6500
 8534              	.LASF65:
 8535 08fe 4359424C 		.ascii	"CYBLE_EVT_GATTC_XCHNG_MTU_RSP\000"
 8535      455F4556 
 8535      545F4741 
 8535      5454435F 
 8535      5843484E 
ARM GAS  C:\Users\ramanatg\AppData\Local\Temp\cc9tuycg.s 			page 189


 8536              	.LASF234:
 8537 091c 55524C5F 		.ascii	"URL_Flags\000"
 8537      466C6167 
 8537      7300
 8538              	.LASF222:
 8539 0926 69747276 		.ascii	"itrvl\000"
 8539      6C00
 8540              	.LASF100:
 8541 092c 4359424C 		.ascii	"CYBLE_EVT_FLASH_CORRUPT\000"
 8541      455F4556 
 8541      545F464C 
 8541      4153485F 
 8541      434F5252 
 8542              	.LASF258:
 8543 0944 696E7453 		.ascii	"intStatus\000"
 8543      74617475 
 8543      7300
 8544              	.LASF230:
 8545 094e 4C6F636B 		.ascii	"LockState\000"
 8545      53746174 
 8545      6500
 8546              	.LASF219:
 8547 0958 75756964 		.ascii	"uuid\000"
 8547      00
 8548              	.LASF209:
 8549 095d 42454143 		.ascii	"BEACON_URL\000"
 8549      4F4E5F55 
 8549      524C00
 8550              	.LASF217:
 8551 0968 45446672 		.ascii	"EDframeFlag\000"
 8551      616D6546 
 8551      6C616700 
 8552              	.LASF71:
 8553 0974 4359424C 		.ascii	"CYBLE_EVT_GATTC_READ_BLOB_RSP\000"
 8553      455F4556 
 8553      545F4741 
 8553      5454435F 
 8553      52454144 
 8554              	.LASF107:
 8555 0992 4359424C 		.ascii	"CYBLE_ERROR_OOB_NOT_AVAILABLE\000"
 8555      455F4552 
 8555      524F525F 
 8555      4F4F425F 
 8555      4E4F545F 
 8556              	.LASF207:
 8557 09b0 42454143 		.ascii	"BEACON_RUN\000"
 8557      4F4E5F52 
 8557      554E00
 8558              	.LASF87:
 8559 09bb 4359424C 		.ascii	"CYBLE_EVT_L2CAP_CONN_PARAM_UPDATE_RSP\000"
 8559      455F4556 
 8559      545F4C32 
 8559      4341505F 
 8559      434F4E4E 
 8560              	.LASF40:
 8561 09e1 4359424C 		.ascii	"CYBLE_EVT_GAP_PASSKEY_DISPLAY_REQUEST\000"
 8561      455F4556 
ARM GAS  C:\Users\ramanatg\AppData\Local\Temp\cc9tuycg.s 			page 190


 8561      545F4741 
 8561      505F5041 
 8561      53534B45 
 8562              	.LASF90:
 8563 0a07 4359424C 		.ascii	"CYBLE_EVT_L2CAP_CBFC_CONN_CNF\000"
 8563      455F4556 
 8563      545F4C32 
 8563      4341505F 
 8563      43424643 
 8564              	.LASF168:
 8565 0a25 4359424C 		.ascii	"CYBLE_GAPP_CONNECTABLE_UNDIRECTED_ADV\000"
 8565      455F4741 
 8565      50505F43 
 8565      4F4E4E45 
 8565      43544142 
 8566              	.LASF330:
 8567 0a4b 4379426C 		.ascii	"CyBle_Stop\000"
 8567      655F5374 
 8567      6F7000
 8568              	.LASF172:
 8569 0a56 4359424C 		.ascii	"CYBLE_GAPP_CONNECTABLE_LOW_DC_DIRECTED_ADV\000"
 8569      455F4741 
 8569      50505F43 
 8569      4F4E4E45 
 8569      43544142 
 8570              	.LASF226:
 8571 0a81 73656E73 		.ascii	"sensor\000"
 8571      6F7200
 8572              	.LASF320:
 8573 0a88 4932434D 		.ascii	"I2CM_Start\000"
 8573      5F537461 
 8573      727400
 8574              	.LASF248:
 8575 0a93 74656D70 		.ascii	"temperature\000"
 8575      65726174 
 8575      75726500 
 8576              	.LASF105:
 8577 0a9f 4359424C 		.ascii	"CYBLE_ERROR_MEMORY_ALLOCATION_FAILED\000"
 8577      455F4552 
 8577      524F525F 
 8577      4D454D4F 
 8577      52595F41 
 8578              	.LASF282:
 8579 0ac4 72657374 		.ascii	"restartadvertisement\000"
 8579      61727461 
 8579      64766572 
 8579      74697365 
 8579      6D656E74 
 8580              	.LASF34:
 8581 0ad9 4359424C 		.ascii	"CYBLE_EVT_HCI_STATUS\000"
 8581      455F4556 
 8581      545F4843 
 8581      495F5354 
 8581      41545553 
 8582              	.LASF173:
 8583 0aee 4359424C 		.ascii	"CYBLE_GAPP_ADV_T\000"
 8583      455F4741 
ARM GAS  C:\Users\ramanatg\AppData\Local\Temp\cc9tuycg.s 			page 191


 8583      50505F41 
 8583      44565F54 
 8583      00
 8584              	.LASF114:
 8585 0aff 4359424C 		.ascii	"CYBLE_ERROR_SEC_FAILED\000"
 8585      455F4552 
 8585      524F525F 
 8585      5345435F 
 8585      4641494C 
 8586              	.LASF26:
 8587 0b16 63686172 		.ascii	"char\000"
 8587      00
 8588              	.LASF67:
 8589 0b1b 4359424C 		.ascii	"CYBLE_EVT_GATTC_READ_BY_TYPE_RSP\000"
 8589      455F4556 
 8589      545F4741 
 8589      5454435F 
 8589      52454144 
 8590              	.LASF316:
 8591 0b3c 43794578 		.ascii	"CyExitCriticalSection\000"
 8591      69744372 
 8591      69746963 
 8591      616C5365 
 8591      6374696F 
 8592              	.LASF123:
 8593 0b52 4359424C 		.ascii	"CYBLE_ERROR_FLASH_WRITE_NOT_PERMITED\000"
 8593      455F4552 
 8593      524F525F 
 8593      464C4153 
 8593      485F5752 
 8594              	.LASF202:
 8595 0b77 4932435F 		.ascii	"I2C_STOP_ADV\000"
 8595      53544F50 
 8595      5F414456 
 8595      00
 8596              	.LASF313:
 8597 0b84 43795379 		.ascii	"CySysClkImoStop\000"
 8597      73436C6B 
 8597      496D6F53 
 8597      746F7000 
 8598              	.LASF187:
 8599 0b94 7363616E 		.ascii	"scanRspDataLen\000"
 8599      52737044 
 8599      6174614C 
 8599      656E00
 8600              	.LASF106:
 8601 0ba3 4359424C 		.ascii	"CYBLE_ERROR_INSUFFICIENT_RESOURCES\000"
 8601      455F4552 
 8601      524F525F 
 8601      494E5355 
 8601      46464943 
 8602              	.LASF177:
 8603 0bc6 6F776E41 		.ascii	"ownAddrType\000"
 8603      64647254 
 8603      79706500 
 8604              	.LASF155:
 8605 0bd2 4359424C 		.ascii	"CYBLE_LL_PWR_LVL_NEG_2_DBM\000"
ARM GAS  C:\Users\ramanatg\AppData\Local\Temp\cc9tuycg.s 			page 192


 8605      455F4C4C 
 8605      5F505752 
 8605      5F4C564C 
 8605      5F4E4547 
 8606              	.LASF124:
 8607 0bed 4359424C 		.ascii	"CYBLE_ERROR_MIC_AUTH_FAILED\000"
 8607      455F4552 
 8607      524F525F 
 8607      4D49435F 
 8607      41555448 
 8608              	.LASF197:
 8609 0c09 4932435F 		.ascii	"I2C_READ_TEMP_SEND_CMD\000"
 8609      52454144 
 8609      5F54454D 
 8609      505F5345 
 8609      4E445F43 
 8610              	.LASF183:
 8611 0c20 61647644 		.ascii	"advData\000"
 8611      61746100 
 8612              	.LASF31:
 8613 0c28 4359424C 		.ascii	"CYBLE_EVT_STACK_ON\000"
 8613      455F4556 
 8613      545F5354 
 8613      41434B5F 
 8613      4F4E00
 8614              	.LASF22:
 8615 0c3b 75696E74 		.ascii	"uint16\000"
 8615      313600
 8616              	.LASF12:
 8617 0c42 6C6F6E67 		.ascii	"long long int\000"
 8617      206C6F6E 
 8617      6720696E 
 8617      7400
 8618              	.LASF161:
 8619 0c50 4359424C 		.ascii	"CYBLE_LL_ADV_CH_TYPE\000"
 8619      455F4C4C 
 8619      5F414456 
 8619      5F43485F 
 8619      54595045 
 8620              	.LASF86:
 8621 0c65 4359424C 		.ascii	"CYBLE_EVT_L2CAP_CONN_PARAM_UPDATE_REQ\000"
 8621      455F4556 
 8621      545F4C32 
 8621      4341505F 
 8621      434F4E4E 
 8622              	.LASF16:
 8623 0c8b 75696E74 		.ascii	"uint8_t\000"
 8623      385F7400 
 8624              	.LASF122:
 8625 0c93 4359424C 		.ascii	"CYBLE_ERROR_DEVICE_ALREADY_EXISTS\000"
 8625      455F4552 
 8625      524F525F 
 8625      44455649 
 8625      43455F41 
 8626              	.LASF270:
 8627 0cb5 5549445F 		.ascii	"UID_FrameBuffer\000"
 8627      4672616D 
ARM GAS  C:\Users\ramanatg\AppData\Local\Temp\cc9tuycg.s 			page 193


 8627      65427566 
 8627      66657200 
 8628              	.LASF162:
 8629 0cc5 4359424C 		.ascii	"CYBLE_LL_CONN_CH_TYPE\000"
 8629      455F4C4C 
 8629      5F434F4E 
 8629      4E5F4348 
 8629      5F545950 
 8630              	.LASF54:
 8631 0cdb 4359424C 		.ascii	"CYBLE_EVT_GAP_ENHANCE_CONN_COMPLETE\000"
 8631      455F4556 
 8631      545F4741 
 8631      505F454E 
 8631      48414E43 
 8632              	.LASF262:
 8633 0cff 50726F63 		.ascii	"ProcessBeaconEvents\000"
 8633      65737342 
 8633      6561636F 
 8633      6E457665 
 8633      6E747300 
 8634              	.LASF130:
 8635 0d13 4359424C 		.ascii	"CYBLE_ERROR_NTF_DISABLED\000"
 8635      455F4552 
 8635      524F525F 
 8635      4E54465F 
 8635      44495341 
 8636              	.LASF134:
 8637 0d2c 4359424C 		.ascii	"CYBLE_ERROR_STACK_BUSY\000"
 8637      455F4552 
 8637      524F525F 
 8637      53544143 
 8637      4B5F4255 
 8638              	.LASF231:
 8639 0d43 6C6F636B 		.ascii	"lock\000"
 8639      00
 8640              	.LASF83:
 8641 0d48 4359424C 		.ascii	"CYBLE_EVT_GATTC_STOP_CMD_COMPLETE\000"
 8641      455F4556 
 8641      545F4741 
 8641      5454435F 
 8641      53544F50 
 8642              	.LASF263:
 8643 0d6a 61706952 		.ascii	"apiResult\000"
 8643      6573756C 
 8643      7400
 8644              	.LASF290:
 8645 0d74 42656163 		.ascii	"Beacon_GappStartAdvertisement\000"
 8645      6F6E5F47 
 8645      61707053 
 8645      74617274 
 8645      41647665 
 8646              	.LASF225:
 8647 0d92 72737369 		.ascii	"rssi\000"
 8647      00
 8648              	.LASF147:
 8649 0d97 4359424C 		.ascii	"CYBLE_BLESS_STATE_DEEPSLEEP\000"
 8649      455F424C 
ARM GAS  C:\Users\ramanatg\AppData\Local\Temp\cc9tuycg.s 			page 194


 8649      4553535F 
 8649      53544154 
 8649      455F4445 
 8650              	.LASF61:
 8651 0db3 4359424C 		.ascii	"CYBLE_EVT_GATTC_ERROR_RSP\000"
 8651      455F4556 
 8651      545F4741 
 8651      5454435F 
 8651      4552524F 
 8652              	.LASF50:
 8653 0dcd 4359424C 		.ascii	"CYBLE_EVT_GAP_NUMERIC_COMPARISON_REQUEST\000"
 8653      455F4556 
 8653      545F4741 
 8653      505F4E55 
 8653      4D455249 
 8654              	.LASF121:
 8655 0df6 4359424C 		.ascii	"CYBLE_ERROR_GATT_DB_INVALID_ATTR_HANDLE\000"
 8655      455F4552 
 8655      524F525F 
 8655      47415454 
 8655      5F44425F 
 8656              	.LASF233:
 8657 0e1e 5552495F 		.ascii	"URI_Data\000"
 8657      44617461 
 8657      00
 8658              	.LASF252:
 8659 0e27 4E65774C 		.ascii	"NewLevel\000"
 8659      6576656C 
 8659      00
 8660              	.LASF4:
 8661 0e30 5F5F696E 		.ascii	"__int16_t\000"
 8661      7431365F 
 8661      7400
 8662              	.LASF129:
 8663 0e3a 4359424C 		.ascii	"CYBLE_ERROR_MAX\000"
 8663      455F4552 
 8663      524F525F 
 8663      4D415800 
 8664              	.LASF211:
 8665 0e4a 42454143 		.ascii	"BEACON_TLMCNT\000"
 8665      4F4E5F54 
 8665      4C4D434E 
 8665      5400
 8666              	.LASF259:
 8667 0e58 6D617463 		.ascii	"match\000"
 8667      6800
 8668              	.LASF206:
 8669 0e5e 42454143 		.ascii	"BEACON_START\000"
 8669      4F4E5F53 
 8669      54415254 
 8669      00
 8670              	.LASF118:
 8671 0e6b 4359424C 		.ascii	"CYBLE_ERROR_L2CAP_CONNECTION_ENTITY_NOT_FOUND\000"
 8671      455F4552 
 8671      524F525F 
 8671      4C324341 
 8671      505F434F 
ARM GAS  C:\Users\ramanatg\AppData\Local\Temp\cc9tuycg.s 			page 195


 8672              	.LASF325:
 8673 0e99 436F6E66 		.ascii	"ConfigRW_CheckVersion\000"
 8673      69675257 
 8673      5F436865 
 8673      636B5665 
 8673      7273696F 
 8674              	.LASF240:
 8675 0eaf 44617461 		.ascii	"DataFlag_End\000"
 8675      466C6167 
 8675      5F456E64 
 8675      00
 8676              	.LASF28:
 8677 0ebc 63796973 		.ascii	"cyisraddress\000"
 8677      72616464 
 8677      72657373 
 8677      00
 8678              	.LASF294:
 8679 0ec9 43795379 		.ascii	"CySysWdtSetMode\000"
 8679      73576474 
 8679      5365744D 
 8679      6F646500 
 8680              	.LASF189:
 8681 0ed9 64697363 		.ascii	"discMode\000"
 8681      4D6F6465 
 8681      00
 8682              	.LASF115:
 8683 0ee2 4359424C 		.ascii	"CYBLE_ERROR_L2CAP_PSM_WRONG_ENCODING\000"
 8683      455F4552 
 8683      524F525F 
 8683      4C324341 
 8683      505F5053 
 8684              	.LASF251:
 8685 0f07 55706461 		.ascii	"UpdateTxPowerLeverl\000"
 8685      74655478 
 8685      506F7765 
 8685      724C6576 
 8685      65726C00 
 8686              	.LASF43:
 8687 0f1b 4359424C 		.ascii	"CYBLE_EVT_GAPP_ADVERTISEMENT_START_STOP\000"
 8687      455F4556 
 8687      545F4741 
 8687      50505F41 
 8687      44564552 
 8688              	.LASF239:
 8689 0f43 76657273 		.ascii	"version_major_minor1\000"
 8689      696F6E5F 
 8689      6D616A6F 
 8689      725F6D69 
 8689      6E6F7231 
 8690              	.LASF221:
 8691 0f58 6D696E6F 		.ascii	"minor\000"
 8691      7200
 8692              	.LASF306:
 8693 0f5e 43795379 		.ascii	"CySysClkEcoStart\000"
 8693      73436C6B 
 8693      45636F53 
 8693      74617274 
ARM GAS  C:\Users\ramanatg\AppData\Local\Temp\cc9tuycg.s 			page 196


 8693      00
 8694              	.LASF23:
 8695 0f6f 75696E74 		.ascii	"uint32\000"
 8695      333200
 8696              	.LASF253:
 8697 0f76 745F7077 		.ascii	"t_pwr\000"
 8697      7200
 8698              	.LASF210:
 8699 0f7c 42454143 		.ascii	"BEACON_TLM\000"
 8699      4F4E5F54 
 8699      4C4D00
 8700              	.LASF93:
 8701 0f87 4359424C 		.ascii	"CYBLE_EVT_L2CAP_CBFC_DATA_READ\000"
 8701      455F4556 
 8701      545F4C32 
 8701      4341505F 
 8701      43424643 
 8702              	.LASF223:
 8703 0fa6 636F6D49 		.ascii	"comID\000"
 8703      4400
 8704              	.LASF52:
 8705 0fac 4359424C 		.ascii	"CYBLE_EVT_GAP_OOB_GENERATED_NOTIFICATION\000"
 8705      455F4556 
 8705      545F4741 
 8705      505F4F4F 
 8705      425F4745 
 8706              	.LASF140:
 8707 0fd5 4359424C 		.ascii	"CYBLE_BLESS_INVALID\000"
 8707      455F424C 
 8707      4553535F 
 8707      494E5641 
 8707      4C494400 
 8708              	.LASF99:
 8709 0fe9 4359424C 		.ascii	"CYBLE_EVT_HCI_PKT\000"
 8709      455F4556 
 8709      545F4843 
 8709      495F504B 
 8709      5400
 8710              	.LASF135:
 8711 0ffb 4359424C 		.ascii	"CYBLE_API_RESULT_T\000"
 8711      455F4150 
 8711      495F5245 
 8711      53554C54 
 8711      5F5400
 8712              	.LASF117:
 8713 100e 4359424C 		.ascii	"CYBLE_ERROR_L2CAP_PSM_NOT_REGISTERED\000"
 8713      455F4552 
 8713      524F525F 
 8713      4C324341 
 8713      505F5053 
 8714              	.LASF293:
 8715 1033 43795379 		.ascii	"CySysWdtUnlock\000"
 8715      73576474 
 8715      556E6C6F 
 8715      636B00
 8716              	.LASF85:
 8717 1042 4359424C 		.ascii	"CYBLE_EVT_GATTC_LONG_PROCEDURE_END\000"
ARM GAS  C:\Users\ramanatg\AppData\Local\Temp\cc9tuycg.s 			page 197


 8717      455F4556 
 8717      545F4741 
 8717      5454435F 
 8717      4C4F4E47 
 8718              	.LASF295:
 8719 1065 43795379 		.ascii	"CySysWdtSetClearOnMatch\000"
 8719      73576474 
 8719      53657443 
 8719      6C656172 
 8719      4F6E4D61 
 8720              	.LASF327:
 8721 107d 45646479 		.ascii	"EddystoneURL_Config_Init\000"
 8721      73746F6E 
 8721      6555524C 
 8721      5F436F6E 
 8721      6669675F 
 8722              	.LASF315:
 8723 1096 43795379 		.ascii	"CySysClkImoStart\000"
 8723      73436C6B 
 8723      496D6F53 
 8723      74617274 
 8723      00
 8724              	.LASF181:
 8725 10a7 61647646 		.ascii	"advFilterPolicy\000"
 8725      696C7465 
 8725      72506F6C 
 8725      69637900 
 8726              	.LASF0:
 8727 10b7 5F5F696E 		.ascii	"__int8_t\000"
 8727      74385F74 
 8727      00
 8728              	.LASF56:
 8729 10c0 4359424C 		.ascii	"CYBLE_EVT_GAP_SMP_NEGOTIATED_AUTH_INFO\000"
 8729      455F4556 
 8729      545F4741 
 8729      505F534D 
 8729      505F4E45 
 8730              	.LASF166:
 8731 10e7 626C6553 		.ascii	"bleSsChId\000"
 8731      73436849 
 8731      6400
 8732              	.LASF303:
 8733 10f1 43795379 		.ascii	"CySysClkWcoSetPowerMode\000"
 8733      73436C6B 
 8733      57636F53 
 8733      6574506F 
 8733      7765724D 
 8734              	.LASF235:
 8735 1109 4164765F 		.ascii	"Adv_TXPowerLevels\000"
 8735      5458506F 
 8735      7765724C 
 8735      6576656C 
 8735      7300
 8736              	.LASF272:
 8737 111b 44656661 		.ascii	"DefaultTLMframe\000"
 8737      756C7454 
 8737      4C4D6672 
ARM GAS  C:\Users\ramanatg\AppData\Local\Temp\cc9tuycg.s 			page 198


 8737      616D6500 
 8738              	.LASF18:
 8739 112b 75696E74 		.ascii	"uint16_t\000"
 8739      31365F74 
 8739      00
 8740              	.LASF237:
 8741 1134 55524C50 		.ascii	"URLPeriod\000"
 8741      6572696F 
 8741      6400
 8742              	.LASF80:
 8743 113e 4359424C 		.ascii	"CYBLE_EVT_GATTC_HANDLE_VALUE_IND\000"
 8743      455F4556 
 8743      545F4741 
 8743      5454435F 
 8743      48414E44 
 8744              	.LASF191:
 8745 115f 61647654 		.ascii	"advTo\000"
 8745      6F00
 8746              	.LASF112:
 8747 1165 4359424C 		.ascii	"CYBLE_ERROR_TX_POWER_READ\000"
 8747      455F4552 
 8747      524F525F 
 8747      54585F50 
 8747      4F574552 
 8748              	.LASF149:
 8749 117f 4359424C 		.ascii	"CYBLE_BLESS_STATE_INVALID\000"
 8749      455F424C 
 8749      4553535F 
 8749      53544154 
 8749      455F494E 
 8750              	.LASF337:
 8751 1199 474E5520 		.ascii	"GNU C 4.9.3 20150303 (release) [ARM/embedded-4_9-br"
 8751      4320342E 
 8751      392E3320 
 8751      32303135 
 8751      30333033 
 8752 11cc 616E6368 		.ascii	"anch revision 221220] -mcpu=cortex-m0 -mthumb -g -O"
 8752      20726576 
 8752      6973696F 
 8752      6E203232 
 8752      31323230 
 8753 11ff 33202D66 		.ascii	"3 -ffunction-sections -ffat-lto-objects\000"
 8753      66756E63 
 8753      74696F6E 
 8753      2D736563 
 8753      74696F6E 
 8754              	.LASF110:
 8755 1227 4359424C 		.ascii	"CYBLE_ERROR_REPEATED_ATTEMPTS\000"
 8755      455F4552 
 8755      524F525F 
 8755      52455045 
 8755      41544544 
 8756              	.LASF127:
 8757 1245 4359424C 		.ascii	"CYBLE_ERROR_FLASH_WRITE\000"
 8757      455F4552 
 8757      524F525F 
 8757      464C4153 
ARM GAS  C:\Users\ramanatg\AppData\Local\Temp\cc9tuycg.s 			page 199


 8757      485F5752 
 8758              	.LASF164:
 8759 125d 4359424C 		.ascii	"CYBLE_BLESS_PHY_CH_GRP_ID_T\000"
 8759      455F424C 
 8759      4553535F 
 8759      5048595F 
 8759      43485F47 
 8760              	.LASF32:
 8761 1279 4359424C 		.ascii	"CYBLE_EVT_TIMEOUT\000"
 8761      455F4556 
 8761      545F5449 
 8761      4D454F55 
 8761      5400
 8762              	.LASF314:
 8763 128b 43795379 		.ascii	"CySysPmSleep\000"
 8763      73506D53 
 8763      6C656570 
 8763      00
 8764              	.LASF46:
 8765 1298 4359424C 		.ascii	"CYBLE_EVT_GAP_ENCRYPT_CHANGE\000"
 8765      455F4556 
 8765      545F4741 
 8765      505F454E 
 8765      43525950 
 8766              	.LASF297:
 8767 12b5 43795379 		.ascii	"CySysWdtEnable\000"
 8767      73576474 
 8767      456E6162 
 8767      6C6500
 8768              	.LASF126:
 8769 12c4 4359424C 		.ascii	"CYBLE_ERROR_UNSUPPORTED_FEATURE_OR_PARAMETER_VALUE\000"
 8769      455F4552 
 8769      524F525F 
 8769      554E5355 
 8769      50504F52 
 8770              	.LASF132:
 8771 12f7 4359424C 		.ascii	"CYBLE_ERROR_CHAR_IS_NOT_DISCOVERED\000"
 8771      455F4552 
 8771      524F525F 
 8771      43484152 
 8771      5F49535F 
 8772              	.LASF241:
 8773 131a 42656163 		.ascii	"BeaconConfig\000"
 8773      6F6E436F 
 8773      6E666967 
 8773      00
 8774              	.LASF328:
 8775 1327 4379426C 		.ascii	"CyBle_ProcessEvents\000"
 8775      655F5072 
 8775      6F636573 
 8775      73457665 
 8775      6E747300 
 8776              	.LASF287:
 8777 133b 62656163 		.ascii	"beacon_state\000"
 8777      6F6E5F73 
 8777      74617465 
 8777      00
ARM GAS  C:\Users\ramanatg\AppData\Local\Temp\cc9tuycg.s 			page 200


 8778              	.LASF5:
 8779 1348 73686F72 		.ascii	"short int\000"
 8779      7420696E 
 8779      7400
 8780              	.LASF256:
 8781 1352 70777253 		.ascii	"pwrState\000"
 8781      74617465 
 8781      00
 8782              	.LASF160:
 8783 135b 4359424C 		.ascii	"CYBLE_BLESS_PWR_LVL_T\000"
 8783      455F424C 
 8783      4553535F 
 8783      5057525F 
 8783      4C564C5F 
 8784              	.LASF9:
 8785 1371 6C6F6E67 		.ascii	"long int\000"
 8785      20696E74 
 8785      00
 8786              	.LASF190:
 8787 137a 61647650 		.ascii	"advParam\000"
 8787      6172616D 
 8787      00
 8788              	.LASF53:
 8789 1383 4359424C 		.ascii	"CYBLE_EVT_GAP_DATA_LENGTH_CHANGE\000"
 8789      455F4556 
 8789      545F4741 
 8789      505F4441 
 8789      54415F4C 
 8790              	.LASF323:
 8791 13a4 4932434D 		.ascii	"I2CM_I2CMasterReadBuf\000"
 8791      5F493243 
 8791      4D617374 
 8791      65725265 
 8791      61644275 
 8792              	.LASF62:
 8793 13ba 4359424C 		.ascii	"CYBLE_EVT_GATT_CONNECT_IND\000"
 8793      455F4556 
 8793      545F4741 
 8793      54545F43 
 8793      4F4E4E45 
 8794              	.LASF101:
 8795 13d5 4359424C 		.ascii	"CYBLE_EVT_MAX\000"
 8795      455F4556 
 8795      545F4D41 
 8795      5800
 8796              	.LASF324:
 8797 13e3 4379426C 		.ascii	"CyBle_GapUpdateAdvData\000"
 8797      655F4761 
 8797      70557064 
 8797      61746541 
 8797      64764461 
 8798              	.LASF72:
 8799 13fa 4359424C 		.ascii	"CYBLE_EVT_GATTC_READ_MULTI_RSP\000"
 8799      455F4556 
 8799      545F4741 
 8799      5454435F 
 8799      52454144 
ARM GAS  C:\Users\ramanatg\AppData\Local\Temp\cc9tuycg.s 			page 201


 8800              	.LASF296:
 8801 1419 43795379 		.ascii	"CySysWdtSetMatch\000"
 8801      73576474 
 8801      5365744D 
 8801      61746368 
 8801      00
 8802              	.LASF335:
 8803 142a 4932434D 		.ascii	"I2CM_Wakeup\000"
 8803      5F57616B 
 8803      65757000 
 8804              	.LASF91:
 8805 1436 4359424C 		.ascii	"CYBLE_EVT_L2CAP_CBFC_DISCONN_IND\000"
 8805      455F4556 
 8805      545F4C32 
 8805      4341505F 
 8805      43424643 
 8806              	.LASF247:
 8807 1457 74656D70 		.ascii	"temp\000"
 8807      00
 8808              	.LASF145:
 8809 145c 4359424C 		.ascii	"CYBLE_BLESS_STATE_ECO_ON\000"
 8809      455F424C 
 8809      4553535F 
 8809      53544154 
 8809      455F4543 
 8810              	.LASF30:
 8811 1475 4359424C 		.ascii	"CYBLE_EVT_HOST_INVALID\000"
 8811      455F4556 
 8811      545F484F 
 8811      53545F49 
 8811      4E56414C 
 8812              	.LASF246:
 8813 148c 4E657745 		.ascii	"NewEdFrame\000"
 8813      64467261 
 8813      6D6500
 8814              	.LASF103:
 8815 1497 4359424C 		.ascii	"CYBLE_ERROR_INVALID_PARAMETER\000"
 8815      455F4552 
 8815      524F525F 
 8815      494E5641 
 8815      4C49445F 
 8816              	.LASF37:
 8817 14b5 4359424C 		.ascii	"CYBLE_EVT_GAPC_SCAN_PROGRESS_RESULT\000"
 8817      455F4556 
 8817      545F4741 
 8817      50435F53 
 8817      43414E5F 
 8818              	.LASF138:
 8819 14d9 4359424C 		.ascii	"CYBLE_BLESS_DEEPSLEEP\000"
 8819      455F424C 
 8819      4553535F 
 8819      44454550 
 8819      534C4545 
 8820              	.LASF55:
 8821 14ef 4359424C 		.ascii	"CYBLE_EVT_GAPC_DIRECT_ADV_REPORT\000"
 8821      455F4556 
 8821      545F4741 
ARM GAS  C:\Users\ramanatg\AppData\Local\Temp\cc9tuycg.s 			page 202


 8821      50435F44 
 8821      49524543 
 8822              	.LASF66:
 8823 1510 4359424C 		.ascii	"CYBLE_EVT_GATTC_READ_BY_GROUP_TYPE_RSP\000"
 8823      455F4556 
 8823      545F4741 
 8823      5454435F 
 8823      52454144 
 8824              	.LASF49:
 8825 1537 4359424C 		.ascii	"CYBLE_EVT_GAP_KEYINFO_EXCHNGE_CMPLT\000"
 8825      455F4556 
 8825      545F4741 
 8825      505F4B45 
 8825      59494E46 
 8826              	.LASF148:
 8827 155b 4359424C 		.ascii	"CYBLE_BLESS_STATE_HIBERNATE\000"
 8827      455F424C 
 8827      4553535F 
 8827      53544154 
 8827      455F4849 
 8828              	.LASF119:
 8829 1577 4359424C 		.ascii	"CYBLE_ERROR_L2CAP_CHANNEL_NOT_FOUND\000"
 8829      455F4552 
 8829      524F525F 
 8829      4C324341 
 8829      505F4348 
 8830              	.LASF1:
 8831 159b 5F5F7569 		.ascii	"__uint8_t\000"
 8831      6E74385F 
 8831      7400
 8832              	.LASF45:
 8833 15a5 4359424C 		.ascii	"CYBLE_EVT_GAP_DEVICE_DISCONNECTED\000"
 8833      455F4556 
 8833      545F4741 
 8833      505F4445 
 8833      56494345 
 8834              	.LASF151:
 8835 15c7 4359424C 		.ascii	"CYBLE_LL_PWR_LVL_NEG_18_DBM\000"
 8835      455F4C4C 
 8835      5F505752 
 8835      5F4C564C 
 8835      5F4E4547 
 8836              	.LASF175:
 8837 15e3 61647649 		.ascii	"advIntvMax\000"
 8837      6E74764D 
 8837      617800
 8838              	.LASF304:
 8839 15ee 43795379 		.ascii	"CySysClkSetLfclkSource\000"
 8839      73436C6B 
 8839      5365744C 
 8839      66636C6B 
 8839      536F7572 
 8840              	.LASF338:
 8841 1605 6D61696E 		.ascii	"main.c\000"
 8841      2E6300
 8842              	.LASF208:
 8843 160c 42454143 		.ascii	"BEACON_UID\000"
ARM GAS  C:\Users\ramanatg\AppData\Local\Temp\cc9tuycg.s 			page 203


 8843      4F4E5F55 
 8843      494400
 8844              	.LASF185:
 8845 1617 4359424C 		.ascii	"CYBLE_GAPP_DISC_DATA_T\000"
 8845      455F4741 
 8845      50505F44 
 8845      4953435F 
 8845      44415441 
 8846              	.LASF204:
 8847 162e 4932435F 		.ascii	"I2C_SENSOR_APP_STATE\000"
 8847      53454E53 
 8847      4F525F41 
 8847      50505F53 
 8847      54415445 
 8848              	.LASF278:
 8849 1643 6379426C 		.ascii	"cyBle_scanRspData\000"
 8849      655F7363 
 8849      616E5273 
 8849      70446174 
 8849      6100
 8850              	.LASF198:
 8851 1655 4932435F 		.ascii	"I2C_READ_TEMP_RECV_DATA\000"
 8851      52454144 
 8851      5F54454D 
 8851      505F5245 
 8851      43565F44 
 8852              	.LASF331:
 8853 166d 55415254 		.ascii	"UART_Stop\000"
 8853      5F53746F 
 8853      7000
 8854              	.LASF156:
 8855 1677 4359424C 		.ascii	"CYBLE_LL_PWR_LVL_NEG_1_DBM\000"
 8855      455F4C4C 
 8855      5F505752 
 8855      5F4C564C 
 8855      5F4E4547 
 8856              	.LASF29:
 8857 1692 73697A65 		.ascii	"sizetype\000"
 8857      74797065 
 8857      00
 8858              	.LASF305:
 8859 169b 43795379 		.ascii	"CySysClkIloStop\000"
 8859      73436C6B 
 8859      496C6F53 
 8859      746F7000 
 8860              	.LASF261:
 8861 16ab 50726F63 		.ascii	"ProcessI2CEvents\000"
 8861      65737349 
 8861      32434576 
 8861      656E7473 
 8861      00
 8862              	.LASF11:
 8863 16bc 6C6F6E67 		.ascii	"long unsigned int\000"
 8863      20756E73 
 8863      69676E65 
 8863      6420696E 
 8863      7400
ARM GAS  C:\Users\ramanatg\AppData\Local\Temp\cc9tuycg.s 			page 204


 8864              	.LASF257:
 8865 16ce 626C6573 		.ascii	"blessState\000"
 8865      73537461 
 8865      746500
 8866              	.LASF116:
 8867 16d9 4359424C 		.ascii	"CYBLE_ERROR_L2CAP_PSM_ALREADY_REGISTERED\000"
 8867      455F4552 
 8867      524F525F 
 8867      4C324341 
 8867      505F5053 
 8868              	.LASF232:
 8869 1702 5552495F 		.ascii	"URI_Length\000"
 8869      4C656E67 
 8869      746800
 8870              	.LASF184:
 8871 170d 61647644 		.ascii	"advDataLen\000"
 8871      6174614C 
 8871      656E00
 8872              	.LASF283:
 8873 1718 4932435F 		.ascii	"I2C_buffer\000"
 8873      62756666 
 8873      657200
 8874              	.LASF108:
 8875 1723 4359424C 		.ascii	"CYBLE_ERROR_NO_CONNECTION\000"
 8875      455F4552 
 8875      524F525F 
 8875      4E4F5F43 
 8875      4F4E4E45 
 8876              	.LASF213:
 8877 173d 55494469 		.ascii	"UIDisEnabled\000"
 8877      73456E61 
 8877      626C6564 
 8877      00
 8878              	.LASF19:
 8879 174a 696E7433 		.ascii	"int32_t\000"
 8879      325F7400 
 8880              	.LASF178:
 8881 1752 64697265 		.ascii	"directAddrType\000"
 8881      63744164 
 8881      64725479 
 8881      706500
 8882              	.LASF96:
 8883 1761 4359424C 		.ascii	"CYBLE_EVT_L2CAP_CBFC_DATA_WRITE_IND\000"
 8883      455F4556 
 8883      545F4C32 
 8883      4341505F 
 8883      43424643 
 8884              	.LASF254:
 8885 1785 70617261 		.ascii	"param_pwr\000"
 8885      6D5F7077 
 8885      7200
 8886              	.LASF57:
 8887 178f 4359424C 		.ascii	"CYBLE_EVT_GAP_CONN_ESTB\000"
 8887      455F4556 
 8887      545F4741 
 8887      505F434F 
 8887      4E4E5F45 
ARM GAS  C:\Users\ramanatg\AppData\Local\Temp\cc9tuycg.s 			page 205


 8888              	.LASF228:
 8889 17a7 5458506F 		.ascii	"TXPowerLevels\000"
 8889      7765724C 
 8889      6576656C 
 8889      7300
 8890              	.LASF150:
 8891 17b5 4359424C 		.ascii	"CYBLE_BLESS_STATE_T\000"
 8891      455F424C 
 8891      4553535F 
 8891      53544154 
 8891      455F5400 
 8892              	.LASF196:
 8893 17c9 4932435F 		.ascii	"I2C_READ_HUMIDITY_RECV_DATA\000"
 8893      52454144 
 8893      5F48554D 
 8893      49444954 
 8893      595F5245 
 8894              	.LASF170:
 8895 17e5 4359424C 		.ascii	"CYBLE_GAPP_SCANNABLE_UNDIRECTED_ADV\000"
 8895      455F4741 
 8895      50505F53 
 8895      43414E4E 
 8895      41424C45 
 8896              	.LASF36:
 8897 1809 4359424C 		.ascii	"CYBLE_EVT_MEMORY_REQUEST\000"
 8897      455F4556 
 8897      545F4D45 
 8897      4D4F5259 
 8897      5F524551 
 8898              	.LASF27:
 8899 1822 63797374 		.ascii	"cystatus\000"
 8899      61747573 
 8899      00
 8900              	.LASF205:
 8901 182b 42454143 		.ascii	"BEACON_WAIT\000"
 8901      4F4E5F57 
 8901      41495400 
 8902              	.LASF51:
 8903 1837 4359424C 		.ascii	"CYBLE_EVT_GAP_KEYPRESS_NOTIFICATION\000"
 8903      455F4556 
 8903      545F4741 
 8903      505F4B45 
 8903      59505245 
 8904              	.LASF169:
 8905 185b 4359424C 		.ascii	"CYBLE_GAPP_CONNECTABLE_HIGH_DC_DIRECTED_ADV\000"
 8905      455F4741 
 8905      50505F43 
 8905      4F4E4E45 
 8905      43544142 
 8906              	.LASF3:
 8907 1887 756E7369 		.ascii	"unsigned char\000"
 8907      676E6564 
 8907      20636861 
 8907      7200
 8908              	.LASF186:
 8909 1895 7363616E 		.ascii	"scanRspData\000"
 8909      52737044 
ARM GAS  C:\Users\ramanatg\AppData\Local\Temp\cc9tuycg.s 			page 206


 8909      61746100 
 8910              	.LASF192:
 8911 18a1 4359424C 		.ascii	"CYBLE_GAPP_DISC_MODE_INFO_T\000"
 8911      455F4741 
 8911      50505F44 
 8911      4953435F 
 8911      4D4F4445 
 8912              	.LASF10:
 8913 18bd 5F5F7569 		.ascii	"__uint32_t\000"
 8913      6E743332 
 8913      5F7400
 8914              	.LASF277:
 8915 18c8 6379426C 		.ascii	"cyBle_discoveryData\000"
 8915      655F6469 
 8915      73636F76 
 8915      65727944 
 8915      61746100 
 8916              	.LASF280:
 8917 18dc 67617474 		.ascii	"gatt_disconnect_flag\000"
 8917      5F646973 
 8917      636F6E6E 
 8917      6563745F 
 8917      666C6167 
 8918              	.LASF165:
 8919 18f1 626C6550 		.ascii	"blePwrLevelInDbm\000"
 8919      77724C65 
 8919      76656C49 
 8919      6E44626D 
 8919      00
 8920              	.LASF70:
 8921 1902 4359424C 		.ascii	"CYBLE_EVT_GATTC_READ_RSP\000"
 8921      455F4556 
 8921      545F4741 
 8921      5454435F 
 8921      52454144 
 8922              	.LASF146:
 8923 191b 4359424C 		.ascii	"CYBLE_BLESS_STATE_ECO_STABLE\000"
 8923      455F424C 
 8923      4553535F 
 8923      53544154 
 8923      455F4543 
 8924              	.LASF152:
 8925 1938 4359424C 		.ascii	"CYBLE_LL_PWR_LVL_NEG_12_DBM\000"
 8925      455F4C4C 
 8925      5F505752 
 8925      5F4C564C 
 8925      5F4E4547 
 8926              	.LASF309:
 8927 1954 43795379 		.ascii	"CySysWdtGetInterruptSource\000"
 8927      73576474 
 8927      47657449 
 8927      6E746572 
 8927      72757074 
 8928              	.LASF255:
 8929 196f 4C6F7750 		.ascii	"LowPowerSleep\000"
 8929      6F776572 
 8929      536C6565 
ARM GAS  C:\Users\ramanatg\AppData\Local\Temp\cc9tuycg.s 			page 207


 8929      7000
 8930              	.LASF220:
 8931 197d 6D616A6F 		.ascii	"major\000"
 8931      7200
 8932              	.LASF139:
 8933 1983 4359424C 		.ascii	"CYBLE_BLESS_HIBERNATE\000"
 8933      455F424C 
 8933      4553535F 
 8933      48494245 
 8933      524E4154 
 8934              	.LASF326:
 8935 1999 55617274 		.ascii	"UartCmd_Init\000"
 8935      436D645F 
 8935      496E6974 
 8935      00
 8936              	.LASF60:
 8937 19a6 4359424C 		.ascii	"CYBLE_EVT_GAP_SMP_LOC_P256_KEYS_GEN_AND_SET_COMPLET"
 8937      455F4556 
 8937      545F4741 
 8937      505F534D 
 8937      505F4C4F 
 8938 19d9 4500     		.ascii	"E\000"
 8939              	.LASF275:
 8940 19db 45535F53 		.ascii	"ES_SEC_CNT_ms\000"
 8940      45435F43 
 8940      4E545F6D 
 8940      7300
 8941              	.LASF92:
 8942 19e9 4359424C 		.ascii	"CYBLE_EVT_L2CAP_CBFC_DISCONN_CNF\000"
 8942      455F4556 
 8942      545F4C32 
 8942      4341505F 
 8942      43424643 
 8943              	.LASF194:
 8944 1a0a 4932435F 		.ascii	"I2C_START\000"
 8944      53544152 
 8944      5400
 8945              	.LASF44:
 8946 1a14 4359424C 		.ascii	"CYBLE_EVT_GAP_DEVICE_CONNECTED\000"
 8946      455F4556 
 8946      545F4741 
 8946      505F4445 
 8946      56494345 
 8947              	.LASF245:
 8948 1a33 55706461 		.ascii	"UpdateAdData3\000"
 8948      74654164 
 8948      44617461 
 8948      3300
 8949              	.LASF76:
 8950 1a41 4359424C 		.ascii	"CYBLE_EVT_GATTS_PREP_WRITE_REQ\000"
 8950      455F4556 
 8950      545F4741 
 8950      5454535F 
 8950      50524550 
 8951              	.LASF64:
 8952 1a60 4359424C 		.ascii	"CYBLE_EVT_GATTS_XCNHG_MTU_REQ\000"
 8952      455F4556 
ARM GAS  C:\Users\ramanatg\AppData\Local\Temp\cc9tuycg.s 			page 208


 8952      545F4741 
 8952      5454535F 
 8952      58434E48 
 8953              	.LASF212:
 8954 1a7e 42454143 		.ascii	"BEACON_APP_STATE\000"
 8954      4F4E5F41 
 8954      50505F53 
 8954      54415445 
 8954      00
 8955              	.LASF59:
 8956 1a8f 4359424C 		.ascii	"CYBLE_EVT_GAP_AUTH_REQ_REPLY_ERR\000"
 8956      455F4556 
 8956      545F4741 
 8956      505F4155 
 8956      54485F52 
 8957              	.LASF229:
 8958 1ab0 6672616D 		.ascii	"frame\000"
 8958      6500
 8959              	.LASF310:
 8960 1ab6 4379456E 		.ascii	"CyEnterCriticalSection\000"
 8960      74657243 
 8960      72697469 
 8960      63616C53 
 8960      65637469 
 8961              	.LASF266:
 8962 1acd 75617274 		.ascii	"uart_buffer\000"
 8962      5F627566 
 8962      66657200 
 8963              	.LASF2:
 8964 1ad9 7369676E 		.ascii	"signed char\000"
 8964      65642063 
 8964      68617200 
 8965              	.LASF7:
 8966 1ae5 73686F72 		.ascii	"short unsigned int\000"
 8966      7420756E 
 8966      7369676E 
 8966      65642069 
 8966      6E7400
 8967              	.LASF159:
 8968 1af8 4359424C 		.ascii	"CYBLE_LL_PWR_LVL_MAX\000"
 8968      455F4C4C 
 8968      5F505752 
 8968      5F4C564C 
 8968      5F4D4158 
 8969              	.LASF163:
 8970 1b0d 4359424C 		.ascii	"CYBLE_LL_MAX_CH_TYPE\000"
 8970      455F4C4C 
 8970      5F4D4158 
 8970      5F43485F 
 8970      54595045 
 8971              	.LASF289:
 8972 1b22 6D656D63 		.ascii	"memcpy\000"
 8972      707900
 8973              	.LASF265:
 8974 1b29 6D61696E 		.ascii	"main\000"
 8974      00
 8975              	.LASF176:
ARM GAS  C:\Users\ramanatg\AppData\Local\Temp\cc9tuycg.s 			page 209


 8976 1b2e 61647654 		.ascii	"advType\000"
 8976      79706500 
 8977              	.LASF216:
 8978 1b36 72657365 		.ascii	"reserved\000"
 8978      72766564 
 8978      00
 8979              	.LASF128:
 8980 1b3f 4359424C 		.ascii	"CYBLE_ERROR_CONTROLLER_BUSY\000"
 8980      455F4552 
 8980      524F525F 
 8980      434F4E54 
 8980      524F4C4C 
 8981              	.LASF120:
 8982 1b5b 4359424C 		.ascii	"CYBLE_ERROR_L2CAP_PSM_NOT_IN_RANGE\000"
 8982      455F4552 
 8982      524F525F 
 8982      4C324341 
 8982      505F5053 
 8983              	.LASF21:
 8984 1b7e 75696E74 		.ascii	"uint8\000"
 8984      3800
 8985              	.LASF102:
 8986 1b84 4359424C 		.ascii	"CYBLE_ERROR_OK\000"
 8986      455F4552 
 8986      524F525F 
 8986      4F4B00
 8987              	.LASF284:
 8988 1b93 6932635F 		.ascii	"i2c_state\000"
 8988      73746174 
 8988      6500
 8989              	.LASF269:
 8990 1b9d 4346475F 		.ascii	"CFG_txpwr\000"
 8990      74787077 
 8990      7200
 8991              	.LASF336:
 8992 1ba7 4932434D 		.ascii	"I2CM_Sleep\000"
 8992      5F536C65 
 8992      657000
 8993              	.LASF137:
 8994 1bb2 4359424C 		.ascii	"CYBLE_BLESS_SLEEP\000"
 8994      455F424C 
 8994      4553535F 
 8994      534C4545 
 8994      5000
 8995              	.LASF180:
 8996 1bc4 61647643 		.ascii	"advChannelMap\000"
 8996      68616E6E 
 8996      656C4D61 
 8996      7000
 8997              	.LASF142:
 8998 1bd2 4359424C 		.ascii	"CYBLE_BLESS_STATE_ACTIVE\000"
 8998      455F424C 
 8998      4553535F 
 8998      53544154 
 8998      455F4143 
 8999              	.LASF143:
 9000 1beb 4359424C 		.ascii	"CYBLE_BLESS_STATE_EVENT_CLOSE\000"
ARM GAS  C:\Users\ramanatg\AppData\Local\Temp\cc9tuycg.s 			page 210


 9000      455F424C 
 9000      4553535F 
 9000      53544154 
 9000      455F4556 
 9001              	.LASF340:
 9002 1c09 55706461 		.ascii	"UpdateWdtCounter1\000"
 9002      74655764 
 9002      74436F75 
 9002      6E746572 
 9002      3100
 9003              	.LASF291:
 9004 1c1b 4379426C 		.ascii	"CyBle_SetTxPowerLevel\000"
 9004      655F5365 
 9004      74547850 
 9004      6F776572 
 9004      4C657665 
 9005              	.LASF215:
 9006 1c31 544C4D69 		.ascii	"TLMisEnabled\000"
 9006      73456E61 
 9006      626C6564 
 9006      00
 9007              	.LASF224:
 9008 1c3e 74787077 		.ascii	"txpwr\000"
 9008      7200
 9009              	.LASF321:
 9010 1c44 4932434D 		.ascii	"I2CM_I2CMasterWriteBuf\000"
 9010      5F493243 
 9010      4D617374 
 9010      65725772 
 9010      69746542 
 9011              		.ident	"GCC: (GNU Tools for ARM Embedded Processors) 4.9.3 20150303 (release) [ARM/embedded-4_9-br
