ARM GAS  C:\Users\ramanatg\AppData\Local\Temp\cc9tuycg.s 			page 1


   1              		.cpu cortex-m0
   2              		.fpu softvfp
   3              		.eabi_attribute 20, 1
   4              		.eabi_attribute 21, 1
   5              		.eabi_attribute 23, 3
   6              		.eabi_attribute 24, 1
   7              		.eabi_attribute 25, 1
   8              		.eabi_attribute 26, 1
   9              		.eabi_attribute 30, 2
  10              		.eabi_attribute 34, 0
  11              		.eabi_attribute 18, 4
  12              		.code	16
  13              		.file	"main.c"
  14              		.text
  15              	.Ltext0:
  16              		.cfi_sections	.debug_frame
  17              		.section	.text.WDT_Handler,"ax",%progbits
  18              		.align	2
  19              		.global	WDT_Handler
  20              		.code	16
  21              		.thumb_func
  22              		.type	WDT_Handler, %function
  23              	WDT_Handler:
  24              	.LFB38:
  25              		.file 1 "main.c"
   1:main.c        **** /******************************************************************************
   2:main.c        **** * Project Name      : Solar BLE Sensor
   3:main.c        **** * File Name         : main.c
   4:main.c        **** * Version           : CYALKIT-E02 Sample Firmware, Version 1.2.00
   5:main.c        **** * Device Used       : CYBLE-022001-00
   6:main.c        **** * Software Used     : PSoC Creator 3.3 CP3
   7:main.c        **** * Compiler          : ARM GCC 4.9.3
   8:main.c        **** * Related Hardware  : Solar BLE Sensor
   9:main.c        **** *
  10:main.c        **** *******************************************************************************
  11:main.c        **** * Copyright (2016), Cypress Semiconductor Corporation. All Rights Reserved.
  12:main.c        **** *******************************************************************************
  13:main.c        **** * This software is owned by Cypress Semiconductor Corporation (Cypress)
  14:main.c        **** * and is protected by and subject to worldwide patent protection (United
  15:main.c        **** * States and foreign), United States copyright laws and international treaty
  16:main.c        **** * provisions. Cypress hereby grants to licensee a personal, non-exclusive,
  17:main.c        **** * non-transferable license to copy, use, modify, create derivative works of,
  18:main.c        **** * and compile the Cypress Source Code and derivative works for the sole
  19:main.c        **** * purpose of creating custom software in support of licensee product to be
  20:main.c        **** * used only in conjunction with a Cypress integrated circuit as specified in
  21:main.c        **** * the applicable agreement. Any reproduction, modification, translation,
  22:main.c        **** * compilation, or representation of this software except as specified above 
  23:main.c        **** * is prohibited without the express written permission of Cypress.
  24:main.c        **** *
  25:main.c        **** * Disclaimer: CYPRESS MAKES NO WARRANTY OF ANY KIND, EXPRESS OR IMPLIED, WITH 
  26:main.c        **** * REGARD TO THIS MATERIAL, INCLUDING, BUT NOT LIMITED TO, THE IMPLIED 
  27:main.c        **** * WARRANTIES OF MERCHANTABILITY AND FITNESS FOR A PARTICULAR PURPOSE.
  28:main.c        **** * Cypress reserves the right to make changes without further notice to the 
  29:main.c        **** * materials described herein. Cypress does not assume any liability arising out 
  30:main.c        **** * of the application or use of any product or circuit described herein. Cypress 
  31:main.c        **** * does not authorize its products for use as critical components in life-support 
  32:main.c        **** * systems where a malfunction or failure may reasonably be expected to result in 
ARM GAS  C:\Users\ramanatg\AppData\Local\Temp\cc9tuycg.s 			page 2


  33:main.c        **** * significant injury to the user. The inclusion of Cypress' product in a life-
  34:main.c        **** * support systems application implies that the manufacturer assumes all risk of 
  35:main.c        **** * such use and in doing so indemnifies Cypress against all charges. 
  36:main.c        **** *
  37:main.c        **** * Use of this Software may be limited by and subject to the applicable Cypress
  38:main.c        **** * software license agreement. 
  39:main.c        **** ******************************************************************************/
  40:main.c        **** 
  41:main.c        **** #include <main.h>
  42:main.c        **** #include <stdbool.h>
  43:main.c        **** #include <Si7020.h>
  44:main.c        **** #include "UartCmd.h"
  45:main.c        **** #include "ConfigRW.h"
  46:main.c        **** #include "Eddystone.h"
  47:main.c        **** 
  48:main.c        **** 
  49:main.c        **** /******************************************************************************
  50:main.c        **** * Global Variable Declarations
  51:main.c        **** ******************************************************************************/
  52:main.c        **** uint8_t restartadvertisement = false;           /* restart advertisement flag               */
  53:main.c        **** static BeaconConfig *pCFG;                      /* pointer to the valid configuration       */
  54:main.c        **** static uint16_t CFG_interval;                   /* advertisement interval ( millisecond )   */
  55:main.c        **** static int8_t CFG_txpwr;                        /* TX Power setting                         */
  56:main.c        **** 
  57:main.c        **** #if (I2C_SENSOR_ENABLE)
  58:main.c        **** uint8_t I2C_buffer[I2C_BUFFER_SIZE];            /* buffer for I2C communication with Si7020 */
  59:main.c        **** I2C_SENSOR_APP_STATE i2c_state = I2C_START;     /* I2C state flag                           */
  60:main.c        **** int8_t Sensor_Flag;                             /* flag indicates that sensor is used or not*/
  61:main.c        **** #endif
  62:main.c        **** uint8_t wdt_trigger_on_flag = false;            /* WDT_INTERRUPT_SOURCE trigger flag        */
  63:main.c        **** BEACON_APP_STATE beacon_state = BEACON_WAIT;    /* Beacon state flag                        */
  64:main.c        **** 
  65:main.c        **** /* A copy of Eddystone-UID frame. It's AD DATA 3 in the advertisement packet. */
  66:main.c        **** static uint8_t UID_FrameBuffer[ES_UID_FRAME_ARRAY_LENGTH] = 
  67:main.c        **** {
  68:main.c        ****     ES_UID_FRAME_LENGTH, ES_SVC_DATA, ES_SVC_LSB, ES_SVC_MSB, ES_FRAME_TYPE_UID
  69:main.c        **** };
  70:main.c        **** 
  71:main.c        **** /* A copy of Eddystone-URL frame. It's AD DATA 3 in the advertisement packet. */
  72:main.c        **** static uint8_t URL_FrameBuffer[ES_URL_FRAME_ARRAY_MAXLEN] = 
  73:main.c        **** {
  74:main.c        ****     0x00, /* This byte stores the actual length after it. ReadAndApplyConfig() will init it. */
  75:main.c        ****     ES_SVC_DATA, ES_SVC_LSB, ES_SVC_MSB, ES_FRAME_TYPE_URL
  76:main.c        **** };
  77:main.c        **** 
  78:main.c        **** /* A copy of Eddystone-TLM frame. It's AD DATA 3 in the advertisement packet. */
  79:main.c        **** static const uint8_t DefaultTLMframe[ES_TLM_FRAME_ARRAY_LENGTH] = 
  80:main.c        **** {
  81:main.c        ****     ES_TLM_FRAME_LENGTH, ES_SVC_DATA, ES_SVC_LSB, ES_SVC_MSB, ES_FRAME_TYPE_TLM, 
  82:main.c        ****     0x00,                           /* TLM version */
  83:main.c        ****     ES_TLM_VBATT_DEFAULT >> 8,      /* MSB */
  84:main.c        ****     ES_TLM_VBATT_DEFAULT & 0xFF,    /* LSB */
  85:main.c        ****     /* Beacon temperature in Celsius (8.8 fixed point notation) */
  86:main.c        ****     ES_TLM_NOTEMP_MSB, 
  87:main.c        ****     ES_TLM_NOTEMP_LSB
  88:main.c        **** };
  89:main.c        **** 
ARM GAS  C:\Users\ramanatg\AppData\Local\Temp\cc9tuycg.s 			page 3


  90:main.c        **** static uint32_t ES_ADV_CNT;             /* Advertising PDU count */
  91:main.c        **** static uint32_t ES_SEC_CNT;             /* Unit: 0.1sec. Time since power-on or reboot. */
  92:main.c        **** static uint32_t ES_SEC_CNT_ms;          /* Unit: ms. Actual time is ES_SEC_CNT + ES_SEC_CNT_ms/100.
  93:main.c        **** 
  94:main.c        **** 
  95:main.c        **** /******************************************************************************
  96:main.c        **** * Function prototypes
  97:main.c        **** ******************************************************************************/
  98:main.c        **** void LowPowerSleep(void);
  99:main.c        **** void ReadAndApplyConfig(void);
 100:main.c        **** void ProcessBeaconEvents(void);
 101:main.c        **** void UpdateTxPowerLeverl(int8_t NewLevel);
 102:main.c        **** void UpdateAdData3(uint8_t NewEdFrame);
 103:main.c        **** CYBLE_API_RESULT_T Beacon_GappStartAdvertisement(uint32_t advertisingInterval);
 104:main.c        **** 
 105:main.c        **** #if I2C_SENSOR_ENABLE
 106:main.c        **** void ProcessI2CEvents(void);
 107:main.c        **** static void UpdateWdtCounter1(uint32_t match);
 108:main.c        **** #endif
 109:main.c        **** 
 110:main.c        **** 
 111:main.c        **** /******************************************************************************
 112:main.c        **** * Function Name: BLE_AppEventHandler
 113:main.c        **** *******************************************************************************
 114:main.c        **** *
 115:main.c        **** * Summary:
 116:main.c        **** *   BLE stack generic event handler routine for handling discovery event.
 117:main.c        **** *
 118:main.c        **** * Parameters:  
 119:main.c        **** *   event - event that triggered this callback
 120:main.c        **** *   eventParam - parameters for the event.
 121:main.c        **** *
 122:main.c        **** * Return: 
 123:main.c        **** *   None
 124:main.c        **** ******************************************************************************/
 125:main.c        **** void BLE_AppEventHandler(uint32_t event, void* eventParam)
 126:main.c        **** {
 127:main.c        ****     (void)eventParam;
 128:main.c        **** 
 129:main.c        ****     switch (event)
 130:main.c        ****     {
 131:main.c        ****         /**********************************************************
 132:main.c        ****         *                       General Events
 133:main.c        ****         ***********************************************************/
 134:main.c        ****         /* This event is received when component is Started. */
 135:main.c        ****         case CYBLE_EVT_STACK_ON:
 136:main.c        ****             
 137:main.c        ****             /* UpdateTxPowerLeverl() should be invoked in the case of CYBLE_EVT_STACK_ON. */
 138:main.c        ****             UpdateTxPowerLeverl(CFG_txpwr);
 139:main.c        ****             
 140:main.c        ****             restartadvertisement = true;
 141:main.c        ****             
 142:main.c        ****             CySysWdtUnlock(); /* Unlock the WDT registers for modification */
 143:main.c        ****             
 144:main.c        ****             CySysWdtWriteMode(SOURCE_COUNTER, CY_SYS_WDT_MODE_INT);
 145:main.c        ****             
 146:main.c        ****             CySysWdtWriteClearOnMatch(SOURCE_COUNTER, COUNTER_ENABLE);
ARM GAS  C:\Users\ramanatg\AppData\Local\Temp\cc9tuycg.s 			page 4


 147:main.c        ****             
 148:main.c        ****             CySysWdtWriteMatch(SOURCE_COUNTER, COUNT_PERIOD_100MS);
 149:main.c        ****             
 150:main.c        ****             CySysWdtEnable(CY_SYS_WDT_COUNTER0_MASK);
 151:main.c        ****             
 152:main.c        ****             CySysWdtLock();
 153:main.c        ****             break;
 154:main.c        ****             
 155:main.c        ****         default:
 156:main.c        ****             break;
 157:main.c        ****     }
 158:main.c        **** }
 159:main.c        **** 
 160:main.c        **** /******************************************************************************
 161:main.c        **** * Function Name: WDT_Handler
 162:main.c        **** *******************************************************************************
 163:main.c        **** *
 164:main.c        **** * Summary:
 165:main.c        **** *   WDT interrupt handler routine. WDT is used to wakeup the device after
 166:main.c        **** *   the expected time elapses.
 167:main.c        **** *
 168:main.c        **** * Parameters:  
 169:main.c        **** *   None
 170:main.c        **** *
 171:main.c        **** * Return: 
 172:main.c        **** *   None
 173:main.c        **** ******************************************************************************/
 174:main.c        **** CY_ISR(WDT_Handler)
 175:main.c        **** {
  26              		.loc 1 175 0
  27              		.cfi_startproc
  28 0000 08B5     		push	{r3, lr}
  29              		.cfi_def_cfa_offset 8
  30              		.cfi_offset 3, -8
  31              		.cfi_offset 14, -4
 176:main.c        ****     /* If SOURCE_COUNTER triggers the interrupt. */
 177:main.c        ****     if(CySysWdtGetInterruptSource() & WDT_INTERRUPT_SOURCE)
  32              		.loc 1 177 0
  33 0002 FFF7FEFF 		bl	CySysWdtGetInterruptSource
  34              	.LVL0:
  35 0006 4307     		lsl	r3, r0, #29
  36 0008 0CD4     		bmi	.L11
  37              	.L2:
 178:main.c        ****     {
 179:main.c        ****         CySysWdtClearInterrupt(WDT_INTERRUPT_SOURCE);
 180:main.c        ****     }
 181:main.c        ****     
 182:main.c        ****     /* If I2C_COUNTER triggers the interrupt. */
 183:main.c        ****     if(CySysWdtGetInterruptSource() & I2C_WDT_INTERRUPT_SOURCE)
  38              		.loc 1 183 0
  39 000a FFF7FEFF 		bl	CySysWdtGetInterruptSource
  40              	.LVL1:
  41 000e 8023     		mov	r3, #128
  42 0010 DB00     		lsl	r3, r3, #3
  43 0012 1842     		tst	r0, r3
  44 0014 05D0     		beq	.L1
  45              	.LBB9:
ARM GAS  C:\Users\ramanatg\AppData\Local\Temp\cc9tuycg.s 			page 5


  46              	.LBB10:
 184:main.c        ****     {
 185:main.c        ****         CySysWdtClearInterrupt(I2C_WDT_INTERRUPT_SOURCE);
  47              		.loc 1 185 0
  48 0016 181C     		mov	r0, r3
  49 0018 FFF7FEFF 		bl	CySysWdtClearInterrupt
  50              	.LVL2:
 186:main.c        ****         
 187:main.c        ****         wdt_trigger_on_flag = true;
  51              		.loc 1 187 0
  52 001c 0122     		mov	r2, #1
  53 001e 034B     		ldr	r3, .L12
  54 0020 1A70     		strb	r2, [r3]
  55              	.L1:
  56              	.LBE10:
  57              	.LBE9:
 188:main.c        ****     }
 189:main.c        **** }
  58              		.loc 1 189 0
  59              		@ sp needed
  60 0022 08BD     		pop	{r3, pc}
  61              	.L11:
 179:main.c        ****     }
  62              		.loc 1 179 0
  63 0024 0420     		mov	r0, #4
  64 0026 FFF7FEFF 		bl	CySysWdtClearInterrupt
  65              	.LVL3:
  66 002a EEE7     		b	.L2
  67              	.L13:
  68              		.align	2
  69              	.L12:
  70 002c 00000000 		.word	.LANCHOR0
  71              		.cfi_endproc
  72              	.LFE38:
  73              		.size	WDT_Handler, .-WDT_Handler
  74              		.global	__aeabi_uidiv
  75              		.global	__aeabi_uidivmod
  76              		.global	__aeabi_idiv
  77              		.section	.text.UpdateAdData3.part.2,"ax",%progbits
  78              		.align	2
  79              		.code	16
  80              		.thumb_func
  81              		.type	UpdateAdData3.part.2, %function
  82              	UpdateAdData3.part.2:
  83              	.LFB51:
 190:main.c        **** 
 191:main.c        **** /*******************************************************************************
 192:main.c        **** * Function Name: LowPower_WCO_ECO_Start
 193:main.c        **** ********************************************************************************
 194:main.c        **** * Summary:
 195:main.c        **** *   Start WCO & ECO in low power mode by configuring the system in DeepSleep mode 
 196:main.c        **** *   during WCO & ECO startup time.
 197:main.c        **** *
 198:main.c        **** * Parameters:
 199:main.c        **** *   None
 200:main.c        **** *
 201:main.c        **** * Return:
ARM GAS  C:\Users\ramanatg\AppData\Local\Temp\cc9tuycg.s 			page 6


 202:main.c        **** *   None
 203:main.c        **** *******************************************************************************/
 204:main.c        **** void LowPower_WCO_ECO_Start(void)
 205:main.c        **** {
 206:main.c        ****     /* Do the following:
 207:main.c        ****      * 1. Shut down the ECO (to reduce power consumption while WCO is starting)
 208:main.c        ****      * 2. Enable WDT to wakeup the system after 2s (WCO need 500ms to startup, 
 209:main.c        ****      *    the solar cell can gather more power during the 2 seconds.)
 210:main.c        ****      * 3. Configure PRoC BLE device in DeepSleep mode for the 2s WCO startup time
 211:main.c        ****      * 4. After WCO is enabled, restart the ECO so that BLESS interface can function
 212:main.c        ****      * 5. Enable WDT to wakeup the system after 3.5ms (3.5ms = ECO startup time)
 213:main.c        ****      * 6. Configure PRoC BLE device in DeepSleep mode for the 3.5ms ECO startup time 
 214:main.c        ****      */
 215:main.c        ****     CySysClkEcoStop();      /* Shutdown the ECO and later re-start in low power mode after WCO is t
 216:main.c        ****     
 217:main.c        ****     WDT_Interrupt_StartEx(WDT_Handler);     /* Initialize WDT interrupt */
 218:main.c        ****     
 219:main.c        ****     CySysClkWcoStart();     /* Start the WCO clock */
 220:main.c        ****     
 221:main.c        ****     CySysWdtUnlock();       /* Unlock the WDT registers for modification */
 222:main.c        ****     
 223:main.c        ****     CySysWdtWriteMode(SOURCE_COUNTER, CY_SYS_WDT_MODE_INT);
 224:main.c        ****     CySysWdtWriteClearOnMatch(SOURCE_COUNTER, COUNTER_ENABLE);
 225:main.c        ****     CySysWdtWriteMatch(SOURCE_COUNTER, COUNT_PERIOD_WCO);
 226:main.c        ****     
 227:main.c        ****     CySysWdtEnable(CY_SYS_WDT_COUNTER0_MASK);
 228:main.c        ****     
 229:main.c        ****     CySysWdtLock();
 230:main.c        ****     
 231:main.c        ****     CySysPmDeepSleep(); /* Wait for the WDT interrupt to wake up the device */
 232:main.c        ****     
 233:main.c        ****     (void)CySysClkWcoSetPowerMode(CY_SYS_CLK_WCO_LPM);  /* Switch WCO to the low power mode after s
 234:main.c        ****     
 235:main.c        ****     /* Unlock to change the clock source for the LFCLK clock. */
 236:main.c        ****     CySysWdtUnlock();
 237:main.c        ****     CySysClkSetLfclkSource(CY_SYS_CLK_LFCLK_SRC_WCO);   /* LFCLK is now driven by WCO */
 238:main.c        ****     CySysWdtLock();
 239:main.c        ****     
 240:main.c        ****     CySysClkIloStop();                                  /* WCO is running, shut down the ILO */
 241:main.c        ****     
 242:main.c        ****     (void)CySysClkEcoStart(0);                          /* It's time to start ECO */
 243:main.c        ****     
 244:main.c        ****     CySysWdtUnlock();
 245:main.c        ****     
 246:main.c        ****     CySysWdtDisable(CY_SYS_WDT_COUNTER0_MASK);
 247:main.c        ****     
 248:main.c        ****     CySysWdtWriteMatch(SOURCE_COUNTER, COUNT_PERIOD_ECO);
 249:main.c        ****     
 250:main.c        ****     CySysWdtEnable(CY_SYS_WDT_COUNTER0_MASK);
 251:main.c        ****     
 252:main.c        ****     CySysWdtLock();
 253:main.c        ****     
 254:main.c        ****     CySysPmDeepSleep(); /* Wait for the WDT interrupt to wake up the device */
 255:main.c        ****     
 256:main.c        ****     /* Disable WDT counter */
 257:main.c        ****     CySysWdtUnlock();
 258:main.c        ****     CySysWdtDisable(CY_SYS_WDT_COUNTER0_MASK);
ARM GAS  C:\Users\ramanatg\AppData\Local\Temp\cc9tuycg.s 			page 7


 259:main.c        ****     CySysWdtLock();
 260:main.c        **** }
 261:main.c        **** 
 262:main.c        **** /*******************************************************************************
 263:main.c        **** * Function Name: LowPowerSleep
 264:main.c        **** ********************************************************************************
 265:main.c        **** * Summary:
 266:main.c        **** *   Put System into Deep-Sleep mode. Put BLESS into Deep-Sleep mode if possible.
 267:main.c        **** *
 268:main.c        **** * Parameters:
 269:main.c        **** *   None
 270:main.c        **** *
 271:main.c        **** * Return:
 272:main.c        **** *   None
 273:main.c        **** *******************************************************************************/
 274:main.c        **** void LowPowerSleep(void)
 275:main.c        **** {
 276:main.c        ****     CYBLE_LP_MODE_T pwrState;
 277:main.c        ****     CYBLE_BLESS_STATE_T blessState;
 278:main.c        ****     uint8_t intStatus = 0;
 279:main.c        **** 
 280:main.c        ****     pwrState  = CyBle_EnterLPM(CYBLE_BLESS_DEEPSLEEP); /* Configure BLESS in Deep-Sleep mode */
 281:main.c        **** 
 282:main.c        ****     intStatus = CyEnterCriticalSection(); /* No interrupts allowed while entering system low power 
 283:main.c        ****     
 284:main.c        ****     blessState = CyBle_GetBleSsState();
 285:main.c        ****     /* Make sure BLESS is in Deep-Sleep before configuring system in Deep-Sleep mode */
 286:main.c        ****     if(pwrState == CYBLE_BLESS_DEEPSLEEP)
 287:main.c        ****     {
 288:main.c        ****         /* If BLESS is in Deep Sleep or is in the process of waking up from Deep Sleep,
 289:main.c        ****          * put system in Deep Sleep mode */
 290:main.c        ****         if(blessState == CYBLE_BLESS_STATE_ECO_ON || blessState == CYBLE_BLESS_STATE_DEEPSLEEP)
 291:main.c        ****         {
 292:main.c        ****             CySysPmDeepSleep(); /* System Deep-Sleep. 1.3uA mode */
 293:main.c        ****         }
 294:main.c        ****     }
 295:main.c        ****     /* If BLESS is in Active state, 
 296:main.c        ****      * and if BLESS Tx/Rx Event is not complete, stop IMO and put CPU to Sleep */
 297:main.c        ****     else if (blessState != CYBLE_BLESS_STATE_EVENT_CLOSE)
 298:main.c        ****     {
 299:main.c        ****         /* Change HF clock source from IMO to ECO, as IMO can be stopped to save power */
 300:main.c        ****         CySysClkWriteHfclkDirect(CY_SYS_CLK_HFCLK_ECO); 
 301:main.c        ****         
 302:main.c        ****         /* Stop IMO for reducing power consumption */
 303:main.c        ****         CySysClkImoStop(); 
 304:main.c        ****       
 305:main.c        ****         /* Put the CPU to Sleep. 1.1mA mode */
 306:main.c        ****         CySysPmSleep();
 307:main.c        ****        
 308:main.c        ****         /* Starts execution after waking up, start IMO */
 309:main.c        ****         CySysClkImoStart();
 310:main.c        ****         
 311:main.c        ****         /* Change HF clock source back to IMO */
 312:main.c        ****         CySysClkWriteHfclkDirect(CY_SYS_CLK_HFCLK_IMO);
 313:main.c        ****     }
 314:main.c        ****     
 315:main.c        ****     CyExitCriticalSection(intStatus);
ARM GAS  C:\Users\ramanatg\AppData\Local\Temp\cc9tuycg.s 			page 8


 316:main.c        ****     
 317:main.c        ****     return;
 318:main.c        **** }
 319:main.c        **** 
 320:main.c        **** /******************************************************************************
 321:main.c        **** * Function Name: main
 322:main.c        **** *******************************************************************************
 323:main.c        **** * Summary:
 324:main.c        **** *   Program entry point. This calls the BLE and other peripheral Component
 325:main.c        **** *   APIs for achieving the desired system behaviour.
 326:main.c        **** *
 327:main.c        **** * Parameters:
 328:main.c        **** *   None
 329:main.c        **** *
 330:main.c        **** * Return:
 331:main.c        **** *   int - this is main loop and never returns
 332:main.c        **** *
 333:main.c        **** ******************************************************************************/
 334:main.c        **** int main()
 335:main.c        **** {
 336:main.c        ****     CyGlobalIntEnable;
 337:main.c        **** 
 338:main.c        ****     /* Set the divider for ECO, ECO will be used as source when IMO is switched off to save power, 
 339:main.c        ****     CySysClkWriteEcoDiv(CY_SYS_CLK_ECO_DIV8);
 340:main.c        **** 
 341:main.c        ****     /* Start WCO & ECO in low power mode */
 342:main.c        ****     LowPower_WCO_ECO_Start();
 343:main.c        **** 
 344:main.c        ****     /* If USB connector is plugged in. */
 345:main.c        ****     if(USB_Detect_Read() == PIN_HIGH)
 346:main.c        ****     {
 347:main.c        ****         uint8_t uart_buffer[UART_MAX_DATA_LEN];
 348:main.c        ****         
 349:main.c        ****         /* Check User SFlash, update the data storage format if necessary. */
 350:main.c        ****         ConfigRW_CheckVersion();
 351:main.c        ****         
 352:main.c        ****         /* Start UART Configuration Service and Eddystone-URL Configuration Service. */
 353:main.c        ****         UartCmd_Init(uart_buffer);
 354:main.c        ****         EddystoneURL_Config_Init();
 355:main.c        ****         
 356:main.c        ****         /* Keep processing UART and BLE events. */
 357:main.c        ****         while(true)
 358:main.c        ****         {
 359:main.c        ****             CyBle_ProcessEvents();
 360:main.c        ****             /* If user typed EXIT command. */
 361:main.c        ****             if(UartCmd_ProcessInput() == RESULT_EXIT)
 362:main.c        ****             {
 363:main.c        ****                 break;
 364:main.c        ****             }
 365:main.c        ****             
 366:main.c        ****             /* If the mode is EDTest, and GATT connection is terminated. */
 367:main.c        ****             if((pBeaconConfig->mode == ADV_MODE_EDDYSTONETEST) && gatt_disconnect_flag)
 368:main.c        ****             {
 369:main.c        ****                 beacon_state = BEACON_START;    /* skip the wait process */
 370:main.c        ****                 break;
 371:main.c        ****             }
 372:main.c        ****         }
ARM GAS  C:\Users\ramanatg\AppData\Local\Temp\cc9tuycg.s 			page 9


 373:main.c        ****         
 374:main.c        ****         CyBle_Stop();
 375:main.c        ****         UART_Stop();
 376:main.c        ****     }
 377:main.c        ****     
 378:main.c        ****     ReadAndApplyConfig();
 379:main.c        ****     
 380:main.c        ****     /* Change advertisement settings from default connectable to non-connectable. */
 381:main.c        ****     cyBle_discoveryParam.advType     = CYBLE_GAPP_NON_CONNECTABLE_UNDIRECTED_ADV;
 382:main.c        ****     cyBle_discoveryModeInfo.advTo    = CYBLE_ADV_NO_TIMEOUT;
 383:main.c        ****     cyBle_discoveryModeInfo.discMode = CYBLE_GAPP_NONE_DISC_BROADCAST_MODE;
 384:main.c        ****     cyBle_discoveryData.advData[ADV_DATA1_FLAGS_INDEX] = ADV_DATA1_FLAGS_NON_CONNECTABLE;
 385:main.c        ****     
 386:main.c        ****     CyBle_Start((CYBLE_CALLBACK_T)BLE_AppEventHandler);
 387:main.c        ****     
 388:main.c        ****     for(;;)
 389:main.c        ****     {
 390:main.c        ****         CyBle_ProcessEvents(); /* BLE stack processing state machine interface */
 391:main.c        ****     
 392:main.c        ****         LowPowerSleep();
 393:main.c        ****         
 394:main.c        ****         /* If restartadvertisement flag is set, which means it's the first time cpu goes here. */
 395:main.c        ****         if(restartadvertisement)
 396:main.c        ****         {
 397:main.c        ****             restartadvertisement = false;
 398:main.c        ****             
 399:main.c        ****             CySysWdtUnlock();
 400:main.c        ****             
 401:main.c        ****             CySysWdtDisable(CY_SYS_WDT_COUNTER0_MASK);
 402:main.c        ****             
 403:main.c        ****             CySysWdtWriteMode(I2C_COUNTER, CY_SYS_WDT_MODE_INT);
 404:main.c        ****             
 405:main.c        ****             CySysWdtWriteClearOnMatch(I2C_COUNTER, COUNTER_ENABLE);
 406:main.c        ****             
 407:main.c        **** #if I2C_SENSOR_ENABLE
 408:main.c        ****             /* If I2C sensor is enabled and sensor setting is on. */
 409:main.c        ****             if(Sensor_Flag)
 410:main.c        ****             {
 411:main.c        ****                 CySysWdtWriteMatch(I2C_COUNTER, I2C_COUNT_PERIOD_10MS);
 412:main.c        ****             }
 413:main.c        ****             else
 414:main.c        **** #endif
 415:main.c        ****             /* If I2C sensor is disabled or sensor setting is off. */
 416:main.c        ****             {
 417:main.c        ****                 CySysWdtWriteMatch(I2C_COUNTER, I2C_COUNT_PERIOD_10MS);
 418:main.c        ****             }
 419:main.c        ****             
 420:main.c        ****             CySysWdtEnable(CY_SYS_WDT_COUNTER1_MASK);
 421:main.c        ****             
 422:main.c        ****             CySysWdtLock();
 423:main.c        ****         }
 424:main.c        ****         
 425:main.c        **** #if I2C_SENSOR_ENABLE
 426:main.c        ****         /* If I2C sensor is enabled and sensor setting is on. */
 427:main.c        ****         if(Sensor_Flag)
 428:main.c        ****         {
 429:main.c        ****             /* If I2C communication is needed, wakeup I2C module. */
ARM GAS  C:\Users\ramanatg\AppData\Local\Temp\cc9tuycg.s 			page 10


 430:main.c        ****             if(i2c_state <= I2C_START_ADV)
 431:main.c        ****             {
 432:main.c        ****                 I2CM_Wakeup();
 433:main.c        ****                 
 434:main.c        ****                 ProcessI2CEvents();
 435:main.c        ****                 
 436:main.c        ****                 I2CM_Sleep();       /* I2C communication is complete after invoking UpdateWdtCounte
 437:main.c        ****                                        Put I2CM to sleep mode immediately to save power. */
 438:main.c        ****             }
 439:main.c        ****             else
 440:main.c        ****             {
 441:main.c        ****                 ProcessI2CEvents();
 442:main.c        ****             }
 443:main.c        ****         }
 444:main.c        ****         else
 445:main.c        **** #endif
 446:main.c        ****         /* If I2C sensor is disabled or sensor setting is off. */
 447:main.c        ****         {
 448:main.c        ****             ProcessBeaconEvents();
 449:main.c        ****         }
 450:main.c        ****     }
 451:main.c        **** }
 452:main.c        **** 
 453:main.c        **** #if I2C_SENSOR_ENABLE
 454:main.c        **** /******************************************************************************
 455:main.c        **** * Function Name: ProcessI2CEvents
 456:main.c        **** *******************************************************************************
 457:main.c        **** *
 458:main.c        **** * Summary:
 459:main.c        **** *   This function handles I2C events according to current state and update the 
 460:main.c        **** *   state value.
 461:main.c        **** *
 462:main.c        **** * Parameters:
 463:main.c        **** *   None
 464:main.c        **** *
 465:main.c        **** * Return:
 466:main.c        **** *   None
 467:main.c        **** *
 468:main.c        **** ******************************************************************************/
 469:main.c        **** void ProcessI2CEvents(void)
 470:main.c        **** {
 471:main.c        ****     CYBLE_API_RESULT_T apiResult = CYBLE_ERROR_OK;
 472:main.c        ****     
 473:main.c        ****     switch(i2c_state)
 474:main.c        ****     {
 475:main.c        ****         /* Initialise I2CM and the sensor */
 476:main.c        ****         case I2C_START:
 477:main.c        ****             /* Handle the case if I2C_COUNTER triggers a new interrupt. */
 478:main.c        ****             if(wdt_trigger_on_flag)
 479:main.c        ****             {
 480:main.c        ****                 I2CM_Start();
 481:main.c        **** 
 482:main.c        ****                 I2C_buffer[SI7020_WRITE_REG_INDEX_CMD]  = SI7020_WRITE_USER_REG;
 483:main.c        ****                 I2C_buffer[SI7020_WRITE_REG_INDEX_DATA] = USER_REG_SETTING;
 484:main.c        ****                 I2CM_I2CMasterWriteBuf(SI7020_SLAVE_ADDR, 
 485:main.c        ****                                        I2C_buffer, 
 486:main.c        ****                                        SI7020_WRITE_REG_SEND_LEN, 
ARM GAS  C:\Users\ramanatg\AppData\Local\Temp\cc9tuycg.s 			page 11


 487:main.c        ****                                        I2CM_I2C_MODE_COMPLETE_XFER);
 488:main.c        **** 
 489:main.c        ****                 UpdateWdtCounter1(I2C_COUNT_PERIOD_20MS);
 490:main.c        ****                 
 491:main.c        ****                 /* Set next I2C state */
 492:main.c        ****                 i2c_state = I2C_READ_HUMIDITY_SEND_CMD;
 493:main.c        ****             }
 494:main.c        ****             break;
 495:main.c        ****         
 496:main.c        ****         /* Perform "Measure Relative Humidity" command to Si7020 */
 497:main.c        ****         case I2C_READ_HUMIDITY_SEND_CMD:
 498:main.c        ****             /* Handle the case if I2C_COUNTER triggers a new interrupt. */
 499:main.c        ****             if(wdt_trigger_on_flag)
 500:main.c        ****             {
 501:main.c        ****                 I2CM_I2CMasterClearStatus();
 502:main.c        ****                 
 503:main.c        ****                 /* Request RH data from I2C Sensor */
 504:main.c        ****                 I2C_buffer[I2C_BUFFER_HUM_OFFSET_CMD] = SI7020_MEASURE_RH;
 505:main.c        ****                 I2CM_I2CMasterWriteBuf(SI7020_SLAVE_ADDR, 
 506:main.c        ****                                        &I2C_buffer[I2C_BUFFER_HUM_OFFSET_CMD], 
 507:main.c        ****                                        SI7020_MEASURE_RH_SEND_LEN, 
 508:main.c        ****                                        I2CM_I2C_MODE_COMPLETE_XFER);
 509:main.c        ****                 
 510:main.c        ****                 UpdateWdtCounter1(I2C_COUNT_PERIOD_20MS);
 511:main.c        ****                 
 512:main.c        ****                 /* Set next I2C state */
 513:main.c        ****                 i2c_state = I2C_READ_HUMIDITY_RECV_DATA;
 514:main.c        ****             }
 515:main.c        ****             break;
 516:main.c        ****         
 517:main.c        ****         /* Read back "Measure Relative Humidity" result from Si7020 */
 518:main.c        ****         case I2C_READ_HUMIDITY_RECV_DATA:
 519:main.c        ****             /* Handle the case if I2C_COUNTER triggers a new interrupt. */
 520:main.c        ****             if(wdt_trigger_on_flag)
 521:main.c        ****             {
 522:main.c        ****                 /* Read RH data from I2C Sensor */
 523:main.c        ****                 I2CM_I2CMasterReadBuf(SI7020_SLAVE_ADDR, 
 524:main.c        ****                                       &I2C_buffer[I2C_BUFFER_HUM_OFFSET_DATA], 
 525:main.c        ****                                       SI7020_MEASURE_RH_RECV_LEN, 
 526:main.c        ****                                       I2CM_I2C_MODE_COMPLETE_XFER);
 527:main.c        ****                 
 528:main.c        ****                 UpdateWdtCounter1(I2C_COUNT_PERIOD_20MS);
 529:main.c        ****                 
 530:main.c        ****                 /* Set next I2C state */
 531:main.c        ****                 i2c_state = I2C_READ_TEMP_SEND_CMD;
 532:main.c        ****             }
 533:main.c        ****             break;
 534:main.c        ****         
 535:main.c        ****         /* Perform "Read Temperature Value" command to Si7020 */
 536:main.c        ****         case I2C_READ_TEMP_SEND_CMD:
 537:main.c        ****             /* Handle the case if I2C_COUNTER triggers a new interrupt. */
 538:main.c        ****             if(wdt_trigger_on_flag)
 539:main.c        ****             {
 540:main.c        ****                 I2CM_I2CMasterClearStatus();
 541:main.c        ****                 
 542:main.c        ****                 /* Request Temperature data from I2C Sensor */
 543:main.c        ****                 I2C_buffer[I2C_BUFFER_TEM_OFFSET_CMD] = SI7020_READ_TEMP;
ARM GAS  C:\Users\ramanatg\AppData\Local\Temp\cc9tuycg.s 			page 12


 544:main.c        ****                 I2CM_I2CMasterWriteBuf(SI7020_SLAVE_ADDR, 
 545:main.c        ****                                        &I2C_buffer[I2C_BUFFER_TEM_OFFSET_DATA], 
 546:main.c        ****                                        SI7020_READ_TEMP_SEND_LEN, 
 547:main.c        ****                                        I2CM_I2C_MODE_COMPLETE_XFER);
 548:main.c        **** 
 549:main.c        ****                 UpdateWdtCounter1(I2C_COUNT_PERIOD_20MS);
 550:main.c        ****                 
 551:main.c        ****                 /* Set next I2C state */
 552:main.c        ****                 i2c_state = I2C_READ_TEMP_RECV_DATA;
 553:main.c        ****             }
 554:main.c        ****             break;
 555:main.c        ****         
 556:main.c        ****         /* Read back "Read Temperature Value" result from Si7020 */
 557:main.c        ****         case I2C_READ_TEMP_RECV_DATA:
 558:main.c        ****             /* Handle the case if I2C_COUNTER triggers a new interrupt. */
 559:main.c        ****             if(wdt_trigger_on_flag)
 560:main.c        ****             {
 561:main.c        ****                 /* Read Temperature data from I2C Sensor */
 562:main.c        ****                 I2CM_I2CMasterReadBuf(SI7020_SLAVE_ADDR, 
 563:main.c        ****                                       &I2C_buffer[I2C_BUFFER_TEM_OFFSET_DATA], 
 564:main.c        ****                                       SI7020_READ_TEMP_RECV_LEN, 
 565:main.c        ****                                       I2CM_I2C_MODE_COMPLETE_XFER);
 566:main.c        ****                 
 567:main.c        ****                 UpdateWdtCounter1(I2C_COUNT_PERIOD_20MS);
 568:main.c        ****                 
 569:main.c        ****                 /* Set next I2C state */
 570:main.c        ****                 i2c_state = I2C_START_ADV;
 571:main.c        ****             }
 572:main.c        ****             break;
 573:main.c        ****         
 574:main.c        ****         /* Start BLEBeacon or Eddystone-UID Advertisement */
 575:main.c        ****         case I2C_START_ADV:
 576:main.c        ****             /* Handle the case if I2C_COUNTER triggers a new interrupt. */
 577:main.c        ****             if(wdt_trigger_on_flag)
 578:main.c        ****             {
 579:main.c        ****                 I2CM_I2CMasterClearStatus();
 580:main.c        ****                 
 581:main.c        ****                 /* If the interval is 0, don't advertise any data. */
 582:main.c        ****                 if(CFG_interval == 0)
 583:main.c        ****                 {
 584:main.c        ****                     /* Set next I2C state */
 585:main.c        ****                     i2c_state = I2C_WAIT;
 586:main.c        ****                     
 587:main.c        ****                     UpdateWdtCounter1(I2C_COUNT_PERIOD_1S);
 588:main.c        ****                     
 589:main.c        ****                     break;
 590:main.c        ****                 }
 591:main.c        ****                 /* If BLEBeacon mode is chosen, prepare the data according to BLEBeacon format. */
 592:main.c        ****                 else if(pCFG->mode == ADV_MODE_BLEBEACON)
 593:main.c        ****                 {
 594:main.c        ****                      /* Update RH index of ADV packet with a new value */
 595:main.c        ****                     cyBle_discoveryData.advData[ADDR_HUM_OFFSET] = I2C_buffer[I2C_BUFFER_HUM_OFFSET
 596:main.c        ****                     
 597:main.c        ****                      /* Update Temperature index of ADV packet with a new value */
 598:main.c        ****                     cyBle_discoveryData.advData[ADDR_TEM_OFFSET] = I2C_buffer[I2C_BUFFER_TEM_OFFSET
 599:main.c        ****                     
 600:main.c        ****                     /* Set the next I2C state. */
ARM GAS  C:\Users\ramanatg\AppData\Local\Temp\cc9tuycg.s 			page 13


 601:main.c        ****                     i2c_state = I2C_STOP_ADV;
 602:main.c        ****                 }
 603:main.c        ****                 /* Eddystone mode is chosen, prepare the data according to Eddystone format. */
 604:main.c        ****                 else
 605:main.c        ****                 {
 606:main.c        ****                     ES_ADV_CNT++;
 607:main.c        ****                     ES_SEC_CNT_ms += BEACON_PERIOD_SENS_ON_1FRAME;
 608:main.c        ****                     
 609:main.c        ****                     /* Look for the frame which is advertised first. */
 610:main.c        ****                     /* Eddystone-UID is on. */
 611:main.c        ****                     if(pCFG->frame.UIDisEnabled)
 612:main.c        ****                     {
 613:main.c        ****                         UpdateAdData3(ES_FRAME_TYPE_UID);
 614:main.c        ****                         
 615:main.c        ****                         /* Set the next I2C state. */
 616:main.c        ****                         /* Eddystone-URL is on. */
 617:main.c        ****                         if(pCFG->frame.URLisEnabled)
 618:main.c        ****                         {
 619:main.c        ****                             i2c_state = I2C_ADV_URL;
 620:main.c        ****                         }
 621:main.c        ****                         /* Eddystone-TLM is on. */
 622:main.c        ****                         else if(pCFG->frame.TLMisEnabled)
 623:main.c        ****                         {
 624:main.c        ****                             i2c_state = I2C_ADV_TLM;
 625:main.c        ****                         }
 626:main.c        ****                         /* Only Eddystone-UID is on, stop advertising next time. */
 627:main.c        ****                         else
 628:main.c        ****                         {
 629:main.c        ****                             i2c_state = I2C_STOP_ADV;
 630:main.c        ****                         }
 631:main.c        ****                     }
 632:main.c        ****                     /* Eddystone-UID is off, Eddystone-URL is on. */
 633:main.c        ****                     else if(pCFG->frame.URLisEnabled)
 634:main.c        ****                     {
 635:main.c        ****                         UpdateAdData3(ES_FRAME_TYPE_URL);
 636:main.c        ****                         
 637:main.c        ****                         /* Set the next I2C state. */
 638:main.c        ****                         /* Eddystone-TLM is on. */
 639:main.c        ****                         if(pCFG->frame.TLMisEnabled)
 640:main.c        ****                         {
 641:main.c        ****                             i2c_state = I2C_ADV_TLM;
 642:main.c        ****                         }
 643:main.c        ****                         /* Only Eddystone-URL is on, stop advertising next time. */
 644:main.c        ****                         else
 645:main.c        ****                         {
 646:main.c        ****                             i2c_state = I2C_STOP_ADV;
 647:main.c        ****                         }
 648:main.c        ****                     }
 649:main.c        ****                     /* Only Eddystone-TLM is on. */
 650:main.c        ****                     else
 651:main.c        ****                     {
 652:main.c        ****                         UpdateAdData3(ES_FRAME_TYPE_TLM);
 653:main.c        ****                         
 654:main.c        ****                         /* Set next I2C state */
 655:main.c        ****                         i2c_state = I2C_STOP_ADV;
 656:main.c        ****                     }
 657:main.c        ****                 }
ARM GAS  C:\Users\ramanatg\AppData\Local\Temp\cc9tuycg.s 			page 14


 658:main.c        ****                 
 659:main.c        ****                 apiResult = Beacon_GappStartAdvertisement(CFG_interval);
 660:main.c        ****                 
 661:main.c        ****                 /* We don't need WDT counter to wake the system. BLESS will do it. */
 662:main.c        ****                 CySysWdtUnlock();
 663:main.c        ****                 CySysWdtDisable(CY_SYS_WDT_COUNTER1_MASK);
 664:main.c        ****                 CySysWdtLock();
 665:main.c        ****             }
 666:main.c        ****             break;
 667:main.c        ****         
 668:main.c        ****         /* Advertise Eddystone-URL frame. */
 669:main.c        ****         case I2C_ADV_URL:
 670:main.c        ****             /* Handle the case if BLESS finishes Tx of the last frame. */
 671:main.c        ****             if(CyBle_GetBleSsState() == CYBLE_BLESS_STATE_EVENT_CLOSE)
 672:main.c        ****             {
 673:main.c        ****                 ES_ADV_CNT++;
 674:main.c        ****                 ES_SEC_CNT_ms += CFG_interval;
 675:main.c        ****                 
 676:main.c        ****                 UpdateAdData3(ES_FRAME_TYPE_URL);
 677:main.c        ****                 
 678:main.c        ****                 /* Set the next I2C state. */
 679:main.c        ****                 /* Eddystone-TLM is on. */
 680:main.c        ****                 if(pCFG->frame.TLMisEnabled)
 681:main.c        ****                 {
 682:main.c        ****                     i2c_state = I2C_ADV_TLM;
 683:main.c        ****                 }
 684:main.c        ****                 /* Eddystone-TLM is off, stop advertising next time. */
 685:main.c        ****                 else
 686:main.c        ****                 {
 687:main.c        ****                     i2c_state = I2C_STOP_ADV;
 688:main.c        ****                 }
 689:main.c        ****                 
 690:main.c        ****                 apiResult = CyBle_GapUpdateAdvData(&cyBle_discoveryData, &cyBle_scanRspData);
 691:main.c        ****             }
 692:main.c        ****             break;
 693:main.c        ****         
 694:main.c        ****         /* Advertise Eddystone-TLM frame. */
 695:main.c        ****         case I2C_ADV_TLM:
 696:main.c        ****             /* Handle the case if BLESS finishes Tx of the last frame. */
 697:main.c        ****             if(CyBle_GetBleSsState() == CYBLE_BLESS_STATE_EVENT_CLOSE)
 698:main.c        ****             {
 699:main.c        ****                 ES_ADV_CNT++;
 700:main.c        ****                 ES_SEC_CNT_ms += CFG_interval;
 701:main.c        ****                 
 702:main.c        ****                 UpdateAdData3(ES_FRAME_TYPE_TLM);
 703:main.c        ****                 
 704:main.c        ****                 /* Set next I2C state */
 705:main.c        ****                 i2c_state = I2C_STOP_ADV;
 706:main.c        ****                 
 707:main.c        ****                 apiResult = CyBle_GapUpdateAdvData(&cyBle_discoveryData, &cyBle_scanRspData);
 708:main.c        ****             }
 709:main.c        ****             break;
 710:main.c        ****         
 711:main.c        ****         /* Stop advertisement. */
 712:main.c        ****         case I2C_STOP_ADV:
 713:main.c        ****             /* Handle the case if BLESS finishes Tx of the last frame */
 714:main.c        ****             if(CyBle_GetBleSsState() == CYBLE_BLESS_STATE_EVENT_CLOSE)
ARM GAS  C:\Users\ramanatg\AppData\Local\Temp\cc9tuycg.s 			page 15


 715:main.c        ****             {
 716:main.c        ****                 /* Set next I2C state */
 717:main.c        ****                 i2c_state = I2C_WAIT;
 718:main.c        ****             
 719:main.c        ****                 CyBle_GappStopAdvertisement();
 720:main.c        ****                 
 721:main.c        ****                 UpdateWdtCounter1(I2C_COUNT_PERIOD_1S);
 722:main.c        ****             }
 723:main.c        ****             break;
 724:main.c        ****         
 725:main.c        ****         /* Wait until the solar cell gathers enough power. */
 726:main.c        ****         case I2C_WAIT:
 727:main.c        ****             /* Handle the case if I2C_COUNTER triggers a new interrupt. */
 728:main.c        ****             if(wdt_trigger_on_flag)
 729:main.c        ****             {
 730:main.c        ****                 /* Set next I2C state */
 731:main.c        ****                 i2c_state = I2C_READ_HUMIDITY_SEND_CMD;
 732:main.c        ****             }
 733:main.c        ****             break;
 734:main.c        ****             
 735:main.c        ****         default:
 736:main.c        ****             break;
 737:main.c        ****     }
 738:main.c        ****     
 739:main.c        ****     /* clear wdt_trigger_on_flag if it's set */
 740:main.c        ****     if(wdt_trigger_on_flag)
 741:main.c        ****     {
 742:main.c        ****         wdt_trigger_on_flag = false;
 743:main.c        ****     }
 744:main.c        ****     
 745:main.c        ****     /* If fails to start advertisement or update the advertised data, halt the processor. */
 746:main.c        ****     if(apiResult != CYBLE_ERROR_OK)
 747:main.c        ****     {
 748:main.c        ****         CYASSERT(0);
 749:main.c        ****     }
 750:main.c        **** }
 751:main.c        **** #endif
 752:main.c        **** 
 753:main.c        **** /******************************************************************************
 754:main.c        **** * Function Name: ProcessBeaconEvents
 755:main.c        **** *******************************************************************************
 756:main.c        **** *
 757:main.c        **** * Summary:
 758:main.c        **** *   This function handles Beacon events according to current state and update the 
 759:main.c        **** *   state value.
 760:main.c        **** *
 761:main.c        **** * Parameters:
 762:main.c        **** *   None
 763:main.c        **** *
 764:main.c        **** * Return:
 765:main.c        **** *   None
 766:main.c        **** *
 767:main.c        **** ******************************************************************************/
 768:main.c        **** void ProcessBeaconEvents(void)
 769:main.c        **** {
 770:main.c        ****     CYBLE_API_RESULT_T apiResult = CYBLE_ERROR_OK;
 771:main.c        ****     
ARM GAS  C:\Users\ramanatg\AppData\Local\Temp\cc9tuycg.s 			page 16


 772:main.c        ****     switch(beacon_state)
 773:main.c        ****     {
 774:main.c        ****         /* Wait until the solar cell gets enough power. */
 775:main.c        ****         case BEACON_WAIT:
 776:main.c        ****             /* Handle the case if I2C_COUNTER triggers a new interrupt. */
 777:main.c        ****             if(wdt_trigger_on_flag)
 778:main.c        ****             {
 779:main.c        ****                 wdt_trigger_on_flag = false;
 780:main.c        ****                 
 781:main.c        ****                 /* Set next beacon state */
 782:main.c        ****                 beacon_state = BEACON_START;
 783:main.c        ****             }
 784:main.c        ****             break;
 785:main.c        ****         
 786:main.c        ****         /* Start advertisement. */
 787:main.c        ****         case BEACON_START:
 788:main.c        ****             /* Handle the case if I2C_COUNTER triggers a new interrupt. */
 789:main.c        ****             if(wdt_trigger_on_flag)
 790:main.c        ****             {
 791:main.c        ****                 wdt_trigger_on_flag = false;
 792:main.c        ****                 
 793:main.c        ****                 /* Stop I2C_COUNTER, and start advertisement */
 794:main.c        ****                 CySysWdtUnlock(); /* Unlock the WDT registers for modification */
 795:main.c        ****                 CySysWdtDisable(CY_SYS_WDT_COUNTER1_MASK);
 796:main.c        ****                 CySysWdtLock();
 797:main.c        ****                 
 798:main.c        ****                 /* The default next situation is, updating advertised data isn't needed. */
 799:main.c        ****                 beacon_state = BEACON_RUN;
 800:main.c        ****                 
 801:main.c        ****                 /* If the interval is 0, let the system keep sleeping without any wakeup source, 
 802:main.c        ****                  * so that there's no advertisement. */
 803:main.c        ****                 if(CFG_interval == 0)
 804:main.c        ****                 {
 805:main.c        ****                     return;
 806:main.c        ****                 }
 807:main.c        ****                 
 808:main.c        ****                 /* If Eddystone mode is chosen, update advertised data. */
 809:main.c        ****                 if(pCFG->mode == ADV_MODE_EDDYSTONE)
 810:main.c        ****                 {
 811:main.c        ****                     ES_ADV_CNT++;
 812:main.c        ****                     ES_SEC_CNT_ms += CFG_interval;
 813:main.c        ****                     
 814:main.c        ****                     /* Look for the frame which is advertised first. */
 815:main.c        ****                     /* Eddystone-UID is on. */
 816:main.c        ****                     if(pCFG->frame.UIDisEnabled)
 817:main.c        ****                     {
 818:main.c        ****                         UpdateAdData3(ES_FRAME_TYPE_UID);
 819:main.c        ****                         
 820:main.c        ****                         /* Set next beacon state */
 821:main.c        ****                         /* Eddystone-URL is on. */
 822:main.c        ****                         if(pCFG->frame.URLisEnabled)
 823:main.c        ****                         {
 824:main.c        ****                             beacon_state = BEACON_URL;
 825:main.c        ****                         }
 826:main.c        ****                         /* Eddystone-TLM is on. */
 827:main.c        ****                         else if(pCFG->frame.TLMisEnabled)
 828:main.c        ****                         {
ARM GAS  C:\Users\ramanatg\AppData\Local\Temp\cc9tuycg.s 			page 17


 829:main.c        ****                             beacon_state = BEACON_TLM;
 830:main.c        ****                         }
 831:main.c        ****                         /* Only Eddystone-UID is on. */
 832:main.c        ****                         else
 833:main.c        ****                         {
 834:main.c        ****                             /* beacon_state remains BEACON_RUN. */
 835:main.c        ****                         }
 836:main.c        ****                     }
 837:main.c        ****                     /* Eddystone-UID is off, Eddystone-URL is on. */
 838:main.c        ****                     else if(pCFG->frame.URLisEnabled)
 839:main.c        ****                     {
 840:main.c        ****                         UpdateAdData3(ES_FRAME_TYPE_URL);
 841:main.c        ****                         
 842:main.c        ****                         /* Set next beacon state */
 843:main.c        ****                         /* Eddystone-TLM is on. */
 844:main.c        ****                         if(pCFG->frame.TLMisEnabled)
 845:main.c        ****                         {
 846:main.c        ****                             beacon_state = BEACON_TLM;
 847:main.c        ****                         }
 848:main.c        ****                         /* Only Eddystone-URL is on. */
 849:main.c        ****                         else
 850:main.c        ****                         {
 851:main.c        ****                             /* beacon_state remains BEACON_RUN. */
 852:main.c        ****                         }
 853:main.c        ****                     }
 854:main.c        ****                     /* Only Eddystone-TLM is on. */
 855:main.c        ****                     else
 856:main.c        ****                     {
 857:main.c        ****                         UpdateAdData3(ES_FRAME_TYPE_TLM);
 858:main.c        ****                         
 859:main.c        ****                         /* Set next beacon state */
 860:main.c        ****                         beacon_state = BEACON_TLMCNT;
 861:main.c        ****                     }
 862:main.c        ****                 }
 863:main.c        ****                 /* If EDTest mode is chosen, ignore EDFRAME setting. */
 864:main.c        ****                 else if(pCFG->mode == ADV_MODE_EDDYSTONETEST)
 865:main.c        ****                 {
 866:main.c        ****                     UpdateAdData3(ES_FRAME_TYPE_URL);
 867:main.c        ****                 }
 868:main.c        ****                 
 869:main.c        ****                 apiResult = Beacon_GappStartAdvertisement(CFG_interval);
 870:main.c        ****             }
 871:main.c        ****             break;
 872:main.c        ****             
 873:main.c        ****         /* Update advertisement data to Eddystone-UID frame. */
 874:main.c        ****         case BEACON_UID:
 875:main.c        ****             /* Handle the case if BLESS finishes Tx of the last frame */
 876:main.c        ****             if(CyBle_GetBleSsState() == CYBLE_BLESS_STATE_EVENT_CLOSE)
 877:main.c        ****             {
 878:main.c        ****                 ES_ADV_CNT++;
 879:main.c        ****                 ES_SEC_CNT_ms += CFG_interval;
 880:main.c        ****                 
 881:main.c        ****                 UpdateAdData3(ES_FRAME_TYPE_UID);
 882:main.c        ****                 
 883:main.c        ****                 apiResult = CyBle_GapUpdateAdvData(&cyBle_discoveryData, &cyBle_scanRspData);
 884:main.c        ****                 
 885:main.c        ****                 /* Set next beacon state */
ARM GAS  C:\Users\ramanatg\AppData\Local\Temp\cc9tuycg.s 			page 18


 886:main.c        ****                 /* Check whether the next frame is Eddystone-URL. */
 887:main.c        ****                 if(pCFG->frame.URLisEnabled)
 888:main.c        ****                 {
 889:main.c        ****                     beacon_state = BEACON_URL;
 890:main.c        ****                 }
 891:main.c        ****                 /* The next frame is Eddystone-TLM. */
 892:main.c        ****                 else
 893:main.c        ****                 {
 894:main.c        ****                     beacon_state = BEACON_TLM;
 895:main.c        ****                 }
 896:main.c        ****             }
 897:main.c        ****             break;
 898:main.c        ****             
 899:main.c        ****         /* Update advertisement data to Eddystone-URL frame. */
 900:main.c        ****         case BEACON_URL:
 901:main.c        ****             /* Handle the case if BLESS finishes Tx of the last frame */
 902:main.c        ****             if(CyBle_GetBleSsState() == CYBLE_BLESS_STATE_EVENT_CLOSE)
 903:main.c        ****             {
 904:main.c        ****                 ES_ADV_CNT++;
 905:main.c        ****                 ES_SEC_CNT_ms += CFG_interval;
 906:main.c        ****                 
 907:main.c        ****                 UpdateAdData3(ES_FRAME_TYPE_URL);
 908:main.c        ****                 
 909:main.c        ****                 apiResult = CyBle_GapUpdateAdvData(&cyBle_discoveryData, &cyBle_scanRspData);
 910:main.c        ****                 
 911:main.c        ****                 /* Set next beacon state */
 912:main.c        ****                 /* Check whether the next frame is Eddystone-TLM. */
 913:main.c        ****                 if(pCFG->frame.TLMisEnabled)
 914:main.c        ****                 {
 915:main.c        ****                     beacon_state = BEACON_TLM;
 916:main.c        ****                 }
 917:main.c        ****                 /* The next frame is Eddystone-UID. */
 918:main.c        ****                 else
 919:main.c        ****                 {
 920:main.c        ****                     beacon_state = BEACON_UID;
 921:main.c        ****                 }
 922:main.c        ****             }
 923:main.c        ****             break;
 924:main.c        ****             
 925:main.c        ****         /* Update advertisement data to Eddystone-TLM frame. */
 926:main.c        ****         case BEACON_TLM:
 927:main.c        ****             /* Handle the case if BLESS finishes Tx of the last frame */
 928:main.c        ****             if(CyBle_GetBleSsState() == CYBLE_BLESS_STATE_EVENT_CLOSE)
 929:main.c        ****             {
 930:main.c        ****                 ES_ADV_CNT++;
 931:main.c        ****                 ES_SEC_CNT_ms += CFG_interval;
 932:main.c        ****                 
 933:main.c        ****                 UpdateAdData3(ES_FRAME_TYPE_TLM);
 934:main.c        ****                 
 935:main.c        ****                 apiResult = CyBle_GapUpdateAdvData(&cyBle_discoveryData, &cyBle_scanRspData);
 936:main.c        ****                 
 937:main.c        ****                 /* Set next beacon state */
 938:main.c        ****                 /* Check whether the next frame is Eddystone-UID. */
 939:main.c        ****                 if(pCFG->frame.UIDisEnabled)
 940:main.c        ****                 {
 941:main.c        ****                     beacon_state = BEACON_UID;
 942:main.c        ****                 }
ARM GAS  C:\Users\ramanatg\AppData\Local\Temp\cc9tuycg.s 			page 19


 943:main.c        ****                 /* The next frame is Eddystone-URL. */
 944:main.c        ****                 else
 945:main.c        ****                 {
 946:main.c        ****                     beacon_state = BEACON_URL;
 947:main.c        ****                 }
 948:main.c        ****             }
 949:main.c        ****             break;
 950:main.c        ****             
 951:main.c        ****         /* Only TLM frame is enabled, update ADV_CNT and SEC_CNT. */
 952:main.c        ****         case BEACON_TLMCNT:
 953:main.c        ****             /* Handle the case if BLESS finishes Tx of the last frame */
 954:main.c        ****             if(CyBle_GetBleSsState() == CYBLE_BLESS_STATE_EVENT_CLOSE)
 955:main.c        ****             {
 956:main.c        ****                 ES_ADV_CNT++;
 957:main.c        ****                 ES_SEC_CNT_ms += CFG_interval;
 958:main.c        ****                 
 959:main.c        ****                 /* Update ADV_CNT and SEC_CNT. */
 960:main.c        ****                 UpdateAdData3(ES_FRAME_TYPE_TLM);
 961:main.c        ****                 
 962:main.c        ****                 apiResult = CyBle_GapUpdateAdvData(&cyBle_discoveryData, &cyBle_scanRspData);
 963:main.c        ****             }
 964:main.c        ****             break;
 965:main.c        ****             
 966:main.c        ****         default:
 967:main.c        ****             break;
 968:main.c        ****     }
 969:main.c        ****     
 970:main.c        ****     /* If fails to start or update the advertisement, halt the processor. */
 971:main.c        ****     if(apiResult != CYBLE_ERROR_OK)
 972:main.c        ****     {
 973:main.c        ****         CYASSERT(0);
 974:main.c        ****     }
 975:main.c        **** }
 976:main.c        **** 
 977:main.c        **** /******************************************************************************
 978:main.c        **** * Function Name: ReadAndApplyConfig
 979:main.c        **** *******************************************************************************
 980:main.c        **** *
 981:main.c        **** * Summary:
 982:main.c        **** *   Read configuration in SFlash and apply. Prepare the data to be advertised.
 983:main.c        **** *
 984:main.c        **** * Parameters:
 985:main.c        **** *   None
 986:main.c        **** *
 987:main.c        **** * Return:
 988:main.c        **** *   None
 989:main.c        **** *******************************************************************************/
 990:main.c        **** void ReadAndApplyConfig(void)
 991:main.c        **** {
 992:main.c        ****     /* If UserSFlash is not empty and the storage format isn't older than the firmware 
 993:main.c        ****      * version, use configuration in UserSFlash. */
 994:main.c        ****     if( (pBeaconConfig->DataFlag_End   == SFLASH_DATA_FLAG_VALID) && \
 995:main.c        ****         (pBeaconConfig->DataFlag_Start == SFLASH_DATA_FLAG_VALID) && \
 996:main.c        ****         (pBeaconConfig->version_major_minor1 >= FW_VERSION)          )
 997:main.c        ****     {
 998:main.c        ****         pCFG = pBeaconConfig;
 999:main.c        ****     }
ARM GAS  C:\Users\ramanatg\AppData\Local\Temp\cc9tuycg.s 			page 20


1000:main.c        ****     /* Otherwise default configuration will be used. */
1001:main.c        ****     else
1002:main.c        ****     {
1003:main.c        ****         pCFG = (BeaconConfig *)&DefaultBeaconConfig;
1004:main.c        ****     }
1005:main.c        ****     
1006:main.c        ****     /* If BLEBeacon mode is chosen. */
1007:main.c        ****     if(pCFG->mode == ADV_MODE_BLEBEACON)
1008:main.c        ****     {
1009:main.c        ****         CFG_interval = pCFG->itrvl;
1010:main.c        ****         CFG_txpwr    = pCFG->txpwr;
1011:main.c        **** #if (I2C_SENSOR_ENABLE)
1012:main.c        ****         Sensor_Flag  = pCFG->sensor;
1013:main.c        **** #endif
1014:main.c        ****         
1015:main.c        ****         /* Prepare BLEBeacon data */
1016:main.c        ****         cyBle_discoveryData.advData[BLEBEACON_LENGTH2_OFFSET]     = BLEBEACON_LENGTH2_VALUE;
1017:main.c        ****         cyBle_discoveryData.advData[BLEBEACON_AD_TYPE2_OFFSET]    = BLEBEACON_AD_TYPE2_VALUE;
1018:main.c        ****         cyBle_discoveryData.advData[BLEBEACON_DEVICE_TYPE_OFFSET] = BLEBEACON_DEVICE_TYPE_VALUE;
1019:main.c        ****         cyBle_discoveryData.advData[BLEBEACON_LENGTH3_OFFSET]     = BLEBEACON_LENGTH3_VALUE;
1020:main.c        ****         
1021:main.c        ****         cyBle_discoveryData.advDataLen = BLEBEACON_ADV_LENGTH;
1022:main.c        ****         
1023:main.c        ****         /* Set UUID */
1024:main.c        ****         memcpy(&(cyBle_discoveryData.advData[ADDR_UUID_OFFSET]), pCFG->uuid, sizeof(pCFG->uuid));
1025:main.c        **** 
1026:main.c        ****         /* Apply Little Endian to COID, send Lower Byte first. */
1027:main.c        ****         cyBle_discoveryData.advData[ADDR_COID_OFFSET]     = pCFG->comID & 0xFF;
1028:main.c        ****         cyBle_discoveryData.advData[ADDR_COID_OFFSET + 1] = pCFG->comID >> 8;
1029:main.c        **** 
1030:main.c        ****         /* Apply Big Endian to MAJOR, send Higher Byte first. */
1031:main.c        ****         cyBle_discoveryData.advData[ADDR_MAJOR_OFFSET]     = pCFG->major >> 8;
1032:main.c        ****         cyBle_discoveryData.advData[ADDR_MAJOR_OFFSET + 1] = pCFG->major & 0xFF;
1033:main.c        ****         
1034:main.c        ****         /* Apply Big Endian to MINOR, send Higher Byte first. */
1035:main.c        ****         cyBle_discoveryData.advData[ADDR_MINOR_OFFSET]     = pCFG->minor >> 8;
1036:main.c        ****         cyBle_discoveryData.advData[ADDR_MINOR_OFFSET + 1] = pCFG->minor & 0xFF;
1037:main.c        ****         
1038:main.c        ****         /* Set RSSI */
1039:main.c        ****         cyBle_discoveryData.advData[ADDR_RSSI_OFFSET] = pCFG->rssi;          
1040:main.c        ****     }
1041:main.c        ****     /* Eddystone or EDTest mode is chosen. */
1042:main.c        ****     else
1043:main.c        ****     {
1044:main.c        ****         CFG_interval = pCFG->URLPeriod;
1045:main.c        ****         CFG_txpwr    = pCFG->TXPowerLevels[pCFG->TXPowerMode];
1046:main.c        **** #if (I2C_SENSOR_ENABLE)
1047:main.c        ****         /* If the mode is EDTest, sensor flag is forced to be off. */
1048:main.c        ****         Sensor_Flag  = (pCFG->mode == ADV_MODE_EDDYSTONETEST) ? false : pCFG->sensor;
1049:main.c        **** #endif
1050:main.c        ****         
1051:main.c        ****         /* Service Solicitation data */
1052:main.c        ****         cyBle_discoveryData.advData[ES_ADV_SVC_UUID_INDEX_LEN]  = ES_ADV_SVC_UUID_LENGTH - SIZE_LEN
1053:main.c        ****         cyBle_discoveryData.advData[ES_ADV_SVC_UUID_INDEX_TYPE] = ES_SVC_SOLICITATION;
1054:main.c        ****         cyBle_discoveryData.advData[ES_ADV_SVC_UUID_INDEX_LSB]  = ES_SVC_LSB;
1055:main.c        ****         cyBle_discoveryData.advData[ES_ADV_SVC_UUID_INDEX_MSB]  = ES_SVC_MSB;
1056:main.c        ****         
ARM GAS  C:\Users\ramanatg\AppData\Local\Temp\cc9tuycg.s 			page 21


1057:main.c        ****         /* Eddystone-UID buffer */
1058:main.c        ****         UID_FrameBuffer[ES_ADV_TXPL_INDEX_INFRAME] = pCFG->Adv_TXPowerLevels[pCFG->TXPowerMode];
1059:main.c        ****         memcpy(&(UID_FrameBuffer[ES_NID_INDEX_INFRAME]), pCFG->nid, NID_BYTES);
1060:main.c        ****         memcpy(&(UID_FrameBuffer[ES_BID_INDEX_INFRAME]), pCFG->bid, BID_BYTES);
1061:main.c        ****         
1062:main.c        ****         /* Eddystone-URL buffer */
1063:main.c        ****         URL_FrameBuffer[ES_FRAME_TYPE_INDEX_INFRAME] = ES_FRAME_TYPE_URL | (pCFG->URL_Flags & 0x0F)
1064:main.c        ****         URL_FrameBuffer[ES_ADV_TXPL_INDEX_INFRAME]   = pCFG->Adv_TXPowerLevels[pCFG->TXPowerMode];
1065:main.c        ****         
1066:main.c        ****         URL_FrameBuffer[INDEX_LEN_IN_BLE_AD_DATA] = ES_URI_DATA_INDEX_INFRAME + pCFG->URI_Length - 
1067:main.c        ****         memcpy(&(URL_FrameBuffer[ES_URI_DATA_INDEX_INFRAME]), pCFG->URI_Data, pCFG->URI_Length);
1068:main.c        ****     }
1069:main.c        ****     
1070:main.c        ****     return;
1071:main.c        **** }
1072:main.c        **** 
1073:main.c        **** /******************************************************************************
1074:main.c        **** * Function Name: UpdateTxPowerLeverl
1075:main.c        **** *******************************************************************************
1076:main.c        **** *
1077:main.c        **** * Summary:
1078:main.c        **** *   Set BLE Tx Power level to the expected value.
1079:main.c        **** *
1080:main.c        **** * Parameters:
1081:main.c        **** *   NewLevel - New Tx Power level 
1082:main.c        **** *
1083:main.c        **** * Return:
1084:main.c        **** *   None
1085:main.c        **** *
1086:main.c        **** ******************************************************************************/
1087:main.c        **** void UpdateTxPowerLeverl(int8_t NewLevel)
1088:main.c        **** {
1089:main.c        ****     CYBLE_BLESS_PWR_IN_DB_T t_pwr;
1090:main.c        ****     CYBLE_BLESS_PWR_LVL_T param_pwr;
1091:main.c        ****     
1092:main.c        ****     /* Valid values are -18, -12, -6, -3, -2, -1, 0 and 3 dBm. */
1093:main.c        ****     if(NewLevel == TXPWR_ACCEPTED_VALUE_NEG_18)
1094:main.c        ****     {
1095:main.c        ****         param_pwr = CYBLE_LL_PWR_LVL_NEG_18_DBM;
1096:main.c        ****     }
1097:main.c        ****     else if(NewLevel == TXPWR_ACCEPTED_VALUE_NEG_12)
1098:main.c        ****     {
1099:main.c        ****         param_pwr = CYBLE_LL_PWR_LVL_NEG_12_DBM;
1100:main.c        ****     }
1101:main.c        ****     else if(NewLevel == TXPWR_ACCEPTED_VALUE_NEG_6)
1102:main.c        ****     {
1103:main.c        ****         param_pwr = CYBLE_LL_PWR_LVL_NEG_6_DBM;
1104:main.c        ****     }
1105:main.c        ****     else if(NewLevel == TXPWR_ACCEPTED_VALUE_NEG_3)
1106:main.c        ****     {
1107:main.c        ****         param_pwr = CYBLE_LL_PWR_LVL_NEG_3_DBM;
1108:main.c        ****     }
1109:main.c        ****     else if(NewLevel == TXPWR_ACCEPTED_VALUE_NEG_2)
1110:main.c        ****     {
1111:main.c        ****         param_pwr = CYBLE_LL_PWR_LVL_NEG_2_DBM;
1112:main.c        ****     }
1113:main.c        ****     else if(NewLevel == TXPWR_ACCEPTED_VALUE_NEG_1)
ARM GAS  C:\Users\ramanatg\AppData\Local\Temp\cc9tuycg.s 			page 22


1114:main.c        ****     {
1115:main.c        ****         param_pwr = CYBLE_LL_PWR_LVL_NEG_1_DBM;
1116:main.c        ****     }
1117:main.c        ****     else if(NewLevel == TXPWR_ACCEPTED_VALUE_0)
1118:main.c        ****     {
1119:main.c        ****         param_pwr = CYBLE_LL_PWR_LVL_0_DBM;
1120:main.c        ****     }
1121:main.c        ****     else if(NewLevel == TXPWR_ACCEPTED_VALUE_3)
1122:main.c        ****     {
1123:main.c        ****         param_pwr = CYBLE_LL_PWR_LVL_3_DBM;
1124:main.c        ****     }
1125:main.c        ****     else
1126:main.c        ****     {
1127:main.c        ****         param_pwr = CYBLE_LL_PWR_LVL_MAX;
1128:main.c        ****     }
1129:main.c        ****     t_pwr.blePwrLevelInDbm = param_pwr;
1130:main.c        ****     t_pwr.bleSsChId = CYBLE_LL_ADV_CH_TYPE;
1131:main.c        ****     CyBle_SetTxPowerLevel(&t_pwr);
1132:main.c        ****     
1133:main.c        ****     return;
1134:main.c        **** }
1135:main.c        **** 
1136:main.c        **** /******************************************************************************
1137:main.c        **** * Function Name: Beacon_GappStartAdvertisement
1138:main.c        **** *******************************************************************************
1139:main.c        **** *
1140:main.c        **** * Summary:
1141:main.c        **** *   This function is used to start the advertisement using the given advertising 
1142:main.c        **** *   interval.
1143:main.c        **** *
1144:main.c        **** * Parameters:
1145:main.c        **** *   advertisingInterval - Time in millisecond for advertising interval 
1146:main.c        **** *
1147:main.c        **** * Return:
1148:main.c        **** *   CYBLE_API_RESULT_T - Return value indicates if the function succeeded or 
1149:main.c        **** *   failed. Following are the possible error codes.
1150:main.c        **** *   
1151:main.c        **** *   Errors codes                        Description
1152:main.c        **** *   ------------                        -----------
1153:main.c        **** *   CYBLE_ERROR_OK                      On successful operation.
1154:main.c        **** *   CYBLE_ERROR_INVALID_PARAMETER       On passing an invalid parameter.
1155:main.c        **** ******************************************************************************/
1156:main.c        **** CYBLE_API_RESULT_T Beacon_GappStartAdvertisement(uint32_t advertisingInterval)
1157:main.c        **** {
1158:main.c        ****     uint16_t RegisterIntervalValue;
1159:main.c        ****     
1160:main.c        ****     RegisterIntervalValue = CALC_REG_INTERVAL(advertisingInterval);
1161:main.c        ****     /* Set advertising broadcast interval*/
1162:main.c        ****     cyBle_discoveryModeInfo.advParam->advIntvMin = RegisterIntervalValue;
1163:main.c        ****     cyBle_discoveryModeInfo.advParam->advIntvMax = RegisterIntervalValue;
1164:main.c        **** 
1165:main.c        ****     /* Start advertising */
1166:main.c        ****     return  CyBle_GappStartAdvertisement(CYBLE_ADVERTISING_CUSTOM);
1167:main.c        **** }
1168:main.c        **** 
1169:main.c        **** #if I2C_SENSOR_ENABLE
1170:main.c        **** /******************************************************************************
ARM GAS  C:\Users\ramanatg\AppData\Local\Temp\cc9tuycg.s 			page 23


1171:main.c        **** * Function Name: UpdateWdtCounter1
1172:main.c        **** *******************************************************************************
1173:main.c        **** *
1174:main.c        **** * Summary:
1175:main.c        **** *   This function update the setting of WDT counter 1 and restart it.
1176:main.c        **** *
1177:main.c        **** * Parameters:
1178:main.c        **** *   match - The value to be used to match against the counter.
1179:main.c        **** *
1180:main.c        **** * Return:
1181:main.c        **** *   None
1182:main.c        **** *
1183:main.c        **** ******************************************************************************/
1184:main.c        **** static void UpdateWdtCounter1(uint32_t match)
1185:main.c        **** {
1186:main.c        ****     CySysWdtUnlock();
1187:main.c        ****     CySysWdtDisable(CY_SYS_WDT_COUNTER1_MASK);
1188:main.c        ****     CySysWdtWriteMode(I2C_COUNTER, CY_SYS_WDT_MODE_INT);
1189:main.c        ****     CySysWdtWriteClearOnMatch(I2C_COUNTER, COUNTER_ENABLE);
1190:main.c        ****     CySysWdtWriteMatch(I2C_COUNTER, match);
1191:main.c        ****     CySysWdtEnable(CY_SYS_WDT_COUNTER1_MASK);
1192:main.c        ****     CySysWdtLock();            
1193:main.c        **** }
1194:main.c        **** #endif
1195:main.c        **** 
1196:main.c        **** /******************************************************************************
1197:main.c        **** * Function Name: UpdateAdData3
1198:main.c        **** *******************************************************************************
1199:main.c        **** *
1200:main.c        **** * Summary:
1201:main.c        **** *   This function is used to update the advertisement data buffer, including 
1202:main.c        **** *   humidity and temperature if SENSOR is ON.
1203:main.c        **** *
1204:main.c        **** * Parameters:
1205:main.c        **** *   NewEdFrame - The new Eddystone frame type. The valid value is ES_FRAME_TYPE_UID,
1206:main.c        **** *                ES_FRAME_TYPE_URL or ES_FRAME_TYPE_TLM.
1207:main.c        **** *
1208:main.c        **** * Return:
1209:main.c        **** *   None
1210:main.c        **** ******************************************************************************/
1211:main.c        **** void UpdateAdData3(uint8_t NewEdFrame)
  84              		.loc 1 1211 0
  85              		.cfi_startproc
  86              	.LVL4:
  87 0000 F8B5     		push	{r3, r4, r5, r6, r7, lr}
  88              		.cfi_def_cfa_offset 24
  89              		.cfi_offset 3, -24
  90              		.cfi_offset 4, -20
  91              		.cfi_offset 5, -16
  92              		.cfi_offset 6, -12
  93              		.cfi_offset 7, -8
  94              		.cfi_offset 14, -4
1212:main.c        **** {
1213:main.c        ****     switch(NewEdFrame)
1214:main.c        ****     {
1215:main.c        ****         /* Update cyBle_discoveryData to be Eddystone-UID frame. */
1216:main.c        ****         case ES_FRAME_TYPE_UID:
ARM GAS  C:\Users\ramanatg\AppData\Local\Temp\cc9tuycg.s 			page 24


1217:main.c        ****             memcpy(&(cyBle_discoveryData.advData[ES_FRAME_OFFSET]), 
1218:main.c        ****                    UID_FrameBuffer, 
1219:main.c        ****                    sizeof(UID_FrameBuffer));
1220:main.c        ****             
1221:main.c        ****             /* ADV packet length */
1222:main.c        ****             cyBle_discoveryData.advDataLen = ES_ADV_FLAGS_LENGTH + 
1223:main.c        ****                                              ES_ADV_SVC_UUID_LENGTH + 
1224:main.c        ****                                              ES_UID_FRAME_ARRAY_LENGTH;
1225:main.c        ****             break;
1226:main.c        ****         
1227:main.c        ****         /* Update cyBle_discoveryData to be Eddystone-URL frame. */
1228:main.c        ****         case ES_FRAME_TYPE_URL:
1229:main.c        ****             memcpy(&(cyBle_discoveryData.advData[ES_FRAME_OFFSET]), 
1230:main.c        ****                    URL_FrameBuffer, 
1231:main.c        ****                    URL_FrameBuffer[INDEX_LEN_IN_BLE_AD_DATA] + SIZE_LEN_IN_BLE_AD_DATA);
1232:main.c        ****         
1233:main.c        ****             /* ADV packet length */
1234:main.c        ****             cyBle_discoveryData.advDataLen = ES_ADV_FLAGS_LENGTH +    \
1235:main.c        ****                                              ES_ADV_SVC_UUID_LENGTH + \
1236:main.c        ****                                              URL_FrameBuffer[INDEX_LEN_IN_BLE_AD_DATA] + SIZE_LEN_I
1237:main.c        ****             break;
1238:main.c        ****         
1239:main.c        ****         /* Update cyBle_discoveryData to be Eddystone-TLM frame. */
1240:main.c        ****         case ES_FRAME_TYPE_TLM:
1241:main.c        ****             memcpy(&(cyBle_discoveryData.advData[ES_FRAME_OFFSET]), 
  95              		.loc 1 1241 0
  96 0002 1F4C     		ldr	r4, .L19
  97 0004 1F49     		ldr	r1, .L19+4
  98 0006 1222     		mov	r2, #18
  99 0008 E01D     		add	r0, r4, #7
 100 000a FFF7FEFF 		bl	memcpy
 101              	.LVL5:
1242:main.c        ****                    DefaultTLMframe, 
1243:main.c        ****                    sizeof(DefaultTLMframe));
1244:main.c        ****             
1245:main.c        ****             cyBle_discoveryData.advData[ES_TLM_INDEX_ADV_CNT]     = GET_BYTE1_BIG_ENDIAN(ES_ADV_CNT
 102              		.loc 1 1245 0
 103 000e 1E4E     		ldr	r6, .L19+8
1246:main.c        ****             cyBle_discoveryData.advData[ES_TLM_INDEX_ADV_CNT + 1] = GET_BYTE2_BIG_ENDIAN(ES_ADV_CNT
1247:main.c        ****             cyBle_discoveryData.advData[ES_TLM_INDEX_ADV_CNT + 2] = GET_BYTE3_BIG_ENDIAN(ES_ADV_CNT
1248:main.c        ****             cyBle_discoveryData.advData[ES_TLM_INDEX_ADV_CNT + 3] = GET_BYTE4_BIG_ENDIAN(ES_ADV_CNT
1249:main.c        ****             
1250:main.c        ****             ES_SEC_CNT   += ES_SEC_CNT_ms / RATIO_0_1SEC_TO_MS;
 104              		.loc 1 1250 0
 105 0010 6421     		mov	r1, #100
1245:main.c        ****             cyBle_discoveryData.advData[ES_TLM_INDEX_ADV_CNT + 1] = GET_BYTE2_BIG_ENDIAN(ES_ADV_CNT
 106              		.loc 1 1245 0
 107 0012 7368     		ldr	r3, [r6, #4]
 108              		.loc 1 1250 0
 109 0014 B768     		ldr	r7, [r6, #8]
1245:main.c        ****             cyBle_discoveryData.advData[ES_TLM_INDEX_ADV_CNT + 1] = GET_BYTE2_BIG_ENDIAN(ES_ADV_CNT
 110              		.loc 1 1245 0
 111 0016 1A0E     		lsr	r2, r3, #24
 112 0018 6274     		strb	r2, [r4, #17]
1246:main.c        ****             cyBle_discoveryData.advData[ES_TLM_INDEX_ADV_CNT + 1] = GET_BYTE2_BIG_ENDIAN(ES_ADV_CNT
 113              		.loc 1 1246 0
 114 001a 1A0C     		lsr	r2, r3, #16
ARM GAS  C:\Users\ramanatg\AppData\Local\Temp\cc9tuycg.s 			page 25


 115 001c A274     		strb	r2, [r4, #18]
1247:main.c        ****             cyBle_discoveryData.advData[ES_TLM_INDEX_ADV_CNT + 3] = GET_BYTE4_BIG_ENDIAN(ES_ADV_CNT
 116              		.loc 1 1247 0
 117 001e 1A0A     		lsr	r2, r3, #8
 118 0020 E274     		strb	r2, [r4, #19]
1248:main.c        ****             
 119              		.loc 1 1248 0
 120 0022 2375     		strb	r3, [r4, #20]
 121              		.loc 1 1250 0
 122 0024 381C     		mov	r0, r7
 123 0026 FFF7FEFF 		bl	__aeabi_uidiv
 124              	.LVL6:
 125 002a F368     		ldr	r3, [r6, #12]
1251:main.c        ****             ES_SEC_CNT_ms = ES_SEC_CNT_ms % RATIO_0_1SEC_TO_MS;
 126              		.loc 1 1251 0
 127 002c 6421     		mov	r1, #100
1250:main.c        ****             ES_SEC_CNT_ms = ES_SEC_CNT_ms % RATIO_0_1SEC_TO_MS;
 128              		.loc 1 1250 0
 129 002e C518     		add	r5, r0, r3
 130 0030 F560     		str	r5, [r6, #12]
 131              		.loc 1 1251 0
 132 0032 381C     		mov	r0, r7
 133 0034 FFF7FEFF 		bl	__aeabi_uidivmod
 134              	.LVL7:
1252:main.c        ****             
1253:main.c        ****             cyBle_discoveryData.advData[ES_TLM_INDEX_SEC_CNT]     = GET_BYTE1_BIG_ENDIAN(ES_SEC_CNT
 135              		.loc 1 1253 0
 136 0038 2B0E     		lsr	r3, r5, #24
 137 003a 6375     		strb	r3, [r4, #21]
1254:main.c        ****             cyBle_discoveryData.advData[ES_TLM_INDEX_SEC_CNT + 1] = GET_BYTE2_BIG_ENDIAN(ES_SEC_CNT
 138              		.loc 1 1254 0
 139 003c 2B0C     		lsr	r3, r5, #16
 140 003e A375     		strb	r3, [r4, #22]
1255:main.c        ****             cyBle_discoveryData.advData[ES_TLM_INDEX_SEC_CNT + 2] = GET_BYTE3_BIG_ENDIAN(ES_SEC_CNT
 141              		.loc 1 1255 0
 142 0040 2B0A     		lsr	r3, r5, #8
 143 0042 E375     		strb	r3, [r4, #23]
1256:main.c        ****             cyBle_discoveryData.advData[ES_TLM_INDEX_SEC_CNT + 3] = GET_BYTE4_BIG_ENDIAN(ES_SEC_CNT
1257:main.c        ****             
1258:main.c        ****             /* ADV packet length */
1259:main.c        ****             cyBle_discoveryData.advDataLen = ES_ADV_FLAGS_LENGTH + 
 144              		.loc 1 1259 0
 145 0044 1923     		mov	r3, #25
 146 0046 E377     		strb	r3, [r4, #31]
1260:main.c        ****                                              ES_ADV_SVC_UUID_LENGTH + 
1261:main.c        ****                                              ES_TLM_FRAME_ARRAY_LENGTH;
1262:main.c        ****             
1263:main.c        **** #if I2C_SENSOR_ENABLE
1264:main.c        ****             /* If I2C sensor is enabled and sensor setting is on. */
1265:main.c        ****             if(Sensor_Flag)
 147              		.loc 1 1265 0
 148 0048 104B     		ldr	r3, .L19+12
1251:main.c        ****             
 149              		.loc 1 1251 0
 150 004a B160     		str	r1, [r6, #8]
 151              		.loc 1 1265 0
 152 004c 1B78     		ldrb	r3, [r3]
ARM GAS  C:\Users\ramanatg\AppData\Local\Temp\cc9tuycg.s 			page 26


1256:main.c        ****             cyBle_discoveryData.advData[ES_TLM_INDEX_SEC_CNT + 3] = GET_BYTE4_BIG_ENDIAN(ES_SEC_CNT
 153              		.loc 1 1256 0
 154 004e 2576     		strb	r5, [r4, #24]
 155              		.loc 1 1265 0
 156 0050 5BB2     		sxtb	r3, r3
 157 0052 002B     		cmp	r3, #0
 158 0054 12D0     		beq	.L14
 159              	.LVL8:
 160              	.LBB11:
1266:main.c        ****             {
1267:main.c        ****                 uint16_t temp;
1268:main.c        ****                 int16_t temperature;
1269:main.c        ****                 
1270:main.c        ****                 /* Calculate Temperature. */
1271:main.c        ****                 temp = (I2C_buffer[I2C_BUFFER_TEM_OFFSET_DATA] << 8) | 
 161              		.loc 1 1271 0
 162 0056 0E4B     		ldr	r3, .L19+16
1272:main.c        ****                         I2C_buffer[I2C_BUFFER_TEM_OFFSET_DATA + 1];
1273:main.c        ****                 temperature = CALC_TEMP_100(temp);
1274:main.c        ****                 temperature = FLOAT100_TO_FLOAT256(temperature);
 163              		.loc 1 1274 0
 164 0058 6421     		mov	r1, #100
1271:main.c        ****                         I2C_buffer[I2C_BUFFER_TEM_OFFSET_DATA + 1];
 165              		.loc 1 1271 0
 166 005a 9878     		ldrb	r0, [r3, #2]
 167 005c DB78     		ldrb	r3, [r3, #3]
 168 005e 0002     		lsl	r0, r0, #8
1273:main.c        ****                 temperature = FLOAT100_TO_FLOAT256(temperature);
 169              		.loc 1 1273 0
 170 0060 1843     		orr	r0, r3
 171 0062 0C4B     		ldr	r3, .L19+20
 172 0064 5843     		mul	r0, r3
 173 0066 0C4B     		ldr	r3, .L19+24
 174 0068 0014     		asr	r0, r0, #16
 175 006a 9C46     		mov	ip, r3
 176 006c 6044     		add	r0, r0, ip
 177              		.loc 1 1274 0
 178 006e 00B2     		sxth	r0, r0
 179 0070 0002     		lsl	r0, r0, #8
 180 0072 FFF7FEFF 		bl	__aeabi_idiv
 181              	.LVL9:
1275:main.c        ****                 
1276:main.c        ****                 cyBle_discoveryData.advData[ES_TLM_INDEX_TEMP_MSB] = temperature >> 8;
 182              		.loc 1 1276 0
 183 0076 030A     		lsr	r3, r0, #8
 184 0078 E373     		strb	r3, [r4, #15]
1277:main.c        ****                 cyBle_discoveryData.advData[ES_TLM_INDEX_TEMP_LSB] = temperature & 0xFF;
 185              		.loc 1 1277 0
 186 007a 2074     		strb	r0, [r4, #16]
 187              	.LVL10:
 188              	.L14:
 189              	.LBE11:
1278:main.c        ****             }
1279:main.c        **** #endif
1280:main.c        ****             break;
1281:main.c        ****         
1282:main.c        ****         default:
ARM GAS  C:\Users\ramanatg\AppData\Local\Temp\cc9tuycg.s 			page 27


1283:main.c        ****             break;
1284:main.c        ****     }
1285:main.c        **** }
 190              		.loc 1 1285 0
 191              		@ sp needed
 192 007c F8BD     		pop	{r3, r4, r5, r6, r7, pc}
 193              	.L20:
 194 007e C046     		.align	2
 195              	.L19:
 196 0080 00000000 		.word	cyBle_discoveryData
 197 0084 44000000 		.word	.LANCHOR1
 198 0088 00000000 		.word	.LANCHOR0
 199 008c 00000000 		.word	Sensor_Flag
 200 0090 00000000 		.word	I2C_buffer
 201 0094 A4440000 		.word	17572
 202 0098 B3EDFFFF 		.word	-4685
 203              		.cfi_endproc
 204              	.LFE51:
 205              		.size	UpdateAdData3.part.2, .-UpdateAdData3.part.2
 206              		.section	.text.BLE_AppEventHandler,"ax",%progbits
 207              		.align	2
 208              		.global	BLE_AppEventHandler
 209              		.code	16
 210              		.thumb_func
 211              		.type	BLE_AppEventHandler, %function
 212              	BLE_AppEventHandler:
 213              	.LFB37:
 126:main.c        ****     (void)eventParam;
 214              		.loc 1 126 0
 215              		.cfi_startproc
 216              	.LVL11:
 217 0000 10B5     		push	{r4, lr}
 218              		.cfi_def_cfa_offset 8
 219              		.cfi_offset 4, -8
 220              		.cfi_offset 14, -4
 221 0002 82B0     		sub	sp, sp, #8
 222              		.cfi_def_cfa_offset 16
 129:main.c        ****     {
 223              		.loc 1 129 0
 224 0004 0128     		cmp	r0, #1
 225 0006 01D0     		beq	.L34
 226              	.LVL12:
 227              	.L21:
 158:main.c        **** 
 228              		.loc 1 158 0
 229 0008 02B0     		add	sp, sp, #8
 230              		@ sp needed
 231 000a 10BD     		pop	{r4, pc}
 232              	.LVL13:
 233              	.L34:
 234              	.LBB16:
 235              	.LBB17:
 138:main.c        ****             
 236              		.loc 1 138 0
 237 000c 204C     		ldr	r4, .L35
 238 000e 217C     		ldrb	r1, [r4, #16]
 239              	.LVL14:
ARM GAS  C:\Users\ramanatg\AppData\Local\Temp\cc9tuycg.s 			page 28


 240              	.LBB18:
 241              	.LBB19:
1093:main.c        ****     {
 242              		.loc 1 1093 0
 243 0010 4BB2     		sxtb	r3, r1
 244 0012 1A1C     		mov	r2, r3
 245 0014 1232     		add	r2, r2, #18
 246 0016 2ED0     		beq	.L25
1097:main.c        ****     {
 247              		.loc 1 1097 0
 248 0018 1A1C     		mov	r2, r3
 249 001a 0C32     		add	r2, r2, #12
 250 001c 2DD0     		beq	.L26
1101:main.c        ****     {
 251              		.loc 1 1101 0
 252 001e 9A1D     		add	r2, r3, #6
 253 0020 2FD0     		beq	.L27
1105:main.c        ****     {
 254              		.loc 1 1105 0
 255 0022 DA1C     		add	r2, r3, #3
 256 0024 2BD0     		beq	.L28
1109:main.c        ****     {
 257              		.loc 1 1109 0
 258 0026 9A1C     		add	r2, r3, #2
 259 0028 2DD0     		beq	.L29
1113:main.c        ****     {
 260              		.loc 1 1113 0
 261 002a 5A1C     		add	r2, r3, #1
 262 002c 2DD0     		beq	.L30
1119:main.c        ****     }
 263              		.loc 1 1119 0
 264 002e 0722     		mov	r2, #7
1117:main.c        ****     {
 265              		.loc 1 1117 0
 266 0030 0029     		cmp	r1, #0
 267 0032 04D0     		beq	.L24
1127:main.c        ****     }
 268              		.loc 1 1127 0
 269 0034 033B     		sub	r3, r3, #3
 270 0036 5A42     		neg	r2, r3
 271 0038 5341     		adc	r3, r3, r2
 272 003a 0922     		mov	r2, #9
 273 003c D21A     		sub	r2, r2, r3
 274              	.L24:
 275              	.LVL15:
1130:main.c        ****     CyBle_SetTxPowerLevel(&t_pwr);
 276              		.loc 1 1130 0
 277 003e 0023     		mov	r3, #0
1129:main.c        ****     t_pwr.bleSsChId = CYBLE_LL_ADV_CH_TYPE;
 278              		.loc 1 1129 0
 279 0040 01A8     		add	r0, sp, #4
 280              	.LVL16:
 281 0042 0270     		strb	r2, [r0]
1130:main.c        ****     CyBle_SetTxPowerLevel(&t_pwr);
 282              		.loc 1 1130 0
 283 0044 4370     		strb	r3, [r0, #1]
1131:main.c        ****     
ARM GAS  C:\Users\ramanatg\AppData\Local\Temp\cc9tuycg.s 			page 29


 284              		.loc 1 1131 0
 285 0046 FFF7FEFF 		bl	CyBle_SetTxPowerLevel
 286              	.LVL17:
 287              	.LBE19:
 288              	.LBE18:
 140:main.c        ****             
 289              		.loc 1 140 0
 290 004a 0123     		mov	r3, #1
 291 004c 6374     		strb	r3, [r4, #17]
 142:main.c        ****             
 292              		.loc 1 142 0
 293 004e FFF7FEFF 		bl	CySysWdtUnlock
 294              	.LVL18:
 144:main.c        ****             
 295              		.loc 1 144 0
 296 0052 0020     		mov	r0, #0
 297 0054 0121     		mov	r1, #1
 298 0056 FFF7FEFF 		bl	CySysWdtSetMode
 299              	.LVL19:
 146:main.c        ****             
 300              		.loc 1 146 0
 301 005a 0020     		mov	r0, #0
 302 005c 0121     		mov	r1, #1
 303 005e FFF7FEFF 		bl	CySysWdtSetClearOnMatch
 304              	.LVL20:
 148:main.c        ****             
 305              		.loc 1 148 0
 306 0062 0C49     		ldr	r1, .L35+4
 307 0064 0020     		mov	r0, #0
 308 0066 FFF7FEFF 		bl	CySysWdtSetMatch
 309              	.LVL21:
 150:main.c        ****             
 310              		.loc 1 150 0
 311 006a 0120     		mov	r0, #1
 312 006c FFF7FEFF 		bl	CySysWdtEnable
 313              	.LVL22:
 152:main.c        ****             break;
 314              		.loc 1 152 0
 315 0070 FFF7FEFF 		bl	CySysWdtLock
 316              	.LVL23:
 317 0074 C8E7     		b	.L21
 318              	.LVL24:
 319              	.L25:
 320              	.LBB21:
 321              	.LBB20:
1095:main.c        ****     }
 322              		.loc 1 1095 0
 323 0076 0122     		mov	r2, #1
 324 0078 E1E7     		b	.L24
 325              	.L26:
1099:main.c        ****     }
 326              		.loc 1 1099 0
 327 007a 0222     		mov	r2, #2
 328 007c DFE7     		b	.L24
 329              	.L28:
1107:main.c        ****     }
 330              		.loc 1 1107 0
ARM GAS  C:\Users\ramanatg\AppData\Local\Temp\cc9tuycg.s 			page 30


 331 007e 0422     		mov	r2, #4
 332 0080 DDE7     		b	.L24
 333              	.L27:
1103:main.c        ****     }
 334              		.loc 1 1103 0
 335 0082 0322     		mov	r2, #3
 336 0084 DBE7     		b	.L24
 337              	.L29:
1111:main.c        ****     }
 338              		.loc 1 1111 0
 339 0086 0522     		mov	r2, #5
 340 0088 D9E7     		b	.L24
 341              	.L30:
1115:main.c        ****     }
 342              		.loc 1 1115 0
 343 008a 0622     		mov	r2, #6
 344 008c D7E7     		b	.L24
 345              	.L36:
 346 008e C046     		.align	2
 347              	.L35:
 348 0090 00000000 		.word	.LANCHOR0
 349 0094 CB0C0000 		.word	3275
 350              	.LBE20:
 351              	.LBE21:
 352              	.LBE17:
 353              	.LBE16:
 354              		.cfi_endproc
 355              	.LFE37:
 356              		.size	BLE_AppEventHandler, .-BLE_AppEventHandler
 357              		.section	.text.LowPower_WCO_ECO_Start,"ax",%progbits
 358              		.align	2
 359              		.global	LowPower_WCO_ECO_Start
 360              		.code	16
 361              		.thumb_func
 362              		.type	LowPower_WCO_ECO_Start, %function
 363              	LowPower_WCO_ECO_Start:
 364              	.LFB39:
 205:main.c        ****     /* Do the following:
 365              		.loc 1 205 0
 366              		.cfi_startproc
 367 0000 08B5     		push	{r3, lr}
 368              		.cfi_def_cfa_offset 8
 369              		.cfi_offset 3, -8
 370              		.cfi_offset 14, -4
 215:main.c        ****     
 371              		.loc 1 215 0
 372 0002 FFF7FEFF 		bl	CySysClkEcoStop
 373              	.LVL25:
 217:main.c        ****     
 374              		.loc 1 217 0
 375 0006 2148     		ldr	r0, .L38
 376 0008 FFF7FEFF 		bl	WDT_Interrupt_StartEx
 377              	.LVL26:
 219:main.c        ****     
 378              		.loc 1 219 0
 379 000c FFF7FEFF 		bl	CySysClkWcoStart
 380              	.LVL27:
ARM GAS  C:\Users\ramanatg\AppData\Local\Temp\cc9tuycg.s 			page 31


 221:main.c        ****     
 381              		.loc 1 221 0
 382 0010 FFF7FEFF 		bl	CySysWdtUnlock
 383              	.LVL28:
 223:main.c        ****     CySysWdtWriteClearOnMatch(SOURCE_COUNTER, COUNTER_ENABLE);
 384              		.loc 1 223 0
 385 0014 0020     		mov	r0, #0
 386 0016 0121     		mov	r1, #1
 387 0018 FFF7FEFF 		bl	CySysWdtSetMode
 388              	.LVL29:
 224:main.c        ****     CySysWdtWriteMatch(SOURCE_COUNTER, COUNT_PERIOD_WCO);
 389              		.loc 1 224 0
 390 001c 0020     		mov	r0, #0
 391 001e 0121     		mov	r1, #1
 392 0020 FFF7FEFF 		bl	CySysWdtSetClearOnMatch
 393              	.LVL30:
 225:main.c        ****     
 394              		.loc 1 225 0
 395 0024 1A49     		ldr	r1, .L38+4
 396 0026 0020     		mov	r0, #0
 397 0028 FFF7FEFF 		bl	CySysWdtSetMatch
 398              	.LVL31:
 227:main.c        ****     
 399              		.loc 1 227 0
 400 002c 0120     		mov	r0, #1
 401 002e FFF7FEFF 		bl	CySysWdtEnable
 402              	.LVL32:
 229:main.c        ****     
 403              		.loc 1 229 0
 404 0032 FFF7FEFF 		bl	CySysWdtLock
 405              	.LVL33:
 231:main.c        ****     
 406              		.loc 1 231 0
 407 0036 FFF7FEFF 		bl	CySysPmDeepSleep
 408              	.LVL34:
 233:main.c        ****     
 409              		.loc 1 233 0
 410 003a 0120     		mov	r0, #1
 411 003c FFF7FEFF 		bl	CySysClkWcoSetPowerMode
 412              	.LVL35:
 236:main.c        ****     CySysClkSetLfclkSource(CY_SYS_CLK_LFCLK_SRC_WCO);   /* LFCLK is now driven by WCO */
 413              		.loc 1 236 0
 414 0040 FFF7FEFF 		bl	CySysWdtUnlock
 415              	.LVL36:
 237:main.c        ****     CySysWdtLock();
 416              		.loc 1 237 0
 417 0044 8020     		mov	r0, #128
 418 0046 C005     		lsl	r0, r0, #23
 419 0048 FFF7FEFF 		bl	CySysClkSetLfclkSource
 420              	.LVL37:
 238:main.c        ****     
 421              		.loc 1 238 0
 422 004c FFF7FEFF 		bl	CySysWdtLock
 423              	.LVL38:
 240:main.c        ****     
 424              		.loc 1 240 0
 425 0050 FFF7FEFF 		bl	CySysClkIloStop
ARM GAS  C:\Users\ramanatg\AppData\Local\Temp\cc9tuycg.s 			page 32


 426              	.LVL39:
 242:main.c        ****     
 427              		.loc 1 242 0
 428 0054 0020     		mov	r0, #0
 429 0056 FFF7FEFF 		bl	CySysClkEcoStart
 430              	.LVL40:
 244:main.c        ****     
 431              		.loc 1 244 0
 432 005a FFF7FEFF 		bl	CySysWdtUnlock
 433              	.LVL41:
 246:main.c        ****     
 434              		.loc 1 246 0
 435 005e 0120     		mov	r0, #1
 436 0060 FFF7FEFF 		bl	CySysWdtDisable
 437              	.LVL42:
 248:main.c        ****     
 438              		.loc 1 248 0
 439 0064 7321     		mov	r1, #115
 440 0066 0020     		mov	r0, #0
 441 0068 FFF7FEFF 		bl	CySysWdtSetMatch
 442              	.LVL43:
 250:main.c        ****     
 443              		.loc 1 250 0
 444 006c 0120     		mov	r0, #1
 445 006e FFF7FEFF 		bl	CySysWdtEnable
 446              	.LVL44:
 252:main.c        ****     
 447              		.loc 1 252 0
 448 0072 FFF7FEFF 		bl	CySysWdtLock
 449              	.LVL45:
 254:main.c        ****     
 450              		.loc 1 254 0
 451 0076 FFF7FEFF 		bl	CySysPmDeepSleep
 452              	.LVL46:
 257:main.c        ****     CySysWdtDisable(CY_SYS_WDT_COUNTER0_MASK);
 453              		.loc 1 257 0
 454 007a FFF7FEFF 		bl	CySysWdtUnlock
 455              	.LVL47:
 258:main.c        ****     CySysWdtLock();
 456              		.loc 1 258 0
 457 007e 0120     		mov	r0, #1
 458 0080 FFF7FEFF 		bl	CySysWdtDisable
 459              	.LVL48:
 260:main.c        **** 
 460              		.loc 1 260 0
 461              		@ sp needed
 259:main.c        **** }
 462              		.loc 1 259 0
 463 0084 FFF7FEFF 		bl	CySysWdtLock
 464              	.LVL49:
 260:main.c        **** 
 465              		.loc 1 260 0
 466 0088 08BD     		pop	{r3, pc}
 467              	.L39:
 468 008a C046     		.align	2
 469              	.L38:
 470 008c 00000000 		.word	WDT_Handler
ARM GAS  C:\Users\ramanatg\AppData\Local\Temp\cc9tuycg.s 			page 33


 471 0090 FF3F0000 		.word	16383
 472              		.cfi_endproc
 473              	.LFE39:
 474              		.size	LowPower_WCO_ECO_Start, .-LowPower_WCO_ECO_Start
 475              		.section	.text.LowPowerSleep,"ax",%progbits
 476              		.align	2
 477              		.global	LowPowerSleep
 478              		.code	16
 479              		.thumb_func
 480              		.type	LowPowerSleep, %function
 481              	LowPowerSleep:
 482              	.LFB40:
 275:main.c        ****     CYBLE_LP_MODE_T pwrState;
 483              		.loc 1 275 0
 484              		.cfi_startproc
 485              	.LVL50:
 486 0000 38B5     		push	{r3, r4, r5, lr}
 487              		.cfi_def_cfa_offset 16
 488              		.cfi_offset 3, -16
 489              		.cfi_offset 4, -12
 490              		.cfi_offset 5, -8
 491              		.cfi_offset 14, -4
 280:main.c        **** 
 492              		.loc 1 280 0
 493 0002 0320     		mov	r0, #3
 494 0004 FFF7FEFF 		bl	CyBle_EnterLPM
 495              	.LVL51:
 496 0008 051C     		mov	r5, r0
 497              	.LVL52:
 282:main.c        ****     
 498              		.loc 1 282 0
 499 000a FFF7FEFF 		bl	CyEnterCriticalSection
 500              	.LVL53:
 501 000e 041C     		mov	r4, r0
 502              	.LVL54:
 284:main.c        ****     /* Make sure BLESS is in Deep-Sleep before configuring system in Deep-Sleep mode */
 503              		.loc 1 284 0
 504 0010 FFF7FEFF 		bl	CyBle_GetBleSsState
 505              	.LVL55:
 286:main.c        ****     {
 506              		.loc 1 286 0
 507 0014 032D     		cmp	r5, #3
 508 0016 11D0     		beq	.L46
 297:main.c        ****     {
 509              		.loc 1 297 0
 510 0018 0228     		cmp	r0, #2
 511 001a 0BD0     		beq	.L42
 300:main.c        ****         
 512              		.loc 1 300 0
 513 001c 0220     		mov	r0, #2
 514              	.LVL56:
 515 001e FFF7FEFF 		bl	CySysClkWriteHfclkDirect
 516              	.LVL57:
 303:main.c        ****       
 517              		.loc 1 303 0
 518 0022 FFF7FEFF 		bl	CySysClkImoStop
 519              	.LVL58:
ARM GAS  C:\Users\ramanatg\AppData\Local\Temp\cc9tuycg.s 			page 34


 306:main.c        ****        
 520              		.loc 1 306 0
 521 0026 FFF7FEFF 		bl	CySysPmSleep
 522              	.LVL59:
 309:main.c        ****         
 523              		.loc 1 309 0
 524 002a FFF7FEFF 		bl	CySysClkImoStart
 525              	.LVL60:
 312:main.c        ****     }
 526              		.loc 1 312 0
 527 002e 0020     		mov	r0, #0
 528 0030 FFF7FEFF 		bl	CySysClkWriteHfclkDirect
 529              	.LVL61:
 530              	.L42:
 315:main.c        ****     
 531              		.loc 1 315 0
 532 0034 201C     		mov	r0, r4
 533 0036 FFF7FEFF 		bl	CyExitCriticalSection
 534              	.LVL62:
 318:main.c        **** 
 535              		.loc 1 318 0
 536              		@ sp needed
 537              	.LVL63:
 538              	.LVL64:
 539 003a 38BD     		pop	{r3, r4, r5, pc}
 540              	.LVL65:
 541              	.L46:
 290:main.c        ****         {
 542              		.loc 1 290 0
 543 003c FD23     		mov	r3, #253
 544 003e 1840     		and	r0, r3
 545              	.LVL66:
 546 0040 0428     		cmp	r0, #4
 547 0042 F7D1     		bne	.L42
 292:main.c        ****         }
 548              		.loc 1 292 0
 549 0044 FFF7FEFF 		bl	CySysPmDeepSleep
 550              	.LVL67:
 551 0048 F4E7     		b	.L42
 552              		.cfi_endproc
 553              	.LFE40:
 554              		.size	LowPowerSleep, .-LowPowerSleep
 555 004a C046     		.section	.text.ProcessI2CEvents,"ax",%progbits
 556              		.align	2
 557              		.global	ProcessI2CEvents
 558              		.code	16
 559              		.thumb_func
 560              		.type	ProcessI2CEvents, %function
 561              	ProcessI2CEvents:
 562              	.LFB42:
 470:main.c        ****     CYBLE_API_RESULT_T apiResult = CYBLE_ERROR_OK;
 563              		.loc 1 470 0
 564              		.cfi_startproc
 565              	.LVL68:
 566 0000 F8B5     		push	{r3, r4, r5, r6, r7, lr}
 567              		.cfi_def_cfa_offset 24
 568              		.cfi_offset 3, -24
ARM GAS  C:\Users\ramanatg\AppData\Local\Temp\cc9tuycg.s 			page 35


 569              		.cfi_offset 4, -20
 570              		.cfi_offset 5, -16
 571              		.cfi_offset 6, -12
 572              		.cfi_offset 7, -8
 573              		.cfi_offset 14, -4
 574 0002 4F46     		mov	r7, r9
 575 0004 4646     		mov	r6, r8
 473:main.c        ****     {
 576              		.loc 1 473 0
 577 0006 D94C     		ldr	r4, .L112
 470:main.c        ****     CYBLE_API_RESULT_T apiResult = CYBLE_ERROR_OK;
 578              		.loc 1 470 0
 579 0008 C0B4     		push	{r6, r7}
 580              		.cfi_def_cfa_offset 32
 581              		.cfi_offset 8, -32
 582              		.cfi_offset 9, -28
 473:main.c        ****     {
 583              		.loc 1 473 0
 584 000a A37C     		ldrb	r3, [r4, #18]
 585 000c 092B     		cmp	r3, #9
 586 000e 08D8     		bhi	.L48
 587 0010 D74A     		ldr	r2, .L112+4
 588 0012 9B00     		lsl	r3, r3, #2
 589 0014 D358     		ldr	r3, [r2, r3]
 590 0016 9F46     		mov	pc, r3
 591              		.section	.rodata
 592              		.align	2
 593              	.L50:
 594 0000 92000000 		.word	.L49
 595 0004 E8000000 		.word	.L51
 596 0008 3A010000 		.word	.L52
 597 000c 86010000 		.word	.L53
 598 0010 DC010000 		.word	.L54
 599 0014 28020000 		.word	.L55
 600 0018 18000000 		.word	.L56
 601 001c 8A020000 		.word	.L57
 602 0020 40000000 		.word	.L58
 603 0024 84000000 		.word	.L59
 604              		.section	.text.ProcessI2CEvents
 605              	.L56:
 671:main.c        ****             {
 606              		.loc 1 671 0
 607 0018 FFF7FEFF 		bl	CyBle_GetBleSsState
 608              	.LVL69:
 609 001c 0228     		cmp	r0, #2
 610 001e 00D1     		bne	.LCB499
 611 0020 4AE1     		b	.L109	@long jump
 612              	.LCB499:
 613              	.L48:
 614 0022 2378     		ldrb	r3, [r4]
 615              	.L62:
 740:main.c        ****     {
 616              		.loc 1 740 0
 617 0024 0025     		mov	r5, #0
 618 0026 002B     		cmp	r3, #0
 619 0028 06D0     		beq	.L47
 620              	.LVL70:
ARM GAS  C:\Users\ramanatg\AppData\Local\Temp\cc9tuycg.s 			page 36


 621              	.L76:
 742:main.c        ****     }
 622              		.loc 1 742 0
 623 002a 0023     		mov	r3, #0
 624 002c 2370     		strb	r3, [r4]
 625              	.L77:
 746:main.c        ****     {
 626              		.loc 1 746 0
 627 002e 002D     		cmp	r5, #0
 628 0030 02D0     		beq	.L47
 748:main.c        ****     }
 629              		.loc 1 748 0 discriminator 1
 630 0032 0020     		mov	r0, #0
 631 0034 FFF7FEFF 		bl	CyHalt
 632              	.LVL71:
 633              	.L47:
 750:main.c        **** #endif
 634              		.loc 1 750 0
 635              		@ sp needed
 636 0038 0CBC     		pop	{r2, r3}
 637 003a 9046     		mov	r8, r2
 638 003c 9946     		mov	r9, r3
 639 003e F8BD     		pop	{r3, r4, r5, r6, r7, pc}
 640              	.LVL72:
 641              	.L58:
 714:main.c        ****             {
 642              		.loc 1 714 0
 643 0040 FFF7FEFF 		bl	CyBle_GetBleSsState
 644              	.LVL73:
 645 0044 0228     		cmp	r0, #2
 646 0046 ECD1     		bne	.L48
 717:main.c        ****             
 647              		.loc 1 717 0
 648 0048 0923     		mov	r3, #9
 649 004a A374     		strb	r3, [r4, #18]
 719:main.c        ****                 
 650              		.loc 1 719 0
 651 004c FFF7FEFF 		bl	CyBle_GappStopAdvertisement
 652              	.LVL74:
 653              	.L108:
 654              	.LBB48:
 655              	.LBB49:
1186:main.c        ****     CySysWdtDisable(CY_SYS_WDT_COUNTER1_MASK);
 656              		.loc 1 1186 0
 657 0050 FFF7FEFF 		bl	CySysWdtUnlock
 658              	.LVL75:
1187:main.c        ****     CySysWdtWriteMode(I2C_COUNTER, CY_SYS_WDT_MODE_INT);
 659              		.loc 1 1187 0
 660 0054 8020     		mov	r0, #128
 661 0056 4000     		lsl	r0, r0, #1
 662 0058 FFF7FEFF 		bl	CySysWdtDisable
 663              	.LVL76:
1188:main.c        ****     CySysWdtWriteClearOnMatch(I2C_COUNTER, COUNTER_ENABLE);
 664              		.loc 1 1188 0
 665 005c 0120     		mov	r0, #1
 666 005e 0121     		mov	r1, #1
 667 0060 FFF7FEFF 		bl	CySysWdtSetMode
ARM GAS  C:\Users\ramanatg\AppData\Local\Temp\cc9tuycg.s 			page 37


 668              	.LVL77:
1189:main.c        ****     CySysWdtWriteMatch(I2C_COUNTER, match);
 669              		.loc 1 1189 0
 670 0064 0120     		mov	r0, #1
 671 0066 0121     		mov	r1, #1
 672 0068 FFF7FEFF 		bl	CySysWdtSetClearOnMatch
 673              	.LVL78:
1190:main.c        ****     CySysWdtEnable(CY_SYS_WDT_COUNTER1_MASK);
 674              		.loc 1 1190 0
 675 006c C149     		ldr	r1, .L112+8
 676 006e 0120     		mov	r0, #1
 677 0070 FFF7FEFF 		bl	CySysWdtSetMatch
 678              	.LVL79:
1191:main.c        ****     CySysWdtLock();            
 679              		.loc 1 1191 0
 680 0074 8020     		mov	r0, #128
 681 0076 4000     		lsl	r0, r0, #1
 682 0078 FFF7FEFF 		bl	CySysWdtEnable
 683              	.LVL80:
1192:main.c        **** }
 684              		.loc 1 1192 0
 685 007c FFF7FEFF 		bl	CySysWdtLock
 686              	.LVL81:
 687 0080 2378     		ldrb	r3, [r4]
 688 0082 CFE7     		b	.L62
 689              	.LVL82:
 690              	.L59:
 691              	.LBE49:
 692              	.LBE48:
 728:main.c        ****             {
 693              		.loc 1 728 0
 694 0084 2378     		ldrb	r3, [r4]
 695 0086 002B     		cmp	r3, #0
 696 0088 D6D0     		beq	.L47
 731:main.c        ****             }
 697              		.loc 1 731 0
 698 008a 0123     		mov	r3, #1
 699 008c 0025     		mov	r5, #0
 700 008e A374     		strb	r3, [r4, #18]
 701 0090 CBE7     		b	.L76
 702              	.L49:
 478:main.c        ****             {
 703              		.loc 1 478 0
 704 0092 2378     		ldrb	r3, [r4]
 705 0094 002B     		cmp	r3, #0
 706 0096 CFD0     		beq	.L47
 480:main.c        **** 
 707              		.loc 1 480 0
 708 0098 FFF7FEFF 		bl	I2CM_Start
 709              	.LVL83:
 482:main.c        ****                 I2C_buffer[SI7020_WRITE_REG_INDEX_DATA] = USER_REG_SETTING;
 710              		.loc 1 482 0
 711 009c E623     		mov	r3, #230
 712 009e B649     		ldr	r1, .L112+12
 484:main.c        ****                                        I2C_buffer, 
 713              		.loc 1 484 0
 714 00a0 0222     		mov	r2, #2
ARM GAS  C:\Users\ramanatg\AppData\Local\Temp\cc9tuycg.s 			page 38


 482:main.c        ****                 I2C_buffer[SI7020_WRITE_REG_INDEX_DATA] = USER_REG_SETTING;
 715              		.loc 1 482 0
 716 00a2 0B70     		strb	r3, [r1]
 483:main.c        ****                 I2CM_I2CMasterWriteBuf(SI7020_SLAVE_ADDR, 
 717              		.loc 1 483 0
 718 00a4 AB3B     		sub	r3, r3, #171
 719 00a6 4B70     		strb	r3, [r1, #1]
 484:main.c        ****                                        I2C_buffer, 
 720              		.loc 1 484 0
 721 00a8 4020     		mov	r0, #64
 722 00aa 0023     		mov	r3, #0
 723 00ac FFF7FEFF 		bl	I2CM_I2CMasterWriteBuf
 724              	.LVL84:
 725              	.LBB50:
 726              	.LBB51:
1186:main.c        ****     CySysWdtDisable(CY_SYS_WDT_COUNTER1_MASK);
 727              		.loc 1 1186 0
 728 00b0 FFF7FEFF 		bl	CySysWdtUnlock
 729              	.LVL85:
1187:main.c        ****     CySysWdtWriteMode(I2C_COUNTER, CY_SYS_WDT_MODE_INT);
 730              		.loc 1 1187 0
 731 00b4 8020     		mov	r0, #128
 732 00b6 4000     		lsl	r0, r0, #1
 733 00b8 FFF7FEFF 		bl	CySysWdtDisable
 734              	.LVL86:
1188:main.c        ****     CySysWdtWriteClearOnMatch(I2C_COUNTER, COUNTER_ENABLE);
 735              		.loc 1 1188 0
 736 00bc 0120     		mov	r0, #1
 737 00be 0121     		mov	r1, #1
 738 00c0 FFF7FEFF 		bl	CySysWdtSetMode
 739              	.LVL87:
1189:main.c        ****     CySysWdtWriteMatch(I2C_COUNTER, match);
 740              		.loc 1 1189 0
 741 00c4 0120     		mov	r0, #1
 742 00c6 0121     		mov	r1, #1
 743 00c8 FFF7FEFF 		bl	CySysWdtSetClearOnMatch
 744              	.LVL88:
1190:main.c        ****     CySysWdtEnable(CY_SYS_WDT_COUNTER1_MASK);
 745              		.loc 1 1190 0
 746 00cc AB49     		ldr	r1, .L112+16
 747 00ce 0120     		mov	r0, #1
 748 00d0 FFF7FEFF 		bl	CySysWdtSetMatch
 749              	.LVL89:
1191:main.c        ****     CySysWdtLock();            
 750              		.loc 1 1191 0
 751 00d4 8020     		mov	r0, #128
 752 00d6 4000     		lsl	r0, r0, #1
 753 00d8 FFF7FEFF 		bl	CySysWdtEnable
 754              	.LVL90:
1192:main.c        **** }
 755              		.loc 1 1192 0
 756 00dc FFF7FEFF 		bl	CySysWdtLock
 757              	.LVL91:
 758              	.LBE51:
 759              	.LBE50:
 492:main.c        ****             }
 760              		.loc 1 492 0
ARM GAS  C:\Users\ramanatg\AppData\Local\Temp\cc9tuycg.s 			page 39


 761 00e0 0123     		mov	r3, #1
 762 00e2 A374     		strb	r3, [r4, #18]
 763 00e4 2378     		ldrb	r3, [r4]
 764 00e6 9DE7     		b	.L62
 765              	.LVL92:
 766              	.L51:
 499:main.c        ****             {
 767              		.loc 1 499 0
 768 00e8 2378     		ldrb	r3, [r4]
 769 00ea 002B     		cmp	r3, #0
 770 00ec A4D0     		beq	.L47
 501:main.c        ****                 
 771              		.loc 1 501 0
 772 00ee FFF7FEFF 		bl	I2CM_I2CMasterClearStatus
 773              	.LVL93:
 504:main.c        ****                 I2CM_I2CMasterWriteBuf(SI7020_SLAVE_ADDR, 
 774              		.loc 1 504 0
 775 00f2 F523     		mov	r3, #245
 776 00f4 A049     		ldr	r1, .L112+12
 505:main.c        ****                                        &I2C_buffer[I2C_BUFFER_HUM_OFFSET_CMD], 
 777              		.loc 1 505 0
 778 00f6 0122     		mov	r2, #1
 504:main.c        ****                 I2CM_I2CMasterWriteBuf(SI7020_SLAVE_ADDR, 
 779              		.loc 1 504 0
 780 00f8 0B70     		strb	r3, [r1]
 505:main.c        ****                                        &I2C_buffer[I2C_BUFFER_HUM_OFFSET_CMD], 
 781              		.loc 1 505 0
 782 00fa 4020     		mov	r0, #64
 783 00fc 0023     		mov	r3, #0
 784 00fe FFF7FEFF 		bl	I2CM_I2CMasterWriteBuf
 785              	.LVL94:
 786              	.LBB52:
 787              	.LBB53:
1186:main.c        ****     CySysWdtDisable(CY_SYS_WDT_COUNTER1_MASK);
 788              		.loc 1 1186 0
 789 0102 FFF7FEFF 		bl	CySysWdtUnlock
 790              	.LVL95:
1187:main.c        ****     CySysWdtWriteMode(I2C_COUNTER, CY_SYS_WDT_MODE_INT);
 791              		.loc 1 1187 0
 792 0106 8020     		mov	r0, #128
 793 0108 4000     		lsl	r0, r0, #1
 794 010a FFF7FEFF 		bl	CySysWdtDisable
 795              	.LVL96:
1188:main.c        ****     CySysWdtWriteClearOnMatch(I2C_COUNTER, COUNTER_ENABLE);
 796              		.loc 1 1188 0
 797 010e 0120     		mov	r0, #1
 798 0110 0121     		mov	r1, #1
 799 0112 FFF7FEFF 		bl	CySysWdtSetMode
 800              	.LVL97:
1189:main.c        ****     CySysWdtWriteMatch(I2C_COUNTER, match);
 801              		.loc 1 1189 0
 802 0116 0120     		mov	r0, #1
 803 0118 0121     		mov	r1, #1
 804 011a FFF7FEFF 		bl	CySysWdtSetClearOnMatch
 805              	.LVL98:
1190:main.c        ****     CySysWdtEnable(CY_SYS_WDT_COUNTER1_MASK);
 806              		.loc 1 1190 0
ARM GAS  C:\Users\ramanatg\AppData\Local\Temp\cc9tuycg.s 			page 40


 807 011e 9749     		ldr	r1, .L112+16
 808 0120 0120     		mov	r0, #1
 809 0122 FFF7FEFF 		bl	CySysWdtSetMatch
 810              	.LVL99:
1191:main.c        ****     CySysWdtLock();            
 811              		.loc 1 1191 0
 812 0126 8020     		mov	r0, #128
 813 0128 4000     		lsl	r0, r0, #1
 814 012a FFF7FEFF 		bl	CySysWdtEnable
 815              	.LVL100:
1192:main.c        **** }
 816              		.loc 1 1192 0
 817 012e FFF7FEFF 		bl	CySysWdtLock
 818              	.LVL101:
 819              	.LBE53:
 820              	.LBE52:
 513:main.c        ****             }
 821              		.loc 1 513 0
 822 0132 0223     		mov	r3, #2
 823 0134 A374     		strb	r3, [r4, #18]
 824 0136 2378     		ldrb	r3, [r4]
 825 0138 74E7     		b	.L62
 826              	.LVL102:
 827              	.L52:
 520:main.c        ****             {
 828              		.loc 1 520 0
 829 013a 2378     		ldrb	r3, [r4]
 830 013c 002B     		cmp	r3, #0
 831 013e 00D1     		bne	.LCB694
 832 0140 7AE7     		b	.L47	@long jump
 833              	.LCB694:
 523:main.c        ****                                       &I2C_buffer[I2C_BUFFER_HUM_OFFSET_DATA], 
 834              		.loc 1 523 0
 835 0142 0023     		mov	r3, #0
 836 0144 0222     		mov	r2, #2
 837 0146 8C49     		ldr	r1, .L112+12
 838 0148 4020     		mov	r0, #64
 839 014a FFF7FEFF 		bl	I2CM_I2CMasterReadBuf
 840              	.LVL103:
 841              	.LBB54:
 842              	.LBB55:
1186:main.c        ****     CySysWdtDisable(CY_SYS_WDT_COUNTER1_MASK);
 843              		.loc 1 1186 0
 844 014e FFF7FEFF 		bl	CySysWdtUnlock
 845              	.LVL104:
1187:main.c        ****     CySysWdtWriteMode(I2C_COUNTER, CY_SYS_WDT_MODE_INT);
 846              		.loc 1 1187 0
 847 0152 8020     		mov	r0, #128
 848 0154 4000     		lsl	r0, r0, #1
 849 0156 FFF7FEFF 		bl	CySysWdtDisable
 850              	.LVL105:
1188:main.c        ****     CySysWdtWriteClearOnMatch(I2C_COUNTER, COUNTER_ENABLE);
 851              		.loc 1 1188 0
 852 015a 0120     		mov	r0, #1
 853 015c 0121     		mov	r1, #1
 854 015e FFF7FEFF 		bl	CySysWdtSetMode
 855              	.LVL106:
ARM GAS  C:\Users\ramanatg\AppData\Local\Temp\cc9tuycg.s 			page 41


1189:main.c        ****     CySysWdtWriteMatch(I2C_COUNTER, match);
 856              		.loc 1 1189 0
 857 0162 0120     		mov	r0, #1
 858 0164 0121     		mov	r1, #1
 859 0166 FFF7FEFF 		bl	CySysWdtSetClearOnMatch
 860              	.LVL107:
1190:main.c        ****     CySysWdtEnable(CY_SYS_WDT_COUNTER1_MASK);
 861              		.loc 1 1190 0
 862 016a 8449     		ldr	r1, .L112+16
 863 016c 0120     		mov	r0, #1
 864 016e FFF7FEFF 		bl	CySysWdtSetMatch
 865              	.LVL108:
1191:main.c        ****     CySysWdtLock();            
 866              		.loc 1 1191 0
 867 0172 8020     		mov	r0, #128
 868 0174 4000     		lsl	r0, r0, #1
 869 0176 FFF7FEFF 		bl	CySysWdtEnable
 870              	.LVL109:
1192:main.c        **** }
 871              		.loc 1 1192 0
 872 017a FFF7FEFF 		bl	CySysWdtLock
 873              	.LVL110:
 874              	.LBE55:
 875              	.LBE54:
 531:main.c        ****             }
 876              		.loc 1 531 0
 877 017e 0323     		mov	r3, #3
 878 0180 A374     		strb	r3, [r4, #18]
 879 0182 2378     		ldrb	r3, [r4]
 880 0184 4EE7     		b	.L62
 881              	.LVL111:
 882              	.L53:
 538:main.c        ****             {
 883              		.loc 1 538 0
 884 0186 2378     		ldrb	r3, [r4]
 885 0188 002B     		cmp	r3, #0
 886 018a 00D1     		bne	.LCB740
 887 018c 54E7     		b	.L47	@long jump
 888              	.LCB740:
 540:main.c        ****                 
 889              		.loc 1 540 0
 890 018e FFF7FEFF 		bl	I2CM_I2CMasterClearStatus
 891              	.LVL112:
 543:main.c        ****                 I2CM_I2CMasterWriteBuf(SI7020_SLAVE_ADDR, 
 892              		.loc 1 543 0
 893 0192 E023     		mov	r3, #224
 894 0194 7849     		ldr	r1, .L112+12
 544:main.c        ****                                        &I2C_buffer[I2C_BUFFER_TEM_OFFSET_DATA], 
 895              		.loc 1 544 0
 896 0196 0122     		mov	r2, #1
 543:main.c        ****                 I2CM_I2CMasterWriteBuf(SI7020_SLAVE_ADDR, 
 897              		.loc 1 543 0
 898 0198 8B70     		strb	r3, [r1, #2]
 544:main.c        ****                                        &I2C_buffer[I2C_BUFFER_TEM_OFFSET_DATA], 
 899              		.loc 1 544 0
 900 019a 4020     		mov	r0, #64
 901 019c 0023     		mov	r3, #0
ARM GAS  C:\Users\ramanatg\AppData\Local\Temp\cc9tuycg.s 			page 42


 902 019e 0231     		add	r1, r1, #2
 903 01a0 FFF7FEFF 		bl	I2CM_I2CMasterWriteBuf
 904              	.LVL113:
 905              	.LBB56:
 906              	.LBB57:
1186:main.c        ****     CySysWdtDisable(CY_SYS_WDT_COUNTER1_MASK);
 907              		.loc 1 1186 0
 908 01a4 FFF7FEFF 		bl	CySysWdtUnlock
 909              	.LVL114:
1187:main.c        ****     CySysWdtWriteMode(I2C_COUNTER, CY_SYS_WDT_MODE_INT);
 910              		.loc 1 1187 0
 911 01a8 8020     		mov	r0, #128
 912 01aa 4000     		lsl	r0, r0, #1
 913 01ac FFF7FEFF 		bl	CySysWdtDisable
 914              	.LVL115:
1188:main.c        ****     CySysWdtWriteClearOnMatch(I2C_COUNTER, COUNTER_ENABLE);
 915              		.loc 1 1188 0
 916 01b0 0120     		mov	r0, #1
 917 01b2 0121     		mov	r1, #1
 918 01b4 FFF7FEFF 		bl	CySysWdtSetMode
 919              	.LVL116:
1189:main.c        ****     CySysWdtWriteMatch(I2C_COUNTER, match);
 920              		.loc 1 1189 0
 921 01b8 0120     		mov	r0, #1
 922 01ba 0121     		mov	r1, #1
 923 01bc FFF7FEFF 		bl	CySysWdtSetClearOnMatch
 924              	.LVL117:
1190:main.c        ****     CySysWdtEnable(CY_SYS_WDT_COUNTER1_MASK);
 925              		.loc 1 1190 0
 926 01c0 6E49     		ldr	r1, .L112+16
 927 01c2 0120     		mov	r0, #1
 928 01c4 FFF7FEFF 		bl	CySysWdtSetMatch
 929              	.LVL118:
1191:main.c        ****     CySysWdtLock();            
 930              		.loc 1 1191 0
 931 01c8 8020     		mov	r0, #128
 932 01ca 4000     		lsl	r0, r0, #1
 933 01cc FFF7FEFF 		bl	CySysWdtEnable
 934              	.LVL119:
1192:main.c        **** }
 935              		.loc 1 1192 0
 936 01d0 FFF7FEFF 		bl	CySysWdtLock
 937              	.LVL120:
 938              	.LBE57:
 939              	.LBE56:
 552:main.c        ****             }
 940              		.loc 1 552 0
 941 01d4 0423     		mov	r3, #4
 942 01d6 A374     		strb	r3, [r4, #18]
 943 01d8 2378     		ldrb	r3, [r4]
 944 01da 23E7     		b	.L62
 945              	.LVL121:
 946              	.L54:
 559:main.c        ****             {
 947              		.loc 1 559 0
 948 01dc 2378     		ldrb	r3, [r4]
 949 01de 002B     		cmp	r3, #0
ARM GAS  C:\Users\ramanatg\AppData\Local\Temp\cc9tuycg.s 			page 43


 950 01e0 00D1     		bne	.LCB791
 951 01e2 29E7     		b	.L47	@long jump
 952              	.LCB791:
 562:main.c        ****                                       &I2C_buffer[I2C_BUFFER_TEM_OFFSET_DATA], 
 953              		.loc 1 562 0
 954 01e4 0023     		mov	r3, #0
 955 01e6 0222     		mov	r2, #2
 956 01e8 6549     		ldr	r1, .L112+20
 957 01ea 4020     		mov	r0, #64
 958 01ec FFF7FEFF 		bl	I2CM_I2CMasterReadBuf
 959              	.LVL122:
 960              	.LBB58:
 961              	.LBB59:
1186:main.c        ****     CySysWdtDisable(CY_SYS_WDT_COUNTER1_MASK);
 962              		.loc 1 1186 0
 963 01f0 FFF7FEFF 		bl	CySysWdtUnlock
 964              	.LVL123:
1187:main.c        ****     CySysWdtWriteMode(I2C_COUNTER, CY_SYS_WDT_MODE_INT);
 965              		.loc 1 1187 0
 966 01f4 8020     		mov	r0, #128
 967 01f6 4000     		lsl	r0, r0, #1
 968 01f8 FFF7FEFF 		bl	CySysWdtDisable
 969              	.LVL124:
1188:main.c        ****     CySysWdtWriteClearOnMatch(I2C_COUNTER, COUNTER_ENABLE);
 970              		.loc 1 1188 0
 971 01fc 0120     		mov	r0, #1
 972 01fe 0121     		mov	r1, #1
 973 0200 FFF7FEFF 		bl	CySysWdtSetMode
 974              	.LVL125:
1189:main.c        ****     CySysWdtWriteMatch(I2C_COUNTER, match);
 975              		.loc 1 1189 0
 976 0204 0120     		mov	r0, #1
 977 0206 0121     		mov	r1, #1
 978 0208 FFF7FEFF 		bl	CySysWdtSetClearOnMatch
 979              	.LVL126:
1190:main.c        ****     CySysWdtEnable(CY_SYS_WDT_COUNTER1_MASK);
 980              		.loc 1 1190 0
 981 020c 5B49     		ldr	r1, .L112+16
 982 020e 0120     		mov	r0, #1
 983 0210 FFF7FEFF 		bl	CySysWdtSetMatch
 984              	.LVL127:
1191:main.c        ****     CySysWdtLock();            
 985              		.loc 1 1191 0
 986 0214 8020     		mov	r0, #128
 987 0216 4000     		lsl	r0, r0, #1
 988 0218 FFF7FEFF 		bl	CySysWdtEnable
 989              	.LVL128:
1192:main.c        **** }
 990              		.loc 1 1192 0
 991 021c FFF7FEFF 		bl	CySysWdtLock
 992              	.LVL129:
 993              	.LBE59:
 994              	.LBE58:
 570:main.c        ****             }
 995              		.loc 1 570 0
 996 0220 0523     		mov	r3, #5
 997 0222 A374     		strb	r3, [r4, #18]
ARM GAS  C:\Users\ramanatg\AppData\Local\Temp\cc9tuycg.s 			page 44


 998 0224 2378     		ldrb	r3, [r4]
 999 0226 FDE6     		b	.L62
 1000              	.LVL130:
 1001              	.L55:
 577:main.c        ****             {
 1002              		.loc 1 577 0
 1003 0228 2378     		ldrb	r3, [r4]
 1004 022a 002B     		cmp	r3, #0
 1005 022c 00D1     		bne	.LCB837
 1006 022e 03E7     		b	.L47	@long jump
 1007              	.LCB837:
 579:main.c        ****                 
 1008              		.loc 1 579 0
 1009 0230 FFF7FEFF 		bl	I2CM_I2CMasterClearStatus
 1010              	.LVL131:
 582:main.c        ****                 {
 1011              		.loc 1 582 0
 1012 0234 A58A     		ldrh	r5, [r4, #20]
 1013 0236 002D     		cmp	r5, #0
 1014 0238 00D1     		bne	.LCB842
 1015 023a 7FE0     		b	.L110	@long jump
 1016              	.LCB842:
 592:main.c        ****                 {
 1017              		.loc 1 592 0
 1018 023c 1F23     		mov	r3, #31
 1019 023e A669     		ldr	r6, [r4, #24]
 1020 0240 F356     		ldrsb	r3, [r6, r3]
 1021 0242 002B     		cmp	r3, #0
 1022 0244 58D1     		bne	.L65
 595:main.c        ****                     
 1023              		.loc 1 595 0
 1024 0246 4C4A     		ldr	r2, .L112+12
 1025 0248 4E4B     		ldr	r3, .L112+24
 1026 024a 1178     		ldrb	r1, [r2]
 1027 024c D976     		strb	r1, [r3, #27]
 598:main.c        ****                     
 1028              		.loc 1 598 0
 1029 024e 9278     		ldrb	r2, [r2, #2]
 1030 0250 1A77     		strb	r2, [r3, #28]
 601:main.c        ****                 }
 1031              		.loc 1 601 0
 1032 0252 0823     		mov	r3, #8
 1033 0254 A374     		strb	r3, [r4, #18]
 1034              	.L66:
 1035              	.LVL132:
 1036              	.LBB60:
 1037              	.LBB61:
1160:main.c        ****     /* Set advertising broadcast interval*/
 1038              		.loc 1 1160 0
 1039 0256 0521     		mov	r1, #5
 1040 0258 E800     		lsl	r0, r5, #3
 1041 025a FFF7FEFF 		bl	__aeabi_uidiv
 1042              	.LVL133:
1162:main.c        ****     cyBle_discoveryModeInfo.advParam->advIntvMax = RegisterIntervalValue;
 1043              		.loc 1 1162 0
 1044 025e 4A4B     		ldr	r3, .L112+28
1160:main.c        ****     /* Set advertising broadcast interval*/
ARM GAS  C:\Users\ramanatg\AppData\Local\Temp\cc9tuycg.s 			page 45


 1045              		.loc 1 1160 0
 1046 0260 80B2     		uxth	r0, r0
 1047              	.LVL134:
1162:main.c        ****     cyBle_discoveryModeInfo.advParam->advIntvMax = RegisterIntervalValue;
 1048              		.loc 1 1162 0
 1049 0262 5B68     		ldr	r3, [r3, #4]
 1050 0264 1880     		strh	r0, [r3]
1163:main.c        **** 
 1051              		.loc 1 1163 0
 1052 0266 5880     		strh	r0, [r3, #2]
1166:main.c        **** }
 1053              		.loc 1 1166 0
 1054 0268 0220     		mov	r0, #2
 1055              	.LVL135:
 1056 026a FFF7FEFF 		bl	CyBle_GappStartAdvertisement
 1057              	.LVL136:
 1058 026e 051C     		mov	r5, r0
 1059              	.LVL137:
 1060              	.LBE61:
 1061              	.LBE60:
 662:main.c        ****                 CySysWdtDisable(CY_SYS_WDT_COUNTER1_MASK);
 1062              		.loc 1 662 0
 1063 0270 FFF7FEFF 		bl	CySysWdtUnlock
 1064              	.LVL138:
 663:main.c        ****                 CySysWdtLock();
 1065              		.loc 1 663 0
 1066 0274 8020     		mov	r0, #128
 1067 0276 4000     		lsl	r0, r0, #1
 1068 0278 FFF7FEFF 		bl	CySysWdtDisable
 1069              	.LVL139:
 664:main.c        ****             }
 1070              		.loc 1 664 0
 1071 027c FFF7FEFF 		bl	CySysWdtLock
 1072              	.LVL140:
 1073              	.L72:
 740:main.c        ****     {
 1074              		.loc 1 740 0
 1075 0280 2378     		ldrb	r3, [r4]
 1076 0282 002B     		cmp	r3, #0
 1077 0284 00D1     		bne	.LCB896
 1078 0286 D2E6     		b	.L77	@long jump
 1079              	.LCB896:
 1080 0288 CFE6     		b	.L76
 1081              	.LVL141:
 1082              	.L57:
 697:main.c        ****             {
 1083              		.loc 1 697 0
 1084 028a FFF7FEFF 		bl	CyBle_GetBleSsState
 1085              	.LVL142:
 1086 028e 0228     		cmp	r0, #2
 1087 0290 00D0     		beq	.LCB905
 1088 0292 C6E6     		b	.L48	@long jump
 1089              	.LCB905:
 700:main.c        ****                 
 1090              		.loc 1 700 0
 1091 0294 A268     		ldr	r2, [r4, #8]
 699:main.c        ****                 ES_SEC_CNT_ms += CFG_interval;
ARM GAS  C:\Users\ramanatg\AppData\Local\Temp\cc9tuycg.s 			page 46


 1092              		.loc 1 699 0
 1093 0296 6368     		ldr	r3, [r4, #4]
 700:main.c        ****                 
 1094              		.loc 1 700 0
 1095 0298 9446     		mov	ip, r2
 699:main.c        ****                 ES_SEC_CNT_ms += CFG_interval;
 1096              		.loc 1 699 0
 1097 029a 0133     		add	r3, r3, #1
 1098 029c 6360     		str	r3, [r4, #4]
 700:main.c        ****                 
 1099              		.loc 1 700 0
 1100 029e A38A     		ldrh	r3, [r4, #20]
 1101 02a0 6344     		add	r3, r3, ip
 1102 02a2 A360     		str	r3, [r4, #8]
 1103              	.LVL143:
 1104              	.LBB62:
 1105              	.LBB63:
 1106 02a4 FFF7FEFF 		bl	UpdateAdData3.part.2
 1107              	.LVL144:
 1108              	.LBE63:
 1109              	.LBE62:
 705:main.c        ****                 
 1110              		.loc 1 705 0
 1111 02a8 0823     		mov	r3, #8
 707:main.c        ****             }
 1112              		.loc 1 707 0
 1113 02aa 3648     		ldr	r0, .L112+24
 1114 02ac 3749     		ldr	r1, .L112+32
 705:main.c        ****                 
 1115              		.loc 1 705 0
 1116 02ae A374     		strb	r3, [r4, #18]
 707:main.c        ****             }
 1117              		.loc 1 707 0
 1118 02b0 FFF7FEFF 		bl	CyBle_GapUpdateAdvData
 1119              	.LVL145:
 1120 02b4 051C     		mov	r5, r0
 1121              	.LVL146:
 1122 02b6 E3E7     		b	.L72
 1123              	.LVL147:
 1124              	.L109:
 674:main.c        ****                 
 1125              		.loc 1 674 0
 1126 02b8 A268     		ldr	r2, [r4, #8]
 673:main.c        ****                 ES_SEC_CNT_ms += CFG_interval;
 1127              		.loc 1 673 0
 1128 02ba 6368     		ldr	r3, [r4, #4]
 674:main.c        ****                 
 1129              		.loc 1 674 0
 1130 02bc 9446     		mov	ip, r2
 1131              	.LBB64:
 1132              	.LBB65:
1231:main.c        ****         
 1133              		.loc 1 1231 0
 1134 02be 3449     		ldr	r1, .L112+36
 1135              	.LBE65:
 1136              	.LBE64:
 673:main.c        ****                 ES_SEC_CNT_ms += CFG_interval;
ARM GAS  C:\Users\ramanatg\AppData\Local\Temp\cc9tuycg.s 			page 47


 1137              		.loc 1 673 0
 1138 02c0 0133     		add	r3, r3, #1
 1139              	.LBB73:
 1140              	.LBB66:
1231:main.c        ****         
 1141              		.loc 1 1231 0
 1142 02c2 0E7E     		ldrb	r6, [r1, #24]
1229:main.c        ****                    URL_FrameBuffer, 
 1143              		.loc 1 1229 0
 1144 02c4 334D     		ldr	r5, .L112+40
 1145              	.LBE66:
 1146              	.LBE73:
 673:main.c        ****                 ES_SEC_CNT_ms += CFG_interval;
 1147              		.loc 1 673 0
 1148 02c6 6360     		str	r3, [r4, #4]
 674:main.c        ****                 
 1149              		.loc 1 674 0
 1150 02c8 A38A     		ldrh	r3, [r4, #20]
 1151              	.LBB74:
 1152              	.LBB67:
1231:main.c        ****         
 1153              		.loc 1 1231 0
 1154 02ca 721C     		add	r2, r6, #1
 1155              	.LBE67:
 1156              	.LBE74:
 674:main.c        ****                 
 1157              		.loc 1 674 0
 1158 02cc 6344     		add	r3, r3, ip
 1159              	.LBB75:
 1160              	.LBB68:
1229:main.c        ****                    URL_FrameBuffer, 
 1161              		.loc 1 1229 0
 1162 02ce 1831     		add	r1, r1, #24
 1163 02d0 281C     		mov	r0, r5
 1164              	.LBE68:
 1165              	.LBE75:
 674:main.c        ****                 
 1166              		.loc 1 674 0
 1167 02d2 A360     		str	r3, [r4, #8]
 1168              	.LVL148:
 1169              	.LBB76:
 1170              	.LBB69:
1229:main.c        ****                    URL_FrameBuffer, 
 1171              		.loc 1 1229 0
 1172 02d4 FFF7FEFF 		bl	memcpy
 1173              	.LVL149:
 1174              	.LBE69:
 1175              	.LBE76:
 680:main.c        ****                 {
 1176              		.loc 1 680 0
 1177 02d8 3423     		mov	r3, #52
 1178 02da A269     		ldr	r2, [r4, #24]
 1179              	.LBB77:
 1180              	.LBB70:
1234:main.c        ****                                              ES_ADV_SVC_UUID_LENGTH + \
 1181              		.loc 1 1234 0
 1182 02dc E81F     		sub	r0, r5, #7
ARM GAS  C:\Users\ramanatg\AppData\Local\Temp\cc9tuycg.s 			page 48


 1183              	.LBE70:
 1184              	.LBE77:
 680:main.c        ****                 {
 1185              		.loc 1 680 0
 1186 02de D35C     		ldrb	r3, [r2, r3]
 687:main.c        ****                 }
 1187              		.loc 1 687 0
 1188 02e0 0822     		mov	r2, #8
 680:main.c        ****                 {
 1189              		.loc 1 680 0
 1190 02e2 5B07     		lsl	r3, r3, #29
 687:main.c        ****                 }
 1191              		.loc 1 687 0
 1192 02e4 DB0F     		lsr	r3, r3, #31
 1193 02e6 D31A     		sub	r3, r2, r3
 1194              	.LBB78:
 1195              	.LBB71:
1234:main.c        ****                                              ES_ADV_SVC_UUID_LENGTH + \
 1196              		.loc 1 1234 0
 1197 02e8 0836     		add	r6, r6, #8
 1198              	.LBE71:
 1199              	.LBE78:
 690:main.c        ****             }
 1200              		.loc 1 690 0
 1201 02ea 2849     		ldr	r1, .L112+32
 1202              	.LBB79:
 1203              	.LBB72:
1234:main.c        ****                                              ES_ADV_SVC_UUID_LENGTH + \
 1204              		.loc 1 1234 0
 1205 02ec C677     		strb	r6, [r0, #31]
 1206 02ee A374     		strb	r3, [r4, #18]
 1207              	.LBE72:
 1208              	.LBE79:
 690:main.c        ****             }
 1209              		.loc 1 690 0
 1210 02f0 FFF7FEFF 		bl	CyBle_GapUpdateAdvData
 1211              	.LVL150:
 1212 02f4 051C     		mov	r5, r0
 1213              	.LVL151:
 1214 02f6 C3E7     		b	.L72
 1215              	.LVL152:
 1216              	.L65:
 607:main.c        ****                     
 1217              		.loc 1 607 0
 1218 02f8 274A     		ldr	r2, .L112+44
 606:main.c        ****                     ES_SEC_CNT_ms += BEACON_PERIOD_SENS_ON_1FRAME;
 1219              		.loc 1 606 0
 1220 02fa 6368     		ldr	r3, [r4, #4]
 607:main.c        ****                     
 1221              		.loc 1 607 0
 1222 02fc 9446     		mov	ip, r2
 606:main.c        ****                     ES_SEC_CNT_ms += BEACON_PERIOD_SENS_ON_1FRAME;
 1223              		.loc 1 606 0
 1224 02fe 0133     		add	r3, r3, #1
 1225 0300 6360     		str	r3, [r4, #4]
 607:main.c        ****                     
 1226              		.loc 1 607 0
ARM GAS  C:\Users\ramanatg\AppData\Local\Temp\cc9tuycg.s 			page 49


 1227 0302 A368     		ldr	r3, [r4, #8]
 1228 0304 6344     		add	r3, r3, ip
 1229 0306 A360     		str	r3, [r4, #8]
 611:main.c        ****                     {
 1230              		.loc 1 611 0
 1231 0308 3423     		mov	r3, #52
 1232 030a F75C     		ldrb	r7, [r6, r3]
 1233 030c 9846     		mov	r8, r3
 1234 030e FB07     		lsl	r3, r7, #31
 1235 0310 1CD4     		bmi	.L111
 633:main.c        ****                     {
 1236              		.loc 1 633 0
 1237 0312 BB07     		lsl	r3, r7, #30
 1238 0314 15D5     		bpl	.L70
 1239              	.LVL153:
 1240              	.LBB80:
 1241              	.LBB81:
1229:main.c        ****                    URL_FrameBuffer, 
 1242              		.loc 1 1229 0
 1243 0316 1F4B     		ldr	r3, .L112+40
1231:main.c        ****         
 1244              		.loc 1 1231 0
 1245 0318 1D49     		ldr	r1, .L112+36
1229:main.c        ****                    URL_FrameBuffer, 
 1246              		.loc 1 1229 0
 1247 031a 9946     		mov	r9, r3
1231:main.c        ****         
 1248              		.loc 1 1231 0
 1249 031c 0F7E     		ldrb	r7, [r1, #24]
1229:main.c        ****                    URL_FrameBuffer, 
 1250              		.loc 1 1229 0
 1251 031e 181C     		mov	r0, r3
1231:main.c        ****         
 1252              		.loc 1 1231 0
 1253 0320 7A1C     		add	r2, r7, #1
1229:main.c        ****                    URL_FrameBuffer, 
 1254              		.loc 1 1229 0
 1255 0322 1831     		add	r1, r1, #24
 1256 0324 FFF7FEFF 		bl	memcpy
 1257              	.LVL154:
1234:main.c        ****                                              ES_ADV_SVC_UUID_LENGTH + \
 1258              		.loc 1 1234 0
 1259 0328 4B46     		mov	r3, r9
 1260 032a 0837     		add	r7, r7, #8
 1261 032c 1F76     		strb	r7, [r3, #24]
 1262              	.LBE81:
 1263              	.LBE80:
 639:main.c        ****                         {
 1264              		.loc 1 639 0
 1265 032e 4346     		mov	r3, r8
 1266 0330 F35C     		ldrb	r3, [r6, r3]
 1267 0332 5B07     		lsl	r3, r3, #29
 1268 0334 07D5     		bpl	.L107
 1269              	.LVL155:
 1270              	.L71:
 624:main.c        ****                         }
 1271              		.loc 1 624 0
ARM GAS  C:\Users\ramanatg\AppData\Local\Temp\cc9tuycg.s 			page 50


 1272 0336 0723     		mov	r3, #7
 1273 0338 A374     		strb	r3, [r4, #18]
 1274 033a 8CE7     		b	.L66
 1275              	.L110:
 585:main.c        ****                     
 1276              		.loc 1 585 0
 1277 033c 0923     		mov	r3, #9
 1278 033e A374     		strb	r3, [r4, #18]
 1279              	.LVL156:
 1280 0340 86E6     		b	.L108
 1281              	.LVL157:
 1282              	.L70:
 1283              	.LBB82:
 1284              	.LBB83:
 1285 0342 FFF7FEFF 		bl	UpdateAdData3.part.2
 1286              	.LVL158:
 1287              	.L107:
 1288              	.LBE83:
 1289              	.LBE82:
 655:main.c        ****                     }
 1290              		.loc 1 655 0
 1291 0346 0823     		mov	r3, #8
 1292 0348 A374     		strb	r3, [r4, #18]
 1293 034a 84E7     		b	.L66
 1294              	.L111:
 1295              	.LVL159:
 1296              	.LBB84:
 1297              	.LBB85:
1217:main.c        ****                    UID_FrameBuffer, 
 1298              		.loc 1 1217 0
 1299 034c 0D4E     		ldr	r6, .L112+24
 1300 034e 1049     		ldr	r1, .L112+36
 1301 0350 F01D     		add	r0, r6, #7
 1302 0352 1822     		mov	r2, #24
 1303 0354 FFF7FEFF 		bl	memcpy
 1304              	.LVL160:
1222:main.c        ****                                              ES_ADV_SVC_UUID_LENGTH + 
 1305              		.loc 1 1222 0
 1306 0358 1F23     		mov	r3, #31
 1307 035a F377     		strb	r3, [r6, #31]
 1308              	.LBE85:
 1309              	.LBE84:
 617:main.c        ****                         {
 1310              		.loc 1 617 0
 1311 035c BB07     		lsl	r3, r7, #30
 1312 035e 02D5     		bpl	.L68
 619:main.c        ****                         }
 1313              		.loc 1 619 0
 1314 0360 0623     		mov	r3, #6
 1315 0362 A374     		strb	r3, [r4, #18]
 1316 0364 77E7     		b	.L66
 1317              	.L68:
 622:main.c        ****                         {
 1318              		.loc 1 622 0
 1319 0366 7B07     		lsl	r3, r7, #29
 1320 0368 EDD5     		bpl	.L107
 1321 036a E4E7     		b	.L71
ARM GAS  C:\Users\ramanatg\AppData\Local\Temp\cc9tuycg.s 			page 51


 1322              	.L113:
 1323              		.align	2
 1324              	.L112:
 1325 036c 00000000 		.word	.LANCHOR0
 1326 0370 00000000 		.word	.L50
 1327 0374 FF7F0000 		.word	32767
 1328 0378 00000000 		.word	I2C_buffer
 1329 037c 8E020000 		.word	654
 1330 0380 02000000 		.word	I2C_buffer+2
 1331 0384 00000000 		.word	cyBle_discoveryData
 1332 0388 00000000 		.word	cyBle_discoveryModeInfo
 1333 038c 00000000 		.word	cyBle_scanRspData
 1334 0390 00000000 		.word	.LANCHOR2
 1335 0394 07000000 		.word	cyBle_discoveryData+7
 1336 0398 D4170000 		.word	6100
 1337              		.cfi_endproc
 1338              	.LFE42:
 1339              		.size	ProcessI2CEvents, .-ProcessI2CEvents
 1340              		.section	.text.ProcessBeaconEvents,"ax",%progbits
 1341              		.align	2
 1342              		.global	ProcessBeaconEvents
 1343              		.code	16
 1344              		.thumb_func
 1345              		.type	ProcessBeaconEvents, %function
 1346              	ProcessBeaconEvents:
 1347              	.LFB43:
 769:main.c        ****     CYBLE_API_RESULT_T apiResult = CYBLE_ERROR_OK;
 1348              		.loc 1 769 0
 1349              		.cfi_startproc
 1350              	.LVL161:
 1351 0000 F8B5     		push	{r3, r4, r5, r6, r7, lr}
 1352              		.cfi_def_cfa_offset 24
 1353              		.cfi_offset 3, -24
 1354              		.cfi_offset 4, -20
 1355              		.cfi_offset 5, -16
 1356              		.cfi_offset 6, -12
 1357              		.cfi_offset 7, -8
 1358              		.cfi_offset 14, -4
 1359 0002 4F46     		mov	r7, r9
 1360 0004 4646     		mov	r6, r8
 772:main.c        ****     {
 1361              		.loc 1 772 0
 1362 0006 7B4C     		ldr	r4, .L156
 769:main.c        ****     CYBLE_API_RESULT_T apiResult = CYBLE_ERROR_OK;
 1363              		.loc 1 769 0
 1364 0008 C0B4     		push	{r6, r7}
 1365              		.cfi_def_cfa_offset 32
 1366              		.cfi_offset 8, -32
 1367              		.cfi_offset 9, -28
 772:main.c        ****     {
 1368              		.loc 1 772 0
 1369 000a 237F     		ldrb	r3, [r4, #28]
 1370 000c 062B     		cmp	r3, #6
 1371 000e 2FD8     		bhi	.L114
 1372 0010 794A     		ldr	r2, .L156+4
 1373 0012 9B00     		lsl	r3, r3, #2
 1374 0014 D358     		ldr	r3, [r2, r3]
ARM GAS  C:\Users\ramanatg\AppData\Local\Temp\cc9tuycg.s 			page 52


 1375 0016 9F46     		mov	pc, r3
 1376              		.section	.rodata
 1377              		.align	2
 1378              	.L117:
 1379 0028 9E000000 		.word	.L116
 1380 002c 18000000 		.word	.L118
 1381 0030 70000000 		.word	.L114
 1382 0034 AE000000 		.word	.L119
 1383 0038 F0000000 		.word	.L120
 1384 003c 34010000 		.word	.L121
 1385 0040 78000000 		.word	.L122
 1386              		.section	.text.ProcessBeaconEvents
 1387              	.L118:
 789:main.c        ****             {
 1388              		.loc 1 789 0
 1389 0018 2378     		ldrb	r3, [r4]
 1390 001a 002B     		cmp	r3, #0
 1391 001c 28D0     		beq	.L114
 791:main.c        ****                 
 1392              		.loc 1 791 0
 1393 001e 0023     		mov	r3, #0
 1394 0020 2370     		strb	r3, [r4]
 794:main.c        ****                 CySysWdtDisable(CY_SYS_WDT_COUNTER1_MASK);
 1395              		.loc 1 794 0
 1396 0022 FFF7FEFF 		bl	CySysWdtUnlock
 1397              	.LVL162:
 795:main.c        ****                 CySysWdtLock();
 1398              		.loc 1 795 0
 1399 0026 8020     		mov	r0, #128
 799:main.c        ****                 
 1400              		.loc 1 799 0
 1401 0028 0226     		mov	r6, #2
 795:main.c        ****                 CySysWdtLock();
 1402              		.loc 1 795 0
 1403 002a 4000     		lsl	r0, r0, #1
 1404 002c FFF7FEFF 		bl	CySysWdtDisable
 1405              	.LVL163:
 796:main.c        ****                 
 1406              		.loc 1 796 0
 1407 0030 FFF7FEFF 		bl	CySysWdtLock
 1408              	.LVL164:
 803:main.c        ****                 {
 1409              		.loc 1 803 0
 1410 0034 A58A     		ldrh	r5, [r4, #20]
 799:main.c        ****                 
 1411              		.loc 1 799 0
 1412 0036 2677     		strb	r6, [r4, #28]
 803:main.c        ****                 {
 1413              		.loc 1 803 0
 1414 0038 002D     		cmp	r5, #0
 1415 003a 19D0     		beq	.L114
 809:main.c        ****                 {
 1416              		.loc 1 809 0
 1417 003c 1F23     		mov	r3, #31
 1418 003e A769     		ldr	r7, [r4, #24]
 1419 0040 FB56     		ldrsb	r3, [r7, r3]
 1420 0042 012B     		cmp	r3, #1
ARM GAS  C:\Users\ramanatg\AppData\Local\Temp\cc9tuycg.s 			page 53


 1421 0044 00D1     		bne	.LCB1199
 1422 0046 8FE0     		b	.L153	@long jump
 1423              	.LCB1199:
 864:main.c        ****                 {
 1424              		.loc 1 864 0
 1425 0048 022B     		cmp	r3, #2
 1426 004a 00D1     		bne	.LCB1201
 1427 004c AEE0     		b	.L154	@long jump
 1428              	.LCB1201:
 1429              	.L130:
 1430              	.LVL165:
 1431              	.LBB104:
 1432              	.LBB105:
1160:main.c        ****     /* Set advertising broadcast interval*/
 1433              		.loc 1 1160 0
 1434 004e E800     		lsl	r0, r5, #3
 1435 0050 0521     		mov	r1, #5
 1436 0052 FFF7FEFF 		bl	__aeabi_uidiv
 1437              	.LVL166:
1162:main.c        ****     cyBle_discoveryModeInfo.advParam->advIntvMax = RegisterIntervalValue;
 1438              		.loc 1 1162 0
 1439 0056 694B     		ldr	r3, .L156+8
1160:main.c        ****     /* Set advertising broadcast interval*/
 1440              		.loc 1 1160 0
 1441 0058 80B2     		uxth	r0, r0
 1442              	.LVL167:
1162:main.c        ****     cyBle_discoveryModeInfo.advParam->advIntvMax = RegisterIntervalValue;
 1443              		.loc 1 1162 0
 1444 005a 5B68     		ldr	r3, [r3, #4]
 1445 005c 1880     		strh	r0, [r3]
1163:main.c        **** 
 1446              		.loc 1 1163 0
 1447 005e 5880     		strh	r0, [r3, #2]
1166:main.c        **** }
 1448              		.loc 1 1166 0
 1449 0060 0220     		mov	r0, #2
 1450              	.LVL168:
 1451 0062 FFF7FEFF 		bl	CyBle_GappStartAdvertisement
 1452              	.LVL169:
 1453              	.L133:
 1454              	.LBE105:
 1455              	.LBE104:
 971:main.c        ****     {
 1456              		.loc 1 971 0
 1457 0066 0028     		cmp	r0, #0
 1458 0068 02D0     		beq	.L114
 973:main.c        ****     }
 1459              		.loc 1 973 0 discriminator 1
 1460 006a 0020     		mov	r0, #0
 1461              	.LVL170:
 1462 006c FFF7FEFF 		bl	CyHalt
 1463              	.LVL171:
 1464              	.L114:
 975:main.c        **** 
 1465              		.loc 1 975 0
 1466              		@ sp needed
 1467 0070 0CBC     		pop	{r2, r3}
ARM GAS  C:\Users\ramanatg\AppData\Local\Temp\cc9tuycg.s 			page 54


 1468 0072 9046     		mov	r8, r2
 1469 0074 9946     		mov	r9, r3
 1470 0076 F8BD     		pop	{r3, r4, r5, r6, r7, pc}
 1471              	.LVL172:
 1472              	.L122:
 954:main.c        ****             {
 1473              		.loc 1 954 0
 1474 0078 FFF7FEFF 		bl	CyBle_GetBleSsState
 1475              	.LVL173:
 1476 007c 0228     		cmp	r0, #2
 1477 007e F7D1     		bne	.L114
 957:main.c        ****                 
 1478              		.loc 1 957 0
 1479 0080 A268     		ldr	r2, [r4, #8]
 956:main.c        ****                 ES_SEC_CNT_ms += CFG_interval;
 1480              		.loc 1 956 0
 1481 0082 6368     		ldr	r3, [r4, #4]
 957:main.c        ****                 
 1482              		.loc 1 957 0
 1483 0084 9446     		mov	ip, r2
 956:main.c        ****                 ES_SEC_CNT_ms += CFG_interval;
 1484              		.loc 1 956 0
 1485 0086 0133     		add	r3, r3, #1
 1486 0088 6360     		str	r3, [r4, #4]
 957:main.c        ****                 
 1487              		.loc 1 957 0
 1488 008a A38A     		ldrh	r3, [r4, #20]
 1489 008c 6344     		add	r3, r3, ip
 1490 008e A360     		str	r3, [r4, #8]
 1491              	.LVL174:
 1492              	.LBB106:
 1493              	.LBB107:
 1494 0090 FFF7FEFF 		bl	UpdateAdData3.part.2
 1495              	.LVL175:
 1496              	.LBE107:
 1497              	.LBE106:
 962:main.c        ****             }
 1498              		.loc 1 962 0
 1499 0094 5A49     		ldr	r1, .L156+12
 1500 0096 5B48     		ldr	r0, .L156+16
 1501 0098 FFF7FEFF 		bl	CyBle_GapUpdateAdvData
 1502              	.LVL176:
 1503 009c E3E7     		b	.L133
 1504              	.LVL177:
 1505              	.L116:
 777:main.c        ****             {
 1506              		.loc 1 777 0
 1507 009e 2378     		ldrb	r3, [r4]
 1508 00a0 002B     		cmp	r3, #0
 1509 00a2 E5D0     		beq	.L114
 779:main.c        ****                 
 1510              		.loc 1 779 0
 1511 00a4 0023     		mov	r3, #0
 1512 00a6 2370     		strb	r3, [r4]
 782:main.c        ****             }
 1513              		.loc 1 782 0
 1514 00a8 0133     		add	r3, r3, #1
ARM GAS  C:\Users\ramanatg\AppData\Local\Temp\cc9tuycg.s 			page 55


 1515 00aa 2377     		strb	r3, [r4, #28]
 1516 00ac E0E7     		b	.L114
 1517              	.L119:
 876:main.c        ****             {
 1518              		.loc 1 876 0
 1519 00ae FFF7FEFF 		bl	CyBle_GetBleSsState
 1520              	.LVL178:
 1521 00b2 051E     		sub	r5, r0, #0
 1522 00b4 022D     		cmp	r5, #2
 1523 00b6 DBD1     		bne	.L114
 879:main.c        ****                 
 1524              		.loc 1 879 0
 1525 00b8 A268     		ldr	r2, [r4, #8]
 878:main.c        ****                 ES_SEC_CNT_ms += CFG_interval;
 1526              		.loc 1 878 0
 1527 00ba 6368     		ldr	r3, [r4, #4]
 879:main.c        ****                 
 1528              		.loc 1 879 0
 1529 00bc 9446     		mov	ip, r2
 878:main.c        ****                 ES_SEC_CNT_ms += CFG_interval;
 1530              		.loc 1 878 0
 1531 00be 0133     		add	r3, r3, #1
 1532              	.LBB108:
 1533              	.LBB109:
1217:main.c        ****                    UID_FrameBuffer, 
 1534              		.loc 1 1217 0
 1535 00c0 504E     		ldr	r6, .L156+16
 1536              	.LBE109:
 1537              	.LBE108:
 878:main.c        ****                 ES_SEC_CNT_ms += CFG_interval;
 1538              		.loc 1 878 0
 1539 00c2 6360     		str	r3, [r4, #4]
 879:main.c        ****                 
 1540              		.loc 1 879 0
 1541 00c4 A38A     		ldrh	r3, [r4, #20]
 1542              	.LBB114:
 1543              	.LBB110:
1217:main.c        ****                    UID_FrameBuffer, 
 1544              		.loc 1 1217 0
 1545 00c6 1822     		mov	r2, #24
 1546              	.LBE110:
 1547              	.LBE114:
 879:main.c        ****                 
 1548              		.loc 1 879 0
 1549 00c8 6344     		add	r3, r3, ip
 1550              	.LBB115:
 1551              	.LBB111:
1217:main.c        ****                    UID_FrameBuffer, 
 1552              		.loc 1 1217 0
 1553 00ca 4F49     		ldr	r1, .L156+20
 1554 00cc F01D     		add	r0, r6, #7
 1555              	.LBE111:
 1556              	.LBE115:
 879:main.c        ****                 
 1557              		.loc 1 879 0
 1558 00ce A360     		str	r3, [r4, #8]
 1559              	.LVL179:
ARM GAS  C:\Users\ramanatg\AppData\Local\Temp\cc9tuycg.s 			page 56


 1560              	.LBB116:
 1561              	.LBB112:
1217:main.c        ****                    UID_FrameBuffer, 
 1562              		.loc 1 1217 0
 1563 00d0 FFF7FEFF 		bl	memcpy
 1564              	.LVL180:
1222:main.c        ****                                              ES_ADV_SVC_UUID_LENGTH + 
 1565              		.loc 1 1222 0
 1566 00d4 1F23     		mov	r3, #31
 1567              	.LBE112:
 1568              	.LBE116:
 883:main.c        ****                 
 1569              		.loc 1 883 0
 1570 00d6 301C     		mov	r0, r6
 1571 00d8 4949     		ldr	r1, .L156+12
 1572              	.LBB117:
 1573              	.LBB113:
1222:main.c        ****                                              ES_ADV_SVC_UUID_LENGTH + 
 1574              		.loc 1 1222 0
 1575 00da F377     		strb	r3, [r6, #31]
 1576              	.LBE113:
 1577              	.LBE117:
 883:main.c        ****                 
 1578              		.loc 1 883 0
 1579 00dc FFF7FEFF 		bl	CyBle_GapUpdateAdvData
 1580              	.LVL181:
 887:main.c        ****                 {
 1581              		.loc 1 887 0
 1582 00e0 3423     		mov	r3, #52
 1583 00e2 A269     		ldr	r2, [r4, #24]
 1584 00e4 D35C     		ldrb	r3, [r2, r3]
 1585 00e6 1D42     		tst	r5, r3
 1586 00e8 21D0     		beq	.L151
 1587              	.LVL182:
 1588              	.L136:
 946:main.c        ****                 }
 1589              		.loc 1 946 0
 1590 00ea 0423     		mov	r3, #4
 1591 00ec 2377     		strb	r3, [r4, #28]
 1592 00ee BAE7     		b	.L133
 1593              	.LVL183:
 1594              	.L120:
 902:main.c        ****             {
 1595              		.loc 1 902 0
 1596 00f0 FFF7FEFF 		bl	CyBle_GetBleSsState
 1597              	.LVL184:
 1598 00f4 0228     		cmp	r0, #2
 1599 00f6 BBD1     		bne	.L114
 905:main.c        ****                 
 1600              		.loc 1 905 0
 1601 00f8 A268     		ldr	r2, [r4, #8]
 904:main.c        ****                 ES_SEC_CNT_ms += CFG_interval;
 1602              		.loc 1 904 0
 1603 00fa 6368     		ldr	r3, [r4, #4]
 905:main.c        ****                 
 1604              		.loc 1 905 0
 1605 00fc 9446     		mov	ip, r2
ARM GAS  C:\Users\ramanatg\AppData\Local\Temp\cc9tuycg.s 			page 57


 1606              	.LBB118:
 1607              	.LBB119:
1231:main.c        ****         
 1608              		.loc 1 1231 0
 1609 00fe 4249     		ldr	r1, .L156+20
 1610              	.LBE119:
 1611              	.LBE118:
 904:main.c        ****                 ES_SEC_CNT_ms += CFG_interval;
 1612              		.loc 1 904 0
 1613 0100 0133     		add	r3, r3, #1
 1614              	.LBB125:
 1615              	.LBB120:
1231:main.c        ****         
 1616              		.loc 1 1231 0
 1617 0102 0E7E     		ldrb	r6, [r1, #24]
1229:main.c        ****                    URL_FrameBuffer, 
 1618              		.loc 1 1229 0
 1619 0104 414D     		ldr	r5, .L156+24
 1620              	.LBE120:
 1621              	.LBE125:
 904:main.c        ****                 ES_SEC_CNT_ms += CFG_interval;
 1622              		.loc 1 904 0
 1623 0106 6360     		str	r3, [r4, #4]
 905:main.c        ****                 
 1624              		.loc 1 905 0
 1625 0108 A38A     		ldrh	r3, [r4, #20]
 1626              	.LBB126:
 1627              	.LBB121:
1231:main.c        ****         
 1628              		.loc 1 1231 0
 1629 010a 721C     		add	r2, r6, #1
 1630              	.LBE121:
 1631              	.LBE126:
 905:main.c        ****                 
 1632              		.loc 1 905 0
 1633 010c 6344     		add	r3, r3, ip
 1634              	.LBB127:
 1635              	.LBB122:
1229:main.c        ****                    URL_FrameBuffer, 
 1636              		.loc 1 1229 0
 1637 010e 1831     		add	r1, r1, #24
 1638 0110 281C     		mov	r0, r5
 1639              	.LBE122:
 1640              	.LBE127:
 905:main.c        ****                 
 1641              		.loc 1 905 0
 1642 0112 A360     		str	r3, [r4, #8]
 1643              	.LVL185:
 1644              	.LBB128:
 1645              	.LBB123:
1234:main.c        ****                                              ES_ADV_SVC_UUID_LENGTH + \
 1646              		.loc 1 1234 0
 1647 0114 0836     		add	r6, r6, #8
1229:main.c        ****                    URL_FrameBuffer, 
 1648              		.loc 1 1229 0
 1649 0116 FFF7FEFF 		bl	memcpy
 1650              	.LVL186:
ARM GAS  C:\Users\ramanatg\AppData\Local\Temp\cc9tuycg.s 			page 58


1234:main.c        ****                                              ES_ADV_SVC_UUID_LENGTH + \
 1651              		.loc 1 1234 0
 1652 011a E81F     		sub	r0, r5, #7
 1653              	.LBE123:
 1654              	.LBE128:
 909:main.c        ****                 
 1655              		.loc 1 909 0
 1656 011c 3849     		ldr	r1, .L156+12
 1657              	.LBB129:
 1658              	.LBB124:
1234:main.c        ****                                              ES_ADV_SVC_UUID_LENGTH + \
 1659              		.loc 1 1234 0
 1660 011e C677     		strb	r6, [r0, #31]
 1661              	.LBE124:
 1662              	.LBE129:
 909:main.c        ****                 
 1663              		.loc 1 909 0
 1664 0120 FFF7FEFF 		bl	CyBle_GapUpdateAdvData
 1665              	.LVL187:
 913:main.c        ****                 {
 1666              		.loc 1 913 0
 1667 0124 3423     		mov	r3, #52
 1668 0126 A269     		ldr	r2, [r4, #24]
 1669 0128 D35C     		ldrb	r3, [r2, r3]
 1670 012a 5B07     		lsl	r3, r3, #29
 1671 012c 19D5     		bpl	.L152
 1672              	.LVL188:
 1673              	.L151:
 915:main.c        ****                 }
 1674              		.loc 1 915 0
 1675 012e 0523     		mov	r3, #5
 1676 0130 2377     		strb	r3, [r4, #28]
 1677 0132 98E7     		b	.L133
 1678              	.LVL189:
 1679              	.L121:
 928:main.c        ****             {
 1680              		.loc 1 928 0
 1681 0134 FFF7FEFF 		bl	CyBle_GetBleSsState
 1682              	.LVL190:
 1683 0138 0228     		cmp	r0, #2
 1684 013a 99D1     		bne	.L114
 931:main.c        ****                 
 1685              		.loc 1 931 0
 1686 013c A268     		ldr	r2, [r4, #8]
 930:main.c        ****                 ES_SEC_CNT_ms += CFG_interval;
 1687              		.loc 1 930 0
 1688 013e 6368     		ldr	r3, [r4, #4]
 931:main.c        ****                 
 1689              		.loc 1 931 0
 1690 0140 9446     		mov	ip, r2
 930:main.c        ****                 ES_SEC_CNT_ms += CFG_interval;
 1691              		.loc 1 930 0
 1692 0142 0133     		add	r3, r3, #1
 1693 0144 6360     		str	r3, [r4, #4]
 931:main.c        ****                 
 1694              		.loc 1 931 0
 1695 0146 A38A     		ldrh	r3, [r4, #20]
ARM GAS  C:\Users\ramanatg\AppData\Local\Temp\cc9tuycg.s 			page 59


 1696 0148 6344     		add	r3, r3, ip
 1697 014a A360     		str	r3, [r4, #8]
 1698              	.LVL191:
 1699              	.LBB130:
 1700              	.LBB131:
 1701 014c FFF7FEFF 		bl	UpdateAdData3.part.2
 1702              	.LVL192:
 1703              	.LBE131:
 1704              	.LBE130:
 935:main.c        ****                 
 1705              		.loc 1 935 0
 1706 0150 2C48     		ldr	r0, .L156+16
 1707 0152 2B49     		ldr	r1, .L156+12
 1708 0154 FFF7FEFF 		bl	CyBle_GapUpdateAdvData
 1709              	.LVL193:
 939:main.c        ****                 {
 1710              		.loc 1 939 0
 1711 0158 3423     		mov	r3, #52
 1712 015a A269     		ldr	r2, [r4, #24]
 1713 015c D35C     		ldrb	r3, [r2, r3]
 1714 015e DB07     		lsl	r3, r3, #31
 1715 0160 C3D5     		bpl	.L136
 1716              	.LVL194:
 1717              	.L152:
 941:main.c        ****                 }
 1718              		.loc 1 941 0
 1719 0162 0323     		mov	r3, #3
 1720 0164 2377     		strb	r3, [r4, #28]
 1721 0166 7EE7     		b	.L133
 1722              	.LVL195:
 1723              	.L153:
 811:main.c        ****                     ES_SEC_CNT_ms += CFG_interval;
 1724              		.loc 1 811 0
 1725 0168 6268     		ldr	r2, [r4, #4]
 1726 016a 0132     		add	r2, r2, #1
 1727 016c 6260     		str	r2, [r4, #4]
 812:main.c        ****                     
 1728              		.loc 1 812 0
 1729 016e A268     		ldr	r2, [r4, #8]
 1730 0170 AA18     		add	r2, r5, r2
 1731 0172 A260     		str	r2, [r4, #8]
 816:main.c        ****                     {
 1732              		.loc 1 816 0
 1733 0174 3422     		mov	r2, #52
 1734 0176 9146     		mov	r9, r2
 1735 0178 BA5C     		ldrb	r2, [r7, r2]
 1736 017a 9046     		mov	r8, r2
 1737 017c 1342     		tst	r3, r2
 1738 017e 25D1     		bne	.L155
 838:main.c        ****                     {
 1739              		.loc 1 838 0
 1740 0180 1642     		tst	r6, r2
 1741 0182 1ED0     		beq	.L131
 1742              	.LVL196:
 1743              	.LBB132:
 1744              	.LBB133:
1229:main.c        ****                    URL_FrameBuffer, 
ARM GAS  C:\Users\ramanatg\AppData\Local\Temp\cc9tuycg.s 			page 60


 1745              		.loc 1 1229 0
 1746 0184 214B     		ldr	r3, .L156+24
1231:main.c        ****         
 1747              		.loc 1 1231 0
 1748 0186 2049     		ldr	r1, .L156+20
1229:main.c        ****                    URL_FrameBuffer, 
 1749              		.loc 1 1229 0
 1750 0188 9846     		mov	r8, r3
1231:main.c        ****         
 1751              		.loc 1 1231 0
 1752 018a 0E7E     		ldrb	r6, [r1, #24]
1229:main.c        ****                    URL_FrameBuffer, 
 1753              		.loc 1 1229 0
 1754 018c 181C     		mov	r0, r3
1231:main.c        ****         
 1755              		.loc 1 1231 0
 1756 018e 721C     		add	r2, r6, #1
1229:main.c        ****                    URL_FrameBuffer, 
 1757              		.loc 1 1229 0
 1758 0190 1831     		add	r1, r1, #24
 1759 0192 FFF7FEFF 		bl	memcpy
 1760              	.LVL197:
1234:main.c        ****                                              ES_ADV_SVC_UUID_LENGTH + \
 1761              		.loc 1 1234 0
 1762 0196 4346     		mov	r3, r8
 1763 0198 0836     		add	r6, r6, #8
 1764 019a 1E76     		strb	r6, [r3, #24]
 1765              	.LBE133:
 1766              	.LBE132:
 844:main.c        ****                         {
 1767              		.loc 1 844 0
 1768 019c 4B46     		mov	r3, r9
 1769 019e FB5C     		ldrb	r3, [r7, r3]
 1770 01a0 5B07     		lsl	r3, r3, #29
 1771 01a2 00D4     		bmi	.LCB1523
 1772 01a4 53E7     		b	.L130	@long jump
 1773              	.LCB1523:
 1774              	.LVL198:
 1775              	.L150:
 846:main.c        ****                         }
 1776              		.loc 1 846 0
 1777 01a6 0523     		mov	r3, #5
 1778 01a8 2377     		strb	r3, [r4, #28]
 1779 01aa 50E7     		b	.L130
 1780              	.L154:
 1781              	.LVL199:
 1782              	.LBB134:
 1783              	.LBB135:
1231:main.c        ****         
 1784              		.loc 1 1231 0
 1785 01ac 1649     		ldr	r1, .L156+20
1229:main.c        ****                    URL_FrameBuffer, 
 1786              		.loc 1 1229 0
 1787 01ae 174E     		ldr	r6, .L156+24
1231:main.c        ****         
 1788              		.loc 1 1231 0
 1789 01b0 0C7E     		ldrb	r4, [r1, #24]
ARM GAS  C:\Users\ramanatg\AppData\Local\Temp\cc9tuycg.s 			page 61


1229:main.c        ****                    URL_FrameBuffer, 
 1790              		.loc 1 1229 0
 1791 01b2 301C     		mov	r0, r6
1231:main.c        ****         
 1792              		.loc 1 1231 0
 1793 01b4 621C     		add	r2, r4, #1
1229:main.c        ****                    URL_FrameBuffer, 
 1794              		.loc 1 1229 0
 1795 01b6 1831     		add	r1, r1, #24
1234:main.c        ****                                              ES_ADV_SVC_UUID_LENGTH + \
 1796              		.loc 1 1234 0
 1797 01b8 0834     		add	r4, r4, #8
1229:main.c        ****                    URL_FrameBuffer, 
 1798              		.loc 1 1229 0
 1799 01ba FFF7FEFF 		bl	memcpy
 1800              	.LVL200:
1234:main.c        ****                                              ES_ADV_SVC_UUID_LENGTH + \
 1801              		.loc 1 1234 0
 1802 01be 3476     		strb	r4, [r6, #24]
 1803 01c0 45E7     		b	.L130
 1804              	.LVL201:
 1805              	.L131:
 1806              	.LBE135:
 1807              	.LBE134:
 1808              	.LBB136:
 1809              	.LBB137:
 1810 01c2 FFF7FEFF 		bl	UpdateAdData3.part.2
 1811              	.LVL202:
 1812              	.LBE137:
 1813              	.LBE136:
 860:main.c        ****                     }
 1814              		.loc 1 860 0
 1815 01c6 0623     		mov	r3, #6
 1816 01c8 2377     		strb	r3, [r4, #28]
 1817 01ca 40E7     		b	.L130
 1818              	.LVL203:
 1819              	.L155:
 1820              	.LBB138:
 1821              	.LBB139:
1217:main.c        ****                    UID_FrameBuffer, 
 1822              		.loc 1 1217 0
 1823 01cc 0D4F     		ldr	r7, .L156+16
 1824 01ce 0E49     		ldr	r1, .L156+20
 1825 01d0 F81D     		add	r0, r7, #7
 1826 01d2 1822     		mov	r2, #24
 1827 01d4 FFF7FEFF 		bl	memcpy
 1828              	.LVL204:
1222:main.c        ****                                              ES_ADV_SVC_UUID_LENGTH + 
 1829              		.loc 1 1222 0
 1830 01d8 1F23     		mov	r3, #31
 1831 01da FB77     		strb	r3, [r7, #31]
 1832              	.LBE139:
 1833              	.LBE138:
 822:main.c        ****                         {
 1834              		.loc 1 822 0
 1835 01dc 4346     		mov	r3, r8
 1836 01de 1E42     		tst	r6, r3
ARM GAS  C:\Users\ramanatg\AppData\Local\Temp\cc9tuycg.s 			page 62


 1837 01e0 02D0     		beq	.L129
 824:main.c        ****                         }
 1838              		.loc 1 824 0
 1839 01e2 0423     		mov	r3, #4
 1840 01e4 2377     		strb	r3, [r4, #28]
 1841 01e6 32E7     		b	.L130
 1842              	.L129:
 827:main.c        ****                         {
 1843              		.loc 1 827 0
 1844 01e8 4346     		mov	r3, r8
 1845 01ea 5B07     		lsl	r3, r3, #29
 1846 01ec 00D4     		bmi	.LCB1596
 1847 01ee 2EE7     		b	.L130	@long jump
 1848              	.LCB1596:
 1849 01f0 D9E7     		b	.L150
 1850              	.L157:
 1851 01f2 C046     		.align	2
 1852              	.L156:
 1853 01f4 00000000 		.word	.LANCHOR0
 1854 01f8 28000000 		.word	.L117
 1855 01fc 00000000 		.word	cyBle_discoveryModeInfo
 1856 0200 00000000 		.word	cyBle_scanRspData
 1857 0204 00000000 		.word	cyBle_discoveryData
 1858 0208 00000000 		.word	.LANCHOR2
 1859 020c 07000000 		.word	cyBle_discoveryData+7
 1860              		.cfi_endproc
 1861              	.LFE43:
 1862              		.size	ProcessBeaconEvents, .-ProcessBeaconEvents
 1863              		.section	.text.ReadAndApplyConfig,"ax",%progbits
 1864              		.align	2
 1865              		.global	ReadAndApplyConfig
 1866              		.code	16
 1867              		.thumb_func
 1868              		.type	ReadAndApplyConfig, %function
 1869              	ReadAndApplyConfig:
 1870              	.LFB44:
 991:main.c        ****     /* If UserSFlash is not empty and the storage format isn't older than the firmware 
 1871              		.loc 1 991 0
 1872              		.cfi_startproc
 1873 0000 70B5     		push	{r4, r5, r6, lr}
 1874              		.cfi_def_cfa_offset 16
 1875              		.cfi_offset 4, -16
 1876              		.cfi_offset 5, -12
 1877              		.cfi_offset 6, -8
 1878              		.cfi_offset 14, -4
 994:main.c        ****         (pBeaconConfig->DataFlag_Start == SFLASH_DATA_FLAG_VALID) && \
 1879              		.loc 1 994 0
 1880 0002 3B4C     		ldr	r4, .L169
 1881 0004 3B4A     		ldr	r2, .L169+4
 1882 0006 E36F     		ldr	r3, [r4, #124]
 1883 0008 9342     		cmp	r3, r2
 1884 000a 40D0     		beq	.L167
 1885              	.L165:
1003:main.c        ****     }
 1886              		.loc 1 1003 0
 1887 000c 3A4C     		ldr	r4, .L169+8
 1888              	.L159:
ARM GAS  C:\Users\ramanatg\AppData\Local\Temp\cc9tuycg.s 			page 63


 1889 000e 3B4A     		ldr	r2, .L169+12
 1890 0010 9461     		str	r4, [r2, #24]
1007:main.c        ****     {
 1891              		.loc 1 1007 0
 1892 0012 E17F     		ldrb	r1, [r4, #31]
 1893 0014 0029     		cmp	r1, #0
 1894 0016 44D0     		beq	.L168
1044:main.c        ****         CFG_txpwr    = pCFG->TXPowerLevels[pCFG->TXPowerMode];
 1895              		.loc 1 1044 0
 1896 0018 6023     		mov	r3, #96
 1897 001a E35A     		ldrh	r3, [r4, r3]
 1898 001c 9382     		strh	r3, [r2, #20]
1045:main.c        **** #if (I2C_SENSOR_ENABLE)
 1899              		.loc 1 1045 0
 1900 001e 5E23     		mov	r3, #94
 1901 0020 E35C     		ldrb	r3, [r4, r3]
 1902 0022 E318     		add	r3, r4, r3
 1903 0024 181C     		mov	r0, r3
 1904 0026 3030     		add	r0, r0, #48
 1905 0028 0078     		ldrb	r0, [r0]
 1906 002a 1074     		strb	r0, [r2, #16]
1048:main.c        **** #endif
 1907              		.loc 1 1048 0
 1908 002c 0229     		cmp	r1, #2
 1909 002e 36D0     		beq	.L166
1048:main.c        **** #endif
 1910              		.loc 1 1048 0 is_stmt 0 discriminator 1
 1911 0030 A17F     		ldrb	r1, [r4, #30]
 1912              	.L162:
1048:main.c        **** #endif
 1913              		.loc 1 1048 0 discriminator 4
 1914 0032 334A     		ldr	r2, .L169+16
1058:main.c        ****         memcpy(&(UID_FrameBuffer[ES_NID_INDEX_INFRAME]), pCFG->nid, NID_BYTES);
 1915              		.loc 1 1058 0 is_stmt 1 discriminator 4
 1916 0034 334D     		ldr	r5, .L169+20
1048:main.c        **** #endif
 1917              		.loc 1 1048 0 discriminator 4
 1918 0036 1170     		strb	r1, [r2]
1052:main.c        ****         cyBle_discoveryData.advData[ES_ADV_SVC_UUID_INDEX_TYPE] = ES_SVC_SOLICITATION;
 1919              		.loc 1 1052 0 discriminator 4
 1920 0038 0321     		mov	r1, #3
 1921 003a 334A     		ldr	r2, .L169+24
1058:main.c        ****         memcpy(&(UID_FrameBuffer[ES_NID_INDEX_INFRAME]), pCFG->nid, NID_BYTES);
 1922              		.loc 1 1058 0 discriminator 4
 1923 003c 5833     		add	r3, r3, #88
1052:main.c        ****         cyBle_discoveryData.advData[ES_ADV_SVC_UUID_INDEX_TYPE] = ES_SVC_SOLICITATION;
 1924              		.loc 1 1052 0 discriminator 4
 1925 003e D170     		strb	r1, [r2, #3]
1053:main.c        ****         cyBle_discoveryData.advData[ES_ADV_SVC_UUID_INDEX_LSB]  = ES_SVC_LSB;
 1926              		.loc 1 1053 0 discriminator 4
 1927 0040 1171     		strb	r1, [r2, #4]
1054:main.c        ****         cyBle_discoveryData.advData[ES_ADV_SVC_UUID_INDEX_MSB]  = ES_SVC_MSB;
 1928              		.loc 1 1054 0 discriminator 4
 1929 0042 A731     		add	r1, r1, #167
 1930 0044 5171     		strb	r1, [r2, #5]
1055:main.c        ****         
 1931              		.loc 1 1055 0 discriminator 4
ARM GAS  C:\Users\ramanatg\AppData\Local\Temp\cc9tuycg.s 			page 64


 1932 0046 5431     		add	r1, r1, #84
 1933 0048 9171     		strb	r1, [r2, #6]
1059:main.c        ****         memcpy(&(UID_FrameBuffer[ES_BID_INDEX_INFRAME]), pCFG->bid, BID_BYTES);
 1934              		.loc 1 1059 0 discriminator 4
 1935 004a 211C     		mov	r1, r4
1058:main.c        ****         memcpy(&(UID_FrameBuffer[ES_NID_INDEX_INFRAME]), pCFG->nid, NID_BYTES);
 1936              		.loc 1 1058 0 discriminator 4
 1937 004c 9E78     		ldrb	r6, [r3, #2]
1059:main.c        ****         memcpy(&(UID_FrameBuffer[ES_BID_INDEX_INFRAME]), pCFG->bid, BID_BYTES);
 1938              		.loc 1 1059 0 discriminator 4
 1939 004e 2031     		add	r1, r1, #32
 1940 0050 0A22     		mov	r2, #10
 1941 0052 A81D     		add	r0, r5, #6
1058:main.c        ****         memcpy(&(UID_FrameBuffer[ES_NID_INDEX_INFRAME]), pCFG->nid, NID_BYTES);
 1942              		.loc 1 1058 0 discriminator 4
 1943 0054 6E71     		strb	r6, [r5, #5]
1059:main.c        ****         memcpy(&(UID_FrameBuffer[ES_BID_INDEX_INFRAME]), pCFG->bid, BID_BYTES);
 1944              		.loc 1 1059 0 discriminator 4
 1945 0056 FFF7FEFF 		bl	memcpy
 1946              	.LVL205:
1060:main.c        ****         
 1947              		.loc 1 1060 0 discriminator 4
 1948 005a 281C     		mov	r0, r5
 1949 005c 211C     		mov	r1, r4
 1950 005e 0622     		mov	r2, #6
 1951 0060 2A31     		add	r1, r1, #42
 1952 0062 1030     		add	r0, r0, #16
 1953 0064 FFF7FEFF 		bl	memcpy
 1954              	.LVL206:
1063:main.c        ****         URL_FrameBuffer[ES_ADV_TXPL_INDEX_INFRAME]   = pCFG->Adv_TXPowerLevels[pCFG->TXPowerMode];
 1955              		.loc 1 1063 0 discriminator 4
 1956 0068 5923     		mov	r3, #89
 1957 006a 0F22     		mov	r2, #15
 1958 006c E35C     		ldrb	r3, [r4, r3]
1067:main.c        ****     }
 1959              		.loc 1 1067 0 discriminator 4
 1960 006e 281C     		mov	r0, r5
1063:main.c        ****         URL_FrameBuffer[ES_ADV_TXPL_INDEX_INFRAME]   = pCFG->Adv_TXPowerLevels[pCFG->TXPowerMode];
 1961              		.loc 1 1063 0 discriminator 4
 1962 0070 1340     		and	r3, r2
 1963 0072 1022     		mov	r2, #16
 1964 0074 1343     		orr	r3, r2
 1965 0076 2B77     		strb	r3, [r5, #28]
1066:main.c        ****         memcpy(&(URL_FrameBuffer[ES_URI_DATA_INDEX_INFRAME]), pCFG->URI_Data, pCFG->URI_Length);
 1966              		.loc 1 1066 0 discriminator 4
 1967 0078 4623     		mov	r3, #70
1067:main.c        ****     }
 1968              		.loc 1 1067 0 discriminator 4
 1969 007a 211C     		mov	r1, r4
1064:main.c        ****         
 1970              		.loc 1 1064 0 discriminator 4
 1971 007c 6E77     		strb	r6, [r5, #29]
1066:main.c        ****         memcpy(&(URL_FrameBuffer[ES_URI_DATA_INDEX_INFRAME]), pCFG->URI_Data, pCFG->URI_Length);
 1972              		.loc 1 1066 0 discriminator 4
 1973 007e E25C     		ldrb	r2, [r4, r3]
1067:main.c        ****     }
 1974              		.loc 1 1067 0 discriminator 4
ARM GAS  C:\Users\ramanatg\AppData\Local\Temp\cc9tuycg.s 			page 65


 1975 0080 1E30     		add	r0, r0, #30
1066:main.c        ****         memcpy(&(URL_FrameBuffer[ES_URI_DATA_INDEX_INFRAME]), pCFG->URI_Data, pCFG->URI_Length);
 1976              		.loc 1 1066 0 discriminator 4
 1977 0082 531D     		add	r3, r2, #5
1067:main.c        ****     }
 1978              		.loc 1 1067 0 discriminator 4
 1979 0084 4731     		add	r1, r1, #71
1066:main.c        ****         memcpy(&(URL_FrameBuffer[ES_URI_DATA_INDEX_INFRAME]), pCFG->URI_Data, pCFG->URI_Length);
 1980              		.loc 1 1066 0 discriminator 4
 1981 0086 2B76     		strb	r3, [r5, #24]
1067:main.c        ****     }
 1982              		.loc 1 1067 0 discriminator 4
 1983 0088 FFF7FEFF 		bl	memcpy
 1984              	.LVL207:
 1985              	.L158:
1071:main.c        **** 
 1986              		.loc 1 1071 0
 1987              		@ sp needed
 1988 008c 70BD     		pop	{r4, r5, r6, pc}
 1989              	.L167:
 994:main.c        ****         (pBeaconConfig->DataFlag_Start == SFLASH_DATA_FLAG_VALID) && \
 1990              		.loc 1 994 0 discriminator 1
 1991 008e 2268     		ldr	r2, [r4]
 1992 0090 9A42     		cmp	r2, r3
 1993 0092 BBD1     		bne	.L165
 995:main.c        ****         (pBeaconConfig->version_major_minor1 >= FW_VERSION)          )
 1994              		.loc 1 995 0
 1995 0094 1D4B     		ldr	r3, .L169+28
 1996 0096 A26F     		ldr	r2, [r4, #120]
 1997 0098 9A42     		cmp	r2, r3
 1998 009a B8D8     		bhi	.L159
 1999 009c B6E7     		b	.L165
 2000              	.L166:
1048:main.c        **** #endif
 2001              		.loc 1 1048 0
 2002 009e 0021     		mov	r1, #0
 2003 00a0 C7E7     		b	.L162
 2004              	.L168:
1009:main.c        ****         CFG_txpwr    = pCFG->txpwr;
 2005              		.loc 1 1009 0
 2006 00a2 238B     		ldrh	r3, [r4, #24]
1016:main.c        ****         cyBle_discoveryData.advData[BLEBEACON_AD_TYPE2_OFFSET]    = BLEBEACON_AD_TYPE2_VALUE;
 2007              		.loc 1 1016 0
 2008 00a4 184D     		ldr	r5, .L169+24
1009:main.c        ****         CFG_txpwr    = pCFG->txpwr;
 2009              		.loc 1 1009 0
 2010 00a6 9382     		strh	r3, [r2, #20]
1010:main.c        **** #if (I2C_SENSOR_ENABLE)
 2011              		.loc 1 1010 0
 2012 00a8 237F     		ldrb	r3, [r4, #28]
1024:main.c        **** 
 2013              		.loc 1 1024 0
 2014 00aa 281C     		mov	r0, r5
1010:main.c        **** #if (I2C_SENSOR_ENABLE)
 2015              		.loc 1 1010 0
 2016 00ac 1374     		strb	r3, [r2, #16]
1012:main.c        **** #endif
ARM GAS  C:\Users\ramanatg\AppData\Local\Temp\cc9tuycg.s 			page 66


 2017              		.loc 1 1012 0
 2018 00ae A27F     		ldrb	r2, [r4, #30]
 2019 00b0 134B     		ldr	r3, .L169+16
1024:main.c        **** 
 2020              		.loc 1 1024 0
 2021 00b2 0930     		add	r0, r0, #9
1012:main.c        **** #endif
 2022              		.loc 1 1012 0
 2023 00b4 1A70     		strb	r2, [r3]
1016:main.c        ****         cyBle_discoveryData.advData[BLEBEACON_AD_TYPE2_OFFSET]    = BLEBEACON_AD_TYPE2_VALUE;
 2024              		.loc 1 1016 0
 2025 00b6 1A23     		mov	r3, #26
 2026 00b8 EB70     		strb	r3, [r5, #3]
1017:main.c        ****         cyBle_discoveryData.advData[BLEBEACON_DEVICE_TYPE_OFFSET] = BLEBEACON_DEVICE_TYPE_VALUE;
 2027              		.loc 1 1017 0
 2028 00ba E533     		add	r3, r3, #229
 2029 00bc 2B71     		strb	r3, [r5, #4]
1018:main.c        ****         cyBle_discoveryData.advData[BLEBEACON_LENGTH3_OFFSET]     = BLEBEACON_LENGTH3_VALUE;
 2030              		.loc 1 1018 0
 2031 00be FD3B     		sub	r3, r3, #253
 2032 00c0 EB71     		strb	r3, [r5, #7]
1019:main.c        ****         
 2033              		.loc 1 1019 0
 2034 00c2 1333     		add	r3, r3, #19
 2035 00c4 2B72     		strb	r3, [r5, #8]
1024:main.c        **** 
 2036              		.loc 1 1024 0
 2037 00c6 1022     		mov	r2, #16
1021:main.c        ****         
 2038              		.loc 1 1021 0
 2039 00c8 0933     		add	r3, r3, #9
1024:main.c        **** 
 2040              		.loc 1 1024 0
 2041 00ca 211D     		add	r1, r4, #4
1021:main.c        ****         
 2042              		.loc 1 1021 0
 2043 00cc EB77     		strb	r3, [r5, #31]
1024:main.c        **** 
 2044              		.loc 1 1024 0
 2045 00ce FFF7FEFF 		bl	memcpy
 2046              	.LVL208:
1027:main.c        ****         cyBle_discoveryData.advData[ADDR_COID_OFFSET + 1] = pCFG->comID >> 8;
 2047              		.loc 1 1027 0
 2048 00d2 638B     		ldrh	r3, [r4, #26]
 2049 00d4 6B71     		strb	r3, [r5, #5]
1028:main.c        **** 
 2050              		.loc 1 1028 0
 2051 00d6 1B0A     		lsr	r3, r3, #8
 2052 00d8 AB71     		strb	r3, [r5, #6]
1031:main.c        ****         cyBle_discoveryData.advData[ADDR_MAJOR_OFFSET + 1] = pCFG->major & 0xFF;
 2053              		.loc 1 1031 0
 2054 00da A38A     		ldrh	r3, [r4, #20]
 2055 00dc 1A0A     		lsr	r2, r3, #8
 2056 00de 6A76     		strb	r2, [r5, #25]
1032:main.c        ****         
 2057              		.loc 1 1032 0
 2058 00e0 AB76     		strb	r3, [r5, #26]
ARM GAS  C:\Users\ramanatg\AppData\Local\Temp\cc9tuycg.s 			page 67


1035:main.c        ****         cyBle_discoveryData.advData[ADDR_MINOR_OFFSET + 1] = pCFG->minor & 0xFF;
 2059              		.loc 1 1035 0
 2060 00e2 E38A     		ldrh	r3, [r4, #22]
 2061 00e4 1A0A     		lsr	r2, r3, #8
 2062 00e6 EA76     		strb	r2, [r5, #27]
1036:main.c        ****         
 2063              		.loc 1 1036 0
 2064 00e8 2B77     		strb	r3, [r5, #28]
1039:main.c        ****     }
 2065              		.loc 1 1039 0
 2066 00ea 637F     		ldrb	r3, [r4, #29]
 2067 00ec 6B77     		strb	r3, [r5, #29]
 2068 00ee CDE7     		b	.L158
 2069              	.L170:
 2070              		.align	2
 2071              	.L169:
 2072 00f0 80F2FF0F 		.word	268432000
 2073 00f4 AA550000 		.word	21930
 2074 00f8 00000000 		.word	DefaultBeaconConfig
 2075 00fc 00000000 		.word	.LANCHOR0
 2076 0100 00000000 		.word	Sensor_Flag
 2077 0104 00000000 		.word	.LANCHOR2
 2078 0108 00000000 		.word	cyBle_discoveryData
 2079 010c 01000100 		.word	65537
 2080              		.cfi_endproc
 2081              	.LFE44:
 2082              		.size	ReadAndApplyConfig, .-ReadAndApplyConfig
 2083              		.section	.text.startup.main,"ax",%progbits
 2084              		.align	2
 2085              		.global	main
 2086              		.code	16
 2087              		.thumb_func
 2088              		.type	main, %function
 2089              	main:
 2090              	.LFB41:
 335:main.c        ****     CyGlobalIntEnable;
 2091              		.loc 1 335 0
 2092              		.cfi_startproc
 2093 0000 F0B5     		push	{r4, r5, r6, r7, lr}
 2094              		.cfi_def_cfa_offset 20
 2095              		.cfi_offset 4, -20
 2096              		.cfi_offset 5, -16
 2097              		.cfi_offset 6, -12
 2098              		.cfi_offset 7, -8
 2099              		.cfi_offset 14, -4
 2100 0002 8FB0     		sub	sp, sp, #60
 2101              		.cfi_def_cfa_offset 80
 336:main.c        **** 
 2102              		.loc 1 336 0
 2103              	@ 336 "main.c" 1
 2104 0004 62B6     		CPSIE   i
 2105              	@ 0 "" 2
 339:main.c        **** 
 2106              		.loc 1 339 0
 2107              		.code	16
 2108 0006 0320     		mov	r0, #3
 2109 0008 FFF7FEFF 		bl	CySysClkWriteEcoDiv
ARM GAS  C:\Users\ramanatg\AppData\Local\Temp\cc9tuycg.s 			page 68


 2110              	.LVL209:
 342:main.c        **** 
 2111              		.loc 1 342 0
 2112 000c FFF7FEFF 		bl	LowPower_WCO_ECO_Start
 2113              	.LVL210:
 345:main.c        ****     {
 2114              		.loc 1 345 0
 2115 0010 FFF7FEFF 		bl	USB_Detect_Read
 2116              	.LVL211:
 2117 0014 0128     		cmp	r0, #1
 2118 0016 67D0     		beq	.L193
 2119 0018 444C     		ldr	r4, .L198
 2120              	.L172:
 378:main.c        ****     
 2121              		.loc 1 378 0
 2122 001a FFF7FEFF 		bl	ReadAndApplyConfig
 2123              	.LVL212:
 381:main.c        ****     cyBle_discoveryModeInfo.advTo    = CYBLE_ADV_NO_TIMEOUT;
 2124              		.loc 1 381 0
 2125 001e 0322     		mov	r2, #3
 2126 0020 434B     		ldr	r3, .L198+4
 386:main.c        ****     
 2127              		.loc 1 386 0
 2128 0022 4448     		ldr	r0, .L198+8
 381:main.c        ****     cyBle_discoveryModeInfo.advTo    = CYBLE_ADV_NO_TIMEOUT;
 2129              		.loc 1 381 0
 2130 0024 1A71     		strb	r2, [r3, #4]
 382:main.c        ****     cyBle_discoveryModeInfo.discMode = CYBLE_GAPP_NONE_DISC_BROADCAST_MODE;
 2131              		.loc 1 382 0
 2132 0026 0022     		mov	r2, #0
 2133 0028 434B     		ldr	r3, .L198+12
 2134 002a 1A82     		strh	r2, [r3, #16]
 383:main.c        ****     cyBle_discoveryData.advData[ADV_DATA1_FLAGS_INDEX] = ADV_DATA1_FLAGS_NON_CONNECTABLE;
 2135              		.loc 1 383 0
 2136 002c 1A70     		strb	r2, [r3]
 384:main.c        ****     
 2137              		.loc 1 384 0
 2138 002e 0422     		mov	r2, #4
 2139 0030 424B     		ldr	r3, .L198+16
 2140 0032 9A70     		strb	r2, [r3, #2]
 386:main.c        ****     
 2141              		.loc 1 386 0
 2142 0034 FFF7FEFF 		bl	CyBle_Start
 2143              	.LVL213:
 2144 0038 414F     		ldr	r7, .L198+20
 2145              	.L175:
 390:main.c        ****     
 2146              		.loc 1 390 0
 2147 003a FFF7FEFF 		bl	CyBle_ProcessEvents
 2148              	.LVL214:
 2149              	.LBB143:
 2150              	.LBB144:
 280:main.c        **** 
 2151              		.loc 1 280 0
 2152 003e 0320     		mov	r0, #3
 2153 0040 FFF7FEFF 		bl	CyBle_EnterLPM
 2154              	.LVL215:
ARM GAS  C:\Users\ramanatg\AppData\Local\Temp\cc9tuycg.s 			page 69


 2155 0044 061C     		mov	r6, r0
 2156              	.LVL216:
 282:main.c        ****     
 2157              		.loc 1 282 0
 2158 0046 FFF7FEFF 		bl	CyEnterCriticalSection
 2159              	.LVL217:
 2160 004a 051C     		mov	r5, r0
 2161              	.LVL218:
 284:main.c        ****     /* Make sure BLESS is in Deep-Sleep before configuring system in Deep-Sleep mode */
 2162              		.loc 1 284 0
 2163 004c FFF7FEFF 		bl	CyBle_GetBleSsState
 2164              	.LVL219:
 286:main.c        ****     {
 2165              		.loc 1 286 0
 2166 0050 032E     		cmp	r6, #3
 2167 0052 42D0     		beq	.L195
 297:main.c        ****     {
 2168              		.loc 1 297 0
 2169 0054 0228     		cmp	r0, #2
 2170 0056 0BD0     		beq	.L177
 300:main.c        ****         
 2171              		.loc 1 300 0
 2172 0058 0220     		mov	r0, #2
 2173              	.LVL220:
 2174 005a FFF7FEFF 		bl	CySysClkWriteHfclkDirect
 2175              	.LVL221:
 303:main.c        ****       
 2176              		.loc 1 303 0
 2177 005e FFF7FEFF 		bl	CySysClkImoStop
 2178              	.LVL222:
 306:main.c        ****        
 2179              		.loc 1 306 0
 2180 0062 FFF7FEFF 		bl	CySysPmSleep
 2181              	.LVL223:
 309:main.c        ****         
 2182              		.loc 1 309 0
 2183 0066 FFF7FEFF 		bl	CySysClkImoStart
 2184              	.LVL224:
 312:main.c        ****     }
 2185              		.loc 1 312 0
 2186 006a 0020     		mov	r0, #0
 2187 006c FFF7FEFF 		bl	CySysClkWriteHfclkDirect
 2188              	.LVL225:
 2189              	.L177:
 315:main.c        ****     
 2190              		.loc 1 315 0
 2191 0070 281C     		mov	r0, r5
 2192 0072 FFF7FEFF 		bl	CyExitCriticalSection
 2193              	.LVL226:
 2194              	.LBE144:
 2195              	.LBE143:
 395:main.c        ****         {
 2196              		.loc 1 395 0
 2197 0076 637C     		ldrb	r3, [r4, #17]
 2198 0078 002B     		cmp	r3, #0
 2199 007a 13D1     		bne	.L196
 2200              	.L178:
ARM GAS  C:\Users\ramanatg\AppData\Local\Temp\cc9tuycg.s 			page 70


 427:main.c        ****         {
 2201              		.loc 1 427 0
 2202 007c 0023     		mov	r3, #0
 2203 007e FB56     		ldrsb	r3, [r7, r3]
 2204 0080 002B     		cmp	r3, #0
 2205 0082 0CD0     		beq	.L179
 430:main.c        ****             {
 2206              		.loc 1 430 0
 2207 0084 A37C     		ldrb	r3, [r4, #18]
 2208 0086 052B     		cmp	r3, #5
 2209 0088 06D8     		bhi	.L180
 432:main.c        ****                 
 2210              		.loc 1 432 0
 2211 008a FFF7FEFF 		bl	I2CM_Wakeup
 2212              	.LVL227:
 434:main.c        ****                 
 2213              		.loc 1 434 0
 2214 008e FFF7FEFF 		bl	ProcessI2CEvents
 2215              	.LVL228:
 436:main.c        ****                                        Put I2CM to sleep mode immediately to save power. */
 2216              		.loc 1 436 0
 2217 0092 FFF7FEFF 		bl	I2CM_Sleep
 2218              	.LVL229:
 2219 0096 D0E7     		b	.L175
 2220              	.L180:
 441:main.c        ****             }
 2221              		.loc 1 441 0
 2222 0098 FFF7FEFF 		bl	ProcessI2CEvents
 2223              	.LVL230:
 2224 009c CDE7     		b	.L175
 2225              	.L179:
 448:main.c        ****         }
 2226              		.loc 1 448 0
 2227 009e FFF7FEFF 		bl	ProcessBeaconEvents
 2228              	.LVL231:
 2229 00a2 CAE7     		b	.L175
 2230              	.L196:
 397:main.c        ****             
 2231              		.loc 1 397 0
 2232 00a4 0023     		mov	r3, #0
 2233 00a6 6374     		strb	r3, [r4, #17]
 399:main.c        ****             
 2234              		.loc 1 399 0
 2235 00a8 FFF7FEFF 		bl	CySysWdtUnlock
 2236              	.LVL232:
 401:main.c        ****             
 2237              		.loc 1 401 0
 2238 00ac 0120     		mov	r0, #1
 2239 00ae FFF7FEFF 		bl	CySysWdtDisable
 2240              	.LVL233:
 403:main.c        ****             
 2241              		.loc 1 403 0
 2242 00b2 0120     		mov	r0, #1
 2243 00b4 0121     		mov	r1, #1
 2244 00b6 FFF7FEFF 		bl	CySysWdtSetMode
 2245              	.LVL234:
 405:main.c        ****             
ARM GAS  C:\Users\ramanatg\AppData\Local\Temp\cc9tuycg.s 			page 71


 2246              		.loc 1 405 0
 2247 00ba 0120     		mov	r0, #1
 2248 00bc 0121     		mov	r1, #1
 2249 00be FFF7FEFF 		bl	CySysWdtSetClearOnMatch
 2250              	.LVL235:
 411:main.c        ****             }
 2251              		.loc 1 411 0
 2252 00c2 A321     		mov	r1, #163
 2253 00c4 0120     		mov	r0, #1
 2254 00c6 4900     		lsl	r1, r1, #1
 2255 00c8 FFF7FEFF 		bl	CySysWdtSetMatch
 2256              	.LVL236:
 420:main.c        ****             
 2257              		.loc 1 420 0
 2258 00cc 8020     		mov	r0, #128
 2259 00ce 4000     		lsl	r0, r0, #1
 2260 00d0 FFF7FEFF 		bl	CySysWdtEnable
 2261              	.LVL237:
 422:main.c        ****         }
 2262              		.loc 1 422 0
 2263 00d4 FFF7FEFF 		bl	CySysWdtLock
 2264              	.LVL238:
 2265 00d8 D0E7     		b	.L178
 2266              	.LVL239:
 2267              	.L195:
 2268              	.LBB146:
 2269              	.LBB145:
 290:main.c        ****         {
 2270              		.loc 1 290 0
 2271 00da FD23     		mov	r3, #253
 2272 00dc 1840     		and	r0, r3
 2273              	.LVL240:
 2274 00de 0428     		cmp	r0, #4
 2275 00e0 C6D1     		bne	.L177
 292:main.c        ****         }
 2276              		.loc 1 292 0
 2277 00e2 FFF7FEFF 		bl	CySysPmDeepSleep
 2278              	.LVL241:
 2279 00e6 C3E7     		b	.L177
 2280              	.LVL242:
 2281              	.L193:
 2282              	.LBE145:
 2283              	.LBE146:
 2284              	.LBB147:
 361:main.c        ****             {
 2285              		.loc 1 361 0
 2286 00e8 8025     		mov	r5, #128
 350:main.c        ****         
 2287              		.loc 1 350 0
 2288 00ea FFF7FEFF 		bl	ConfigRW_CheckVersion
 2289              	.LVL243:
 353:main.c        ****         EddystoneURL_Config_Init();
 2290              		.loc 1 353 0
 2291 00ee 6846     		mov	r0, sp
 2292 00f0 FFF7FEFF 		bl	UartCmd_Init
 2293              	.LVL244:
 367:main.c        ****             {
ARM GAS  C:\Users\ramanatg\AppData\Local\Temp\cc9tuycg.s 			page 72


 2294              		.loc 1 367 0
 2295 00f4 134C     		ldr	r4, .L198+24
 354:main.c        ****         
 2296              		.loc 1 354 0
 2297 00f6 FFF7FEFF 		bl	EddystoneURL_Config_Init
 2298              	.LVL245:
 2299 00fa 134E     		ldr	r6, .L198+28
 361:main.c        ****             {
 2300              		.loc 1 361 0
 2301 00fc 6D01     		lsl	r5, r5, #5
 2302              	.L189:
 359:main.c        ****             /* If user typed EXIT command. */
 2303              		.loc 1 359 0
 2304 00fe FFF7FEFF 		bl	CyBle_ProcessEvents
 2305              	.LVL246:
 361:main.c        ****             {
 2306              		.loc 1 361 0
 2307 0102 FFF7FEFF 		bl	UartCmd_ProcessInput
 2308              	.LVL247:
 2309 0106 A842     		cmp	r0, r5
 2310 0108 0AD0     		beq	.L197
 367:main.c        ****             {
 2311              		.loc 1 367 0
 2312 010a 1F23     		mov	r3, #31
 2313 010c E356     		ldrsb	r3, [r4, r3]
 2314 010e 022B     		cmp	r3, #2
 2315 0110 F5D1     		bne	.L189
 367:main.c        ****             {
 2316              		.loc 1 367 0 is_stmt 0 discriminator 1
 2317 0112 3378     		ldrb	r3, [r6]
 2318 0114 002B     		cmp	r3, #0
 2319 0116 F2D0     		beq	.L189
 369:main.c        ****                 break;
 2320              		.loc 1 369 0 is_stmt 1
 2321 0118 0123     		mov	r3, #1
 2322 011a 044C     		ldr	r4, .L198
 2323 011c 2377     		strb	r3, [r4, #28]
 370:main.c        ****             }
 2324              		.loc 1 370 0
 2325 011e 00E0     		b	.L173
 2326              	.L197:
 2327 0120 024C     		ldr	r4, .L198
 2328              	.L173:
 374:main.c        ****         UART_Stop();
 2329              		.loc 1 374 0
 2330 0122 FFF7FEFF 		bl	CyBle_Stop
 2331              	.LVL248:
 375:main.c        ****     }
 2332              		.loc 1 375 0
 2333 0126 FFF7FEFF 		bl	UART_Stop
 2334              	.LVL249:
 2335 012a 76E7     		b	.L172
 2336              	.L199:
 2337              		.align	2
 2338              	.L198:
 2339 012c 00000000 		.word	.LANCHOR0
 2340 0130 00000000 		.word	cyBle_discoveryParam
ARM GAS  C:\Users\ramanatg\AppData\Local\Temp\cc9tuycg.s 			page 73


 2341 0134 00000000 		.word	BLE_AppEventHandler
 2342 0138 00000000 		.word	cyBle_discoveryModeInfo
 2343 013c 00000000 		.word	cyBle_discoveryData
 2344 0140 00000000 		.word	Sensor_Flag
 2345 0144 80F2FF0F 		.word	268432000
 2346 0148 00000000 		.word	gatt_disconnect_flag
 2347              	.LBE147:
 2348              		.cfi_endproc
 2349              	.LFE41:
 2350              		.size	main, .-main
 2351              		.section	.text.UpdateTxPowerLeverl,"ax",%progbits
 2352              		.align	2
 2353              		.global	UpdateTxPowerLeverl
 2354              		.code	16
 2355              		.thumb_func
 2356              		.type	UpdateTxPowerLeverl, %function
 2357              	UpdateTxPowerLeverl:
 2358              	.LFB45:
1088:main.c        ****     CYBLE_BLESS_PWR_IN_DB_T t_pwr;
 2359              		.loc 1 1088 0
 2360              		.cfi_startproc
 2361              	.LVL250:
1093:main.c        ****     {
 2362              		.loc 1 1093 0
 2363 0000 031C     		mov	r3, r0
1088:main.c        ****     CYBLE_BLESS_PWR_IN_DB_T t_pwr;
 2364              		.loc 1 1088 0
 2365 0002 00B5     		push	{lr}
 2366              		.cfi_def_cfa_offset 4
 2367              		.cfi_offset 14, -4
 2368 0004 83B0     		sub	sp, sp, #12
 2369              		.cfi_def_cfa_offset 16
1093:main.c        ****     {
 2370              		.loc 1 1093 0
 2371 0006 1233     		add	r3, r3, #18
 2372 0008 1CD0     		beq	.L202
1097:main.c        ****     {
 2373              		.loc 1 1097 0
 2374 000a 031C     		mov	r3, r0
 2375 000c 0C33     		add	r3, r3, #12
 2376 000e 1BD0     		beq	.L203
1101:main.c        ****     {
 2377              		.loc 1 1101 0
 2378 0010 831D     		add	r3, r0, #6
 2379 0012 1BD0     		beq	.L204
1105:main.c        ****     {
 2380              		.loc 1 1105 0
 2381 0014 C31C     		add	r3, r0, #3
 2382 0016 13D0     		beq	.L205
1109:main.c        ****     {
 2383              		.loc 1 1109 0
 2384 0018 831C     		add	r3, r0, #2
 2385 001a 19D0     		beq	.L206
1113:main.c        ****     {
 2386              		.loc 1 1113 0
 2387 001c 431C     		add	r3, r0, #1
 2388 001e 19D0     		beq	.L207
ARM GAS  C:\Users\ramanatg\AppData\Local\Temp\cc9tuycg.s 			page 74


1119:main.c        ****     }
 2389              		.loc 1 1119 0
 2390 0020 0723     		mov	r3, #7
1117:main.c        ****     {
 2391              		.loc 1 1117 0
 2392 0022 0028     		cmp	r0, #0
 2393 0024 04D0     		beq	.L201
1127:main.c        ****     }
 2394              		.loc 1 1127 0
 2395 0026 0338     		sub	r0, r0, #3
 2396              	.LVL251:
 2397 0028 4342     		neg	r3, r0
 2398 002a 4341     		adc	r3, r3, r0
 2399 002c 0920     		mov	r0, #9
 2400 002e C31A     		sub	r3, r0, r3
 2401              	.L201:
 2402              	.LVL252:
1129:main.c        ****     t_pwr.bleSsChId = CYBLE_LL_ADV_CH_TYPE;
 2403              		.loc 1 1129 0
 2404 0030 01A8     		add	r0, sp, #4
 2405 0032 0370     		strb	r3, [r0]
1130:main.c        ****     CyBle_SetTxPowerLevel(&t_pwr);
 2406              		.loc 1 1130 0
 2407 0034 0023     		mov	r3, #0
 2408              	.LVL253:
 2409 0036 4370     		strb	r3, [r0, #1]
1131:main.c        ****     
 2410              		.loc 1 1131 0
 2411 0038 FFF7FEFF 		bl	CyBle_SetTxPowerLevel
 2412              	.LVL254:
1134:main.c        **** 
 2413              		.loc 1 1134 0
 2414 003c 03B0     		add	sp, sp, #12
 2415              		@ sp needed
 2416 003e 00BD     		pop	{pc}
 2417              	.LVL255:
 2418              	.L205:
1107:main.c        ****     }
 2419              		.loc 1 1107 0
 2420 0040 0423     		mov	r3, #4
 2421 0042 F5E7     		b	.L201
 2422              	.L202:
1095:main.c        ****     }
 2423              		.loc 1 1095 0
 2424 0044 0123     		mov	r3, #1
 2425 0046 F3E7     		b	.L201
 2426              	.L203:
1099:main.c        ****     }
 2427              		.loc 1 1099 0
 2428 0048 0223     		mov	r3, #2
 2429 004a F1E7     		b	.L201
 2430              	.L204:
1103:main.c        ****     }
 2431              		.loc 1 1103 0
 2432 004c 0323     		mov	r3, #3
 2433 004e EFE7     		b	.L201
 2434              	.L206:
ARM GAS  C:\Users\ramanatg\AppData\Local\Temp\cc9tuycg.s 			page 75


1111:main.c        ****     }
 2435              		.loc 1 1111 0
 2436 0050 0523     		mov	r3, #5
 2437 0052 EDE7     		b	.L201
 2438              	.L207:
1115:main.c        ****     }
 2439              		.loc 1 1115 0
 2440 0054 0623     		mov	r3, #6
 2441 0056 EBE7     		b	.L201
 2442              		.cfi_endproc
 2443              	.LFE45:
 2444              		.size	UpdateTxPowerLeverl, .-UpdateTxPowerLeverl
 2445              		.section	.text.Beacon_GappStartAdvertisement,"ax",%progbits
 2446              		.align	2
 2447              		.global	Beacon_GappStartAdvertisement
 2448              		.code	16
 2449              		.thumb_func
 2450              		.type	Beacon_GappStartAdvertisement, %function
 2451              	Beacon_GappStartAdvertisement:
 2452              	.LFB46:
1157:main.c        ****     uint16_t RegisterIntervalValue;
 2453              		.loc 1 1157 0
 2454              		.cfi_startproc
 2455              	.LVL256:
 2456 0000 08B5     		push	{r3, lr}
 2457              		.cfi_def_cfa_offset 8
 2458              		.cfi_offset 3, -8
 2459              		.cfi_offset 14, -4
1160:main.c        ****     /* Set advertising broadcast interval*/
 2460              		.loc 1 1160 0
 2461 0002 0521     		mov	r1, #5
 2462 0004 C000     		lsl	r0, r0, #3
 2463              	.LVL257:
 2464 0006 FFF7FEFF 		bl	__aeabi_uidiv
 2465              	.LVL258:
1162:main.c        ****     cyBle_discoveryModeInfo.advParam->advIntvMax = RegisterIntervalValue;
 2466              		.loc 1 1162 0
 2467 000a 044B     		ldr	r3, .L212
1160:main.c        ****     /* Set advertising broadcast interval*/
 2468              		.loc 1 1160 0
 2469 000c 80B2     		uxth	r0, r0
 2470              	.LVL259:
1162:main.c        ****     cyBle_discoveryModeInfo.advParam->advIntvMax = RegisterIntervalValue;
 2471              		.loc 1 1162 0
 2472 000e 5B68     		ldr	r3, [r3, #4]
1167:main.c        **** 
 2473              		.loc 1 1167 0
 2474              		@ sp needed
1162:main.c        ****     cyBle_discoveryModeInfo.advParam->advIntvMax = RegisterIntervalValue;
 2475              		.loc 1 1162 0
 2476 0010 1880     		strh	r0, [r3]
1163:main.c        **** 
 2477              		.loc 1 1163 0
 2478 0012 5880     		strh	r0, [r3, #2]
1166:main.c        **** }
 2479              		.loc 1 1166 0
 2480 0014 0220     		mov	r0, #2
ARM GAS  C:\Users\ramanatg\AppData\Local\Temp\cc9tuycg.s 			page 76


 2481              	.LVL260:
 2482 0016 FFF7FEFF 		bl	CyBle_GappStartAdvertisement
 2483              	.LVL261:
1167:main.c        **** 
 2484              		.loc 1 1167 0
 2485 001a 08BD     		pop	{r3, pc}
 2486              	.L213:
 2487              		.align	2
 2488              	.L212:
 2489 001c 00000000 		.word	cyBle_discoveryModeInfo
 2490              		.cfi_endproc
 2491              	.LFE46:
 2492              		.size	Beacon_GappStartAdvertisement, .-Beacon_GappStartAdvertisement
 2493              		.section	.text.UpdateAdData3,"ax",%progbits
 2494              		.align	2
 2495              		.global	UpdateAdData3
 2496              		.code	16
 2497              		.thumb_func
 2498              		.type	UpdateAdData3, %function
 2499              	UpdateAdData3:
 2500              	.LFB48:
1212:main.c        ****     switch(NewEdFrame)
 2501              		.loc 1 1212 0
 2502              		.cfi_startproc
 2503              	.LVL262:
 2504 0000 38B5     		push	{r3, r4, r5, lr}
 2505              		.cfi_def_cfa_offset 16
 2506              		.cfi_offset 3, -16
 2507              		.cfi_offset 4, -12
 2508              		.cfi_offset 5, -8
 2509              		.cfi_offset 14, -4
1213:main.c        ****     {
 2510              		.loc 1 1213 0
 2511 0002 1028     		cmp	r0, #16
 2512 0004 10D0     		beq	.L216
 2513 0006 2028     		cmp	r0, #32
 2514 0008 0BD0     		beq	.L217
 2515 000a 0028     		cmp	r0, #0
 2516 000c 00D0     		beq	.L219
 2517              	.LVL263:
 2518              	.L214:
 2519              		.loc 1 1285 0
 2520              		@ sp needed
 2521 000e 38BD     		pop	{r3, r4, r5, pc}
 2522              	.LVL264:
 2523              	.L219:
1217:main.c        ****                    UID_FrameBuffer, 
 2524              		.loc 1 1217 0
 2525 0010 0B4C     		ldr	r4, .L220
 2526 0012 0C49     		ldr	r1, .L220+4
 2527 0014 E01D     		add	r0, r4, #7
 2528              	.LVL265:
 2529 0016 1822     		mov	r2, #24
 2530 0018 FFF7FEFF 		bl	memcpy
 2531              	.LVL266:
1222:main.c        ****                                              ES_ADV_SVC_UUID_LENGTH + 
 2532              		.loc 1 1222 0
ARM GAS  C:\Users\ramanatg\AppData\Local\Temp\cc9tuycg.s 			page 77


 2533 001c 1F23     		mov	r3, #31
 2534 001e E377     		strb	r3, [r4, #31]
1225:main.c        ****         
 2535              		.loc 1 1225 0
 2536 0020 F5E7     		b	.L214
 2537              	.LVL267:
 2538              	.L217:
 2539 0022 FFF7FEFF 		bl	UpdateAdData3.part.2
 2540              	.LVL268:
 2541 0026 F2E7     		b	.L214
 2542              	.LVL269:
 2543              	.L216:
1231:main.c        ****         
 2544              		.loc 1 1231 0
 2545 0028 0649     		ldr	r1, .L220+4
1229:main.c        ****                    URL_FrameBuffer, 
 2546              		.loc 1 1229 0
 2547 002a 074D     		ldr	r5, .L220+8
1231:main.c        ****         
 2548              		.loc 1 1231 0
 2549 002c 0C7E     		ldrb	r4, [r1, #24]
1229:main.c        ****                    URL_FrameBuffer, 
 2550              		.loc 1 1229 0
 2551 002e 281C     		mov	r0, r5
 2552              	.LVL270:
1231:main.c        ****         
 2553              		.loc 1 1231 0
 2554 0030 621C     		add	r2, r4, #1
1229:main.c        ****                    URL_FrameBuffer, 
 2555              		.loc 1 1229 0
 2556 0032 1831     		add	r1, r1, #24
1234:main.c        ****                                              ES_ADV_SVC_UUID_LENGTH + \
 2557              		.loc 1 1234 0
 2558 0034 0834     		add	r4, r4, #8
1229:main.c        ****                    URL_FrameBuffer, 
 2559              		.loc 1 1229 0
 2560 0036 FFF7FEFF 		bl	memcpy
 2561              	.LVL271:
1234:main.c        ****                                              ES_ADV_SVC_UUID_LENGTH + \
 2562              		.loc 1 1234 0
 2563 003a 2C76     		strb	r4, [r5, #24]
1237:main.c        ****         
 2564              		.loc 1 1237 0
 2565 003c E7E7     		b	.L214
 2566              	.L221:
 2567 003e C046     		.align	2
 2568              	.L220:
 2569 0040 00000000 		.word	cyBle_discoveryData
 2570 0044 00000000 		.word	.LANCHOR2
 2571 0048 07000000 		.word	cyBle_discoveryData+7
 2572              		.cfi_endproc
 2573              	.LFE48:
 2574              		.size	UpdateAdData3, .-UpdateAdData3
 2575              		.global	beacon_state
 2576              		.global	wdt_trigger_on_flag
 2577              		.comm	Sensor_Flag,1,1
 2578              		.global	i2c_state
ARM GAS  C:\Users\ramanatg\AppData\Local\Temp\cc9tuycg.s 			page 78


 2579              		.comm	I2C_buffer,4,4
 2580              		.global	restartadvertisement
 2581              		.section	.rodata
 2582              		.align	2
 2583              		.set	.LANCHOR1,. + 0
 2584              		.type	DefaultTLMframe, %object
 2585              		.size	DefaultTLMframe, 18
 2586              	DefaultTLMframe:
 2587 0044 11       		.byte	17
 2588 0045 16       		.byte	22
 2589 0046 AA       		.byte	-86
 2590 0047 FE       		.byte	-2
 2591 0048 20       		.byte	32
 2592 0049 00       		.byte	0
 2593 004a 00       		.byte	0
 2594 004b 00       		.byte	0
 2595 004c 80       		.byte	-128
 2596 004d 00       		.byte	0
 2597 004e 00000000 		.space	8
 2597      00000000 
 2598 0056 0000     		.data
 2599              		.align	2
 2600              		.set	.LANCHOR2,. + 0
 2601              		.type	UID_FrameBuffer, %object
 2602              		.size	UID_FrameBuffer, 24
 2603              	UID_FrameBuffer:
 2604 0000 17       		.byte	23
 2605 0001 16       		.byte	22
 2606 0002 AA       		.byte	-86
 2607 0003 FE       		.byte	-2
 2608 0004 00       		.byte	0
 2609 0005 00000000 		.space	19
 2609      00000000 
 2609      00000000 
 2609      00000000 
 2609      000000
 2610              		.type	URL_FrameBuffer, %object
 2611              		.size	URL_FrameBuffer, 24
 2612              	URL_FrameBuffer:
 2613 0018 00       		.byte	0
 2614 0019 16       		.byte	22
 2615 001a AA       		.byte	-86
 2616 001b FE       		.byte	-2
 2617 001c 10       		.byte	16
 2618 001d 00000000 		.space	19
 2618      00000000 
 2618      00000000 
 2618      00000000 
 2618      000000
 2619              		.bss
 2620              		.align	2
 2621              		.set	.LANCHOR0,. + 0
 2622              		.type	wdt_trigger_on_flag, %object
 2623              		.size	wdt_trigger_on_flag, 1
 2624              	wdt_trigger_on_flag:
 2625 0000 00       		.space	1
 2626 0001 000000   		.space	3
ARM GAS  C:\Users\ramanatg\AppData\Local\Temp\cc9tuycg.s 			page 79


 2627              		.type	ES_ADV_CNT, %object
 2628              		.size	ES_ADV_CNT, 4
 2629              	ES_ADV_CNT:
 2630 0004 00000000 		.space	4
 2631              		.type	ES_SEC_CNT_ms, %object
 2632              		.size	ES_SEC_CNT_ms, 4
 2633              	ES_SEC_CNT_ms:
 2634 0008 00000000 		.space	4
 2635              		.type	ES_SEC_CNT, %object
 2636              		.size	ES_SEC_CNT, 4
 2637              	ES_SEC_CNT:
 2638 000c 00000000 		.space	4
 2639              		.type	CFG_txpwr, %object
 2640              		.size	CFG_txpwr, 1
 2641              	CFG_txpwr:
 2642 0010 00       		.space	1
 2643              		.type	restartadvertisement, %object
 2644              		.size	restartadvertisement, 1
 2645              	restartadvertisement:
 2646 0011 00       		.space	1
 2647              		.type	i2c_state, %object
 2648              		.size	i2c_state, 1
 2649              	i2c_state:
 2650 0012 00       		.space	1
 2651 0013 00       		.space	1
 2652              		.type	CFG_interval, %object
 2653              		.size	CFG_interval, 2
 2654              	CFG_interval:
 2655 0014 0000     		.space	2
 2656 0016 0000     		.space	2
 2657              		.type	pCFG, %object
 2658              		.size	pCFG, 4
 2659              	pCFG:
 2660 0018 00000000 		.space	4
 2661              		.type	beacon_state, %object
 2662              		.size	beacon_state, 1
 2663              	beacon_state:
 2664 001c 00       		.space	1
 2665 001d 000000   		.text
 2666              	.Letext0:
 2667              		.file 2 "c:\\program files (x86)\\cypress\\psoc creator\\4.0\\psoc creator\\import\\gnu\\arm\\4.9.
 2668              		.file 3 "c:\\program files (x86)\\cypress\\psoc creator\\4.0\\psoc creator\\import\\gnu\\arm\\4.9.
 2669              		.file 4 "Generated_Source\\PSoC4/cytypes.h"
 2670              		.file 5 "Generated_Source\\PSoC4/BLE_Stack.h"
 2671              		.file 6 "Generated_Source\\PSoC4/BLE_StackGap.h"
 2672              		.file 7 "Generated_Source\\PSoC4/BLE.h"
 2673              		.file 8 "./main.h"
 2674              		.file 9 "ConfigRW.h"
 2675              		.file 10 "Eddystone.h"
 2676              		.file 11 "Generated_Source\\PSoC4/CyLFClk.h"
 2677              		.file 12 "Generated_Source\\PSoC4/CyLib.h"
 2678              		.file 13 "Generated_Source\\PSoC4/WDT_Interrupt.h"
 2679              		.file 14 "Generated_Source\\PSoC4/cyPm.h"
 2680              		.file 15 "Generated_Source\\PSoC4/I2CM.h"
 2681              		.file 16 "Generated_Source\\PSoC4/I2CM_I2C.h"
 2682              		.file 17 "UartCmd.h"
 2683              		.file 18 "Generated_Source\\PSoC4/UART.h"
ARM GAS  C:\Users\ramanatg\AppData\Local\Temp\cc9tuycg.s 			page 80


 2684              		.file 19 "Generated_Source\\PSoC4/USB_Detect.h"