ARM GAS  C:\Users\ramanatg\AppData\Local\Temp\ccxbhSsV.s 			page 1


   1              		.cpu cortex-m0
   2              		.fpu softvfp
   3              		.eabi_attribute 20, 1
   4              		.eabi_attribute 21, 1
   5              		.eabi_attribute 23, 3
   6              		.eabi_attribute 24, 1
   7              		.eabi_attribute 25, 1
   8              		.eabi_attribute 26, 1
   9              		.eabi_attribute 30, 2
  10              		.eabi_attribute 34, 0
  11              		.eabi_attribute 18, 4
  12              		.code	16
  13              		.file	"UartCmd.c"
  14              		.text
  15              	.Ltext0:
  16              		.cfi_sections	.debug_frame
  17              		.section	.text.atox,"ax",%progbits
  18              		.align	2
  19              		.code	16
  20              		.thumb_func
  21              		.type	atox, %function
  22              	atox:
  23              	.LFB64:
  24              		.file 1 "UartCmd.c"
   1:UartCmd.c     **** /******************************************************************************
   2:UartCmd.c     **** * Project Name      : Solar BLE Sensor
   3:UartCmd.c     **** * File Name         : UartCmd.c
   4:UartCmd.c     **** * Version           : CYALKIT-E02 Sample Firmware, Version 1.2.00
   5:UartCmd.c     **** * Device Used       : CYBLE-022001-00
   6:UartCmd.c     **** * Software Used     : PSoC Creator 3.3 CP3
   7:UartCmd.c     **** * Compiler          : ARM GCC 4.9.3
   8:UartCmd.c     **** * Related Hardware  : Solar BLE Sensor
   9:UartCmd.c     **** *
  10:UartCmd.c     **** *******************************************************************************
  11:UartCmd.c     **** * Copyright (2016), Cypress Semiconductor Corporation. All Rights Reserved.
  12:UartCmd.c     **** *******************************************************************************
  13:UartCmd.c     **** * This software is owned by Cypress Semiconductor Corporation (Cypress)
  14:UartCmd.c     **** * and is protected by and subject to worldwide patent protection (United
  15:UartCmd.c     **** * States and foreign), United States copyright laws and international treaty
  16:UartCmd.c     **** * provisions. Cypress hereby grants to licensee a personal, non-exclusive,
  17:UartCmd.c     **** * non-transferable license to copy, use, modify, create derivative works of,
  18:UartCmd.c     **** * and compile the Cypress Source Code and derivative works for the sole
  19:UartCmd.c     **** * purpose of creating custom software in support of licensee product to be
  20:UartCmd.c     **** * used only in conjunction with a Cypress integrated circuit as specified in
  21:UartCmd.c     **** * the applicable agreement. Any reproduction, modification, translation,
  22:UartCmd.c     **** * compilation, or representation of this software except as specified above 
  23:UartCmd.c     **** * is prohibited without the express written permission of Cypress.
  24:UartCmd.c     **** *
  25:UartCmd.c     **** * Disclaimer: CYPRESS MAKES NO WARRANTY OF ANY KIND, EXPRESS OR IMPLIED, WITH 
  26:UartCmd.c     **** * REGARD TO THIS MATERIAL, INCLUDING, BUT NOT LIMITED TO, THE IMPLIED 
  27:UartCmd.c     **** * WARRANTIES OF MERCHANTABILITY AND FITNESS FOR A PARTICULAR PURPOSE.
  28:UartCmd.c     **** * Cypress reserves the right to make changes without further notice to the 
  29:UartCmd.c     **** * materials described herein. Cypress does not assume any liability arising out 
  30:UartCmd.c     **** * of the application or use of any product or circuit described herein. Cypress 
  31:UartCmd.c     **** * does not authorize its products for use as critical components in life-support 
  32:UartCmd.c     **** * systems where a malfunction or failure may reasonably be expected to result in 
  33:UartCmd.c     **** * significant injury to the user. The inclusion of Cypress' product in a life-
ARM GAS  C:\Users\ramanatg\AppData\Local\Temp\ccxbhSsV.s 			page 2


  34:UartCmd.c     **** * support systems application implies that the manufacturer assumes all risk of 
  35:UartCmd.c     **** * such use and in doing so indemnifies Cypress against all charges. 
  36:UartCmd.c     **** *
  37:UartCmd.c     **** * Use of this Software may be limited by and subject to the applicable Cypress
  38:UartCmd.c     **** * software license agreement. 
  39:UartCmd.c     **** ******************************************************************************/
  40:UartCmd.c     **** 
  41:UartCmd.c     **** #include "main.h"
  42:UartCmd.c     **** #include "UartCmd.h"
  43:UartCmd.c     **** #include "ConfigRW.h"
  44:UartCmd.c     **** #include <stdint.h>
  45:UartCmd.c     **** 
  46:UartCmd.c     **** /******************************************************************************
  47:UartCmd.c     **** * Private Function Prototypes
  48:UartCmd.c     **** ******************************************************************************/
  49:UartCmd.c     **** static uint16_t cmd_sub_uuid(void);
  50:UartCmd.c     **** static uint16_t cmd_sub_major(void);
  51:UartCmd.c     **** static uint16_t cmd_sub_minor(void);
  52:UartCmd.c     **** static uint16_t cmd_sub_rssi(void);
  53:UartCmd.c     **** static uint16_t cmd_sub_itrvl(void);
  54:UartCmd.c     **** static uint16_t cmd_sub_txpwr(void);
  55:UartCmd.c     **** static uint16_t cmd_sub_coid(void);
  56:UartCmd.c     **** 
  57:UartCmd.c     **** static uint16_t cmd_sub_ednid(void);
  58:UartCmd.c     **** static uint16_t cmd_sub_edbid(void);
  59:UartCmd.c     **** static uint16_t cmd_sub_edtxpwr(void);
  60:UartCmd.c     **** static uint16_t cmd_sub_edframe(void);
  61:UartCmd.c     **** static uint16_t cmd_sub_lock(void);
  62:UartCmd.c     **** static uint16_t cmd_sub_unlock(void);
  63:UartCmd.c     **** static uint16_t cmd_sub_eduri(void);
  64:UartCmd.c     **** static uint16_t cmd_sub_edadpwr(void);
  65:UartCmd.c     **** static uint16_t cmd_sub_edtxmode(void); 
  66:UartCmd.c     **** static uint16_t cmd_sub_editrvl(void);
  67:UartCmd.c     **** static uint16_t cmd_sub_edreset(void);
  68:UartCmd.c     **** 
  69:UartCmd.c     **** static uint16_t cmd_sub_exsens(void);
  70:UartCmd.c     **** static uint16_t cmd_sub_mode(void);
  71:UartCmd.c     **** static uint16_t cmd_sub_version(void);
  72:UartCmd.c     **** static uint16_t cmd_sub_init(void);
  73:UartCmd.c     **** 
  74:UartCmd.c     **** static uint16_t hextobin(uint8_t *dest, const uint8_t *src, uint8_t Nbytes);
  75:UartCmd.c     **** static uint16_t twoaton(const uint8_t *p);
  76:UartCmd.c     **** static uint8_t atox(uint8_t data);
  77:UartCmd.c     **** 
  78:UartCmd.c     **** /******************************************************************************
  79:UartCmd.c     **** * Global Variable Declaration
  80:UartCmd.c     **** ******************************************************************************/
  81:UartCmd.c     **** static const uint8_t cmd_UUID[]     = {'U', 'U', 'I', 'D'};
  82:UartCmd.c     **** static const uint8_t cmd_MAJOR[]    = {'M', 'A', 'J', 'O', 'R'};
  83:UartCmd.c     **** static const uint8_t cmd_MINOR[]    = {'M', 'I', 'N', 'O', 'R'};
  84:UartCmd.c     **** static const uint8_t cmd_TXPWR[]    = {'T', 'X', 'P', 'W', 'R'};
  85:UartCmd.c     **** static const uint8_t cmd_RSSI[]     = {'R', 'S', 'S', 'I'};
  86:UartCmd.c     **** static const uint8_t cmd_ITRVL[]    = {'I', 'T', 'R', 'V', 'L'};
  87:UartCmd.c     **** static const uint8_t cmd_COID[]     = {'C', 'O', 'I', 'D'};
  88:UartCmd.c     **** 
  89:UartCmd.c     **** static const uint8_t cmd_EDNID[]    = {'E', 'D', 'N', 'I', 'D'};
  90:UartCmd.c     **** static const uint8_t cmd_EDBID[]    = {'E', 'D', 'B', 'I', 'D'};
ARM GAS  C:\Users\ramanatg\AppData\Local\Temp\ccxbhSsV.s 			page 3


  91:UartCmd.c     **** static const uint8_t cmd_EDTXPWR[]  = {'E', 'D', 'T', 'X', 'P', 'W', 'R'};
  92:UartCmd.c     **** static const uint8_t cmd_EDFRAME[]  = {'E', 'D', 'F', 'R', 'A', 'M', 'E'};
  93:UartCmd.c     **** static const uint8_t cmd_EDSTATE[]  = {'E', 'D', 'S', 'T', 'A', 'T', 'E'};
  94:UartCmd.c     **** static const uint8_t cmd_EDLOCK[]   = {'E', 'D', 'L', 'O', 'C', 'K'};
  95:UartCmd.c     **** static const uint8_t cmd_EDUNLOCK[] = {'E', 'D', 'U', 'N', 'L', 'O', 'C', 'K'};
  96:UartCmd.c     **** static const uint8_t cmd_EDURI[]    = {'E', 'D', 'U', 'R', 'I'};
  97:UartCmd.c     **** static const uint8_t cmd_EDADPWR[]  = {'E', 'D', 'A', 'D', 'P', 'W', 'R'};
  98:UartCmd.c     **** static const uint8_t cmd_EDTXMODE[] = {'E', 'D', 'T', 'X', 'M', 'O', 'D', 'E'};
  99:UartCmd.c     **** static const uint8_t cmd_EDITRVL[]  = {'E', 'D', 'I', 'T', 'R', 'V', 'L'};
 100:UartCmd.c     **** static const uint8_t cmd_EDRESET[]  = {'E', 'D', 'R', 'E', 'S', 'E', 'T'};
 101:UartCmd.c     **** 
 102:UartCmd.c     **** static const uint8_t cmd_EXSENS[]   = {'S', 'E', 'N', 'S', 'O', 'R'};
 103:UartCmd.c     **** static const uint8_t cmd_MODE[]     = {'M', 'O', 'D', 'E'};
 104:UartCmd.c     **** static const uint8_t cmd_INIT[]     = {'I', 'N', 'I', 'T'};
 105:UartCmd.c     **** static const uint8_t cmd_EXIT[]     = {'E', 'X', 'I', 'T'};
 106:UartCmd.c     **** static const uint8_t cmd_VER[]      = {'V', 'E', 'R'};
 107:UartCmd.c     **** static const uint8_t cmd_HELP[]     = {'H', 'E', 'L', 'P'};
 108:UartCmd.c     **** 
 109:UartCmd.c     **** /* Pointer to the array we used to store the UART data. */
 110:UartCmd.c     **** static uint8_t *data_array;
 111:UartCmd.c     **** 
 112:UartCmd.c     **** /******************************************************************************
 113:UartCmd.c     **** * Function Name: UartCmd_ReadLineAppend
 114:UartCmd.c     **** *******************************************************************************
 115:UartCmd.c     **** *
 116:UartCmd.c     **** * Summary:
 117:UartCmd.c     **** *   Function for getting UART data. This function will receive character from 
 118:UartCmd.c     **** *   the UART and append it to a null terminated string.
 119:UartCmd.c     **** *
 120:UartCmd.c     **** * Parameters:  
 121:UartCmd.c     **** *   str - pointer to a null terminated string.
 122:UartCmd.c     **** *  
 123:UartCmd.c     **** * Return:
 124:UartCmd.c     **** *   int32_t - Return value indicates what the function have done: 
 125:UartCmd.c     **** *               get the end of the input,
 126:UartCmd.c     **** *               get some char, but not get the end
 127:UartCmd.c     **** *               get nothing,
 128:UartCmd.c     **** *               find that the parameter is invalid. 
 129:UartCmd.c     **** *
 130:UartCmd.c     **** *   Following are the possible state codes.
 131:UartCmd.c     **** *   
 132:UartCmd.c     **** *   State codes                        Description
 133:UartCmd.c     **** *   ------------                        -----------
 134:UartCmd.c     **** *   RESULT_NEWLINE                      Get new line character and append it to the end of str.
 135:UartCmd.c     **** *   RESULT_NO_NEWLINE                   Get some characters except '\n' and append them to the end 
 136:UartCmd.c     **** *   RESULT_NO_INPUT                     No uart input.
 137:UartCmd.c     **** *   RESULT_INVALID_PARAMETER            The parameter is invalid.
 138:UartCmd.c     **** ******************************************************************************/
 139:UartCmd.c     **** int32_t UartCmd_ReadLineAppend(uint8_t *str)
 140:UartCmd.c     **** {
 141:UartCmd.c     ****     uint8_t index = 0;
 142:UartCmd.c     **** 
 143:UartCmd.c     ****     /* If no uart input */
 144:UartCmd.c     ****     if(SIMPLE_UART_GET_RX_BUFFSIZE() == 0)
 145:UartCmd.c     ****     {
 146:UartCmd.c     ****         return RESULT_NO_INPUT;
 147:UartCmd.c     ****     }
ARM GAS  C:\Users\ramanatg\AppData\Local\Temp\ccxbhSsV.s 			page 4


 148:UartCmd.c     ****     
 149:UartCmd.c     ****     index = strlen((const char *)str);
 150:UartCmd.c     ****     /* If str is full of data */
 151:UartCmd.c     ****     if(index >= (UART_MAX_DATA_LEN - 1))
 152:UartCmd.c     ****     {
 153:UartCmd.c     ****         SIMPLE_UART_PUTCONST("Reset buffer to 0 after handling it.\r\n");
 154:UartCmd.c     ****         return RESULT_INVALID_PARAMETER;
 155:UartCmd.c     ****     }
 156:UartCmd.c     ****     
 157:UartCmd.c     ****     /* If rx fifo is not empty, get all the data in rx fifo. */
 158:UartCmd.c     ****     while(SIMPLE_UART_GET_RX_BUFFSIZE())
 159:UartCmd.c     ****     {
 160:UartCmd.c     ****         data_array[index] = SIMPLE_UART_GET_BYTE();
 161:UartCmd.c     ****         index++;
 162:UartCmd.c     **** 
 163:UartCmd.c     ****         /* If user presses Enter, or user inputs too many characters, 
 164:UartCmd.c     ****          * echo and return user input as a NULL terminated string. */
 165:UartCmd.c     ****         if((data_array[index - 1] == '\n') || (index >= (UART_MAX_DATA_LEN - 1)))
 166:UartCmd.c     ****         {
 167:UartCmd.c     ****             data_array[index] = 0;
 168:UartCmd.c     ****             
 169:UartCmd.c     ****             SIMPLE_UART_PUTCONST((const char *)data_array);
 170:UartCmd.c     ****             while(SIMPLE_UART_GET_TX_BUFFSIZE() > 0); /* wait until tx fifo is empty. */
 171:UartCmd.c     ****             CyDelay(UART_BYTE_TX_TIME_MS);            /* wait until the last byte is transferred. *
 172:UartCmd.c     ****             
 173:UartCmd.c     ****             return RESULT_NEWLINE;
 174:UartCmd.c     ****         }
 175:UartCmd.c     ****     }
 176:UartCmd.c     ****     
 177:UartCmd.c     ****     return RESULT_NO_NEWLINE; /* line doesn't end */
 178:UartCmd.c     **** }
 179:UartCmd.c     **** 
 180:UartCmd.c     **** /******************************************************************************
 181:UartCmd.c     **** * Function Name: UartCmd_Init
 182:UartCmd.c     **** *******************************************************************************
 183:UartCmd.c     **** *
 184:UartCmd.c     **** * Summary:
 185:UartCmd.c     **** *   Initialize UART and data for UART command.
 186:UartCmd.c     **** *
 187:UartCmd.c     **** * Parameters:
 188:UartCmd.c     **** *   buffer - memory space larger than UART_MAX_DATA_LEN to store UART input.
 189:UartCmd.c     **** *
 190:UartCmd.c     **** * Return:
 191:UartCmd.c     **** *   int32_t - Return value indicates whether the function succeeded or failed.
 192:UartCmd.c     **** * 
 193:UartCmd.c     **** *   Following are the possible state codes.
 194:UartCmd.c     **** *   Errors codes                        Description
 195:UartCmd.c     **** *   ------------                        -----------
 196:UartCmd.c     **** *   RESULT_OK                           No error.
 197:UartCmd.c     **** *   RESULT_INVALID_PARAMETER            buffer is NULL.
 198:UartCmd.c     **** ******************************************************************************/
 199:UartCmd.c     **** int32_t UartCmd_Init(uint8_t *buffer)
 200:UartCmd.c     **** {
 201:UartCmd.c     ****     SIMPLE_UART_START();
 202:UartCmd.c     ****     
 203:UartCmd.c     ****     SIMPLE_UART_PUTCONST(START_STRING);
 204:UartCmd.c     **** #if (!I2C_SENSOR_ENABLE)
ARM GAS  C:\Users\ramanatg\AppData\Local\Temp\ccxbhSsV.s 			page 5


 205:UartCmd.c     ****     SIMPLE_UART_PUTCONST("I2C sensor is disabled. Ignore sensor setting.\r\n");
 206:UartCmd.c     **** #endif
 207:UartCmd.c     ****     if(buffer != NULL)
 208:UartCmd.c     ****     {
 209:UartCmd.c     ****         data_array = buffer;
 210:UartCmd.c     ****         memset(data_array, 0, UART_MAX_DATA_LEN);
 211:UartCmd.c     ****         return RESULT_OK;
 212:UartCmd.c     ****     }
 213:UartCmd.c     ****     else
 214:UartCmd.c     ****     {
 215:UartCmd.c     ****         return RESULT_INVALID_PARAMETER;
 216:UartCmd.c     ****     }
 217:UartCmd.c     **** }
 218:UartCmd.c     **** 
 219:UartCmd.c     **** /******************************************************************************
 220:UartCmd.c     **** * Function Name: UartCmd_ProcessInput
 221:UartCmd.c     **** *******************************************************************************
 222:UartCmd.c     **** *
 223:UartCmd.c     **** * Summary:
 224:UartCmd.c     **** *   Function for processing UART commands.
 225:UartCmd.c     **** *
 226:UartCmd.c     **** * Parameters:  
 227:UartCmd.c     **** *   None.
 228:UartCmd.c     **** *  
 229:UartCmd.c     **** * Return:
 230:UartCmd.c     **** *   int32_t - Return value indicates if the format of the input is right, 
 231:UartCmd.c     **** *   and if the input is just the command "exit" we expected.
 232:UartCmd.c     **** *   Following are the possible state codes.
 233:UartCmd.c     **** *   
 234:UartCmd.c     **** *   Errors codes                        Description
 235:UartCmd.c     **** *   ------------                        -----------
 236:UartCmd.c     **** *   RESULT_OK                           No error.
 237:UartCmd.c     **** *   RESULT_EXIT                         The uart command is exit.
 238:UartCmd.c     **** *   RESULT_ERROR                        Incorrect UART input.
 239:UartCmd.c     **** *   RESULT_REJECTED                     The updating operation is rejected in locked state.
 240:UartCmd.c     **** ******************************************************************************/
 241:UartCmd.c     **** int32_t UartCmd_ProcessInput(void)
 242:UartCmd.c     **** {
 243:UartCmd.c     ****     uint16_t result = RESULT_ERROR;
 244:UartCmd.c     ****     uint8_t data_length;
 245:UartCmd.c     ****     uint8_t cmd_tmp_upr[CMD_CHARS_COUNT_MAX + SIZE_OF_NUL];
 246:UartCmd.c     ****     
 247:UartCmd.c     ****     /* If user hasn't pressed Enter, we wait. */
 248:UartCmd.c     ****     if(UartCmd_ReadLineAppend(data_array) != RESULT_NEWLINE)
 249:UartCmd.c     ****     {
 250:UartCmd.c     ****         return RESULT_OK;
 251:UartCmd.c     ****     }
 252:UartCmd.c     ****     
 253:UartCmd.c     ****     data_length = strlen((char *)data_array);
 254:UartCmd.c     ****     /* If data_array do not end with '\r\n', it's not the format we expect to receive. */
 255:UartCmd.c     ****     if((data_array[data_length - 2] == '\r') && \
 256:UartCmd.c     ****        (data_array[data_length - 1] == '\n')    )
 257:UartCmd.c     ****     {
 258:UartCmd.c     ****         /* Replace the end "\r\n\0" with "\0\0\0" */
 259:UartCmd.c     ****         data_array[data_length - 2] = '\0';
 260:UartCmd.c     ****         data_array[data_length - 1] = '\0';
 261:UartCmd.c     ****         
ARM GAS  C:\Users\ramanatg\AppData\Local\Temp\ccxbhSsV.s 			page 6


 262:UartCmd.c     ****         memcpy(cmd_tmp_upr, data_array, CMD_CHARS_COUNT_MAX);
 263:UartCmd.c     ****         cmd_tmp_upr[CMD_CHARS_COUNT_MAX] = '\0';
 264:UartCmd.c     ****         strupr((char *)cmd_tmp_upr);
 265:UartCmd.c     ****         
 266:UartCmd.c     ****         /* EDURI */
 267:UartCmd.c     ****         if(memcmp(cmd_EDURI, cmd_tmp_upr, sizeof(cmd_EDURI)) == 0)
 268:UartCmd.c     ****         {
 269:UartCmd.c     ****             result = cmd_sub_eduri();
 270:UartCmd.c     ****         }
 271:UartCmd.c     ****         /* UUID */
 272:UartCmd.c     ****         else if(memcmp(cmd_UUID, cmd_tmp_upr, sizeof(cmd_UUID)) == 0)
 273:UartCmd.c     ****         {
 274:UartCmd.c     ****             result = cmd_sub_uuid();
 275:UartCmd.c     ****         }
 276:UartCmd.c     ****         /* EDNID */
 277:UartCmd.c     ****         else if(memcmp(cmd_EDNID, cmd_tmp_upr, sizeof(cmd_EDNID)) == 0)
 278:UartCmd.c     ****         {
 279:UartCmd.c     ****             result = cmd_sub_ednid();
 280:UartCmd.c     ****         }
 281:UartCmd.c     ****         /* EDBID */
 282:UartCmd.c     ****         else if(memcmp(cmd_EDBID, cmd_tmp_upr, sizeof(cmd_EDBID)) == 0)
 283:UartCmd.c     ****         {
 284:UartCmd.c     ****             result = cmd_sub_edbid();
 285:UartCmd.c     ****         }
 286:UartCmd.c     ****         /* MAJOR */
 287:UartCmd.c     ****         else if(memcmp(cmd_MAJOR, cmd_tmp_upr, sizeof(cmd_MAJOR)) == 0)
 288:UartCmd.c     ****         {
 289:UartCmd.c     ****             result = cmd_sub_major();
 290:UartCmd.c     ****         }
 291:UartCmd.c     ****         /* MINOR */
 292:UartCmd.c     ****         else if(memcmp(cmd_MINOR, cmd_tmp_upr, sizeof(cmd_MINOR)) == 0)
 293:UartCmd.c     ****         {
 294:UartCmd.c     ****             result = cmd_sub_minor();
 295:UartCmd.c     ****         }
 296:UartCmd.c     ****         /* BLEBeacon advertise interval */
 297:UartCmd.c     ****         else if(memcmp(cmd_ITRVL, cmd_tmp_upr, sizeof(cmd_ITRVL)) == 0)
 298:UartCmd.c     ****         {
 299:UartCmd.c     ****             result = cmd_sub_itrvl();
 300:UartCmd.c     ****         }
 301:UartCmd.c     ****         /* Eddystone advertise interval */
 302:UartCmd.c     ****         else if(memcmp(cmd_EDITRVL, cmd_tmp_upr, sizeof(cmd_EDITRVL)) == 0)
 303:UartCmd.c     ****         {
 304:UartCmd.c     ****             result = cmd_sub_editrvl();
 305:UartCmd.c     ****         }
 306:UartCmd.c     ****         /* TX power */
 307:UartCmd.c     ****         else if(memcmp(cmd_TXPWR, cmd_tmp_upr, sizeof(cmd_TXPWR)) == 0)
 308:UartCmd.c     ****         {
 309:UartCmd.c     ****             result = cmd_sub_txpwr();
 310:UartCmd.c     ****         }
 311:UartCmd.c     ****         /* Eddystone Radio TX Power Levels */
 312:UartCmd.c     ****         else if(memcmp(cmd_EDTXPWR, cmd_tmp_upr, sizeof(cmd_EDTXPWR)) == 0)
 313:UartCmd.c     ****         {
 314:UartCmd.c     ****             result = cmd_sub_edtxpwr();
 315:UartCmd.c     ****         }
 316:UartCmd.c     ****         /* Eddystone Advertised TX Power Levels */
 317:UartCmd.c     ****         else if(memcmp(cmd_EDADPWR, cmd_tmp_upr, sizeof(cmd_EDADPWR)) == 0)
 318:UartCmd.c     ****         {
ARM GAS  C:\Users\ramanatg\AppData\Local\Temp\ccxbhSsV.s 			page 7


 319:UartCmd.c     ****             result = cmd_sub_edadpwr();
 320:UartCmd.c     ****         }
 321:UartCmd.c     ****         /* Eddystone TX Power Mode */
 322:UartCmd.c     ****         else if(memcmp(cmd_EDTXMODE, cmd_tmp_upr, sizeof(cmd_EDTXMODE)) == 0)
 323:UartCmd.c     ****         {
 324:UartCmd.c     ****             result = cmd_sub_edtxmode();
 325:UartCmd.c     ****         }
 326:UartCmd.c     ****         /* EDRESET */
 327:UartCmd.c     ****         else if(memcmp(cmd_EDRESET, cmd_tmp_upr, sizeof(cmd_EDRESET)) == 0)
 328:UartCmd.c     ****         {
 329:UartCmd.c     ****             result = cmd_sub_edreset();
 330:UartCmd.c     ****         }
 331:UartCmd.c     ****         /* RSSI */
 332:UartCmd.c     ****         else if(memcmp(cmd_RSSI, cmd_tmp_upr, sizeof(cmd_RSSI)) == 0)
 333:UartCmd.c     ****         {
 334:UartCmd.c     ****             result = cmd_sub_rssi();
 335:UartCmd.c     ****         }
 336:UartCmd.c     ****         /* Company ID */
 337:UartCmd.c     ****         else if(memcmp(cmd_COID, cmd_tmp_upr, sizeof(cmd_COID)) == 0)
 338:UartCmd.c     ****         {
 339:UartCmd.c     ****             result = cmd_sub_coid();
 340:UartCmd.c     ****         }
 341:UartCmd.c     ****         /* HELP */
 342:UartCmd.c     ****         else if(memcmp(cmd_HELP, cmd_tmp_upr, sizeof(cmd_HELP)) == 0)
 343:UartCmd.c     ****         {
 344:UartCmd.c     ****             /* If user just pressed Enter after "HELP". */
 345:UartCmd.c     ****             if(data_array[sizeof(cmd_HELP)] == '\0')
 346:UartCmd.c     ****             {
 347:UartCmd.c     ****                 /* BLEBeacon commands */
 348:UartCmd.c     ****                 SIMPLE_UART_PUTCONST("Get uuid, input:uuid+Enter\r\n"
 349:UartCmd.c     ****                                      "Set uuid, input:uuid xxxxxxxx-xxxx-xxxx-xxxx-xxxxxxxxxxxx+Ent
 350:UartCmd.c     ****                 SIMPLE_UART_PUTCONST("Get major, input:major+Enter\r\n"
 351:UartCmd.c     ****                                      "Set major, input:major xxxx+Enter\r\n");
 352:UartCmd.c     ****                 SIMPLE_UART_PUTCONST("Get minor, input:minor+Enter\r\n"
 353:UartCmd.c     ****                                      "Set minor, input:minor xxxx+Enter\r\n");
 354:UartCmd.c     ****                 SIMPLE_UART_PUTCONST("Get txpwr, input:txpwr+Enter\r\n"
 355:UartCmd.c     ****                                      "Set txpwr, input:txpwr *+Enter\r\n");
 356:UartCmd.c     ****                 SIMPLE_UART_PUTCONST("Get rssi, input:rssi+Enter\r\n"
 357:UartCmd.c     ****                                      "Set rssi, input:rssi *+Enter\r\n");
 358:UartCmd.c     ****                 SIMPLE_UART_PUTCONST("Get itrvl, input:itrvl+Enter\r\n"
 359:UartCmd.c     ****                                      "Set itrvl, input:itrvl *+Enter\r\n");
 360:UartCmd.c     ****                 SIMPLE_UART_PUTCONST("Get coid, input:coid+Enter\r\n"
 361:UartCmd.c     ****                                      "Set coid, input:coid xxxx+Enter\r\n");
 362:UartCmd.c     ****                 SIMPLE_UART_PUTCONST("\r\n");
 363:UartCmd.c     ****                 /* Eddystone commands */
 364:UartCmd.c     ****                 SIMPLE_UART_PUTCONST("Get nid, input: ednid+Enter\r\n"
 365:UartCmd.c     ****                                      "Set nid, input: ednid x...x(20 char)+Enter\r\n");
 366:UartCmd.c     ****                 SIMPLE_UART_PUTCONST("Get bid, input: edbid+Enter\r\n"
 367:UartCmd.c     ****                                      "Set bid, input: edbid x...x(12 char)+Enter\r\n");
 368:UartCmd.c     ****                 SIMPLE_UART_PUTCONST("Get edtxpwr, input:edtxpwr+Enter\r\n"
 369:UartCmd.c     ****                                      "Set edtxpwr, input:edtxpwr * * * *+Enter\r\n");
 370:UartCmd.c     ****                 SIMPLE_UART_PUTCONST("Get edframe, input:edframe+Enter\r\n"
 371:UartCmd.c     ****                                      "Set edframe, input:edframe + one or some of uid/url/tlm+Enter
 372:UartCmd.c     ****                 SIMPLE_UART_PUTCONST("Get edstate, input: edstate+Enter\r\n");
 373:UartCmd.c     ****                 SIMPLE_UART_PUTCONST("Set edlock, input: edlock xxxxxxxx-xxxx-xxxx-xxxx-xxxxxxxxxxx
 374:UartCmd.c     ****                 SIMPLE_UART_PUTCONST("Set edunlock, input: edunlock xxxxxxxx-xxxx-xxxx-xxxx-xxxxxxx
 375:UartCmd.c     ****                 SIMPLE_UART_PUTCONST("Get eduri, input:eduri+Enter\r\n"
ARM GAS  C:\Users\ramanatg\AppData\Local\Temp\ccxbhSsV.s 			page 8


 376:UartCmd.c     ****                                      "Set eduri, input:eduri (url or hex string)+Enter\r\n");
 377:UartCmd.c     ****                 SIMPLE_UART_PUTCONST("Get edadpwr, input:edadpwr+Enter\r\n"
 378:UartCmd.c     ****                                      "Set edadpwr, input:edadpwr * * * *+Enter\r\n");
 379:UartCmd.c     ****                 SIMPLE_UART_PUTCONST("Get edtxmode, input:edtxmode+Enter\r\n"
 380:UartCmd.c     ****                                      "Set edtxmode, input:edtxmode LOWEST/LOW/MEDIUM/HIGH+Enter\r\n
 381:UartCmd.c     ****                 SIMPLE_UART_PUTCONST("Get editrvl, input:editrvl+Enter\r\n"
 382:UartCmd.c     ****                                      "Set editrvl, input:editrvl *+Enter\r\n");
 383:UartCmd.c     ****                 SIMPLE_UART_PUTCONST("edreset, input: edreset+Enter\r\n");
 384:UartCmd.c     ****                 SIMPLE_UART_PUTCONST("\r\n");
 385:UartCmd.c     ****                 /* Common commands */
 386:UartCmd.c     ****                 SIMPLE_UART_PUTCONST("Get sensor, input:sensor+Enter\r\n"
 387:UartCmd.c     ****                                      "Set sensor, input:sensor on/off+Enter\r\n");
 388:UartCmd.c     ****                 SIMPLE_UART_PUTCONST("Get mode,input: mode+Enter\r\n"
 389:UartCmd.c     ****                                      "Set mode,input: mode BLEBeacon/Eddystone/EDTest+Enter\r\n");
 390:UartCmd.c     ****                 SIMPLE_UART_PUTCONST("Initialize, input: init+Enter\r\n");
 391:UartCmd.c     ****                 SIMPLE_UART_PUTCONST("Get ver, input: ver+Enter\r\n");
 392:UartCmd.c     ****                 SIMPLE_UART_PUTCONST("Exit, input: exit+Enter\r\n");
 393:UartCmd.c     ****                 
 394:UartCmd.c     ****                 result = RESULT_OK;
 395:UartCmd.c     ****             }
 396:UartCmd.c     ****             /* There's more data than "HELP". */
 397:UartCmd.c     ****             else
 398:UartCmd.c     ****             {
 399:UartCmd.c     ****                 /* result is still RESULT_ERROR. */
 400:UartCmd.c     ****             }
 401:UartCmd.c     ****         }
 402:UartCmd.c     ****         /* Version */
 403:UartCmd.c     ****         else if(memcmp(cmd_VER, cmd_tmp_upr, sizeof(cmd_VER)) == 0)
 404:UartCmd.c     ****         {
 405:UartCmd.c     ****             result = cmd_sub_version();
 406:UartCmd.c     ****         }
 407:UartCmd.c     ****         /* Exit */
 408:UartCmd.c     ****         else if(memcmp(cmd_EXIT, cmd_tmp_upr, sizeof(cmd_EXIT)) == 0)
 409:UartCmd.c     ****         {
 410:UartCmd.c     ****             /* If user just presses Enter after "exit". */
 411:UartCmd.c     ****             if(data_array[sizeof(cmd_EXIT)] == '\0')
 412:UartCmd.c     ****             {
 413:UartCmd.c     ****                 result = RESULT_EXIT;
 414:UartCmd.c     ****             }
 415:UartCmd.c     ****             /* If user input more than "exit", command is invalid. */
 416:UartCmd.c     ****             else
 417:UartCmd.c     ****             {
 418:UartCmd.c     ****                 /* result is still RESULT_ERROR. */
 419:UartCmd.c     ****             }
 420:UartCmd.c     ****         }
 421:UartCmd.c     ****         /* temperature and humidity sensor extension */
 422:UartCmd.c     ****         else if(memcmp(cmd_EXSENS, cmd_tmp_upr, sizeof(cmd_EXSENS)) == 0)
 423:UartCmd.c     ****         {
 424:UartCmd.c     ****             result = cmd_sub_exsens();
 425:UartCmd.c     ****         }
 426:UartCmd.c     ****         /* mode of advertisement */
 427:UartCmd.c     ****         else if(memcmp(cmd_MODE, cmd_tmp_upr, sizeof(cmd_MODE)) == 0)
 428:UartCmd.c     ****         {
 429:UartCmd.c     ****             result = cmd_sub_mode();
 430:UartCmd.c     ****         }
 431:UartCmd.c     ****         /* Eddystone frames */
 432:UartCmd.c     ****         else if(memcmp(cmd_EDFRAME, cmd_tmp_upr, sizeof(cmd_EDFRAME)) == 0)
ARM GAS  C:\Users\ramanatg\AppData\Local\Temp\ccxbhSsV.s 			page 9


 433:UartCmd.c     ****         {
 434:UartCmd.c     ****             result = cmd_sub_edframe();
 435:UartCmd.c     ****         }
 436:UartCmd.c     ****         /* Eddystone state */
 437:UartCmd.c     ****         else if(memcmp(cmd_EDSTATE, cmd_tmp_upr, sizeof(cmd_EDSTATE)) == 0)
 438:UartCmd.c     ****         {
 439:UartCmd.c     ****             /* If user just presses Enter after "EDstate". */
 440:UartCmd.c     ****             if(data_array[sizeof(cmd_EDSTATE)] == '\0')
 441:UartCmd.c     ****             {
 442:UartCmd.c     ****                 result = RESULT_OK;
 443:UartCmd.c     ****                 
 444:UartCmd.c     ****                 /* Current state is locked. */
 445:UartCmd.c     ****                 if(pBeaconConfig->LockState)
 446:UartCmd.c     ****                 {
 447:UartCmd.c     ****                     SIMPLE_UART_PUTCONST("-> EDSTATE : locked\r\n");
 448:UartCmd.c     ****                 }
 449:UartCmd.c     ****                 /* Current state is unlocked. */
 450:UartCmd.c     ****                 else
 451:UartCmd.c     ****                 {
 452:UartCmd.c     ****                     SIMPLE_UART_PUTCONST("-> EDSTATE : unlocked\r\n");
 453:UartCmd.c     ****                 }
 454:UartCmd.c     ****             }
 455:UartCmd.c     ****             /* If user input more than "EDstate", command is invalid. */
 456:UartCmd.c     ****             else
 457:UartCmd.c     ****             {
 458:UartCmd.c     ****                 /* result is still RESULT_ERROR. */
 459:UartCmd.c     ****             }
 460:UartCmd.c     ****         }
 461:UartCmd.c     ****         /* Eddystone lock */
 462:UartCmd.c     ****         else if(memcmp(cmd_EDLOCK, cmd_tmp_upr, sizeof(cmd_EDLOCK)) == 0)
 463:UartCmd.c     ****         {
 464:UartCmd.c     ****             result = cmd_sub_lock();
 465:UartCmd.c     ****         }
 466:UartCmd.c     ****         /* Eddystone unlock */
 467:UartCmd.c     ****         else if(memcmp(cmd_EDUNLOCK, cmd_tmp_upr, sizeof(cmd_EDUNLOCK)) == 0)
 468:UartCmd.c     ****         {
 469:UartCmd.c     ****             result = cmd_sub_unlock();
 470:UartCmd.c     ****         }
 471:UartCmd.c     ****         /* Initialize */
 472:UartCmd.c     ****         else if(memcmp(cmd_INIT, cmd_tmp_upr, sizeof(cmd_INIT)) == 0)
 473:UartCmd.c     ****         {
 474:UartCmd.c     ****             result = cmd_sub_init();
 475:UartCmd.c     ****         }
 476:UartCmd.c     ****         /* Command is invalid. */
 477:UartCmd.c     ****         else
 478:UartCmd.c     ****         {
 479:UartCmd.c     ****             /* result is still RESULT_ERROR. */
 480:UartCmd.c     ****         }
 481:UartCmd.c     ****     
 482:UartCmd.c     ****     }
 483:UartCmd.c     ****     
 484:UartCmd.c     ****     memset(data_array, 0, UART_MAX_DATA_LEN);
 485:UartCmd.c     ****     
 486:UartCmd.c     ****     /* If user input is invalid. */
 487:UartCmd.c     ****     if(result == RESULT_ERROR)
 488:UartCmd.c     ****     {
 489:UartCmd.c     ****         SIMPLE_UART_PUTCONST(STRING_CMD_ERROR);    
ARM GAS  C:\Users\ramanatg\AppData\Local\Temp\ccxbhSsV.s 			page 10


 490:UartCmd.c     ****     }
 491:UartCmd.c     ****     else if(result == RESULT_REJECTED)
 492:UartCmd.c     ****     {
 493:UartCmd.c     ****         SIMPLE_UART_PUTCONST(STRING_CMD_UPDATE_REJECTED);
 494:UartCmd.c     ****     }
 495:UartCmd.c     ****     
 496:UartCmd.c     ****     return result;
 497:UartCmd.c     **** }
 498:UartCmd.c     **** 
 499:UartCmd.c     **** /******************************************************************************
 500:UartCmd.c     **** * Function Name: cmd_sub_uuid
 501:UartCmd.c     **** *******************************************************************************
 502:UartCmd.c     **** *
 503:UartCmd.c     **** * Summary:
 504:UartCmd.c     **** *   Function for changing the uuid.
 505:UartCmd.c     **** *
 506:UartCmd.c     **** * Parameters:
 507:UartCmd.c     **** *   None
 508:UartCmd.c     **** *
 509:UartCmd.c     **** * Return:
 510:UartCmd.c     **** *   uint16_t - Return value indicates whether the function succeeded or failed. 
 511:UartCmd.c     **** *   Following are the possible error codes.
 512:UartCmd.c     **** *   
 513:UartCmd.c     **** *   Errors codes                        Description
 514:UartCmd.c     **** *   ------------                        -----------
 515:UartCmd.c     **** *   RESULT_OK                           No error.
 516:UartCmd.c     **** *   RESULT_ERROR                        Incorrect UART input.
 517:UartCmd.c     **** ******************************************************************************/
 518:UartCmd.c     **** static uint16_t cmd_sub_uuid()
 519:UartCmd.c     **** {
 520:UartCmd.c     ****     uint16_t i, j;
 521:UartCmd.c     ****     uint8_t str_buf[UUID_TMP_BUFFER_40_BYTE];
 522:UartCmd.c     ****     uint8_t rbuff[sizeof(DefaultBeaconConfig.uuid)];
 523:UartCmd.c     ****     uint8_t *pPos = NULL;
 524:UartCmd.c     ****     
 525:UartCmd.c     ****     /* If the command is getting the current UUID setting. */
 526:UartCmd.c     ****     if(data_array[sizeof(cmd_UUID)] == '\0')
 527:UartCmd.c     ****     {
 528:UartCmd.c     ****         SIMPLE_UART_PUTCONST("-> UUID: ");
 529:UartCmd.c     ****     }
 530:UartCmd.c     ****     /* If the command is updating the UUID setting. */
 531:UartCmd.c     ****     else if(strlen((const char *)(data_array + sizeof(cmd_UUID))) == (SIZE_OF_PARAM_SPACE + SIZE_OF
 532:UartCmd.c     ****     {
 533:UartCmd.c     ****         /* There must be a space after the command. */
 534:UartCmd.c     ****         if(data_array[sizeof(cmd_UUID)] != ' ')
 535:UartCmd.c     ****         {
 536:UartCmd.c     ****             return RESULT_ERROR;
 537:UartCmd.c     ****         }
 538:UartCmd.c     ****         
 539:UartCmd.c     ****         pPos = &data_array[sizeof(cmd_UUID) + SIZE_OF_PARAM_SPACE];
 540:UartCmd.c     ****         
 541:UartCmd.c     ****         /* Copy the parameter to another buffer, check and remove the hyphens. */
 542:UartCmd.c     ****         j = 0;
 543:UartCmd.c     ****         for(i = 0; i < SIZE_OF_UUID_PARAM; i++)
 544:UartCmd.c     ****         {
 545:UartCmd.c     ****             /* Don't copy characters in hyphen positions. */
 546:UartCmd.c     ****             if((UUID_STR_HYPHEN_POS_1 == i) || 
ARM GAS  C:\Users\ramanatg\AppData\Local\Temp\ccxbhSsV.s 			page 11


 547:UartCmd.c     ****                (UUID_STR_HYPHEN_POS_2 == i) || 
 548:UartCmd.c     ****                (UUID_STR_HYPHEN_POS_3 == i) || 
 549:UartCmd.c     ****                (UUID_STR_HYPHEN_POS_4 == i))
 550:UartCmd.c     ****             {
 551:UartCmd.c     ****                 /* If the character in hyphen positions isn't a hyphen. */
 552:UartCmd.c     ****                 if(pPos[i] != '-')
 553:UartCmd.c     ****                 {
 554:UartCmd.c     ****                     return RESULT_ERROR;
 555:UartCmd.c     ****                 }
 556:UartCmd.c     ****             }
 557:UartCmd.c     ****             /* Copy other characters to the buffer. */
 558:UartCmd.c     ****             else
 559:UartCmd.c     ****             {
 560:UartCmd.c     ****                 str_buf[j++] = pPos[i];
 561:UartCmd.c     ****             }
 562:UartCmd.c     ****         }
 563:UartCmd.c     ****         
 564:UartCmd.c     ****         /* Convert and check the parameter. */
 565:UartCmd.c     ****         if(hextobin(rbuff, str_buf, UUID_BYTES) == RESULT_ERROR)
 566:UartCmd.c     ****         {
 567:UartCmd.c     ****             return RESULT_ERROR;
 568:UartCmd.c     ****         }
 569:UartCmd.c     ****         
 570:UartCmd.c     ****         ConfigRW_UpdateConfig(CONFIG_TYPE_UUID, rbuff);
 571:UartCmd.c     ****         SIMPLE_UART_PUTCONST("-> New UUID: ");
 572:UartCmd.c     ****     }
 573:UartCmd.c     ****     /* Length of the new UUID is invalid. */
 574:UartCmd.c     ****     else
 575:UartCmd.c     ****     {
 576:UartCmd.c     ****         return RESULT_ERROR;
 577:UartCmd.c     ****     }
 578:UartCmd.c     ****     
 579:UartCmd.c     ****     j = 0;
 580:UartCmd.c     ****     for(i = 0; i < UUID_BYTES; i++)
 581:UartCmd.c     ****     {
 582:UartCmd.c     ****         if((UUID_HYPHEN_POS_1 == i) || \
 583:UartCmd.c     ****            (UUID_HYPHEN_POS_2 == i) || \
 584:UartCmd.c     ****            (UUID_HYPHEN_POS_3 == i) || \
 585:UartCmd.c     ****            (UUID_HYPHEN_POS_4 == i))
 586:UartCmd.c     ****         {
 587:UartCmd.c     ****             str_buf[i * SIZE_OF_BYTE_TO_02X + j] = '-';
 588:UartCmd.c     ****             j++;
 589:UartCmd.c     ****         }
 590:UartCmd.c     ****         sprintf((char *)&str_buf[i * SIZE_OF_BYTE_TO_02X + j], "%02X", pBeaconConfig->uuid[i]);
 591:UartCmd.c     ****     }
 592:UartCmd.c     ****     SIMPLE_UART_PUTCONST((char *)str_buf);
 593:UartCmd.c     ****     SIMPLE_UART_PUTCONST("\r\n");
 594:UartCmd.c     **** 
 595:UartCmd.c     ****     return RESULT_OK;
 596:UartCmd.c     **** }
 597:UartCmd.c     **** 
 598:UartCmd.c     **** /******************************************************************************
 599:UartCmd.c     **** * Function Name: cmd_sub_ednid
 600:UartCmd.c     **** *******************************************************************************
 601:UartCmd.c     **** *
 602:UartCmd.c     **** * Summary:
 603:UartCmd.c     **** *   Function for changing the 10-byte ID Namespace of Eddystone-UID.
ARM GAS  C:\Users\ramanatg\AppData\Local\Temp\ccxbhSsV.s 			page 12


 604:UartCmd.c     **** *
 605:UartCmd.c     **** * Parameters:
 606:UartCmd.c     **** *   None
 607:UartCmd.c     **** *
 608:UartCmd.c     **** * Return:
 609:UartCmd.c     **** *   uint16_t - Return value indicates whether the function succeeded or failed. 
 610:UartCmd.c     **** *   Following are the possible error codes.
 611:UartCmd.c     **** *   
 612:UartCmd.c     **** *   Errors codes                        Description
 613:UartCmd.c     **** *   ------------                        -----------
 614:UartCmd.c     **** *   RESULT_OK                           No error.
 615:UartCmd.c     **** *   RESULT_ERROR                        Incorrect UART input.
 616:UartCmd.c     **** ******************************************************************************/
 617:UartCmd.c     **** static uint16_t cmd_sub_ednid(void)
 618:UartCmd.c     **** { 
 619:UartCmd.c     ****     int index;
 620:UartCmd.c     ****     uint8_t *p;
 621:UartCmd.c     ****     uint8_t tmp_nid[NID_BYTES]; 
 622:UartCmd.c     ****     uint16_t len = strlen((const char *)(data_array + sizeof(cmd_EDNID)));
 623:UartCmd.c     ****     uint8_t str[SIZE_OF_BYTE_TO_02X * NID_BYTES + SIZE_OF_NUL];
 624:UartCmd.c     **** 
 625:UartCmd.c     ****     /* If the command is getting the current NID setting. */
 626:UartCmd.c     ****     if(len == 0)
 627:UartCmd.c     ****     {
 628:UartCmd.c     ****         SIMPLE_UART_PUTCONST("-> Eddystone-UID NID : "); 
 629:UartCmd.c     ****     }
 630:UartCmd.c     ****     /* If the command is setting the NID. */
 631:UartCmd.c     ****     else if(len == SIZE_OF_BYTE_TO_02X * NID_BYTES + SIZE_OF_PARAM_SPACE)
 632:UartCmd.c     ****     {
 633:UartCmd.c     ****         p = data_array + sizeof(cmd_EDNID);
 634:UartCmd.c     ****         /* The next char should be a space. */
 635:UartCmd.c     ****         if(*p++ != ' ')
 636:UartCmd.c     ****         {
 637:UartCmd.c     ****             return RESULT_ERROR;
 638:UartCmd.c     ****         }
 639:UartCmd.c     ****         
 640:UartCmd.c     ****         /* Convert and check the parameter. */
 641:UartCmd.c     ****         if(hextobin(tmp_nid, p, NID_BYTES) == RESULT_ERROR)
 642:UartCmd.c     ****         {
 643:UartCmd.c     ****             return RESULT_ERROR;
 644:UartCmd.c     ****         }
 645:UartCmd.c     ****         
 646:UartCmd.c     ****         ConfigRW_UpdateConfig(CONFIG_TYPE_NID, tmp_nid);
 647:UartCmd.c     ****         SIMPLE_UART_PUTCONST("-> New Eddystone-UID NID : "); 
 648:UartCmd.c     ****     }
 649:UartCmd.c     ****     /* The length is not right. */
 650:UartCmd.c     ****     else
 651:UartCmd.c     ****     {
 652:UartCmd.c     ****         return RESULT_ERROR;
 653:UartCmd.c     ****     }
 654:UartCmd.c     ****     
 655:UartCmd.c     ****     /* Convert nid to string. */
 656:UartCmd.c     ****     for(index = 0; index < NID_BYTES; index++)
 657:UartCmd.c     ****     {
 658:UartCmd.c     ****         sprintf((char *)(str + SIZE_OF_BYTE_TO_02X * index), "%02X", pBeaconConfig->nid[index]);
 659:UartCmd.c     ****     }
 660:UartCmd.c     ****     
ARM GAS  C:\Users\ramanatg\AppData\Local\Temp\ccxbhSsV.s 			page 13


 661:UartCmd.c     ****     SIMPLE_UART_PUTCONST((char *)str);
 662:UartCmd.c     ****     SIMPLE_UART_PUTCONST("\r\n");
 663:UartCmd.c     ****     
 664:UartCmd.c     ****     return RESULT_OK;
 665:UartCmd.c     **** }
 666:UartCmd.c     **** 
 667:UartCmd.c     **** /******************************************************************************
 668:UartCmd.c     **** * Function Name: cmd_sub_edbid
 669:UartCmd.c     **** *******************************************************************************
 670:UartCmd.c     **** *
 671:UartCmd.c     **** * Summary:
 672:UartCmd.c     **** *   Function for changing the 6-byte ID Instance of Eddystone-UID.
 673:UartCmd.c     **** *
 674:UartCmd.c     **** * Parameters:
 675:UartCmd.c     **** *   None
 676:UartCmd.c     **** *
 677:UartCmd.c     **** * Return:
 678:UartCmd.c     **** *   uint16_t - Return value indicates whether the function succeeded or failed. 
 679:UartCmd.c     **** *   Following are the possible error codes.
 680:UartCmd.c     **** *   
 681:UartCmd.c     **** *   Errors codes                        Description
 682:UartCmd.c     **** *   ------------                        -----------
 683:UartCmd.c     **** *   RESULT_OK                           No error.
 684:UartCmd.c     **** *   RESULT_ERROR                        Incorrect UART input.
 685:UartCmd.c     **** ******************************************************************************/
 686:UartCmd.c     **** static uint16_t cmd_sub_edbid(void)
 687:UartCmd.c     **** {
 688:UartCmd.c     ****     int      index;
 689:UartCmd.c     ****     uint8_t  *p;
 690:UartCmd.c     ****     uint8_t  tmp_bid[BID_BYTES];
 691:UartCmd.c     ****     uint16_t len = strlen((const char *)(data_array + sizeof(cmd_EDBID)));
 692:UartCmd.c     ****     uint8_t  str[SIZE_OF_BYTE_TO_02X * BID_BYTES + SIZE_OF_NUL];
 693:UartCmd.c     **** 
 694:UartCmd.c     ****     /* If the command is getting the current BID setting. */
 695:UartCmd.c     ****     if(len == 0)
 696:UartCmd.c     ****     {
 697:UartCmd.c     ****         SIMPLE_UART_PUTCONST("-> Eddystone-UID BID : ");
 698:UartCmd.c     ****     }
 699:UartCmd.c     ****     /* If the command is setting the BID. */
 700:UartCmd.c     ****     else if(len == SIZE_OF_BYTE_TO_02X * BID_BYTES + SIZE_OF_PARAM_SPACE)
 701:UartCmd.c     ****     {
 702:UartCmd.c     ****         p = data_array + sizeof(cmd_EDBID);
 703:UartCmd.c     ****         /* The next char should be a space. */
 704:UartCmd.c     ****         if(*p++ != ' ')
 705:UartCmd.c     ****         {
 706:UartCmd.c     ****             return RESULT_ERROR;
 707:UartCmd.c     ****         }
 708:UartCmd.c     ****         
 709:UartCmd.c     ****         /* Convert and check the parameter. */
 710:UartCmd.c     ****         if(hextobin(tmp_bid, p, BID_BYTES) == RESULT_ERROR)
 711:UartCmd.c     ****         {
 712:UartCmd.c     ****             return RESULT_ERROR;
 713:UartCmd.c     ****         }
 714:UartCmd.c     ****         
 715:UartCmd.c     ****         ConfigRW_UpdateConfig(CONFIG_TYPE_BID, tmp_bid);
 716:UartCmd.c     ****         SIMPLE_UART_PUTCONST("-> New Eddystone-UID BID : "); 
 717:UartCmd.c     ****     }
ARM GAS  C:\Users\ramanatg\AppData\Local\Temp\ccxbhSsV.s 			page 14


 718:UartCmd.c     ****     /* The length is not right. */
 719:UartCmd.c     ****     else
 720:UartCmd.c     ****     {
 721:UartCmd.c     ****         return RESULT_ERROR;
 722:UartCmd.c     ****     }
 723:UartCmd.c     ****     
 724:UartCmd.c     ****     /* Convert bid to string. */
 725:UartCmd.c     ****     for(index = 0; index < BID_BYTES; index++)
 726:UartCmd.c     ****     {
 727:UartCmd.c     ****         sprintf((char *)(str + SIZE_OF_BYTE_TO_02X * index), "%02X", pBeaconConfig->bid[index]);
 728:UartCmd.c     ****     }
 729:UartCmd.c     ****     
 730:UartCmd.c     ****     SIMPLE_UART_PUTCONST((char *)str);
 731:UartCmd.c     ****     SIMPLE_UART_PUTCONST("\r\n");
 732:UartCmd.c     ****     
 733:UartCmd.c     ****     return RESULT_OK;
 734:UartCmd.c     **** }
 735:UartCmd.c     **** 
 736:UartCmd.c     **** /******************************************************************************
 737:UartCmd.c     **** * Function Name: cmd_sub_eduri
 738:UartCmd.c     **** *******************************************************************************
 739:UartCmd.c     **** *
 740:UartCmd.c     **** * Summary:
 741:UartCmd.c     **** *   Read/Write of the URI Data for Eddystone-URL. The parameter can be a hex string 
 742:UartCmd.c     **** *   or a URL string([protocol]://[domain]/[path]). The hex string is not case 
 743:UartCmd.c     **** *   sensitive, the protocol and the domain of the URL string are not case sensitive, 
 744:UartCmd.c     **** *   either. But the path of the URL string is case sensitive.
 745:UartCmd.c     **** *
 746:UartCmd.c     **** * Parameters:
 747:UartCmd.c     **** *   None
 748:UartCmd.c     **** *
 749:UartCmd.c     **** * Return:
 750:UartCmd.c     **** *   uint16_t - Return value indicates whether the function succeeded or failed. 
 751:UartCmd.c     **** *   Following are the possible error codes.
 752:UartCmd.c     **** *   
 753:UartCmd.c     **** *   Errors codes                        Description
 754:UartCmd.c     **** *   ------------                        -----------
 755:UartCmd.c     **** *   RESULT_OK                           No error.
 756:UartCmd.c     **** *   RESULT_ERROR                        Incorrect UART input.
 757:UartCmd.c     **** *   RESULT_REJECTED                     The updating operation is rejected in locked state.
 758:UartCmd.c     **** ******************************************************************************/
 759:UartCmd.c     **** static uint16_t cmd_sub_eduri(void)
 760:UartCmd.c     **** {
 761:UartCmd.c     ****     const uint8_t http[] = {'h', 't', 't', 'p'};
 762:UartCmd.c     ****     /* Used to translate uri. */
 763:UartCmd.c     ****     const char *url_PREFIX[] = {"://www.", "s://www.", "://", "s://"};
 764:UartCmd.c     ****     const char *url_SUFFIX[] = {".com/", ".org/", ".edu/", ".net/", ".info/", ".biz/", ".gov/",
 765:UartCmd.c     ****                                 ".com",  ".org",  ".edu",  ".net",  ".info",  ".biz",  ".gov" };
 766:UartCmd.c     ****     int      i;
 767:UartCmd.c     ****     uint8_t  isHumanReadable = true;
 768:UartCmd.c     ****     
 769:UartCmd.c     ****     /* If the command is getting the current uri setting. */
 770:UartCmd.c     ****     if(*(data_array + sizeof(cmd_EDURI)) == '\0')
 771:UartCmd.c     ****     {
 772:UartCmd.c     ****         SIMPLE_UART_PUTCONST("-> Eddystone-URL URI Data :");
 773:UartCmd.c     ****     }
 774:UartCmd.c     ****     /* If the command is setting the uri. */
ARM GAS  C:\Users\ramanatg\AppData\Local\Temp\ccxbhSsV.s 			page 15


 775:UartCmd.c     ****     else
 776:UartCmd.c     ****     {
 777:UartCmd.c     ****         uint8_t tmp_Uri_Length = 0;
 778:UartCmd.c     ****         uint8_t tmp_Uri_Data[EDDYSTONE_URI_DATA_MAX_LEN]; 
 779:UartCmd.c     ****         uint8_t *pStartofURL;  /* Mark this starting position after a space in data_array. */
 780:UartCmd.c     ****         uint8_t *p;
 781:UartCmd.c     ****     
 782:UartCmd.c     ****         /* If the space is lost. */
 783:UartCmd.c     ****         if(data_array[sizeof(cmd_EDURI)] != ' ')
 784:UartCmd.c     ****         {
 785:UartCmd.c     ****             return RESULT_ERROR; 
 786:UartCmd.c     ****         }
 787:UartCmd.c     ****         
 788:UartCmd.c     ****         pStartofURL = data_array + sizeof(cmd_EDURI) + SIZE_OF_PARAM_SPACE;
 789:UartCmd.c     ****         
 790:UartCmd.c     ****         /* If the parameter is hexadecimal format */
 791:UartCmd.c     ****         if(*pStartofURL == '0') 
 792:UartCmd.c     ****         {
 793:UartCmd.c     ****             uint16_t tmp_result;
 794:UartCmd.c     ****             
 795:UartCmd.c     ****             isHumanReadable = false;
 796:UartCmd.c     ****             
 797:UartCmd.c     ****             p = pStartofURL;
 798:UartCmd.c     ****             /* Check the prefix. */
 799:UartCmd.c     ****             p++;        /* Skip the char '0'. */
 800:UartCmd.c     ****             /* The head should be 00/01/02/03 */
 801:UartCmd.c     ****             if((*p >= '0') && (*p <= '3')) 
 802:UartCmd.c     ****             {
 803:UartCmd.c     ****                 tmp_Uri_Data[tmp_Uri_Length++] = *p++ - '0'; 
 804:UartCmd.c     ****             }
 805:UartCmd.c     ****             /* not start with "00" "01" "02" "03". */ 
 806:UartCmd.c     ****             else
 807:UartCmd.c     ****             {
 808:UartCmd.c     ****                 return RESULT_ERROR;
 809:UartCmd.c     ****             }
 810:UartCmd.c     ****             
 811:UartCmd.c     ****             for( ; (*p != '\0') && (tmp_Uri_Length < EDDYSTONE_URI_DATA_MAX_LEN); p += SIZE_OF_BYTE
 812:UartCmd.c     ****             {
 813:UartCmd.c     ****                 tmp_result = twoaton(p);
 814:UartCmd.c     ****                 /* If the subsequent two characters is not in hex format. */
 815:UartCmd.c     ****                 if(tmp_result == TWOATON_PARAM_ERROR)
 816:UartCmd.c     ****                 {
 817:UartCmd.c     ****                     return RESULT_ERROR;
 818:UartCmd.c     ****                 }
 819:UartCmd.c     ****                 /* It is a common character, or it's in the suffix table. */
 820:UartCmd.c     ****                 if( ((tmp_result > CHAR_LOWER_BOUND) && (tmp_result < CHAR_UPPER_BOUND)) ||
 821:UartCmd.c     ****                     (tmp_result < KINDS_OF_URL_SUFFIX) )
 822:UartCmd.c     ****                 {
 823:UartCmd.c     ****                     tmp_Uri_Data[tmp_Uri_Length++] = tmp_result;
 824:UartCmd.c     ****                 }
 825:UartCmd.c     ****                 /* The character is invalid. */
 826:UartCmd.c     ****                 else
 827:UartCmd.c     ****                 {
 828:UartCmd.c     ****                     return RESULT_ERROR;
 829:UartCmd.c     ****                 }
 830:UartCmd.c     ****             }
 831:UartCmd.c     ****             /* The parameter is too long. Overflow. */
ARM GAS  C:\Users\ramanatg\AppData\Local\Temp\ccxbhSsV.s 			page 16


 832:UartCmd.c     ****             if(*p != '\0')
 833:UartCmd.c     ****             {
 834:UartCmd.c     ****                 return RESULT_ERROR;
 835:UartCmd.c     ****             }
 836:UartCmd.c     ****         }
 837:UartCmd.c     ****         /* The parameter is not hexadecimal format, try resolving with ASCII URL format */
 838:UartCmd.c     ****         else
 839:UartCmd.c     ****         {
 840:UartCmd.c     ****             uint16_t len;
 841:UartCmd.c     ****             
 842:UartCmd.c     ****             /* The protocol and the domain name of the url is not case sensitive, 
 843:UartCmd.c     ****              * convert them to lowercase, they locates before '\0' or the third '/'. */
 844:UartCmd.c     ****             for(p = pStartofURL, i = 0; (*p != '\0') && (i < SLASH_COUNT_3); p++)
 845:UartCmd.c     ****             {
 846:UartCmd.c     ****                 if(*p == '/')
 847:UartCmd.c     ****                 {
 848:UartCmd.c     ****                     i++;
 849:UartCmd.c     ****                     continue;
 850:UartCmd.c     ****                 }
 851:UartCmd.c     ****                 *p = ((*p >= 'A') && (*p <= 'Z')) ? (*p + ('a' - 'A')) : *p;
 852:UartCmd.c     ****             }
 853:UartCmd.c     ****             
 854:UartCmd.c     ****             /* If it doesn't start with "http", the parameter is wrong. */
 855:UartCmd.c     ****             if(memcmp(pStartofURL, http, sizeof(http)) != 0 )
 856:UartCmd.c     ****             {
 857:UartCmd.c     ****                 return RESULT_ERROR;
 858:UartCmd.c     ****             }
 859:UartCmd.c     ****             
 860:UartCmd.c     ****             /* Try to find the matching prefix. */
 861:UartCmd.c     ****             p = pStartofURL + sizeof(http);
 862:UartCmd.c     ****             for(i = 0; i < KINDS_OF_URL_PREFIX; i++)
 863:UartCmd.c     ****             {
 864:UartCmd.c     ****                 len = strlen((char *)url_PREFIX[i]);
 865:UartCmd.c     ****                 /* If we find it. */
 866:UartCmd.c     ****                 if(memcmp(p, url_PREFIX[i], len) == 0)
 867:UartCmd.c     ****                 {
 868:UartCmd.c     ****                     tmp_Uri_Data[tmp_Uri_Length++] = i;
 869:UartCmd.c     ****                     /* Skip the prefix we have found. */
 870:UartCmd.c     ****                     p += len;
 871:UartCmd.c     ****                     break;
 872:UartCmd.c     ****                 }
 873:UartCmd.c     ****             }
 874:UartCmd.c     ****             /* If we do not find the matching prefix. */ 
 875:UartCmd.c     ****             if(i == KINDS_OF_URL_PREFIX)
 876:UartCmd.c     ****             {
 877:UartCmd.c     ****                 return RESULT_ERROR;
 878:UartCmd.c     ****             }
 879:UartCmd.c     **** 
 880:UartCmd.c     ****             /* Now, deal with the remaining content after the prefix. */  
 881:UartCmd.c     ****             while((*p != '\0') && (tmp_Uri_Length < EDDYSTONE_URI_DATA_MAX_LEN))
 882:UartCmd.c     ****             {
 883:UartCmd.c     ****                 /* The char is not between 0x20 and 0x7f */
 884:UartCmd.c     ****                 if((*p <= CHAR_LOWER_BOUND) || (*p >= CHAR_UPPER_BOUND))
 885:UartCmd.c     ****                 { 
 886:UartCmd.c     ****                     return RESULT_ERROR;
 887:UartCmd.c     ****                 }
 888:UartCmd.c     ****                 /* Try to find if it is in the matching suffix table. */
ARM GAS  C:\Users\ramanatg\AppData\Local\Temp\ccxbhSsV.s 			page 17


 889:UartCmd.c     ****                 else if(*p == '.')
 890:UartCmd.c     ****                 {
 891:UartCmd.c     ****                     for(i = 0; i < KINDS_OF_URL_SUFFIX; i++)
 892:UartCmd.c     ****                     {
 893:UartCmd.c     ****                         len = strlen((char *)url_SUFFIX[i]);
 894:UartCmd.c     ****                         /* If we find it. */
 895:UartCmd.c     ****                         if(memcmp(p, url_SUFFIX[i], len) == 0)
 896:UartCmd.c     ****                         {
 897:UartCmd.c     ****                             tmp_Uri_Data[tmp_Uri_Length++] = i;
 898:UartCmd.c     ****                             /* Skip the suffix we have just found. */
 899:UartCmd.c     ****                             p += len;
 900:UartCmd.c     ****                             break;
 901:UartCmd.c     ****                         }
 902:UartCmd.c     ****                     }
 903:UartCmd.c     ****                     /* No matching suffix. It's just a '.' */
 904:UartCmd.c     ****                     if(i == KINDS_OF_URL_SUFFIX)
 905:UartCmd.c     ****                     {
 906:UartCmd.c     ****                         tmp_Uri_Data[tmp_Uri_Length++] = *p;
 907:UartCmd.c     ****                         p++;
 908:UartCmd.c     ****                     }
 909:UartCmd.c     ****                 }
 910:UartCmd.c     ****                 /* When it is a legal character but '.', 
 911:UartCmd.c     ****                  * we just put it in the array tmp_Uri_Data. */ 
 912:UartCmd.c     ****                 else
 913:UartCmd.c     ****                 {
 914:UartCmd.c     ****                     tmp_Uri_Data[tmp_Uri_Length++] = *p++;
 915:UartCmd.c     ****                 }
 916:UartCmd.c     ****             }
 917:UartCmd.c     ****             /* The parameter is too long. Overflow. */
 918:UartCmd.c     ****             if(*p != '\0')
 919:UartCmd.c     ****             {
 920:UartCmd.c     ****                 return RESULT_ERROR;
 921:UartCmd.c     ****             }
 922:UartCmd.c     ****         }
 923:UartCmd.c     ****         
 924:UartCmd.c     ****         /* The updating operation is not allowed in the locked state. */
 925:UartCmd.c     ****         if(pBeaconConfig->LockState)
 926:UartCmd.c     ****         {
 927:UartCmd.c     ****             return RESULT_REJECTED;
 928:UartCmd.c     ****         }
 929:UartCmd.c     ****         
 930:UartCmd.c     ****         ConfigRW_UpdateConfig(CONFIG_TYPE_URILENGTH, &tmp_Uri_Length);
 931:UartCmd.c     ****         ConfigRW_UpdateConfig(CONFIG_TYPE_URIDATA, tmp_Uri_Data);
 932:UartCmd.c     ****         
 933:UartCmd.c     ****         /* update URI Data in the GATT database of the GATT Server. */
 934:UartCmd.c     ****         CYBLE_GATT_HANDLE_VALUE_PAIR_T UpdateHandle;
 935:UartCmd.c     ****         cyBle_attValuesLen[ATT_VALUES_LEN_INDEX_URIDATA].actualLength = pBeaconConfig->URI_Length;
 936:UartCmd.c     ****         UpdateHandle.attrHandle = CYBLE_EDDYSTONEURL_CONFIGURATION_URI_DATA_CHAR_HANDLE;
 937:UartCmd.c     ****         UpdateHandle.value.val  = pBeaconConfig->URI_Data;
 938:UartCmd.c     ****         UpdateHandle.value.len  = pBeaconConfig->URI_Length;
 939:UartCmd.c     ****         CyBle_GattsWriteAttributeValue(&UpdateHandle, 
 940:UartCmd.c     ****                                        WRITE_ATTRIB_OFFSET_0, 
 941:UartCmd.c     ****                                        NULL, 
 942:UartCmd.c     ****                                        CYBLE_GATT_DB_LOCALLY_INITIATED);
 943:UartCmd.c     ****         
 944:UartCmd.c     ****         SIMPLE_UART_PUTCONST("-> New Eddystone-URL URI Data :");
 945:UartCmd.c     ****     }
ARM GAS  C:\Users\ramanatg\AppData\Local\Temp\ccxbhSsV.s 			page 18


 946:UartCmd.c     ****     
 947:UartCmd.c     ****     /* Output the uri in ASCII format. */
 948:UartCmd.c     ****     if(isHumanReadable)
 949:UartCmd.c     ****     {
 950:UartCmd.c     ****         SIMPLE_UART_PUTCONST("http");
 951:UartCmd.c     ****         SIMPLE_UART_PUTCONST((char *)url_PREFIX[pBeaconConfig->URI_Data[0]]); 
 952:UartCmd.c     **** 
 953:UartCmd.c     ****         for(i = 1; i < pBeaconConfig->URI_Length; i++)
 954:UartCmd.c     ****         {
 955:UartCmd.c     ****             /* If it is a suffix. */
 956:UartCmd.c     ****             if(pBeaconConfig->URI_Data[i] < KINDS_OF_URL_SUFFIX)
 957:UartCmd.c     ****             {
 958:UartCmd.c     ****                 SIMPLE_UART_PUTCONST((char *)url_SUFFIX[pBeaconConfig->URI_Data[i]]);
 959:UartCmd.c     ****             }
 960:UartCmd.c     ****             /* just a common character */
 961:UartCmd.c     ****             else
 962:UartCmd.c     ****             {
 963:UartCmd.c     ****                 SIMPLE_UART_PUT_CHAR(pBeaconConfig->URI_Data[i]);
 964:UartCmd.c     ****             }
 965:UartCmd.c     ****         }
 966:UartCmd.c     ****         SIMPLE_UART_PUTCONST("\r\n");
 967:UartCmd.c     ****     }
 968:UartCmd.c     ****     /* Output the uri in Hexadecimal format. */
 969:UartCmd.c     ****     else
 970:UartCmd.c     ****     {
 971:UartCmd.c     ****         char str[SIZE_OF_BYTE_TO_02X + SIZE_OF_NUL];
 972:UartCmd.c     ****         
 973:UartCmd.c     ****         for(i = 0; i < pBeaconConfig->URI_Length; i++)
 974:UartCmd.c     ****         {
 975:UartCmd.c     ****             sprintf((char *)str, "%02X", pBeaconConfig->URI_Data[i]);
 976:UartCmd.c     ****             SIMPLE_UART_PUTCONST(str);
 977:UartCmd.c     ****         }
 978:UartCmd.c     ****         
 979:UartCmd.c     ****         SIMPLE_UART_PUTCONST("\r\n");
 980:UartCmd.c     ****     }
 981:UartCmd.c     ****     
 982:UartCmd.c     ****     return RESULT_OK;
 983:UartCmd.c     **** } 
 984:UartCmd.c     **** 
 985:UartCmd.c     **** /******************************************************************************
 986:UartCmd.c     **** * Function Name: cmd_sub_major
 987:UartCmd.c     **** *******************************************************************************
 988:UartCmd.c     **** *
 989:UartCmd.c     **** * Summary:
 990:UartCmd.c     **** *   Function for changing the major.
 991:UartCmd.c     **** *
 992:UartCmd.c     **** * Parameters:
 993:UartCmd.c     **** *   None
 994:UartCmd.c     **** *
 995:UartCmd.c     **** * Return:
 996:UartCmd.c     **** *   uint16_t - Return value indicates whether the function succeeded or failed. 
 997:UartCmd.c     **** *   Following are the possible error codes.
 998:UartCmd.c     **** *   
 999:UartCmd.c     **** *   Errors codes                        Description
1000:UartCmd.c     **** *   ------------                        -----------
1001:UartCmd.c     **** *   RESULT_OK                           No error.
1002:UartCmd.c     **** *   RESULT_ERROR                        Incorrect UART input.
ARM GAS  C:\Users\ramanatg\AppData\Local\Temp\ccxbhSsV.s 			page 19


1003:UartCmd.c     **** ******************************************************************************/
1004:UartCmd.c     **** static uint16_t cmd_sub_major()
1005:UartCmd.c     **** {
1006:UartCmd.c     ****     uint16_t i;
1007:UartCmd.c     ****     uint16_t result = RESULT_OK;
1008:UartCmd.c     ****     char str[TMP_BUFFER_4_BYTE];
1009:UartCmd.c     ****     uint8_t m[TMP_BUFFER_4_BYTE];
1010:UartCmd.c     ****     uint16_t major;
1011:UartCmd.c     ****     
1012:UartCmd.c     ****     /* If the command is getting the current MAJOR setting. */
1013:UartCmd.c     ****     if(data_array[sizeof(cmd_MAJOR)] == '\0')
1014:UartCmd.c     ****     {
1015:UartCmd.c     ****         SIMPLE_UART_PUTCONST("-> MAJOR: ");
1016:UartCmd.c     ****     }
1017:UartCmd.c     ****     /* If the command is updating the MAJOR setting. */
1018:UartCmd.c     ****     else if(strlen((const char *)(data_array + sizeof(cmd_MAJOR))) == (SIZE_OF_PARAM_SPACE + SIZE_O
1019:UartCmd.c     ****     {
1020:UartCmd.c     ****         /* There must be a space after the command. */
1021:UartCmd.c     ****         if(data_array[sizeof(cmd_MAJOR)] != ' ')
1022:UartCmd.c     ****         {
1023:UartCmd.c     ****             return RESULT_ERROR;
1024:UartCmd.c     ****         }
1025:UartCmd.c     ****         /* check character 0-9, a-f, A-F */
1026:UartCmd.c     ****         for(i = 0; i < SIZE_OF_MAJOR_PARAM; i++)
1027:UartCmd.c     ****         {
1028:UartCmd.c     ****             /* Characters in the new MAJOR must be '0' - 'F'/'f', convert them from character to di
1029:UartCmd.c     ****             if((m[i] = atox(data_array[i + sizeof(cmd_MAJOR) + SIZE_OF_PARAM_SPACE])) == ATOX_PARAM
1030:UartCmd.c     ****             {
1031:UartCmd.c     ****                 result = RESULT_ERROR;
1032:UartCmd.c     ****                 break;          /* Handle the error. */
1033:UartCmd.c     ****             }
1034:UartCmd.c     ****         }
1035:UartCmd.c     ****         /* If some character of the new MAJOR is invalid. */
1036:UartCmd.c     ****         if(result != RESULT_OK)
1037:UartCmd.c     ****         {
1038:UartCmd.c     ****             return result;
1039:UartCmd.c     ****         }
1040:UartCmd.c     **** 
1041:UartCmd.c     ****         major = BYTE_H4_L4_BIT_SWITCH(&m[MAJOR_HIGH_BYTE_OFFSET]);
1042:UartCmd.c     ****         major = (major << BIT_PER_BYTE) | BYTE_H4_L4_BIT_SWITCH(&m[MAJOR_LOW_BYTE_OFFSET]);
1043:UartCmd.c     ****         
1044:UartCmd.c     ****         ConfigRW_UpdateConfig(CONFIG_TYPE_MAJOR, &major);
1045:UartCmd.c     ****         SIMPLE_UART_PUTCONST("-> New MAJOR: ");
1046:UartCmd.c     ****     }
1047:UartCmd.c     ****     /* Length of the new MAJOR is invalid. */
1048:UartCmd.c     ****     else
1049:UartCmd.c     ****     {
1050:UartCmd.c     ****         return RESULT_ERROR;
1051:UartCmd.c     ****     }
1052:UartCmd.c     ****     sprintf(str, "%04X", pBeaconConfig->major);
1053:UartCmd.c     ****     SIMPLE_UART_PUTCONST(str);
1054:UartCmd.c     ****     SIMPLE_UART_PUTCONST("\r\n");
1055:UartCmd.c     **** 
1056:UartCmd.c     ****     return result;
1057:UartCmd.c     **** }
1058:UartCmd.c     **** 
1059:UartCmd.c     **** /******************************************************************************
ARM GAS  C:\Users\ramanatg\AppData\Local\Temp\ccxbhSsV.s 			page 20


1060:UartCmd.c     **** * Function Name: cmd_sub_minor
1061:UartCmd.c     **** *******************************************************************************
1062:UartCmd.c     **** *
1063:UartCmd.c     **** * Summary:
1064:UartCmd.c     **** *   Function for changing the minor.
1065:UartCmd.c     **** *
1066:UartCmd.c     **** * Parameters:
1067:UartCmd.c     **** *   None
1068:UartCmd.c     **** *
1069:UartCmd.c     **** * Return:
1070:UartCmd.c     **** *   uint16_t - Return value indicates whether the function succeeded or failed. 
1071:UartCmd.c     **** *   Following are the possible error codes.
1072:UartCmd.c     **** *   
1073:UartCmd.c     **** *   Errors codes                        Description
1074:UartCmd.c     **** *   ------------                        -----------
1075:UartCmd.c     **** *   RESULT_OK                           No error.
1076:UartCmd.c     **** *   RESULT_ERROR                        Incorrect UART input.
1077:UartCmd.c     **** ******************************************************************************/
1078:UartCmd.c     **** static uint16_t cmd_sub_minor()
1079:UartCmd.c     **** {
1080:UartCmd.c     ****     uint16_t i;
1081:UartCmd.c     ****     uint16_t result = RESULT_OK;
1082:UartCmd.c     ****     char str[TMP_BUFFER_4_BYTE];
1083:UartCmd.c     ****     uint8_t m[TMP_BUFFER_4_BYTE];
1084:UartCmd.c     ****     uint16_t minor;
1085:UartCmd.c     **** 
1086:UartCmd.c     ****     /* If the command is getting the current MINOR setting. */
1087:UartCmd.c     ****     if(data_array[sizeof(cmd_MINOR)] == '\0')
1088:UartCmd.c     ****     {
1089:UartCmd.c     ****         SIMPLE_UART_PUTCONST("-> MINOR: ");
1090:UartCmd.c     ****     }
1091:UartCmd.c     ****     /* If the command is updating the MINOR setting. */
1092:UartCmd.c     ****     else if(strlen((const char *)(data_array + sizeof(cmd_MINOR))) == (SIZE_OF_PARAM_SPACE + SIZE_O
1093:UartCmd.c     ****     {
1094:UartCmd.c     ****         /* There must be a space after the command. */
1095:UartCmd.c     ****         if(data_array[sizeof(cmd_MINOR)] != ' ')
1096:UartCmd.c     ****         {
1097:UartCmd.c     ****             return RESULT_ERROR;
1098:UartCmd.c     ****         }
1099:UartCmd.c     ****         /* check character 0-9, a-f, A-F */
1100:UartCmd.c     ****         for(i = 0; i < SIZE_OF_MINOR_PARAM; i++) 
1101:UartCmd.c     ****         {
1102:UartCmd.c     ****             /* Characters in the new MINOR must be '0' - 'F'/'f', convert them from character to di
1103:UartCmd.c     ****             if((m[i] = atox(data_array[i + sizeof(cmd_MINOR) + SIZE_OF_PARAM_SPACE])) == ATOX_PARAM
1104:UartCmd.c     ****             {
1105:UartCmd.c     ****                 result = RESULT_ERROR;
1106:UartCmd.c     ****                 break;          /* Handle the error. */
1107:UartCmd.c     ****             }
1108:UartCmd.c     ****         }
1109:UartCmd.c     ****         /* If some character of the new MINOR is invalid. */
1110:UartCmd.c     ****         if(result != RESULT_OK)
1111:UartCmd.c     ****         {
1112:UartCmd.c     ****             return result;
1113:UartCmd.c     ****         }
1114:UartCmd.c     ****            
1115:UartCmd.c     ****         minor = BYTE_H4_L4_BIT_SWITCH(&m[MINOR_HIGH_BYTE_OFFSET]);
1116:UartCmd.c     ****         minor = (minor << BIT_PER_BYTE) | BYTE_H4_L4_BIT_SWITCH(&m[MINOR_LOW_BYTE_OFFSET]);
ARM GAS  C:\Users\ramanatg\AppData\Local\Temp\ccxbhSsV.s 			page 21


1117:UartCmd.c     ****         
1118:UartCmd.c     ****         ConfigRW_UpdateConfig(CONFIG_TYPE_MINOR, &minor);
1119:UartCmd.c     ****         SIMPLE_UART_PUTCONST("-> New MINOR: ");
1120:UartCmd.c     ****     }
1121:UartCmd.c     ****     /* Length of the new MINOR is invalid. */
1122:UartCmd.c     ****     else
1123:UartCmd.c     ****     {
1124:UartCmd.c     ****         return RESULT_ERROR;
1125:UartCmd.c     ****     }
1126:UartCmd.c     ****     sprintf(str, "%04X",  pBeaconConfig->minor);
1127:UartCmd.c     ****     SIMPLE_UART_PUTCONST(str);
1128:UartCmd.c     ****     SIMPLE_UART_PUTCONST("\r\n");
1129:UartCmd.c     ****     
1130:UartCmd.c     ****     return result;
1131:UartCmd.c     **** }
1132:UartCmd.c     **** 
1133:UartCmd.c     **** /******************************************************************************
1134:UartCmd.c     **** * Function Name: cmd_sub_rssi
1135:UartCmd.c     **** *******************************************************************************
1136:UartCmd.c     **** *
1137:UartCmd.c     **** * Summary:
1138:UartCmd.c     **** *   Function for changing the rssi of BLEBeacon mode.
1139:UartCmd.c     **** *
1140:UartCmd.c     **** * Parameters:
1141:UartCmd.c     **** *   None
1142:UartCmd.c     **** *
1143:UartCmd.c     **** * Return:
1144:UartCmd.c     **** *   uint16_t - Return value indicates whether the function succeeded or failed. 
1145:UartCmd.c     **** *   Following are the possible error codes.
1146:UartCmd.c     **** *   
1147:UartCmd.c     **** *   Errors codes                        Description
1148:UartCmd.c     **** *   ------------                        -----------
1149:UartCmd.c     **** *   RESULT_OK                           No error.
1150:UartCmd.c     **** *   RESULT_ERROR                        Incorrect UART input.
1151:UartCmd.c     **** ******************************************************************************/
1152:UartCmd.c     **** static uint16_t cmd_sub_rssi()
1153:UartCmd.c     **** {
1154:UartCmd.c     ****     uint16_t i;
1155:UartCmd.c     ****     uint16_t result = RESULT_OK;
1156:UartCmd.c     ****     char str[] = {'\0', '\0', '\0', '\0'};
1157:UartCmd.c     ****     int32_t rssi = 0;
1158:UartCmd.c     ****     uint16_t len = strlen((const char *)(data_array + sizeof(cmd_RSSI)));
1159:UartCmd.c     **** 
1160:UartCmd.c     ****     /* If the command is getting the current RSSI setting. */
1161:UartCmd.c     ****     if(len == 0)
1162:UartCmd.c     ****     {
1163:UartCmd.c     ****         SIMPLE_UART_PUTCONST("-> RSSI in dBm: ");
1164:UartCmd.c     ****     }
1165:UartCmd.c     ****     /* Length of the new RSSI is invalid. */
1166:UartCmd.c     ****     else if(RSSI_INVALID_PARAM_LEN == len)
1167:UartCmd.c     ****     {
1168:UartCmd.c     ****         return RESULT_ERROR;
1169:UartCmd.c     ****     }
1170:UartCmd.c     ****     else
1171:UartCmd.c     ****     {
1172:UartCmd.c     ****         /* There must be a space after the command. */
1173:UartCmd.c     ****         if(data_array[sizeof(cmd_RSSI)] != ' ')
ARM GAS  C:\Users\ramanatg\AppData\Local\Temp\ccxbhSsV.s 			page 22


1174:UartCmd.c     ****         {
1175:UartCmd.c     ****             return RESULT_ERROR;
1176:UartCmd.c     ****         }
1177:UartCmd.c     ****         /* Copy the new RSSI to str and check */
1178:UartCmd.c     ****         for(i = 0; i < (len - SIZE_OF_PARAM_SPACE); i++)
1179:UartCmd.c     ****         {
1180:UartCmd.c     ****             /* Generally, characters should be '0' - '9'. But the first character can be '-' */
1181:UartCmd.c     ****             if(((data_array[i + sizeof(cmd_RSSI) + SIZE_OF_PARAM_SPACE] >= '0')  && \
1182:UartCmd.c     ****                 (data_array[i + sizeof(cmd_RSSI) + SIZE_OF_PARAM_SPACE] <= '9')) || \
1183:UartCmd.c     ****                 ((0 == i) && (data_array[i + sizeof(cmd_RSSI) + SIZE_OF_PARAM_SPACE] == '-')))
1184:UartCmd.c     ****             {
1185:UartCmd.c     ****                 str[i] = data_array[i + sizeof(cmd_RSSI) + SIZE_OF_PARAM_SPACE];
1186:UartCmd.c     ****             }
1187:UartCmd.c     ****             else
1188:UartCmd.c     ****             {
1189:UartCmd.c     ****                 return RESULT_ERROR;
1190:UartCmd.c     ****             }
1191:UartCmd.c     ****         }
1192:UartCmd.c     ****         /* in case str is "-" with no '0' - '9'. */
1193:UartCmd.c     ****         if((RSSI_MINUS_INVALID_PARAM_LEN == len) && ('-' == str[RSSI_OFFSET_OF_MINUS]))
1194:UartCmd.c     ****         {
1195:UartCmd.c     ****             return RESULT_ERROR;
1196:UartCmd.c     ****         }
1197:UartCmd.c     ****         rssi = (int32_t)atoi(str);
1198:UartCmd.c     **** 
1199:UartCmd.c     ****         /* check validity of the new rssi value */
1200:UartCmd.c     ****         if((rssi >= RSSI_MIN_VALID_VALUE) && (rssi <= RSSI_MAX_VALID_VALUE))
1201:UartCmd.c     ****         {
1202:UartCmd.c     ****             rssi = (int8_t)(rssi & RSSI_LOW_8BIT_KEEP_FLAG);
1203:UartCmd.c     **** 
1204:UartCmd.c     ****             ConfigRW_UpdateConfig(CONFIG_TYPE_RSSI, (int8_t *)&rssi);
1205:UartCmd.c     ****             SIMPLE_UART_PUTCONST("-> New RSSI in dBm: ");
1206:UartCmd.c     ****         }
1207:UartCmd.c     ****         /* the new rssi value is invalid */
1208:UartCmd.c     ****         else
1209:UartCmd.c     ****         {
1210:UartCmd.c     ****             return RESULT_ERROR;
1211:UartCmd.c     ****         }
1212:UartCmd.c     ****     }
1213:UartCmd.c     ****     
1214:UartCmd.c     ****     sprintf(str, "%d", (int8_t)pBeaconConfig->rssi);
1215:UartCmd.c     ****     SIMPLE_UART_PUTCONST(str);
1216:UartCmd.c     ****     SIMPLE_UART_PUTCONST("\r\n");
1217:UartCmd.c     ****     
1218:UartCmd.c     ****     return result;
1219:UartCmd.c     **** }
1220:UartCmd.c     **** 
1221:UartCmd.c     **** /******************************************************************************
1222:UartCmd.c     **** * Function Name: cmd_sub_itrvl
1223:UartCmd.c     **** *******************************************************************************
1224:UartCmd.c     **** *
1225:UartCmd.c     **** * Summary:
1226:UartCmd.c     **** *   Function for changing the interval of BLEBeacon advertising.
1227:UartCmd.c     **** *
1228:UartCmd.c     **** * Parameters:
1229:UartCmd.c     **** *   None
1230:UartCmd.c     **** *
ARM GAS  C:\Users\ramanatg\AppData\Local\Temp\ccxbhSsV.s 			page 23


1231:UartCmd.c     **** * Return:
1232:UartCmd.c     **** *   uint16_t - Return value indicates whether the function succeeded or failed. 
1233:UartCmd.c     **** *   Following are the possible error codes.
1234:UartCmd.c     **** *   
1235:UartCmd.c     **** *   Errors codes                        Description
1236:UartCmd.c     **** *   ------------                        -----------
1237:UartCmd.c     **** *   RESULT_OK                           No error.
1238:UartCmd.c     **** *   RESULT_ERROR                        Incorrect UART input.
1239:UartCmd.c     **** ******************************************************************************/
1240:UartCmd.c     **** static uint16_t cmd_sub_itrvl(void)
1241:UartCmd.c     **** {
1242:UartCmd.c     ****     uint16_t i;
1243:UartCmd.c     ****     uint16_t result = RESULT_OK;
1244:UartCmd.c     ****     char str[] = {'\0', '\0', '\0', '\0', '\0', '\0'};
1245:UartCmd.c     ****     uint32_t adv_interval = 0;
1246:UartCmd.c     ****     uint16_t len = strlen((const char *)(data_array + sizeof(cmd_ITRVL)));
1247:UartCmd.c     ****     
1248:UartCmd.c     ****     /* If the command is getting the current ITRVL setting. */
1249:UartCmd.c     ****     if(len == 0)
1250:UartCmd.c     ****     {
1251:UartCmd.c     ****         SIMPLE_UART_PUTCONST("-> BLEBeacon Advertise Interval in msec: ");
1252:UartCmd.c     ****     }
1253:UartCmd.c     ****     /* If the command is updating the ITRVL setting. */
1254:UartCmd.c     ****     else if((len >= SIZE_OF_PARAM_SPACE + ITRVL_MIN_TIME_SIZE) && (len <= SIZE_OF_PARAM_SPACE + ITR
1255:UartCmd.c     ****     {
1256:UartCmd.c     ****         /* There must be a space after the command. */
1257:UartCmd.c     ****         if(data_array[sizeof(cmd_ITRVL)] != ' ')
1258:UartCmd.c     ****         {
1259:UartCmd.c     ****             return RESULT_ERROR;
1260:UartCmd.c     ****         }
1261:UartCmd.c     ****         for(i = 0; i < (len - SIZE_OF_PARAM_SPACE); i++)
1262:UartCmd.c     ****         {
1263:UartCmd.c     ****             str[i] = data_array[i + SIZE_OF_PARAM_SPACE + sizeof(cmd_ITRVL)];
1264:UartCmd.c     ****             if((str[i] < '0') || (str[i] > '9'))
1265:UartCmd.c     ****             {
1266:UartCmd.c     ****                 return RESULT_ERROR;
1267:UartCmd.c     ****             }
1268:UartCmd.c     ****         }
1269:UartCmd.c     ****         adv_interval = (uint32_t)atoi(str);
1270:UartCmd.c     ****         /* Advertising interval between 100ms and 10.24s */
1271:UartCmd.c     ****         if((adv_interval < ITRVL_MIN_TIME) || (adv_interval > ITRVL_MAX_TIME))
1272:UartCmd.c     ****         {
1273:UartCmd.c     ****             return RESULT_ERROR;
1274:UartCmd.c     ****         }
1275:UartCmd.c     ****         
1276:UartCmd.c     ****         ConfigRW_UpdateConfig(CONFIG_TYPE_ITRVL, (uint16_t *)&adv_interval);
1277:UartCmd.c     ****         SIMPLE_UART_PUTCONST("-> New BLEBeacon Advertise Interval in msec: ");
1278:UartCmd.c     ****     }
1279:UartCmd.c     ****     /* Length of the new ITRVL is invalid. */
1280:UartCmd.c     ****     else
1281:UartCmd.c     ****     {
1282:UartCmd.c     ****         return RESULT_ERROR;
1283:UartCmd.c     ****     }
1284:UartCmd.c     ****     
1285:UartCmd.c     ****     sprintf(str, "%5ld", (long)pBeaconConfig->itrvl);
1286:UartCmd.c     ****     SIMPLE_UART_PUTCONST(str);
1287:UartCmd.c     ****     SIMPLE_UART_PUTCONST("\r\n");
ARM GAS  C:\Users\ramanatg\AppData\Local\Temp\ccxbhSsV.s 			page 24


1288:UartCmd.c     ****     
1289:UartCmd.c     ****     return result;
1290:UartCmd.c     **** }
1291:UartCmd.c     **** 
1292:UartCmd.c     **** /******************************************************************************
1293:UartCmd.c     **** * Function Name: cmd_sub_editrvl
1294:UartCmd.c     **** *******************************************************************************
1295:UartCmd.c     **** *
1296:UartCmd.c     **** * Summary:
1297:UartCmd.c     **** *   Function for changing the interval of Eddystone advertising.
1298:UartCmd.c     **** *
1299:UartCmd.c     **** * Parameters:
1300:UartCmd.c     **** *   None
1301:UartCmd.c     **** *
1302:UartCmd.c     **** * Return:
1303:UartCmd.c     **** *   uint16_t - Return value indicates whether the function succeeded or failed. 
1304:UartCmd.c     **** *   Following are the possible error codes.
1305:UartCmd.c     **** *   
1306:UartCmd.c     **** *   Errors codes                        Description
1307:UartCmd.c     **** *   ------------                        -----------
1308:UartCmd.c     **** *   RESULT_OK                           No error.
1309:UartCmd.c     **** *   RESULT_ERROR                        Incorrect UART input.
1310:UartCmd.c     **** *   RESULT_REJECTED                     The updating operation is rejected in locked state.
1311:UartCmd.c     **** ******************************************************************************/
1312:UartCmd.c     **** static uint16_t cmd_sub_editrvl(void)
1313:UartCmd.c     **** {
1314:UartCmd.c     ****     uint32_t adv_editrvl = 0;
1315:UartCmd.c     ****     uint8_t *p;
1316:UartCmd.c     ****     CYBLE_GATT_HANDLE_VALUE_PAIR_T UpdateHandle;
1317:UartCmd.c     ****     char str[ITRVL_MAX_TIME_SIZE + SIZE_OF_NUL];
1318:UartCmd.c     ****     
1319:UartCmd.c     ****     /* If the command is getting the current EDITRVL setting. */
1320:UartCmd.c     ****     if(*(data_array + sizeof(cmd_EDITRVL)) == '\0')
1321:UartCmd.c     ****     {
1322:UartCmd.c     ****         SIMPLE_UART_PUTCONST("-> Eddystone Advertise Interval in msec: ");
1323:UartCmd.c     ****     }
1324:UartCmd.c     ****     /* If the command is updating the EDITRVL setting. */
1325:UartCmd.c     ****     else
1326:UartCmd.c     ****     {
1327:UartCmd.c     ****         p = data_array + sizeof(cmd_EDITRVL);
1328:UartCmd.c     ****         
1329:UartCmd.c     ****         /* There must be a space after the command. */
1330:UartCmd.c     ****         if(*p != ' ')
1331:UartCmd.c     ****         {
1332:UartCmd.c     ****             return RESULT_ERROR;
1333:UartCmd.c     ****         }
1334:UartCmd.c     ****         p++;
1335:UartCmd.c     ****         /* If the subsequent is nul. */
1336:UartCmd.c     ****         if(*p == '\0')
1337:UartCmd.c     ****         {
1338:UartCmd.c     ****             return RESULT_ERROR;
1339:UartCmd.c     ****         }
1340:UartCmd.c     ****         /* Check if the following is numbers, and calculate the result. */
1341:UartCmd.c     ****         for( ; *p != '\0'; p++)
1342:UartCmd.c     ****         {
1343:UartCmd.c     ****             /* If it is not a number. */
1344:UartCmd.c     ****             if((*p < '0') || (*p > '9'))
ARM GAS  C:\Users\ramanatg\AppData\Local\Temp\ccxbhSsV.s 			page 25


1345:UartCmd.c     ****             {
1346:UartCmd.c     ****                 return RESULT_ERROR;
1347:UartCmd.c     ****             }
1348:UartCmd.c     ****             /* If the result is big enough, it's not necessary to compute it. */
1349:UartCmd.c     ****             else if(adv_editrvl > ITRVL_MAX_TIME) 
1350:UartCmd.c     ****             {
1351:UartCmd.c     ****                 continue;
1352:UartCmd.c     ****             }
1353:UartCmd.c     ****             /* It is a correct number. */
1354:UartCmd.c     ****             else
1355:UartCmd.c     ****             {
1356:UartCmd.c     ****                 adv_editrvl = (adv_editrvl * 10) + (*p - '0');
1357:UartCmd.c     ****             }
1358:UartCmd.c     ****         }
1359:UartCmd.c     ****         
1360:UartCmd.c     ****         /* Advertising interval should be between 100ms and 10.24s or just 0. */
1361:UartCmd.c     ****         if((adv_editrvl > 0) && (adv_editrvl < ITRVL_MIN_TIME))
1362:UartCmd.c     ****         {
1363:UartCmd.c     ****             adv_editrvl = ITRVL_MIN_TIME;
1364:UartCmd.c     ****         }
1365:UartCmd.c     ****         else if(adv_editrvl > ITRVL_MAX_TIME)
1366:UartCmd.c     ****         {
1367:UartCmd.c     ****             adv_editrvl = ITRVL_MAX_TIME;
1368:UartCmd.c     ****         }
1369:UartCmd.c     ****         
1370:UartCmd.c     ****         /* The updating operation is not allowed in locked state. */
1371:UartCmd.c     ****         if(pBeaconConfig->LockState)
1372:UartCmd.c     ****         {
1373:UartCmd.c     ****             return RESULT_REJECTED;
1374:UartCmd.c     ****         }
1375:UartCmd.c     ****         
1376:UartCmd.c     ****         /* Update the editrvl configuration stored in the user flash. */
1377:UartCmd.c     ****         ConfigRW_UpdateConfig(CONFIG_TYPE_URLPERIOD, (uint16_t *)(&adv_editrvl));
1378:UartCmd.c     ****         
1379:UartCmd.c     ****         /* Update Beacon Period in the GATT database of the GATT Server. */
1380:UartCmd.c     ****         UpdateHandle.attrHandle = CYBLE_EDDYSTONEURL_CONFIGURATION_BEACON_PERIOD_CHAR_HANDLE;
1381:UartCmd.c     ****         UpdateHandle.value.val  = (uint8_t *)(&(pBeaconConfig->URLPeriod));
1382:UartCmd.c     ****         UpdateHandle.value.len  = sizeof(pBeaconConfig->URLPeriod);
1383:UartCmd.c     ****         CyBle_GattsWriteAttributeValue(&UpdateHandle, 
1384:UartCmd.c     ****                                        WRITE_ATTRIB_OFFSET_0, 
1385:UartCmd.c     ****                                        NULL, 
1386:UartCmd.c     ****                                        CYBLE_GATT_DB_LOCALLY_INITIATED);
1387:UartCmd.c     ****         
1388:UartCmd.c     ****         SIMPLE_UART_PUTCONST("-> New Eddystone Advertise Interval in msec: ");
1389:UartCmd.c     ****     }
1390:UartCmd.c     ****     
1391:UartCmd.c     ****     sprintf(str, "%5d", pBeaconConfig->URLPeriod);
1392:UartCmd.c     ****     SIMPLE_UART_PUTCONST(str); 
1393:UartCmd.c     ****     SIMPLE_UART_PUTCONST("\r\n"); 
1394:UartCmd.c     **** 
1395:UartCmd.c     ****     return RESULT_OK;
1396:UartCmd.c     **** }
1397:UartCmd.c     **** 
1398:UartCmd.c     **** /*******************************************************************************
1399:UartCmd.c     **** * Function Name: cmd_sub_edreset
1400:UartCmd.c     **** ********************************************************************************
1401:UartCmd.c     **** * Summary:
ARM GAS  C:\Users\ramanatg\AppData\Local\Temp\ccxbhSsV.s 			page 26


1402:UartCmd.c     **** *   Function for setting all characteristics to their initial values.
1403:UartCmd.c     **** *
1404:UartCmd.c     **** * Parameters:
1405:UartCmd.c     **** *   None
1406:UartCmd.c     **** *
1407:UartCmd.c     **** * Return:
1408:UartCmd.c     **** *   uint16_t - Return value indicates whether the function succeeded or failed. 
1409:UartCmd.c     **** *   Following are the possible error codes.
1410:UartCmd.c     **** *   
1411:UartCmd.c     **** *   Errors codes                        Description
1412:UartCmd.c     **** *   ------------                        -----------
1413:UartCmd.c     **** *   RESULT_OK                           No error.
1414:UartCmd.c     **** *   RESULT_ERROR                        Incorrect UART input.
1415:UartCmd.c     **** *   RESULT_REJECTED                     The updating operation is rejected in locked state.
1416:UartCmd.c     **** *******************************************************************************/
1417:UartCmd.c     **** static uint16_t cmd_sub_edreset(void)
1418:UartCmd.c     **** {
1419:UartCmd.c     ****     /* User inputs more than "edreset". */
1420:UartCmd.c     ****     if(data_array[sizeof(cmd_EDRESET)] != '\0')
1421:UartCmd.c     ****     {
1422:UartCmd.c     ****         return RESULT_ERROR;
1423:UartCmd.c     ****     }
1424:UartCmd.c     ****     /* If the beacon is locked. */
1425:UartCmd.c     ****     else if(pBeaconConfig->LockState)
1426:UartCmd.c     ****     {
1427:UartCmd.c     ****         return RESULT_REJECTED;
1428:UartCmd.c     ****     }
1429:UartCmd.c     ****     /* The length is right, and the beacon is unlocked. */
1430:UartCmd.c     ****     else
1431:UartCmd.c     ****     {
1432:UartCmd.c     ****         ConfigRW_WriteReset();
1433:UartCmd.c     ****         EddystoneURL_Config_UpdateAllAttrib();
1434:UartCmd.c     ****         
1435:UartCmd.c     ****         SIMPLE_UART_PUTCONST("-> Reset finished!\r\n");
1436:UartCmd.c     ****     }
1437:UartCmd.c     ****     
1438:UartCmd.c     ****     return RESULT_OK;
1439:UartCmd.c     **** }
1440:UartCmd.c     **** 
1441:UartCmd.c     **** /******************************************************************************
1442:UartCmd.c     **** * Function Name: cmd_sub_txpwr
1443:UartCmd.c     **** *******************************************************************************
1444:UartCmd.c     **** *
1445:UartCmd.c     **** * Summary:
1446:UartCmd.c     **** *   Function for changing the tx power of BLEBeacon mode.
1447:UartCmd.c     **** *
1448:UartCmd.c     **** * Parameters:
1449:UartCmd.c     **** *   None
1450:UartCmd.c     **** *
1451:UartCmd.c     **** * Return:
1452:UartCmd.c     **** *   uint16_t - Return value indicates whether the function succeeded or failed. 
1453:UartCmd.c     **** *   Following are the possible error codes.
1454:UartCmd.c     **** *   
1455:UartCmd.c     **** *   Errors codes                        Description
1456:UartCmd.c     **** *   ------------                        -----------
1457:UartCmd.c     **** *   RESULT_OK                           No error.
1458:UartCmd.c     **** *   RESULT_ERROR                        Incorrect UART input.
ARM GAS  C:\Users\ramanatg\AppData\Local\Temp\ccxbhSsV.s 			page 27


1459:UartCmd.c     **** ******************************************************************************/
1460:UartCmd.c     **** static uint16_t cmd_sub_txpwr(void)
1461:UartCmd.c     **** {
1462:UartCmd.c     ****     uint16_t i;
1463:UartCmd.c     ****     uint16_t result = RESULT_OK;
1464:UartCmd.c     ****     char str[] = {'\0', '\0', '\0', '\0'};
1465:UartCmd.c     ****     int32_t txpwr = 0;
1466:UartCmd.c     ****     uint16_t len = strlen((const char *)(data_array + sizeof(cmd_TXPWR)));
1467:UartCmd.c     ****     
1468:UartCmd.c     ****     /* If the command is getting the current TXPWR setting. */
1469:UartCmd.c     ****     if(len == 0)
1470:UartCmd.c     ****     {
1471:UartCmd.c     ****         SIMPLE_UART_PUTCONST("-> TX power in dBm: ");
1472:UartCmd.c     ****     }
1473:UartCmd.c     ****     /* The command is updating the TXPWR setting. */
1474:UartCmd.c     ****     else
1475:UartCmd.c     ****     {
1476:UartCmd.c     ****         /* There must be a space after the command. */
1477:UartCmd.c     ****         if(data_array[sizeof(cmd_TXPWR)] != ' ')
1478:UartCmd.c     ****         {
1479:UartCmd.c     ****             return RESULT_ERROR;
1480:UartCmd.c     ****         }
1481:UartCmd.c     ****         if((data_array[SIZE_OF_PARAM_SPACE + sizeof(cmd_TXPWR)]) == '-') /* minus */
1482:UartCmd.c     ****         {
1483:UartCmd.c     ****             /* accepted length can be length of " -18", " -6". */
1484:UartCmd.c     ****             if((len != SIZE_OF_PARAM_SPACE + TXPWR_MINUS_VALID_LEN_1) && \
1485:UartCmd.c     ****                (len != SIZE_OF_PARAM_SPACE + TXPWR_MINUS_VALID_LEN_2))
1486:UartCmd.c     ****             {
1487:UartCmd.c     ****                 return RESULT_ERROR;
1488:UartCmd.c     ****             }
1489:UartCmd.c     ****             str[0] = data_array[SIZE_OF_PARAM_SPACE + sizeof(cmd_TXPWR)];
1490:UartCmd.c     ****             for(i = TXPWR_MINUS_VALUE_OFFSET; i < len - SIZE_OF_PARAM_SPACE; i++) 
1491:UartCmd.c     ****             {
1492:UartCmd.c     ****                 str[i] = data_array[i + SIZE_OF_PARAM_SPACE + sizeof(cmd_TXPWR)];
1493:UartCmd.c     ****                 /* Characters must be '0' - '9'. */
1494:UartCmd.c     ****                 if((str[i] < '0') || (str[i] >'9'))
1495:UartCmd.c     ****                 {
1496:UartCmd.c     ****                     return RESULT_ERROR;
1497:UartCmd.c     ****                 }
1498:UartCmd.c     ****             }
1499:UartCmd.c     ****         }
1500:UartCmd.c     ****         else /* plus */
1501:UartCmd.c     ****         {
1502:UartCmd.c     ****             /* accepted length can be length of " 3". */
1503:UartCmd.c     ****             if(len != SIZE_OF_PARAM_SPACE + TXPWR_PLUS_VALID_VALUE_LEN)
1504:UartCmd.c     ****             {
1505:UartCmd.c     ****                 return RESULT_ERROR;
1506:UartCmd.c     ****             }
1507:UartCmd.c     ****             str[0] = data_array[SIZE_OF_PARAM_SPACE + sizeof(cmd_TXPWR)];
1508:UartCmd.c     ****             /* Characters must be '0' - '9'. */
1509:UartCmd.c     ****             if((str[0] < '0') || (str[0] >'9'))
1510:UartCmd.c     ****             {
1511:UartCmd.c     ****                 return RESULT_ERROR;
1512:UartCmd.c     ****             }
1513:UartCmd.c     ****         }
1514:UartCmd.c     ****         txpwr = (int32_t)atoi(str);
1515:UartCmd.c     ****         /* accepted values are -18, -12, -6, -3, -2, -1, 0 and 3 dBm */
ARM GAS  C:\Users\ramanatg\AppData\Local\Temp\ccxbhSsV.s 			page 28


1516:UartCmd.c     ****         if ((TXPWR_ACCEPTED_VALUE_NEG_18 == txpwr) ||
1517:UartCmd.c     ****             (TXPWR_ACCEPTED_VALUE_NEG_12 == txpwr) ||
1518:UartCmd.c     ****             (TXPWR_ACCEPTED_VALUE_NEG_6 == txpwr)  ||
1519:UartCmd.c     ****             (TXPWR_ACCEPTED_VALUE_NEG_3 == txpwr)  ||
1520:UartCmd.c     ****             (TXPWR_ACCEPTED_VALUE_NEG_2 == txpwr)  ||
1521:UartCmd.c     ****             (TXPWR_ACCEPTED_VALUE_NEG_1 == txpwr)  ||
1522:UartCmd.c     ****             (TXPWR_ACCEPTED_VALUE_0 == txpwr)      ||
1523:UartCmd.c     ****             (TXPWR_ACCEPTED_VALUE_3 == txpwr))
1524:UartCmd.c     ****         {
1525:UartCmd.c     ****             ConfigRW_UpdateConfig(CONFIG_TYPE_TXPWR, (int8_t *)&txpwr);
1526:UartCmd.c     ****             SIMPLE_UART_PUTCONST("-> New TX power in dBm: ");
1527:UartCmd.c     ****         }
1528:UartCmd.c     ****         /* Value of the new TXPWR is invalid. */
1529:UartCmd.c     ****         else
1530:UartCmd.c     ****         {
1531:UartCmd.c     ****             return RESULT_ERROR;
1532:UartCmd.c     ****         }
1533:UartCmd.c     ****     }
1534:UartCmd.c     ****     
1535:UartCmd.c     ****     sprintf(str, "%d", (int)pBeaconConfig->txpwr);
1536:UartCmd.c     ****     SIMPLE_UART_PUTCONST(str);
1537:UartCmd.c     ****     SIMPLE_UART_PUTCONST("\r\n");
1538:UartCmd.c     ****     
1539:UartCmd.c     ****     return result;
1540:UartCmd.c     **** }
1541:UartCmd.c     **** 
1542:UartCmd.c     **** /******************************************************************************
1543:UartCmd.c     **** * Function Name: cmd_sub_edtxpwr
1544:UartCmd.c     **** *******************************************************************************
1545:UartCmd.c     **** *
1546:UartCmd.c     **** * Summary:
1547:UartCmd.c     **** *   Function for getting/setting the radio TX power levels for Eddystone.
1548:UartCmd.c     **** *
1549:UartCmd.c     **** * Parameters:
1550:UartCmd.c     **** *   None
1551:UartCmd.c     **** *
1552:UartCmd.c     **** * Return:
1553:UartCmd.c     **** *   uint16_t - Return value indicates whether the function succeeded or failed. 
1554:UartCmd.c     **** *   Following are the possible error codes.
1555:UartCmd.c     **** *   
1556:UartCmd.c     **** *   Errors codes                        Description
1557:UartCmd.c     **** *   ------------                        -----------
1558:UartCmd.c     **** *   RESULT_OK                           No error.
1559:UartCmd.c     **** *   RESULT_ERROR                        Incorrect UART input.
1560:UartCmd.c     **** *   RESULT_REJECTED                     The updating operation is rejected in locked state.
1561:UartCmd.c     **** ******************************************************************************/
1562:UartCmd.c     **** static uint16_t cmd_sub_edtxpwr(void)
1563:UartCmd.c     **** {
1564:UartCmd.c     ****     uint8_t i;
1565:UartCmd.c     ****     uint8_t j;
1566:UartCmd.c     ****     uint8_t *p;
1567:UartCmd.c     ****     uint8_t length;
1568:UartCmd.c     ****     char str[] = {0, 0, 0, 0, 0, 0};
1569:UartCmd.c     ****     int8_t tmp_TXPowerLevels[ES_TX_POWER_MODE_COUNT];
1570:UartCmd.c     ****     /* accepted values are -18, -12, -6, -3, -2, -1, 0 and 3 dBm */
1571:UartCmd.c     ****     const char *strTab[] = {" -18", " -12", " -6", " -3", " -2", " -1", " 0", " 3"};
1572:UartCmd.c     ****     const int8_t valueTab[] = {TXPWR_ACCEPTED_VALUE_NEG_18, TXPWR_ACCEPTED_VALUE_NEG_12,
ARM GAS  C:\Users\ramanatg\AppData\Local\Temp\ccxbhSsV.s 			page 29


1573:UartCmd.c     ****                                TXPWR_ACCEPTED_VALUE_NEG_6,  TXPWR_ACCEPTED_VALUE_NEG_3, 
1574:UartCmd.c     ****                                TXPWR_ACCEPTED_VALUE_NEG_2,  TXPWR_ACCEPTED_VALUE_NEG_1, 
1575:UartCmd.c     ****                                TXPWR_ACCEPTED_VALUE_0,      TXPWR_ACCEPTED_VALUE_3      };
1576:UartCmd.c     ****     
1577:UartCmd.c     ****     /* If the command is getting the current radio TX power levels setting for Eddystone. */
1578:UartCmd.c     ****     if(*(data_array + sizeof(cmd_EDTXPWR)) == '\0')
1579:UartCmd.c     ****     {
1580:UartCmd.c     ****         SIMPLE_UART_PUTCONST("-> Eddystone Radio TX Power Levels :");
1581:UartCmd.c     ****     }
1582:UartCmd.c     ****     /* The command is updating the radio TX power levels setting for Eddystone. */
1583:UartCmd.c     ****     else
1584:UartCmd.c     ****     {
1585:UartCmd.c     ****         /* Starting to match the input with strTab. */
1586:UartCmd.c     ****         p = data_array + sizeof(cmd_EDTXPWR);
1587:UartCmd.c     ****         for(i = 0; i < ES_TX_POWER_MODE_COUNT; i++)
1588:UartCmd.c     ****         {
1589:UartCmd.c     ****             for(j = 0; j < TXPWR_ACCEPTED_COUNT; j++)
1590:UartCmd.c     ****             {
1591:UartCmd.c     ****                 length = strlen(strTab[j]);
1592:UartCmd.c     ****                 /* We find it in the strTab. */
1593:UartCmd.c     ****                 if(memcmp(strTab[j], p, length) == 0)
1594:UartCmd.c     ****                 {
1595:UartCmd.c     ****                     tmp_TXPowerLevels[i] = valueTab[j]; 
1596:UartCmd.c     ****                     p += length;    /* skip the matching part */  
1597:UartCmd.c     ****                     break;
1598:UartCmd.c     ****                 }
1599:UartCmd.c     ****             }
1600:UartCmd.c     ****             /* If no matching str has been found. */
1601:UartCmd.c     ****             if(j == TXPWR_ACCEPTED_COUNT)
1602:UartCmd.c     ****             {
1603:UartCmd.c     ****                 return RESULT_ERROR;
1604:UartCmd.c     ****             }
1605:UartCmd.c     ****         }
1606:UartCmd.c     ****         /* The input is too long. */
1607:UartCmd.c     ****         if(*p != '\0')
1608:UartCmd.c     ****         {
1609:UartCmd.c     ****             return RESULT_ERROR;
1610:UartCmd.c     ****         }
1611:UartCmd.c     ****         /* The array is in an ascending order. */ 
1612:UartCmd.c     ****         if( (tmp_TXPowerLevels[0] < tmp_TXPowerLevels[1]) && \
1613:UartCmd.c     ****             (tmp_TXPowerLevels[1] < tmp_TXPowerLevels[2]) && \
1614:UartCmd.c     ****             (tmp_TXPowerLevels[2] < tmp_TXPowerLevels[3]) )
1615:UartCmd.c     ****         {
1616:UartCmd.c     ****             /* The updating operation is not allowed in locked state. */
1617:UartCmd.c     ****             if(pBeaconConfig->LockState)
1618:UartCmd.c     ****             {
1619:UartCmd.c     ****                 return RESULT_REJECTED;
1620:UartCmd.c     ****             }
1621:UartCmd.c     ****         
1622:UartCmd.c     ****             ConfigRW_UpdateConfig(CONFIG_TYPE_EDTXPWR, &tmp_TXPowerLevels);
1623:UartCmd.c     ****             SIMPLE_UART_PUTCONST("-> New Eddystone Radio TX Power Levels :");
1624:UartCmd.c     ****         }
1625:UartCmd.c     ****         else
1626:UartCmd.c     ****         {
1627:UartCmd.c     ****             return RESULT_ERROR;
1628:UartCmd.c     ****         }
1629:UartCmd.c     ****     }
ARM GAS  C:\Users\ramanatg\AppData\Local\Temp\ccxbhSsV.s 			page 30


1630:UartCmd.c     **** 
1631:UartCmd.c     ****     /* Output the Eddystone Radio TX Power Levels */
1632:UartCmd.c     ****     for(i = 0; i < ES_TX_POWER_MODE_COUNT; i++)
1633:UartCmd.c     ****     {
1634:UartCmd.c     ****         sprintf(str, " %d", pBeaconConfig->TXPowerLevels[i]);
1635:UartCmd.c     ****         SIMPLE_UART_PUTCONST(str);
1636:UartCmd.c     ****     }
1637:UartCmd.c     **** 
1638:UartCmd.c     ****     SIMPLE_UART_PUTCONST("\r\n");
1639:UartCmd.c     **** 
1640:UartCmd.c     ****     return RESULT_OK;
1641:UartCmd.c     **** }
1642:UartCmd.c     **** 
1643:UartCmd.c     **** /******************************************************************************
1644:UartCmd.c     **** * Function Name: cmd_sub_edadpwr
1645:UartCmd.c     **** *******************************************************************************
1646:UartCmd.c     **** *
1647:UartCmd.c     **** * Summary:
1648:UartCmd.c     **** *   Function for getting/setting the Advertised TX Power Levels for Eddystone.
1649:UartCmd.c     **** *
1650:UartCmd.c     **** * Parameters:
1651:UartCmd.c     **** *   None
1652:UartCmd.c     **** *
1653:UartCmd.c     **** * Return:
1654:UartCmd.c     **** *   uint16_t - Return value indicates whether the function succeeded or failed. 
1655:UartCmd.c     **** *   Following are the possible error codes.
1656:UartCmd.c     **** *   
1657:UartCmd.c     **** *   Errors codes                        Description
1658:UartCmd.c     **** *   ------------                        -----------
1659:UartCmd.c     **** *   RESULT_OK                           No error.
1660:UartCmd.c     **** *   RESULT_ERROR                        Incorrect UART input.
1661:UartCmd.c     **** *   RESULT_REJECTED                     The updating operation is rejected in locked state.
1662:UartCmd.c     **** ******************************************************************************/
1663:UartCmd.c     **** static uint16_t cmd_sub_edadpwr(void)
1664:UartCmd.c     **** {
1665:UartCmd.c     ****     uint8_t i;
1666:UartCmd.c     ****     uint8_t index = 0; 
1667:UartCmd.c     ****     uint8_t *p;
1668:UartCmd.c     ****     int32_t res;   /* Store the temp result of the conversion. */
1669:UartCmd.c     ****     CYBLE_GATT_HANDLE_VALUE_PAIR_T UpdateHandle;
1670:UartCmd.c     ****     char str[] = {0, 0, 0, 0, 0, 0};
1671:UartCmd.c     ****     int8_t tmp_Adv_TXPowerLevels[ES_TX_POWER_MODE_COUNT];
1672:UartCmd.c     **** 
1673:UartCmd.c     ****     /* If the command is getting the current Advertised TX Power Levels setting for Eddystone. */
1674:UartCmd.c     ****     if(*(data_array + sizeof(cmd_EDADPWR)) == '\0') 
1675:UartCmd.c     ****     {
1676:UartCmd.c     ****         SIMPLE_UART_PUTCONST("-> Eddystone Advertised TX Power Levels :");
1677:UartCmd.c     ****     }
1678:UartCmd.c     ****     /* The command is updating the Advertised TX Power Levels setting for Eddystone. */
1679:UartCmd.c     ****     else
1680:UartCmd.c     ****     {
1681:UartCmd.c     ****         p = data_array + sizeof(cmd_EDADPWR);
1682:UartCmd.c     ****         /* Convert the input string into number. */ 
1683:UartCmd.c     ****         while((*p != '\0') && (index < ES_TX_POWER_MODE_COUNT))
1684:UartCmd.c     ****         {
1685:UartCmd.c     ****             /* Every part of the input should be " x" */
1686:UartCmd.c     ****             res = 0;
ARM GAS  C:\Users\ramanatg\AppData\Local\Temp\ccxbhSsV.s 			page 31


1687:UartCmd.c     ****             if(*p++ != ' ') /* The space is needed. */
1688:UartCmd.c     ****             
1689:UartCmd.c     ****             {
1690:UartCmd.c     ****                 return RESULT_ERROR;
1691:UartCmd.c     ****             }
1692:UartCmd.c     ****             /* record the length of the input number. */
1693:UartCmd.c     ****             i = 0;
1694:UartCmd.c     ****             /* Move p pointing to the next space or '\0', and at the same time verify the character
1695:UartCmd.c     ****             while((*p != ' ') && (*p != '\0'))
1696:UartCmd.c     ****             {
1697:UartCmd.c     ****                 if(((*p == '-') && (i == 0))  ||        /* The first character is '-'. */
1698:UartCmd.c     ****                    ((*p >= '0') && (*p <= '9')))        /* The char is in 0~9. */
1699:UartCmd.c     ****                 {
1700:UartCmd.c     ****                     p++;
1701:UartCmd.c     ****                     i++;
1702:UartCmd.c     ****                 }
1703:UartCmd.c     ****                 /* The input is not correct. */
1704:UartCmd.c     ****                 else
1705:UartCmd.c     ****                 {
1706:UartCmd.c     ****                     return RESULT_ERROR;
1707:UartCmd.c     ****                 }
1708:UartCmd.c     ****             }
1709:UartCmd.c     ****             if((i > ADPWR_INPUT_LONGEST_NUM) ||         /* The longest format : -xxx. */
1710:UartCmd.c     ****                ((i == 1) && (*(p - i) == '-')))         /* The input num is only a '-'. */
1711:UartCmd.c     ****             {
1712:UartCmd.c     ****                 return RESULT_ERROR;
1713:UartCmd.c     ****             }
1714:UartCmd.c     ****             res = atoi((char *)(p - i));
1715:UartCmd.c     ****             /* If it is not in the range -100~20. */
1716:UartCmd.c     ****             if((res < ADPWR_LOWER_BOUND) || (res > ADPWR_UPPER_BOUND))
1717:UartCmd.c     ****             {
1718:UartCmd.c     ****                 return RESULT_ERROR;
1719:UartCmd.c     ****             }
1720:UartCmd.c     **** 
1721:UartCmd.c     ****             tmp_Adv_TXPowerLevels[index++] = res; 
1722:UartCmd.c     ****         }
1723:UartCmd.c     ****         /* There are more or less than 4 parts of input. */ 
1724:UartCmd.c     ****         if((*p != '\0') || (index != ES_TX_POWER_MODE_COUNT))
1725:UartCmd.c     ****         {
1726:UartCmd.c     ****             return RESULT_ERROR;
1727:UartCmd.c     ****         }
1728:UartCmd.c     ****         /* The array is in an ascending order. */
1729:UartCmd.c     ****         if((tmp_Adv_TXPowerLevels[0] < tmp_Adv_TXPowerLevels[1]) &&
1730:UartCmd.c     ****            (tmp_Adv_TXPowerLevels[1] < tmp_Adv_TXPowerLevels[2]) &&
1731:UartCmd.c     ****            (tmp_Adv_TXPowerLevels[2] < tmp_Adv_TXPowerLevels[3]))
1732:UartCmd.c     ****         {
1733:UartCmd.c     ****             /* The updating operation is not allowed in locked state. */
1734:UartCmd.c     ****             if(pBeaconConfig->LockState)
1735:UartCmd.c     ****             {
1736:UartCmd.c     ****                 return RESULT_REJECTED;
1737:UartCmd.c     ****             }
1738:UartCmd.c     ****         
1739:UartCmd.c     ****             ConfigRW_UpdateConfig(CONFIG_TYPE_EDADPWR, &tmp_Adv_TXPowerLevels);
1740:UartCmd.c     ****             
1741:UartCmd.c     ****             /* Update TX Power Levels in the GATT database of the GATT Server. */
1742:UartCmd.c     ****             UpdateHandle.attrHandle = CYBLE_EDDYSTONEURL_CONFIGURATION_ADVERTISED_TX_POWER_LEVELS_C
1743:UartCmd.c     ****             UpdateHandle.value.val  = (uint8_t *)(pBeaconConfig->Adv_TXPowerLevels);
ARM GAS  C:\Users\ramanatg\AppData\Local\Temp\ccxbhSsV.s 			page 32


1744:UartCmd.c     ****             UpdateHandle.value.len  = ES_TX_POWER_MODE_COUNT;
1745:UartCmd.c     ****             CyBle_GattsWriteAttributeValue(&UpdateHandle, 
1746:UartCmd.c     ****                                            WRITE_ATTRIB_OFFSET_0, 
1747:UartCmd.c     ****                                            NULL, 
1748:UartCmd.c     ****                                            CYBLE_GATT_DB_LOCALLY_INITIATED);
1749:UartCmd.c     ****             
1750:UartCmd.c     ****             SIMPLE_UART_PUTCONST("-> New Eddystone Advertised TX Power Levels :");
1751:UartCmd.c     ****         }
1752:UartCmd.c     ****         else 
1753:UartCmd.c     ****         {
1754:UartCmd.c     ****             return RESULT_ERROR; 
1755:UartCmd.c     ****         }
1756:UartCmd.c     ****     }
1757:UartCmd.c     **** 
1758:UartCmd.c     ****     /* Output the Eddystone Advertised TX Power Levels */
1759:UartCmd.c     ****     for(i = 0; i < ES_TX_POWER_MODE_COUNT; i++)
1760:UartCmd.c     ****     {
1761:UartCmd.c     ****         sprintf(str, " %d", pBeaconConfig->Adv_TXPowerLevels[i]); 
1762:UartCmd.c     ****         SIMPLE_UART_PUTCONST(str);
1763:UartCmd.c     ****     }
1764:UartCmd.c     **** 
1765:UartCmd.c     ****     SIMPLE_UART_PUTCONST("\r\n");
1766:UartCmd.c     **** 
1767:UartCmd.c     ****     return RESULT_OK;
1768:UartCmd.c     **** }
1769:UartCmd.c     **** 
1770:UartCmd.c     **** /******************************************************************************
1771:UartCmd.c     **** * Function Name: cmd_sub_edtxmode
1772:UartCmd.c     **** *******************************************************************************
1773:UartCmd.c     **** *
1774:UartCmd.c     **** * Summary:
1775:UartCmd.c     **** *   Function for getting/setting the TX Power mode for Eddystone.
1776:UartCmd.c     **** *
1777:UartCmd.c     **** * Parameters:
1778:UartCmd.c     **** *   None
1779:UartCmd.c     **** *
1780:UartCmd.c     **** * Return:
1781:UartCmd.c     **** *   uint16_t - Return value indicates whether the function succeeded or failed. 
1782:UartCmd.c     **** *   Following are the possible error codes.
1783:UartCmd.c     **** *   
1784:UartCmd.c     **** *   Errors codes                        Description
1785:UartCmd.c     **** *   ------------                        -----------
1786:UartCmd.c     **** *   RESULT_OK                           No error.
1787:UartCmd.c     **** *   RESULT_ERROR                        Incorrect UART input.
1788:UartCmd.c     **** *   RESULT_REJECTED                     The updating operation is rejected in locked state.
1789:UartCmd.c     **** ******************************************************************************/
1790:UartCmd.c     **** static uint16_t cmd_sub_edtxmode(void)
1791:UartCmd.c     **** {
1792:UartCmd.c     ****     uint8_t *p;
1793:UartCmd.c     ****     uint8_t NewMode;
1794:UartCmd.c     ****     CYBLE_GATT_HANDLE_VALUE_PAIR_T UpdateHandle;
1795:UartCmd.c     ****     uint8_t len;
1796:UartCmd.c     ****     const char *str[] = {"LOWEST", "LOW", "MEDIUM", "HIGH"};
1797:UartCmd.c     **** 
1798:UartCmd.c     ****     /* If the command is getting the current TX Power mode for Eddystone. */
1799:UartCmd.c     ****     if(data_array[sizeof(cmd_EDTXMODE)] == '\0')
1800:UartCmd.c     ****     {
ARM GAS  C:\Users\ramanatg\AppData\Local\Temp\ccxbhSsV.s 			page 33


1801:UartCmd.c     ****         SIMPLE_UART_PUTCONST("-> Eddystone TX Power Mode : ");
1802:UartCmd.c     ****     }
1803:UartCmd.c     ****     /* The command is updating the TX Power mode for Eddystone. */
1804:UartCmd.c     ****     else if(data_array[sizeof(cmd_EDTXMODE)] == ' ')
1805:UartCmd.c     ****     {
1806:UartCmd.c     ****         p = data_array + sizeof(cmd_EDTXMODE) + SIZE_OF_PARAM_SPACE;
1807:UartCmd.c     ****         strupr((char *)p);
1808:UartCmd.c     ****         
1809:UartCmd.c     ****         /* look for the matching parameter */
1810:UartCmd.c     ****         for(NewMode = 0; NewMode < ES_TX_POWER_MODE_COUNT; NewMode++)
1811:UartCmd.c     ****         {
1812:UartCmd.c     ****             len = strlen(str[NewMode]);
1813:UartCmd.c     ****             /* find the matching parameter */
1814:UartCmd.c     ****             if(memcmp(p, str[NewMode], len) == 0)
1815:UartCmd.c     ****             {
1816:UartCmd.c     ****                 p += len;
1817:UartCmd.c     ****                 break;
1818:UartCmd.c     ****             }
1819:UartCmd.c     ****         }
1820:UartCmd.c     ****         /* If no valid parameter is found, or the input is too long. */
1821:UartCmd.c     ****         if((NewMode == ES_TX_POWER_MODE_COUNT) || (*p != '\0'))
1822:UartCmd.c     ****         {
1823:UartCmd.c     ****             return RESULT_ERROR; 
1824:UartCmd.c     ****         }
1825:UartCmd.c     ****         
1826:UartCmd.c     ****         /* The updating operation is not allowed in locked state. */
1827:UartCmd.c     ****         if(pBeaconConfig->LockState)
1828:UartCmd.c     ****         {
1829:UartCmd.c     ****             return RESULT_REJECTED;
1830:UartCmd.c     ****         }
1831:UartCmd.c     ****         
1832:UartCmd.c     ****         ConfigRW_UpdateConfig(CONFIG_TYPE_TXPMODE, &NewMode);
1833:UartCmd.c     ****         
1834:UartCmd.c     ****         /* update TX Power Mode in the GATT database of the GATT Server. */
1835:UartCmd.c     ****         UpdateHandle.attrHandle = CYBLE_EDDYSTONEURL_CONFIGURATION_TX_POWER_MODE_CHAR_HANDLE;
1836:UartCmd.c     ****         UpdateHandle.value.val  = &(pBeaconConfig->TXPowerMode);
1837:UartCmd.c     ****         UpdateHandle.value.len  = sizeof(pBeaconConfig->TXPowerMode);
1838:UartCmd.c     ****         CyBle_GattsWriteAttributeValue(&UpdateHandle, 
1839:UartCmd.c     ****                                        WRITE_ATTRIB_OFFSET_0, 
1840:UartCmd.c     ****                                        NULL, 
1841:UartCmd.c     ****                                        CYBLE_GATT_DB_LOCALLY_INITIATED);
1842:UartCmd.c     ****         
1843:UartCmd.c     ****         SIMPLE_UART_PUTCONST("-> New Eddystone TX Power Mode : ");
1844:UartCmd.c     ****     }
1845:UartCmd.c     ****     /* The char after the command is not space, format is wrong. */
1846:UartCmd.c     ****     else
1847:UartCmd.c     ****     {
1848:UartCmd.c     ****         return RESULT_ERROR;
1849:UartCmd.c     ****     }
1850:UartCmd.c     ****     
1851:UartCmd.c     ****     /* Output the Eddystone Advertised TX Power Levels */
1852:UartCmd.c     ****     SIMPLE_UART_PUTCONST(str[pBeaconConfig->TXPowerMode]);
1853:UartCmd.c     ****     SIMPLE_UART_PUTCONST("\r\n");
1854:UartCmd.c     **** 
1855:UartCmd.c     ****     return RESULT_OK;
1856:UartCmd.c     **** }
1857:UartCmd.c     **** 
ARM GAS  C:\Users\ramanatg\AppData\Local\Temp\ccxbhSsV.s 			page 34


1858:UartCmd.c     **** /****************************************************************************** 
1859:UartCmd.c     **** * Function Name: cmd_sub_coid
1860:UartCmd.c     **** *******************************************************************************
1861:UartCmd.c     **** *
1862:UartCmd.c     **** * Summary:
1863:UartCmd.c     **** *   Function for changing the company id.
1864:UartCmd.c     **** *
1865:UartCmd.c     **** * Parameters:
1866:UartCmd.c     **** *   None
1867:UartCmd.c     **** *
1868:UartCmd.c     **** * Return:
1869:UartCmd.c     **** *   uint16_t - Return value indicates whether the function succeeded or failed. 
1870:UartCmd.c     **** *   Following are the possible error codes.
1871:UartCmd.c     **** *   
1872:UartCmd.c     **** *   Errors codes                        Description
1873:UartCmd.c     **** *   ------------                        -----------
1874:UartCmd.c     **** *   RESULT_OK                           No error.
1875:UartCmd.c     **** *   RESULT_ERROR                        Incorrect UART input.
1876:UartCmd.c     **** ******************************************************************************/
1877:UartCmd.c     **** static uint16_t cmd_sub_coid(void)
1878:UartCmd.c     **** {
1879:UartCmd.c     ****     uint16_t i;
1880:UartCmd.c     ****     uint16_t result = RESULT_OK;
1881:UartCmd.c     ****     char str[TMP_BUFFER_4_BYTE];
1882:UartCmd.c     ****     uint8_t m[TMP_BUFFER_4_BYTE];
1883:UartCmd.c     ****     uint16_t company_id = 0;
1884:UartCmd.c     **** 
1885:UartCmd.c     ****     /* If the command is getting the current Company ID setting. */
1886:UartCmd.c     ****     if(data_array[sizeof(cmd_COID)] == '\0')
1887:UartCmd.c     ****     {
1888:UartCmd.c     ****         SIMPLE_UART_PUTCONST("-> Company ID: ");
1889:UartCmd.c     ****     }
1890:UartCmd.c     ****     /* If the command is updating the Company ID setting. */
1891:UartCmd.c     ****     else if(strlen((const char *)(data_array + sizeof(cmd_COID))) == (SIZE_OF_PARAM_SPACE + SIZE_OF
1892:UartCmd.c     ****     {
1893:UartCmd.c     ****         /* There must be a space after the command. */
1894:UartCmd.c     ****         if(data_array[sizeof(cmd_COID)] != ' ')
1895:UartCmd.c     ****         {
1896:UartCmd.c     ****             return RESULT_ERROR;
1897:UartCmd.c     ****         }
1898:UartCmd.c     ****         /* check character 0-9, a-f, A-F */
1899:UartCmd.c     ****         for(i = 0; i < SIZE_OF_COID_PARAM; i++) 
1900:UartCmd.c     ****         {
1901:UartCmd.c     ****             /* Characters in the new COID must be '0' - 'F'/'f', convert them from character to dig
1902:UartCmd.c     ****             if((m[i] = atox(data_array[i + sizeof(cmd_COID) + SIZE_OF_PARAM_SPACE])) == ATOX_PARAM_
1903:UartCmd.c     ****             {
1904:UartCmd.c     ****                 result = RESULT_ERROR;
1905:UartCmd.c     ****                 break;          /* Handle the error. */
1906:UartCmd.c     ****             }
1907:UartCmd.c     ****         }
1908:UartCmd.c     ****         /* If some character of the new COID is invalid. */
1909:UartCmd.c     ****         if(result != RESULT_OK)
1910:UartCmd.c     ****         {
1911:UartCmd.c     ****             return result;
1912:UartCmd.c     ****         }
1913:UartCmd.c     **** 
1914:UartCmd.c     ****         company_id = BYTE_H4_L4_BIT_SWITCH(&m[COID_HIGH_BYTE_OFFSET]);
ARM GAS  C:\Users\ramanatg\AppData\Local\Temp\ccxbhSsV.s 			page 35


1915:UartCmd.c     ****         company_id = (company_id << BIT_PER_BYTE) | BYTE_H4_L4_BIT_SWITCH(&m[COID_LOW_BYTE_OFFSET])
1916:UartCmd.c     **** 
1917:UartCmd.c     ****         ConfigRW_UpdateConfig(CONFIG_TYPE_COMID, (uint16_t *)&company_id);
1918:UartCmd.c     ****         SIMPLE_UART_PUTCONST("-> New Company ID: ");
1919:UartCmd.c     ****     }
1920:UartCmd.c     ****     /* Length of the new Company ID is invalid. */
1921:UartCmd.c     ****     else
1922:UartCmd.c     ****     {
1923:UartCmd.c     ****         return RESULT_ERROR;
1924:UartCmd.c     ****     }
1925:UartCmd.c     **** 
1926:UartCmd.c     ****     sprintf(str, "%04X", pBeaconConfig->comID);
1927:UartCmd.c     ****     SIMPLE_UART_PUTCONST(str);
1928:UartCmd.c     ****     SIMPLE_UART_PUTCONST("\r\n");
1929:UartCmd.c     **** 
1930:UartCmd.c     ****     return result;
1931:UartCmd.c     **** }
1932:UartCmd.c     **** 
1933:UartCmd.c     **** /******************************************************************************
1934:UartCmd.c     **** * Function Name: cmd_sub_exsens
1935:UartCmd.c     **** *******************************************************************************
1936:UartCmd.c     **** *
1937:UartCmd.c     **** * Summary:
1938:UartCmd.c     **** *   Function for changing the sensor's mode.
1939:UartCmd.c     **** *
1940:UartCmd.c     **** * Parameters:
1941:UartCmd.c     **** *   None
1942:UartCmd.c     **** *
1943:UartCmd.c     **** * Return:
1944:UartCmd.c     **** *   uint16_t - Return value indicates whether the function succeeded or failed. 
1945:UartCmd.c     **** *   Following are the possible error codes.
1946:UartCmd.c     **** *   
1947:UartCmd.c     **** *   Errors codes                        Description
1948:UartCmd.c     **** *   ------------                        -----------
1949:UartCmd.c     **** *   RESULT_OK                           No error.
1950:UartCmd.c     **** *   RESULT_ERROR                        Incorrect UART input.
1951:UartCmd.c     **** ******************************************************************************/
1952:UartCmd.c     **** static uint16_t cmd_sub_exsens(void)
1953:UartCmd.c     **** {
1954:UartCmd.c     ****     char *str;
1955:UartCmd.c     ****     uint16_t len = strlen((const char *)(data_array + sizeof(cmd_EXSENS)));
1956:UartCmd.c     ****     const char on[]  = {'O', 'N'};
1957:UartCmd.c     ****     const char off[] = {'O', 'F', 'F'};
1958:UartCmd.c     ****     uint8_t sensor;
1959:UartCmd.c     ****     
1960:UartCmd.c     ****     /* If the command is getting the current SENSOR setting. */
1961:UartCmd.c     ****     if(len == 0)
1962:UartCmd.c     ****     {
1963:UartCmd.c     ****         SIMPLE_UART_PUTCONST("-> Sensor mode : ");
1964:UartCmd.c     ****     }
1965:UartCmd.c     ****     /* If the command is updating the SENSOR setting. */
1966:UartCmd.c     ****     else if(((SIZE_OF_PARAM_SPACE + sizeof(on)) == len) || \
1967:UartCmd.c     ****             ((SIZE_OF_PARAM_SPACE + sizeof(off)) == len)) /* space(len=1) + value(len=2/3) */
1968:UartCmd.c     ****     {
1969:UartCmd.c     ****         /* There must be a space after the command. */
1970:UartCmd.c     ****         if(data_array[sizeof(cmd_EXSENS)] != ' ')
1971:UartCmd.c     ****         {
ARM GAS  C:\Users\ramanatg\AppData\Local\Temp\ccxbhSsV.s 			page 36


1972:UartCmd.c     ****             return RESULT_ERROR;
1973:UartCmd.c     ****         }
1974:UartCmd.c     ****         
1975:UartCmd.c     ****         str = (char *)(&data_array[sizeof(cmd_EXSENS) + SIZE_OF_PARAM_SPACE]);
1976:UartCmd.c     ****         /* Convert the input into Capital form. */
1977:UartCmd.c     ****         strupr(str);
1978:UartCmd.c     ****         
1979:UartCmd.c     ****         /* check if parameter is off */
1980:UartCmd.c     ****         if((memcmp(str, off, sizeof(off)) == 0) && \
1981:UartCmd.c     ****            ((SIZE_OF_PARAM_SPACE + sizeof(off)) == len))
1982:UartCmd.c     ****         {
1983:UartCmd.c     ****             sensor = false;
1984:UartCmd.c     ****         }
1985:UartCmd.c     ****         /* check if parameter is on */
1986:UartCmd.c     ****         else if((memcmp(str, on, sizeof(on)) == 0) && \
1987:UartCmd.c     ****                 ((SIZE_OF_PARAM_SPACE + sizeof(on)) == len))
1988:UartCmd.c     ****         {
1989:UartCmd.c     ****             sensor = true;
1990:UartCmd.c     ****         }
1991:UartCmd.c     ****         /* The new SENSOR setting is neither "on" nor "off". */
1992:UartCmd.c     ****         else
1993:UartCmd.c     ****         {
1994:UartCmd.c     ****             return RESULT_ERROR;
1995:UartCmd.c     ****         }
1996:UartCmd.c     ****         
1997:UartCmd.c     ****         ConfigRW_UpdateConfig(CONFIG_TYPE_SENSOR, (int8_t *)&sensor);
1998:UartCmd.c     ****         SIMPLE_UART_PUTCONST("-> New Sensor mode : ");
1999:UartCmd.c     ****     }
2000:UartCmd.c     ****     /* Length of the new SENSOR is invalid. */
2001:UartCmd.c     ****     else
2002:UartCmd.c     ****     {
2003:UartCmd.c     ****         return RESULT_ERROR;
2004:UartCmd.c     ****     }
2005:UartCmd.c     **** 
2006:UartCmd.c     ****     if(pBeaconConfig->sensor)
2007:UartCmd.c     ****     {
2008:UartCmd.c     ****         SIMPLE_UART_PUTCONST("on");
2009:UartCmd.c     ****     }
2010:UartCmd.c     ****     else
2011:UartCmd.c     ****     {
2012:UartCmd.c     ****         SIMPLE_UART_PUTCONST("off");
2013:UartCmd.c     ****     }
2014:UartCmd.c     ****     SIMPLE_UART_PUTCONST("\r\n");
2015:UartCmd.c     **** 
2016:UartCmd.c     ****     return RESULT_OK;
2017:UartCmd.c     **** }
2018:UartCmd.c     **** 
2019:UartCmd.c     **** /******************************************************************************
2020:UartCmd.c     **** * Function Name: cmd_sub_mode
2021:UartCmd.c     **** *******************************************************************************
2022:UartCmd.c     **** *
2023:UartCmd.c     **** * Summary:
2024:UartCmd.c     **** *   Function for getting or changing the mode, bleBeacon or Eddystone.
2025:UartCmd.c     **** *
2026:UartCmd.c     **** * Parameters:
2027:UartCmd.c     **** *   None
2028:UartCmd.c     **** *  
ARM GAS  C:\Users\ramanatg\AppData\Local\Temp\ccxbhSsV.s 			page 37


2029:UartCmd.c     **** * Return:
2030:UartCmd.c     **** *   uint16_t - Return value indicates whether the function succeeded or failed. 
2031:UartCmd.c     **** *   Following are the possible error codes.
2032:UartCmd.c     **** *   
2033:UartCmd.c     **** *   Errors codes                        Description
2034:UartCmd.c     **** *   ------------                        -----------
2035:UartCmd.c     **** *   RESULT_OK                           No error.
2036:UartCmd.c     **** *   RESULT_ERROR                        Incorrect UART input.
2037:UartCmd.c     **** ******************************************************************************/
2038:UartCmd.c     **** static uint16_t cmd_sub_mode(void)
2039:UartCmd.c     **** {
2040:UartCmd.c     ****     uint8_t *p;
2041:UartCmd.c     ****     const char bleBeacon[] = {' ', 'B', 'L', 'E', 'B', 'E', 'A', 'C', 'O', 'N', '\0'};
2042:UartCmd.c     ****     const char eddystone[] = {' ', 'E', 'D', 'D', 'Y', 'S', 'T', 'O', 'N', 'E', '\0'};
2043:UartCmd.c     ****     const char edtest[]    = {' ', 'E', 'D', 'T', 'E', 'S', 'T', '\0'};
2044:UartCmd.c     ****     int8_t mode;
2045:UartCmd.c     ****     
2046:UartCmd.c     ****     /* If the command is getting the current mode setting. */
2047:UartCmd.c     ****     if(data_array[sizeof(cmd_MODE)] == '\0')
2048:UartCmd.c     ****     {
2049:UartCmd.c     ****         SIMPLE_UART_PUTCONST("-> Mode : ");
2050:UartCmd.c     ****     }
2051:UartCmd.c     ****     /* If the command is updating the MODE setting. */
2052:UartCmd.c     ****     else
2053:UartCmd.c     ****     {
2054:UartCmd.c     ****         p = data_array + sizeof(cmd_MODE);
2055:UartCmd.c     ****         
2056:UartCmd.c     ****         /* Convert lower case to upper case. */
2057:UartCmd.c     ****         strupr((char *)p);
2058:UartCmd.c     ****         
2059:UartCmd.c     ****         /* The mode setting is changed to bleBeacon. */
2060:UartCmd.c     ****         if(memcmp(p, bleBeacon, sizeof(bleBeacon)) == 0)
2061:UartCmd.c     ****         {
2062:UartCmd.c     ****             mode = ADV_MODE_BLEBEACON;
2063:UartCmd.c     ****         }
2064:UartCmd.c     ****         /* The mode setting is changed to eddystone. */
2065:UartCmd.c     ****         else if(memcmp(p, eddystone, sizeof(eddystone)) == 0)
2066:UartCmd.c     ****         {
2067:UartCmd.c     ****             mode = ADV_MODE_EDDYSTONE;
2068:UartCmd.c     ****         }
2069:UartCmd.c     ****         /* The mode setting is changed to eddystonetest. */
2070:UartCmd.c     ****         else if(memcmp(p, edtest, sizeof(edtest)) == 0)
2071:UartCmd.c     ****         {
2072:UartCmd.c     ****             mode = ADV_MODE_EDDYSTONETEST;
2073:UartCmd.c     ****         }
2074:UartCmd.c     ****         /* The input mode is not right. */
2075:UartCmd.c     ****         else
2076:UartCmd.c     ****         {
2077:UartCmd.c     ****             return RESULT_ERROR;
2078:UartCmd.c     ****         }
2079:UartCmd.c     **** 
2080:UartCmd.c     ****         ConfigRW_UpdateConfig(CONFIG_TYPE_MODE, &mode);
2081:UartCmd.c     ****         SIMPLE_UART_PUTCONST("-> New mode : ");
2082:UartCmd.c     ****     }
2083:UartCmd.c     ****     
2084:UartCmd.c     ****     /* If the latest mode setting is BLEBeacon. */
2085:UartCmd.c     ****     if(pBeaconConfig->mode == ADV_MODE_BLEBEACON)
ARM GAS  C:\Users\ramanatg\AppData\Local\Temp\ccxbhSsV.s 			page 38


2086:UartCmd.c     ****     {
2087:UartCmd.c     ****         SIMPLE_UART_PUTCONST("BLEBeacon");
2088:UartCmd.c     ****     }
2089:UartCmd.c     ****     /* The latest mode setting is Eddystone. */
2090:UartCmd.c     ****     else if(pBeaconConfig->mode == ADV_MODE_EDDYSTONE)
2091:UartCmd.c     ****     {
2092:UartCmd.c     ****         SIMPLE_UART_PUTCONST("Eddystone");
2093:UartCmd.c     ****     }
2094:UartCmd.c     ****     /* The latest mode setting is EDTest. */
2095:UartCmd.c     ****     else
2096:UartCmd.c     ****     {
2097:UartCmd.c     ****         SIMPLE_UART_PUTCONST("EDTest");
2098:UartCmd.c     ****     }
2099:UartCmd.c     ****     SIMPLE_UART_PUTCONST("\r\n");
2100:UartCmd.c     ****     
2101:UartCmd.c     ****     return RESULT_OK;
2102:UartCmd.c     **** }
2103:UartCmd.c     **** 
2104:UartCmd.c     **** /******************************************************************************
2105:UartCmd.c     **** * Function Name: cmd_sub_edframe
2106:UartCmd.c     **** *******************************************************************************
2107:UartCmd.c     **** *
2108:UartCmd.c     **** * Summary:
2109:UartCmd.c     **** *   Function for getting or changing the edframe flags.
2110:UartCmd.c     **** *
2111:UartCmd.c     **** * Parameters:
2112:UartCmd.c     **** *   None
2113:UartCmd.c     **** *  
2114:UartCmd.c     **** * Return:
2115:UartCmd.c     **** *   uint16_t - Return value indicates whether the function succeeded or failed. 
2116:UartCmd.c     **** *   Following are the possible error codes.
2117:UartCmd.c     **** *   
2118:UartCmd.c     **** *   Errors codes                        Description
2119:UartCmd.c     **** *   ------------                        -----------
2120:UartCmd.c     **** *   RESULT_OK                           No error.
2121:UartCmd.c     **** *   RESULT_ERROR                        Incorrect UART input.
2122:UartCmd.c     **** ******************************************************************************/
2123:UartCmd.c     **** static uint16_t cmd_sub_edframe(void)
2124:UartCmd.c     **** {
2125:UartCmd.c     ****     EDframeFlag frame;
2126:UartCmd.c     ****     uint8_t *p;
2127:UartCmd.c     ****     const char uid[] = {' ', 'U', 'I', 'D'};
2128:UartCmd.c     ****     const char url[] = {' ', 'U', 'R', 'L'};
2129:UartCmd.c     ****     const char tlm[] = {' ', 'T', 'L', 'M'};
2130:UartCmd.c     ****     
2131:UartCmd.c     ****     /* If the command is getting the current edframe setting. */
2132:UartCmd.c     ****     if(data_array[sizeof(cmd_EDFRAME)] == '\0')
2133:UartCmd.c     ****     {
2134:UartCmd.c     ****         SIMPLE_UART_PUTCONST("-> EDFrame mode : ");
2135:UartCmd.c     ****     }
2136:UartCmd.c     ****     /* If the command is updating the edframe setting. */
2137:UartCmd.c     ****     else
2138:UartCmd.c     ****     {
2139:UartCmd.c     ****         p = data_array + sizeof(cmd_EDFRAME);
2140:UartCmd.c     ****         
2141:UartCmd.c     ****         strupr((char *)p);
2142:UartCmd.c     ****         
ARM GAS  C:\Users\ramanatg\AppData\Local\Temp\ccxbhSsV.s 			page 39


2143:UartCmd.c     ****         /* mark if the uid\url\tlm option is already there before */  
2144:UartCmd.c     ****         frame.UIDisEnabled = false;
2145:UartCmd.c     ****         frame.URLisEnabled = false;
2146:UartCmd.c     ****         frame.TLMisEnabled = false;
2147:UartCmd.c     ****         
2148:UartCmd.c     ****         /* If there's still data to be handled. */
2149:UartCmd.c     ****         while(*p != '\0')
2150:UartCmd.c     ****         {
2151:UartCmd.c     ****             /* if the option is " uid" and it's the first time we find it. */
2152:UartCmd.c     ****             if((!frame.UIDisEnabled) && (memcmp(p, uid, sizeof(uid)) == 0))
2153:UartCmd.c     ****             {
2154:UartCmd.c     ****                 frame.UIDisEnabled = true;
2155:UartCmd.c     ****                 p = p + sizeof(uid); 
2156:UartCmd.c     ****             }
2157:UartCmd.c     ****             /* if the option is " url" and it's the first time we find it. */
2158:UartCmd.c     ****             else if((!frame.URLisEnabled) && (memcmp(p, url, sizeof(url)) == 0))
2159:UartCmd.c     ****             {
2160:UartCmd.c     ****                 frame.URLisEnabled = true;
2161:UartCmd.c     ****                 p = p + sizeof(url); 
2162:UartCmd.c     ****             }
2163:UartCmd.c     ****             /* if the option is " tlm" and it's the first time we find it. */
2164:UartCmd.c     ****             else if((!frame.TLMisEnabled) && (memcmp(p, tlm, sizeof(tlm)) == 0))
2165:UartCmd.c     ****             {
2166:UartCmd.c     ****                 frame.TLMisEnabled = true;
2167:UartCmd.c     ****                 p = p + sizeof(tlm); 
2168:UartCmd.c     ****             }
2169:UartCmd.c     ****             /* the command format is wrong */
2170:UartCmd.c     ****             else 
2171:UartCmd.c     ****             {
2172:UartCmd.c     ****                 return RESULT_ERROR;
2173:UartCmd.c     ****             }
2174:UartCmd.c     ****         }
2175:UartCmd.c     ****         
2176:UartCmd.c     ****         /* "tlm" cannot be enabled alone. 
2177:UartCmd.c     ****          * It needs to be enabled together with at least "uid" or "url". */
2178:UartCmd.c     ****         if((frame.TLMisEnabled && (!frame.UIDisEnabled) && (!frame.URLisEnabled)) ||
2179:UartCmd.c     ****         /* Three frame cannot be enabled at the same time. (For Solar BLE Module) */
2180:UartCmd.c     ****             (frame.TLMisEnabled && frame.UIDisEnabled && frame.URLisEnabled))
2181:UartCmd.c     ****         {
2182:UartCmd.c     ****             return RESULT_ERROR;
2183:UartCmd.c     ****         }
2184:UartCmd.c     ****     
2185:UartCmd.c     ****         /* update the configure */
2186:UartCmd.c     ****         ConfigRW_UpdateConfig(CONFIG_TYPE_FRAME, &frame);
2187:UartCmd.c     ****         SIMPLE_UART_PUTCONST("-> New EDFrame mode : ");
2188:UartCmd.c     ****     }
2189:UartCmd.c     ****     
2190:UartCmd.c     ****     if(pBeaconConfig->frame.UIDisEnabled)       /* Eddystone-UID is on. */
2191:UartCmd.c     ****     {
2192:UartCmd.c     ****         SIMPLE_UART_PUTCONST("uid on, ");
2193:UartCmd.c     ****     }
2194:UartCmd.c     ****     else                                /* Eddystone-UID is off. */
2195:UartCmd.c     ****     {
2196:UartCmd.c     ****         SIMPLE_UART_PUTCONST("uid off, ");
2197:UartCmd.c     ****     }
2198:UartCmd.c     ****     
2199:UartCmd.c     ****     if(pBeaconConfig->frame.URLisEnabled)       /* Eddystone-URL is on. */
ARM GAS  C:\Users\ramanatg\AppData\Local\Temp\ccxbhSsV.s 			page 40


2200:UartCmd.c     ****     {
2201:UartCmd.c     ****         SIMPLE_UART_PUTCONST("url on, ");
2202:UartCmd.c     ****     }
2203:UartCmd.c     ****     else                                /* Eddystone-URL is off. */
2204:UartCmd.c     ****     {
2205:UartCmd.c     ****         SIMPLE_UART_PUTCONST("url off, ");
2206:UartCmd.c     ****     }
2207:UartCmd.c     ****     
2208:UartCmd.c     ****     if(pBeaconConfig->frame.TLMisEnabled)       /* Eddystone-TML is on. */
2209:UartCmd.c     ****     {
2210:UartCmd.c     ****         SIMPLE_UART_PUTCONST("tlm on");
2211:UartCmd.c     ****     }
2212:UartCmd.c     ****     else                                /* Eddystone-TML is off. */
2213:UartCmd.c     ****     {
2214:UartCmd.c     ****         SIMPLE_UART_PUTCONST("tlm off");
2215:UartCmd.c     ****     }
2216:UartCmd.c     ****     SIMPLE_UART_PUTCONST("\r\n");
2217:UartCmd.c     **** 
2218:UartCmd.c     ****     return RESULT_OK;
2219:UartCmd.c     **** }
2220:UartCmd.c     **** 
2221:UartCmd.c     **** /******************************************************************************
2222:UartCmd.c     **** * Function Name: cmd_sub_lock
2223:UartCmd.c     **** *******************************************************************************
2224:UartCmd.c     **** *
2225:UartCmd.c     **** * Summary:
2226:UartCmd.c     **** *   Lock Eddystone-URL Configuration Service and set the single-use lock-code.
2227:UartCmd.c     **** *
2228:UartCmd.c     **** * Parameters:
2229:UartCmd.c     **** *   None
2230:UartCmd.c     **** *  
2231:UartCmd.c     **** * Return:
2232:UartCmd.c     **** *   uint16_t - Return value indicates whether the function succeeded or failed. 
2233:UartCmd.c     **** *   Following are the possible error codes.
2234:UartCmd.c     **** *   
2235:UartCmd.c     **** *   Errors codes                        Description
2236:UartCmd.c     **** *   ------------                        -----------
2237:UartCmd.c     **** *   RESULT_OK                           No error.
2238:UartCmd.c     **** *   RESULT_ERROR                        Incorrect UART input.
2239:UartCmd.c     **** *   RESULT_REJECTED                     The updating operation is rejected in locked state.
2240:UartCmd.c     **** ******************************************************************************/
2241:UartCmd.c     **** static uint16_t cmd_sub_lock(void)
2242:UartCmd.c     **** {
2243:UartCmd.c     ****     uint8_t tmp_lock[ES_LOCK_LENGTH];
2244:UartCmd.c     ****     uint8_t str_buf[ES_LOCK_LENGTH*SIZE_OF_BYTE_TO_02X];
2245:UartCmd.c     ****     uint8_t lock_state_locked = true;
2246:UartCmd.c     ****     uint8_t *pPos;
2247:UartCmd.c     ****     uint8_t i, j;
2248:UartCmd.c     ****     CYBLE_GATT_HANDLE_VALUE_PAIR_T UpdateHandle;
2249:UartCmd.c     ****     
2250:UartCmd.c     ****     /* Check the parameter length. */
2251:UartCmd.c     ****     if(strlen((char *)(data_array + sizeof(cmd_EDLOCK))) == SIZE_OF_LOCK_CODE_PARAM + SIZE_OF_PARAM
2252:UartCmd.c     ****     {
2253:UartCmd.c     ****         pPos = data_array + sizeof(cmd_EDLOCK);
2254:UartCmd.c     ****         /* The subsequent character should be a space. */
2255:UartCmd.c     ****         if(*pPos++ != ' ')
2256:UartCmd.c     ****         {
ARM GAS  C:\Users\ramanatg\AppData\Local\Temp\ccxbhSsV.s 			page 41


2257:UartCmd.c     ****             return RESULT_ERROR;
2258:UartCmd.c     ****         }
2259:UartCmd.c     ****         
2260:UartCmd.c     ****         /* Copy the parameter to another buffer, check and remove the hyphens. */
2261:UartCmd.c     ****         j = 0;
2262:UartCmd.c     ****         for(i = 0; i < SIZE_OF_UUID_PARAM; i++)
2263:UartCmd.c     ****         {
2264:UartCmd.c     ****             /* Don't copy characters in hyphen positions. */
2265:UartCmd.c     ****             if((LOCKCODE_STR_HYPHEN_POS_1 == i) || 
2266:UartCmd.c     ****                (LOCKCODE_STR_HYPHEN_POS_2 == i) || 
2267:UartCmd.c     ****                (LOCKCODE_STR_HYPHEN_POS_3 == i) || 
2268:UartCmd.c     ****                (LOCKCODE_STR_HYPHEN_POS_4 == i))
2269:UartCmd.c     ****             {
2270:UartCmd.c     ****                 /* If the character in hyphen positions isn't a hyphen. */
2271:UartCmd.c     ****                 if(pPos[i] != '-')
2272:UartCmd.c     ****                 {
2273:UartCmd.c     ****                     return RESULT_ERROR;
2274:UartCmd.c     ****                 }
2275:UartCmd.c     ****             }
2276:UartCmd.c     ****             /* Copy other characters to the buffer. */
2277:UartCmd.c     ****             else
2278:UartCmd.c     ****             {
2279:UartCmd.c     ****                 str_buf[j++] = pPos[i];
2280:UartCmd.c     ****             }
2281:UartCmd.c     ****         }
2282:UartCmd.c     ****         /* Convert and check the parameter. */
2283:UartCmd.c     ****         if(hextobin(tmp_lock, str_buf, ES_LOCK_LENGTH) == RESULT_ERROR)
2284:UartCmd.c     ****         {
2285:UartCmd.c     ****             return RESULT_ERROR;
2286:UartCmd.c     ****         }
2287:UartCmd.c     ****         
2288:UartCmd.c     ****         /* The updating operation is not allowed in locked state. */
2289:UartCmd.c     ****         if(pBeaconConfig->LockState)
2290:UartCmd.c     ****         {
2291:UartCmd.c     ****             return RESULT_REJECTED;
2292:UartCmd.c     ****         }
2293:UartCmd.c     ****         
2294:UartCmd.c     ****         /* Update the lock state and the lock code configuration stored in User SFlash. */
2295:UartCmd.c     ****         ConfigRW_UpdateConfig(CONFIG_TYPE_LOCKSTATE, &lock_state_locked);
2296:UartCmd.c     ****         ConfigRW_UpdateConfig(CONFIG_TYPE_LOCK, tmp_lock);
2297:UartCmd.c     ****         
2298:UartCmd.c     ****         /* update Lock State in the GATT database of the GATT Server. */
2299:UartCmd.c     ****         UpdateHandle.attrHandle = CYBLE_EDDYSTONEURL_CONFIGURATION_LOCK_STATE_CHAR_HANDLE;
2300:UartCmd.c     ****         UpdateHandle.value.val  = &(pBeaconConfig->LockState);
2301:UartCmd.c     ****         UpdateHandle.value.len  = sizeof(pBeaconConfig->LockState);
2302:UartCmd.c     ****         CyBle_GattsWriteAttributeValue(&UpdateHandle, 
2303:UartCmd.c     ****                                        WRITE_ATTRIB_OFFSET_0, 
2304:UartCmd.c     ****                                        NULL, 
2305:UartCmd.c     ****                                        CYBLE_GATT_DB_LOCALLY_INITIATED);
2306:UartCmd.c     ****         
2307:UartCmd.c     ****         SIMPLE_UART_PUTCONST("-> New EDSTATE : locked\r\n");
2308:UartCmd.c     ****         
2309:UartCmd.c     ****         return RESULT_OK;
2310:UartCmd.c     ****     }
2311:UartCmd.c     ****     /* The parameter length is wrong. */
2312:UartCmd.c     ****     else
2313:UartCmd.c     ****     {
ARM GAS  C:\Users\ramanatg\AppData\Local\Temp\ccxbhSsV.s 			page 42


2314:UartCmd.c     ****         return RESULT_ERROR;
2315:UartCmd.c     ****     }
2316:UartCmd.c     **** }
2317:UartCmd.c     **** 
2318:UartCmd.c     **** /******************************************************************************
2319:UartCmd.c     **** * Function Name: cmd_sub_unlock
2320:UartCmd.c     **** *******************************************************************************
2321:UartCmd.c     **** *
2322:UartCmd.c     **** * Summary:
2323:UartCmd.c     **** *   Unlock Eddystone-URL Configuration Service for modification with the lock-code
2324:UartCmd.c     **** *   set by EDLOCK command. User needs to send DEFAULT command if user forgets the 
2325:UartCmd.c     **** *   lock-code.
2326:UartCmd.c     **** *
2327:UartCmd.c     **** * Parameters:
2328:UartCmd.c     **** *   None
2329:UartCmd.c     **** *  
2330:UartCmd.c     **** * Return:
2331:UartCmd.c     **** *   uint16_t - Return value indicates whether the function succeeded or failed. 
2332:UartCmd.c     **** *   Following are the possible error codes.
2333:UartCmd.c     **** *   
2334:UartCmd.c     **** *   Errors codes                        Description
2335:UartCmd.c     **** *   ------------                        -----------
2336:UartCmd.c     **** *   RESULT_OK                           No error.
2337:UartCmd.c     **** *   RESULT_ERROR                        Incorrect UART input.
2338:UartCmd.c     **** *   RESULT_REJECTED                     Lock-code is not correct.
2339:UartCmd.c     **** ******************************************************************************/
2340:UartCmd.c     **** static uint16_t cmd_sub_unlock(void)
2341:UartCmd.c     **** {
2342:UartCmd.c     ****     uint8_t tmp_lock[ES_LOCK_LENGTH];
2343:UartCmd.c     ****     uint8_t str_buf[ES_LOCK_LENGTH*SIZE_OF_BYTE_TO_02X];
2344:UartCmd.c     ****     uint8_t lock_state_unlocked = false;
2345:UartCmd.c     ****     uint8_t *pPos;
2346:UartCmd.c     ****     uint8_t i, j;
2347:UartCmd.c     ****     CYBLE_GATT_HANDLE_VALUE_PAIR_T UpdateHandle;
2348:UartCmd.c     ****     
2349:UartCmd.c     ****     /* Check the parameter length. */
2350:UartCmd.c     ****     if(strlen((char *)(data_array + sizeof(cmd_EDUNLOCK))) == SIZE_OF_LOCK_CODE_PARAM + SIZE_OF_PAR
2351:UartCmd.c     ****     {
2352:UartCmd.c     ****         pPos = data_array + sizeof(cmd_EDUNLOCK);
2353:UartCmd.c     ****         /* The subsequent character should be a space. */
2354:UartCmd.c     ****         if(*pPos++ != ' ')
2355:UartCmd.c     ****         {
2356:UartCmd.c     ****             return RESULT_ERROR;
2357:UartCmd.c     ****         }
2358:UartCmd.c     ****         
2359:UartCmd.c     ****         /* Copy the parameter to another buffer, check and remove the hyphens. */
2360:UartCmd.c     ****         j = 0;
2361:UartCmd.c     ****         for(i = 0; i < SIZE_OF_UUID_PARAM; i++)
2362:UartCmd.c     ****         {
2363:UartCmd.c     ****             /* Don't copy characters in hyphen positions. */
2364:UartCmd.c     ****             if((LOCKCODE_STR_HYPHEN_POS_1 == i) || 
2365:UartCmd.c     ****                (LOCKCODE_STR_HYPHEN_POS_2 == i) || 
2366:UartCmd.c     ****                (LOCKCODE_STR_HYPHEN_POS_3 == i) || 
2367:UartCmd.c     ****                (LOCKCODE_STR_HYPHEN_POS_4 == i))
2368:UartCmd.c     ****             {
2369:UartCmd.c     ****                 /* If the character in hyphen positions isn't a hyphen. */
2370:UartCmd.c     ****                 if(pPos[i] != '-')
ARM GAS  C:\Users\ramanatg\AppData\Local\Temp\ccxbhSsV.s 			page 43


2371:UartCmd.c     ****                 {
2372:UartCmd.c     ****                     return RESULT_ERROR;
2373:UartCmd.c     ****                 }
2374:UartCmd.c     ****             }
2375:UartCmd.c     ****             /* Copy other characters to the buffer. */
2376:UartCmd.c     ****             else
2377:UartCmd.c     ****             {
2378:UartCmd.c     ****                 str_buf[j++] = pPos[i];
2379:UartCmd.c     ****             }
2380:UartCmd.c     ****         }
2381:UartCmd.c     ****         /* Convert and check the parameter. */
2382:UartCmd.c     ****         if(hextobin(tmp_lock, str_buf, ES_LOCK_LENGTH) == RESULT_ERROR)
2383:UartCmd.c     ****         {
2384:UartCmd.c     ****             return RESULT_ERROR;
2385:UartCmd.c     ****         }
2386:UartCmd.c     ****         
2387:UartCmd.c     ****         /* If it's already unlocked, print prompt message. */
2388:UartCmd.c     ****         if(!pBeaconConfig->LockState)
2389:UartCmd.c     ****         {
2390:UartCmd.c     ****             SIMPLE_UART_PUTCONST("-> EDSTATE : unlocked\r\n");
2391:UartCmd.c     ****             return RESULT_OK;
2392:UartCmd.c     ****         }
2393:UartCmd.c     ****         /* It's locked, check whether the code is matched. */
2394:UartCmd.c     ****         else if(memcmp(pBeaconConfig->lock, tmp_lock, ES_LOCK_LENGTH) != 0)
2395:UartCmd.c     ****         {
2396:UartCmd.c     ****             return RESULT_REJECTED;
2397:UartCmd.c     ****         }
2398:UartCmd.c     ****         
2399:UartCmd.c     ****         /* Update the lock state stored in User SFlash. */
2400:UartCmd.c     ****         ConfigRW_UpdateConfig(CONFIG_TYPE_LOCKSTATE, &lock_state_unlocked);
2401:UartCmd.c     ****         
2402:UartCmd.c     ****         /* update Lock State in the GATT database of the GATT Server. */
2403:UartCmd.c     ****         UpdateHandle.attrHandle = CYBLE_EDDYSTONEURL_CONFIGURATION_LOCK_STATE_CHAR_HANDLE;
2404:UartCmd.c     ****         UpdateHandle.value.val  = &(pBeaconConfig->LockState);
2405:UartCmd.c     ****         UpdateHandle.value.len  = sizeof(pBeaconConfig->LockState);
2406:UartCmd.c     ****         CyBle_GattsWriteAttributeValue(&UpdateHandle, 
2407:UartCmd.c     ****                                        WRITE_ATTRIB_OFFSET_0, 
2408:UartCmd.c     ****                                        NULL, 
2409:UartCmd.c     ****                                        CYBLE_GATT_DB_LOCALLY_INITIATED);
2410:UartCmd.c     ****         
2411:UartCmd.c     ****         SIMPLE_UART_PUTCONST("-> New EDSTATE : unlocked\r\n");
2412:UartCmd.c     ****         
2413:UartCmd.c     ****         return RESULT_OK;
2414:UartCmd.c     ****     }
2415:UartCmd.c     ****     /* The parameter length is wrong. */
2416:UartCmd.c     ****     else
2417:UartCmd.c     ****     {
2418:UartCmd.c     ****         return RESULT_ERROR;
2419:UartCmd.c     ****     }
2420:UartCmd.c     **** }
2421:UartCmd.c     **** 
2422:UartCmd.c     **** /******************************************************************************
2423:UartCmd.c     **** * Function Name: cmd_sub_version
2424:UartCmd.c     **** *******************************************************************************
2425:UartCmd.c     **** *
2426:UartCmd.c     **** * Summary:
2427:UartCmd.c     **** *   Function for getting the version.
ARM GAS  C:\Users\ramanatg\AppData\Local\Temp\ccxbhSsV.s 			page 44


2428:UartCmd.c     **** *
2429:UartCmd.c     **** * Parameters:
2430:UartCmd.c     **** *   None
2431:UartCmd.c     **** *
2432:UartCmd.c     **** * Return:
2433:UartCmd.c     **** *   uint16_t - Return value indicates whether the function succeeded or failed. 
2434:UartCmd.c     **** *   Following are the possible error codes.
2435:UartCmd.c     **** *   
2436:UartCmd.c     **** *   Errors codes                        Description
2437:UartCmd.c     **** *   ------------                        -----------
2438:UartCmd.c     **** *   RESULT_OK                           No error.
2439:UartCmd.c     **** *   RESULT_ERROR                        Incorrect UART input.
2440:UartCmd.c     **** ******************************************************************************/
2441:UartCmd.c     **** static uint16_t cmd_sub_version(void)
2442:UartCmd.c     **** {
2443:UartCmd.c     ****     char firmwareVersion[SIZE_OF_FIRMWARE_INFO_BUF] = {0};
2444:UartCmd.c     **** 
2445:UartCmd.c     ****     /* User inputs more than "ver\r\n". */
2446:UartCmd.c     ****     if(data_array[sizeof(cmd_VER)] != '\0')
2447:UartCmd.c     ****     {
2448:UartCmd.c     ****         return RESULT_ERROR;
2449:UartCmd.c     ****     }
2450:UartCmd.c     **** 
2451:UartCmd.c     ****     /* User input is correct, output the message. */
2452:UartCmd.c     ****     GetFirmwareInfo(firmwareVersion);
2453:UartCmd.c     **** 
2454:UartCmd.c     ****     SIMPLE_UART_PUTCONST(firmwareVersion);
2455:UartCmd.c     **** 
2456:UartCmd.c     ****     return RESULT_OK;
2457:UartCmd.c     **** }
2458:UartCmd.c     **** 
2459:UartCmd.c     **** /******************************************************************************
2460:UartCmd.c     **** * Function Name: cmd_sub_init
2461:UartCmd.c     **** *******************************************************************************
2462:UartCmd.c     **** *
2463:UartCmd.c     **** * Summary:
2464:UartCmd.c     **** *   Function for erasing flash and recovering all the configurations.
2465:UartCmd.c     **** *
2466:UartCmd.c     **** * Parameters:
2467:UartCmd.c     **** *   None
2468:UartCmd.c     **** *
2469:UartCmd.c     **** * Return:
2470:UartCmd.c     **** *   uint16_t - Return value indicates whether the function succeeded or failed. 
2471:UartCmd.c     **** *   Following are the possible error codes.
2472:UartCmd.c     **** *   
2473:UartCmd.c     **** *   Errors codes                        Description
2474:UartCmd.c     **** *   ------------                        -----------
2475:UartCmd.c     **** *   RESULT_OK                           No error.
2476:UartCmd.c     **** *   RESULT_ERROR                        Incorrect UART input.
2477:UartCmd.c     **** ******************************************************************************/
2478:UartCmd.c     **** static uint16_t cmd_sub_init(void)
2479:UartCmd.c     **** {
2480:UartCmd.c     ****     /* User inputs more than "init\r\n". */
2481:UartCmd.c     ****     if(data_array[sizeof(cmd_INIT)] != '\0')
2482:UartCmd.c     ****     {
2483:UartCmd.c     ****         return RESULT_ERROR;
2484:UartCmd.c     ****     } 
ARM GAS  C:\Users\ramanatg\AppData\Local\Temp\ccxbhSsV.s 			page 45


2485:UartCmd.c     ****     /* User input is correct, set all the settings to default. */
2486:UartCmd.c     ****     ConfigRW_WriteDefault();
2487:UartCmd.c     ****     /* update GATT database. */
2488:UartCmd.c     ****     EddystoneURL_Config_UpdateAllAttrib();
2489:UartCmd.c     ****     SIMPLE_UART_PUTCONST("-> Restore to default! \r\n");
2490:UartCmd.c     **** 
2491:UartCmd.c     ****     return RESULT_OK;
2492:UartCmd.c     **** }
2493:UartCmd.c     **** 
2494:UartCmd.c     **** /******************************************************************************
2495:UartCmd.c     **** * Function Name: hextobin
2496:UartCmd.c     **** *******************************************************************************
2497:UartCmd.c     **** *
2498:UartCmd.c     **** * Summary:
2499:UartCmd.c     **** *   Check and convert Hexadecimal Alphanumeric characters TO Bytes.
2500:UartCmd.c     **** *
2501:UartCmd.c     **** * Parameters:
2502:UartCmd.c     **** *   dest   - The output address where the converted Bytes are stored.
2503:UartCmd.c     **** *   src    - Pointer to Hexadecimal Alphanumeric characters to be converted.
2504:UartCmd.c     **** *   Nbytes - Count of bytes in dest to be converted.
2505:UartCmd.c     **** *
2506:UartCmd.c     **** * Return:
2507:UartCmd.c     **** *   uint16_t - Return value indicates whether the function succeeded or failed. 
2508:UartCmd.c     **** *   Following are the possible error codes.
2509:UartCmd.c     **** *   
2510:UartCmd.c     **** *   Errors codes                        Description
2511:UartCmd.c     **** *   ------------                        -----------
2512:UartCmd.c     **** *   RESULT_OK                           No error.
2513:UartCmd.c     **** *   RESULT_ERROR                        Incorrect UART input.
2514:UartCmd.c     **** ******************************************************************************/
2515:UartCmd.c     **** static uint16_t hextobin(uint8_t *dest, const uint8_t *src, uint8_t Nbytes)
2516:UartCmd.c     **** {
2517:UartCmd.c     ****     const uint8_t *p;
2518:UartCmd.c     ****     uint32_t i;
2519:UartCmd.c     ****     uint16_t tmp_result;
2520:UartCmd.c     ****     
2521:UartCmd.c     ****     /* Check the input parameters. */
2522:UartCmd.c     ****     if((dest == NULL) || (src == NULL))
2523:UartCmd.c     ****     {
2524:UartCmd.c     ****         return RESULT_ERROR;
2525:UartCmd.c     ****     }
2526:UartCmd.c     ****     
2527:UartCmd.c     ****     p = src;
2528:UartCmd.c     ****     
2529:UartCmd.c     ****     for(i = 0; i < Nbytes; i++, p += SIZE_OF_BYTE_TO_02X)
2530:UartCmd.c     ****     {
2531:UartCmd.c     ****         tmp_result = twoaton(p);
2532:UartCmd.c     ****         /* If the subsequent two characters are not in the range of '0'-'9', 'a'-'f'/'A'-'F'. */
2533:UartCmd.c     ****         if(tmp_result == TWOATON_PARAM_ERROR)
2534:UartCmd.c     ****         {
2535:UartCmd.c     ****             return RESULT_ERROR;
2536:UartCmd.c     ****         }
2537:UartCmd.c     ****         dest[i] = tmp_result;
2538:UartCmd.c     ****     }
2539:UartCmd.c     ****     
2540:UartCmd.c     ****     return RESULT_OK;
2541:UartCmd.c     **** }
ARM GAS  C:\Users\ramanatg\AppData\Local\Temp\ccxbhSsV.s 			page 46


2542:UartCmd.c     **** 
2543:UartCmd.c     **** /******************************************************************************
2544:UartCmd.c     **** * Function Name: twoaton
2545:UartCmd.c     **** *******************************************************************************
2546:UartCmd.c     **** *
2547:UartCmd.c     **** * Summary:
2548:UartCmd.c     **** *   Function for converting two characters in hex format to a number.
2549:UartCmd.c     **** *   For example:    "31" to 0x31(49) and "41" to 0x41(65).
2550:UartCmd.c     **** *
2551:UartCmd.c     **** * Parameters:
2552:UartCmd.c     **** *   p - Pointer to the two characters to be converted.
2553:UartCmd.c     **** *
2554:UartCmd.c     **** * Return:
2555:UartCmd.c     **** *   uint16_t - The converted output, it is from 0x00 to 0xFF. 
2556:UartCmd.c     **** *              If the input parameter is wrong, 0xFFFF is returned.
2557:UartCmd.c     **** *   
2558:UartCmd.c     **** *   Errors codes                        Description
2559:UartCmd.c     **** *   ------------                        -----------
2560:UartCmd.c     **** *   0x0000 - 0x00FF                     No error.
2561:UartCmd.c     **** *   CTON_PARAM_ERROR                    Incorrect parameter.
2562:UartCmd.c     **** ******************************************************************************/
2563:UartCmd.c     **** static uint16_t twoaton(const uint8_t *p)
2564:UartCmd.c     **** {
2565:UartCmd.c     ****     uint8_t upper_nibble;
2566:UartCmd.c     ****     uint8_t lower_nibble;
2567:UartCmd.c     ****     
2568:UartCmd.c     ****     upper_nibble = atox(*p++);
2569:UartCmd.c     ****     lower_nibble = atox(*p);
2570:UartCmd.c     ****     /* If the character is not in '0' and 'f/F'. */
2571:UartCmd.c     ****     if((upper_nibble == ATOX_PARAM_ERROR) || 
2572:UartCmd.c     ****        (lower_nibble == ATOX_PARAM_ERROR))
2573:UartCmd.c     ****     {
2574:UartCmd.c     ****         return TWOATON_PARAM_ERROR;
2575:UartCmd.c     ****     }
2576:UartCmd.c     ****     return (uint16_t)((upper_nibble << NIBBLE_BITS) | lower_nibble);
2577:UartCmd.c     **** }
2578:UartCmd.c     **** 
2579:UartCmd.c     **** /******************************************************************************
2580:UartCmd.c     **** * Function Name: atox
2581:UartCmd.c     **** *******************************************************************************
2582:UartCmd.c     **** *
2583:UartCmd.c     **** * Summary:
2584:UartCmd.c     **** *   Function for converting ASCII to number.
2585:UartCmd.c     **** *
2586:UartCmd.c     **** * Parameters:
2587:UartCmd.c     **** *   data - The ASCII byte to be converted.
2588:UartCmd.c     **** *
2589:UartCmd.c     **** * Return:
2590:UartCmd.c     **** *   uint8_t - The converted output, it is from 0x00 to 0x0F. 
2591:UartCmd.c     **** *             If the input parameter is wrong, 0xFF is returned.
2592:UartCmd.c     **** *   
2593:UartCmd.c     **** *   Errors codes                        Description
2594:UartCmd.c     **** *   ------------                        -----------
2595:UartCmd.c     **** *   0x00 - 0x0F                         No error.
2596:UartCmd.c     **** *   ATOX_PARAM_ERROR                    Incorrect parameter.
2597:UartCmd.c     **** ******************************************************************************/
2598:UartCmd.c     **** static uint8_t atox(uint8_t data)
ARM GAS  C:\Users\ramanatg\AppData\Local\Temp\ccxbhSsV.s 			page 47


2599:UartCmd.c     **** {
  25              		.loc 1 2599 0
  26              		.cfi_startproc
  27              	.LVL0:
2600:UartCmd.c     ****     if((data >= '0') && (data <= '9'))
  28              		.loc 1 2600 0
  29 0000 031C     		mov	r3, r0
  30 0002 303B     		sub	r3, r3, #48
2599:UartCmd.c     ****     if((data >= '0') && (data <= '9'))
  31              		.loc 1 2599 0
  32 0004 021C     		mov	r2, r0
  33              		.loc 1 2600 0
  34 0006 D8B2     		uxtb	r0, r3
  35              	.LVL1:
  36 0008 0928     		cmp	r0, #9
  37 000a 07D9     		bls	.L2
2601:UartCmd.c     ****     {
2602:UartCmd.c     ****         /* 0..9 */
2603:UartCmd.c     ****         return (data - '0');
2604:UartCmd.c     ****     }
2605:UartCmd.c     ****     else if((data >= 'A') && (data <= 'F'))
  38              		.loc 1 2605 0
  39 000c 113B     		sub	r3, r3, #17
  40 000e 052B     		cmp	r3, #5
  41 0010 05D9     		bls	.L6
  42              	.LVL2:
  43              	.LBB4:
  44              	.LBB5:
2606:UartCmd.c     ****     {
2607:UartCmd.c     ****         /* A..F */
2608:UartCmd.c     ****         return (data - 'A' + 0x0A);
2609:UartCmd.c     ****     }
2610:UartCmd.c     ****     else if((data >= 'a') && (data <= 'f'))
  45              		.loc 1 2610 0
  46 0012 131C     		mov	r3, r2
  47 0014 613B     		sub	r3, r3, #97
2611:UartCmd.c     ****     {
2612:UartCmd.c     ****         /* a..f */
2613:UartCmd.c     ****         return (data - 'a' + 0x0A);
2614:UartCmd.c     ****     }
2615:UartCmd.c     ****     else
2616:UartCmd.c     ****     {
2617:UartCmd.c     ****         return ATOX_PARAM_ERROR;    /* return error value. */
  48              		.loc 1 2617 0
  49 0016 FF20     		mov	r0, #255
2610:UartCmd.c     ****     {
  50              		.loc 1 2610 0
  51 0018 052B     		cmp	r3, #5
  52 001a 03D9     		bls	.L7
  53              	.LVL3:
  54              	.L2:
  55              	.LBE5:
  56              	.LBE4:
2618:UartCmd.c     ****     }
2619:UartCmd.c     **** }
  57              		.loc 1 2619 0
  58              		@ sp needed
ARM GAS  C:\Users\ramanatg\AppData\Local\Temp\ccxbhSsV.s 			page 48


  59 001c 7047     		bx	lr
  60              	.L6:
2608:UartCmd.c     ****     }
  61              		.loc 1 2608 0
  62 001e 373A     		sub	r2, r2, #55
  63 0020 D0B2     		uxtb	r0, r2
  64 0022 FBE7     		b	.L2
  65              	.LVL4:
  66              	.L7:
  67              	.LBB7:
  68              	.LBB6:
2613:UartCmd.c     ****     }
  69              		.loc 1 2613 0
  70 0024 573A     		sub	r2, r2, #87
  71              	.LVL5:
  72 0026 D0B2     		uxtb	r0, r2
  73 0028 F8E7     		b	.L2
  74              	.LBE6:
  75              	.LBE7:
  76              		.cfi_endproc
  77              	.LFE64:
  78              		.size	atox, .-atox
  79 002a C046     		.section	.text.UartCmd_ReadLineAppend,"ax",%progbits
  80              		.align	2
  81              		.global	UartCmd_ReadLineAppend
  82              		.code	16
  83              		.thumb_func
  84              		.type	UartCmd_ReadLineAppend, %function
  85              	UartCmd_ReadLineAppend:
  86              	.LFB37:
 140:UartCmd.c     ****     uint8_t index = 0;
  87              		.loc 1 140 0
  88              		.cfi_startproc
  89              	.LVL6:
  90 0000 70B5     		push	{r4, r5, r6, lr}
  91              		.cfi_def_cfa_offset 16
  92              		.cfi_offset 4, -16
  93              		.cfi_offset 5, -12
  94              		.cfi_offset 6, -8
  95              		.cfi_offset 14, -4
 140:UartCmd.c     ****     uint8_t index = 0;
  96              		.loc 1 140 0
  97 0002 041C     		mov	r4, r0
 144:UartCmd.c     ****     {
  98              		.loc 1 144 0
  99 0004 FFF7FEFF 		bl	UART_SpiUartGetRxBufferSize
 100              	.LVL7:
 101 0008 0028     		cmp	r0, #0
 102 000a 29D0     		beq	.L16
 149:UartCmd.c     ****     /* If str is full of data */
 103              		.loc 1 149 0
 104 000c 201C     		mov	r0, r4
 105 000e FFF7FEFF 		bl	strlen
 106              	.LVL8:
 107 0012 C4B2     		uxtb	r4, r0
 108              	.LVL9:
 151:UartCmd.c     ****     {
ARM GAS  C:\Users\ramanatg\AppData\Local\Temp\ccxbhSsV.s 			page 49


 109              		.loc 1 151 0
 110 0014 342C     		cmp	r4, #52
 111 0016 26D8     		bhi	.L22
 160:UartCmd.c     ****         index++;
 112              		.loc 1 160 0
 113 0018 164E     		ldr	r6, .L23
 114 001a 0EE0     		b	.L21
 115              	.L15:
 116 001c 3368     		ldr	r3, [r6]
 117 001e 1D19     		add	r5, r3, r4
 118 0020 FFF7FEFF 		bl	UART_UartGetByte
 119              	.LVL10:
 161:UartCmd.c     **** 
 120              		.loc 1 161 0
 121 0024 0134     		add	r4, r4, #1
 122              	.LVL11:
 160:UartCmd.c     ****         index++;
 123              		.loc 1 160 0
 124 0026 2870     		strb	r0, [r5]
 165:UartCmd.c     ****         {
 125              		.loc 1 165 0
 126 0028 3068     		ldr	r0, [r6]
 161:UartCmd.c     **** 
 127              		.loc 1 161 0
 128 002a E4B2     		uxtb	r4, r4
 129              	.LVL12:
 165:UartCmd.c     ****         {
 130              		.loc 1 165 0
 131 002c 0319     		add	r3, r0, r4
 132 002e 013B     		sub	r3, r3, #1
 133 0030 1B78     		ldrb	r3, [r3]
 134 0032 0A2B     		cmp	r3, #10
 135 0034 07D0     		beq	.L13
 165:UartCmd.c     ****         {
 136              		.loc 1 165 0 is_stmt 0 discriminator 1
 137 0036 352C     		cmp	r4, #53
 138 0038 05D0     		beq	.L13
 139              	.L21:
 158:UartCmd.c     ****     {
 140              		.loc 1 158 0 is_stmt 1
 141 003a FFF7FEFF 		bl	UART_SpiUartGetRxBufferSize
 142              	.LVL13:
 143 003e 0028     		cmp	r0, #0
 144 0040 ECD1     		bne	.L15
 177:UartCmd.c     **** }
 145              		.loc 1 177 0
 146 0042 0138     		sub	r0, r0, #1
 147 0044 0BE0     		b	.L9
 148              	.L13:
 167:UartCmd.c     ****             
 149              		.loc 1 167 0
 150 0046 0023     		mov	r3, #0
 151 0048 0355     		strb	r3, [r0, r4]
 169:UartCmd.c     ****             while(SIMPLE_UART_GET_TX_BUFFSIZE() > 0); /* wait until tx fifo is empty. */
 152              		.loc 1 169 0
 153 004a FFF7FEFF 		bl	UART_UartPutString
 154              	.LVL14:
ARM GAS  C:\Users\ramanatg\AppData\Local\Temp\ccxbhSsV.s 			page 50


 155              	.L12:
 156              	.LBB10:
 157              	.LBB11:
 170:UartCmd.c     ****             CyDelay(UART_BYTE_TX_TIME_MS);            /* wait until the last byte is transferred. *
 158              		.loc 1 170 0
 159 004e FFF7FEFF 		bl	UART_SpiUartGetTxBufferSize
 160              	.LVL15:
 161 0052 0028     		cmp	r0, #0
 162 0054 FBD1     		bne	.L12
 171:UartCmd.c     ****             
 163              		.loc 1 171 0
 164 0056 0130     		add	r0, r0, #1
 165 0058 FFF7FEFF 		bl	CyDelay
 166              	.LVL16:
 167 005c FF20     		mov	r0, #255
 168              	.LVL17:
 169              	.L9:
 170              	.LBE11:
 171              	.LBE10:
 178:UartCmd.c     **** 
 172              		.loc 1 178 0
 173              		@ sp needed
 174 005e 70BD     		pop	{r4, r5, r6, pc}
 175              	.LVL18:
 176              	.L16:
 146:UartCmd.c     ****     }
 177              		.loc 1 146 0
 178 0060 0220     		mov	r0, #2
 179 0062 4042     		neg	r0, r0
 180 0064 FBE7     		b	.L9
 181              	.LVL19:
 182              	.L22:
 153:UartCmd.c     ****         return RESULT_INVALID_PARAMETER;
 183              		.loc 1 153 0
 184 0066 0448     		ldr	r0, .L23+4
 185 0068 FFF7FEFF 		bl	UART_UartPutString
 186              	.LVL20:
 154:UartCmd.c     ****     }
 187              		.loc 1 154 0
 188 006c 0320     		mov	r0, #3
 189 006e 4042     		neg	r0, r0
 190 0070 F5E7     		b	.L9
 191              	.L24:
 192 0072 C046     		.align	2
 193              	.L23:
 194 0074 00000000 		.word	.LANCHOR0
 195 0078 00000000 		.word	.LC44
 196              		.cfi_endproc
 197              	.LFE37:
 198              		.size	UartCmd_ReadLineAppend, .-UartCmd_ReadLineAppend
 199              		.section	.text.UartCmd_Init,"ax",%progbits
 200              		.align	2
 201              		.global	UartCmd_Init
 202              		.code	16
 203              		.thumb_func
 204              		.type	UartCmd_Init, %function
 205              	UartCmd_Init:
ARM GAS  C:\Users\ramanatg\AppData\Local\Temp\ccxbhSsV.s 			page 51


 206              	.LFB38:
 200:UartCmd.c     ****     SIMPLE_UART_START();
 207              		.loc 1 200 0
 208              		.cfi_startproc
 209              	.LVL21:
 210 0000 10B5     		push	{r4, lr}
 211              		.cfi_def_cfa_offset 8
 212              		.cfi_offset 4, -8
 213              		.cfi_offset 14, -4
 200:UartCmd.c     ****     SIMPLE_UART_START();
 214              		.loc 1 200 0
 215 0002 041C     		mov	r4, r0
 201:UartCmd.c     ****     
 216              		.loc 1 201 0
 217 0004 FFF7FEFF 		bl	UART_Start
 218              	.LVL22:
 203:UartCmd.c     **** #if (!I2C_SENSOR_ENABLE)
 219              		.loc 1 203 0
 220 0008 0848     		ldr	r0, .L28
 221 000a FFF7FEFF 		bl	UART_UartPutString
 222              	.LVL23:
 207:UartCmd.c     ****     {
 223              		.loc 1 207 0
 224 000e 002C     		cmp	r4, #0
 225 0010 08D0     		beq	.L27
 209:UartCmd.c     ****         memset(data_array, 0, UART_MAX_DATA_LEN);
 226              		.loc 1 209 0
 227 0012 074B     		ldr	r3, .L28+4
 210:UartCmd.c     ****         return RESULT_OK;
 228              		.loc 1 210 0
 229 0014 201C     		mov	r0, r4
 230 0016 0021     		mov	r1, #0
 231 0018 3622     		mov	r2, #54
 209:UartCmd.c     ****         memset(data_array, 0, UART_MAX_DATA_LEN);
 232              		.loc 1 209 0
 233 001a 1C60     		str	r4, [r3]
 210:UartCmd.c     ****         return RESULT_OK;
 234              		.loc 1 210 0
 235 001c FFF7FEFF 		bl	memset
 236              	.LVL24:
 211:UartCmd.c     ****     }
 237              		.loc 1 211 0
 238 0020 0020     		mov	r0, #0
 239              	.L26:
 217:UartCmd.c     **** 
 240              		.loc 1 217 0
 241              		@ sp needed
 242              	.LVL25:
 243 0022 10BD     		pop	{r4, pc}
 244              	.LVL26:
 245              	.L27:
 215:UartCmd.c     ****     }
 246              		.loc 1 215 0
 247 0024 0320     		mov	r0, #3
 248 0026 4042     		neg	r0, r0
 249 0028 FBE7     		b	.L26
 250              	.L29:
ARM GAS  C:\Users\ramanatg\AppData\Local\Temp\ccxbhSsV.s 			page 52


 251 002a C046     		.align	2
 252              	.L28:
 253 002c 28000000 		.word	.LC47
 254 0030 00000000 		.word	.LANCHOR0
 255              		.cfi_endproc
 256              	.LFE38:
 257              		.size	UartCmd_Init, .-UartCmd_Init
 258              		.section	.text.UartCmd_ProcessInput,"ax",%progbits
 259              		.align	2
 260              		.global	UartCmd_ProcessInput
 261              		.code	16
 262              		.thumb_func
 263              		.type	UartCmd_ProcessInput, %function
 264              	UartCmd_ProcessInput:
 265              	.LFB39:
 242:UartCmd.c     ****     uint16_t result = RESULT_ERROR;
 266              		.loc 1 242 0
 267              		.cfi_startproc
 268              	.LVL27:
 269 0000 F0B5     		push	{r4, r5, r6, r7, lr}
 270              		.cfi_def_cfa_offset 20
 271              		.cfi_offset 4, -20
 272              		.cfi_offset 5, -16
 273              		.cfi_offset 6, -12
 274              		.cfi_offset 7, -8
 275              		.cfi_offset 14, -4
 276 0002 4D46     		mov	r5, r9
 277 0004 4446     		mov	r4, r8
 278 0006 5F46     		mov	r7, fp
 279 0008 5646     		mov	r6, r10
 280 000a F0B4     		push	{r4, r5, r6, r7}
 281              		.cfi_def_cfa_offset 36
 282              		.cfi_offset 8, -36
 283              		.cfi_offset 9, -32
 284              		.cfi_offset 10, -28
 285              		.cfi_offset 11, -24
 248:UartCmd.c     ****     {
 286              		.loc 1 248 0
 287 000c D24C     		ldr	r4, .L627
 242:UartCmd.c     ****     uint16_t result = RESULT_ERROR;
 288              		.loc 1 242 0
 289 000e B7B0     		sub	sp, sp, #220
 290              		.cfi_def_cfa_offset 256
 248:UartCmd.c     ****     {
 291              		.loc 1 248 0
 292 0010 2568     		ldr	r5, [r4]
 293              	.LVL28:
 294              	.LBB130:
 295              	.LBB131:
 144:UartCmd.c     ****     {
 296              		.loc 1 144 0
 297 0012 FFF7FEFF 		bl	UART_SpiUartGetRxBufferSize
 298              	.LVL29:
 299 0016 0028     		cmp	r0, #0
 300 0018 19D0     		beq	.L544
 149:UartCmd.c     ****     /* If str is full of data */
 301              		.loc 1 149 0
ARM GAS  C:\Users\ramanatg\AppData\Local\Temp\ccxbhSsV.s 			page 53


 302 001a 281C     		mov	r0, r5
 303 001c FFF7FEFF 		bl	strlen
 304              	.LVL30:
 305 0020 C5B2     		uxtb	r5, r0
 306              	.LVL31:
 151:UartCmd.c     ****     {
 307              		.loc 1 151 0
 308 0022 342D     		cmp	r5, #52
 309 0024 0FD9     		bls	.L471
 310 0026 4CE1     		b	.L552
 311              	.L39:
 160:UartCmd.c     ****         index++;
 312              		.loc 1 160 0
 313 0028 2368     		ldr	r3, [r4]
 314 002a 5E19     		add	r6, r3, r5
 315 002c FFF7FEFF 		bl	UART_UartGetByte
 316              	.LVL32:
 161:UartCmd.c     **** 
 317              		.loc 1 161 0
 318 0030 0135     		add	r5, r5, #1
 319              	.LVL33:
 160:UartCmd.c     ****         index++;
 320              		.loc 1 160 0
 321 0032 3070     		strb	r0, [r6]
 165:UartCmd.c     ****         {
 322              		.loc 1 165 0
 323 0034 2068     		ldr	r0, [r4]
 161:UartCmd.c     **** 
 324              		.loc 1 161 0
 325 0036 EDB2     		uxtb	r5, r5
 326              	.LVL34:
 165:UartCmd.c     ****         {
 327              		.loc 1 165 0
 328 0038 4319     		add	r3, r0, r5
 329 003a 013B     		sub	r3, r3, #1
 330 003c 1B78     		ldrb	r3, [r3]
 331 003e 0A2B     		cmp	r3, #10
 332 0040 0ED0     		beq	.L34
 333 0042 352D     		cmp	r5, #53
 334 0044 0CD0     		beq	.L34
 335              	.L471:
 158:UartCmd.c     ****     {
 336              		.loc 1 158 0
 337 0046 FFF7FEFF 		bl	UART_SpiUartGetRxBufferSize
 338              	.LVL35:
 339 004a 0028     		cmp	r0, #0
 340 004c ECD1     		bne	.L39
 341              	.LVL36:
 342              	.L544:
 343              	.LBE131:
 344              	.LBE130:
 487:UartCmd.c     ****     {
 345              		.loc 1 487 0
 346 004e 0024     		mov	r4, #0
 347              	.L441:
 497:UartCmd.c     **** 
 348              		.loc 1 497 0
ARM GAS  C:\Users\ramanatg\AppData\Local\Temp\ccxbhSsV.s 			page 54


 349 0050 201C     		mov	r0, r4
 350 0052 37B0     		add	sp, sp, #220
 351              		@ sp needed
 352 0054 3CBC     		pop	{r2, r3, r4, r5}
 353 0056 9046     		mov	r8, r2
 354 0058 9946     		mov	r9, r3
 355 005a A246     		mov	r10, r4
 356 005c AB46     		mov	fp, r5
 357 005e F0BD     		pop	{r4, r5, r6, r7, pc}
 358              	.LVL37:
 359              	.L34:
 360              	.LBB136:
 361              	.LBB134:
 167:UartCmd.c     ****             
 362              		.loc 1 167 0
 363 0060 0023     		mov	r3, #0
 364 0062 4355     		strb	r3, [r0, r5]
 169:UartCmd.c     ****             while(SIMPLE_UART_GET_TX_BUFFSIZE() > 0); /* wait until tx fifo is empty. */
 365              		.loc 1 169 0
 366 0064 FFF7FEFF 		bl	UART_UartPutString
 367              	.LVL38:
 368              	.L36:
 369              	.LBB132:
 370              	.LBB133:
 170:UartCmd.c     ****             CyDelay(UART_BYTE_TX_TIME_MS);            /* wait until the last byte is transferred. *
 371              		.loc 1 170 0
 372 0068 FFF7FEFF 		bl	UART_SpiUartGetTxBufferSize
 373              	.LVL39:
 374 006c 0028     		cmp	r0, #0
 375 006e FBD1     		bne	.L36
 376 0070 061C     		mov	r6, r0
 171:UartCmd.c     ****             
 377              		.loc 1 171 0
 378 0072 0130     		add	r0, r0, #1
 379 0074 FFF7FEFF 		bl	CyDelay
 380              	.LVL40:
 381              	.LBE133:
 382              	.LBE132:
 383              	.LBE134:
 384              	.LBE136:
 253:UartCmd.c     ****     /* If data_array do not end with '\r\n', it's not the format we expect to receive. */
 385              		.loc 1 253 0
 386 0078 2768     		ldr	r7, [r4]
 387 007a 381C     		mov	r0, r7
 388 007c FFF7FEFF 		bl	strlen
 389              	.LVL41:
 255:UartCmd.c     ****        (data_array[data_length - 1] == '\n')    )
 390              		.loc 1 255 0
 391 0080 FF23     		mov	r3, #255
 392 0082 1840     		and	r0, r3
 393              	.LVL42:
 394 0084 831E     		sub	r3, r0, #2
 395 0086 FB18     		add	r3, r7, r3
 396 0088 1A78     		ldrb	r2, [r3]
 397 008a 0D2A     		cmp	r2, #13
 398 008c 09D0     		beq	.L553
 399              	.LVL43:
ARM GAS  C:\Users\ramanatg\AppData\Local\Temp\ccxbhSsV.s 			page 55


 400              	.L38:
 484:UartCmd.c     ****     
 401              		.loc 1 484 0
 402 008e 381C     		mov	r0, r7
 403 0090 0021     		mov	r1, #0
 404 0092 3622     		mov	r2, #54
 405 0094 FFF7FEFF 		bl	memset
 406              	.LVL44:
 407              	.L291:
 489:UartCmd.c     ****     }
 408              		.loc 1 489 0
 409 0098 B048     		ldr	r0, .L627+4
 410 009a FFF7FEFF 		bl	UART_UartPutString
 411              	.LVL45:
 412 009e 0124     		mov	r4, #1
 413 00a0 D6E7     		b	.L441
 414              	.LVL46:
 415              	.L553:
 256:UartCmd.c     ****     {
 416              		.loc 1 256 0 discriminator 1
 417 00a2 0138     		sub	r0, r0, #1
 418 00a4 3818     		add	r0, r7, r0
 255:UartCmd.c     ****        (data_array[data_length - 1] == '\n')    )
 419              		.loc 1 255 0 discriminator 1
 420 00a6 0278     		ldrb	r2, [r0]
 421 00a8 0A2A     		cmp	r2, #10
 422 00aa F0D1     		bne	.L38
 262:UartCmd.c     ****         cmd_tmp_upr[CMD_CHARS_COUNT_MAX] = '\0';
 423              		.loc 1 262 0
 424 00ac 07AD     		add	r5, sp, #28
 425              	.LVL47:
 259:UartCmd.c     ****         data_array[data_length - 1] = '\0';
 426              		.loc 1 259 0
 427 00ae 1E70     		strb	r6, [r3]
 262:UartCmd.c     ****         cmd_tmp_upr[CMD_CHARS_COUNT_MAX] = '\0';
 428              		.loc 1 262 0
 429 00b0 391C     		mov	r1, r7
 430 00b2 023A     		sub	r2, r2, #2
 260:UartCmd.c     ****         
 431              		.loc 1 260 0
 432 00b4 0670     		strb	r6, [r0]
 262:UartCmd.c     ****         cmd_tmp_upr[CMD_CHARS_COUNT_MAX] = '\0';
 433              		.loc 1 262 0
 434 00b6 281C     		mov	r0, r5
 435 00b8 FFF7FEFF 		bl	memcpy
 436              	.LVL48:
 264:UartCmd.c     ****         
 437              		.loc 1 264 0
 438 00bc 281C     		mov	r0, r5
 263:UartCmd.c     ****         strupr((char *)cmd_tmp_upr);
 439              		.loc 1 263 0
 440 00be 2E72     		strb	r6, [r5, #8]
 264:UartCmd.c     ****         
 441              		.loc 1 264 0
 442 00c0 FFF7FEFF 		bl	strupr
 443              	.LVL49:
 267:UartCmd.c     ****         {
ARM GAS  C:\Users\ramanatg\AppData\Local\Temp\ccxbhSsV.s 			page 56


 444              		.loc 1 267 0
 445 00c4 A64F     		ldr	r7, .L627+8
 446 00c6 291C     		mov	r1, r5
 447 00c8 381C     		mov	r0, r7
 448 00ca 0522     		mov	r2, #5
 449 00cc FFF7FEFF 		bl	memcmp
 450              	.LVL50:
 451 00d0 8046     		mov	r8, r0
 452 00d2 0028     		cmp	r0, #0
 453 00d4 00D1     		bne	.LCB409
 454 00d6 F8E0     		b	.L554	@long jump
 455              	.LCB409:
 272:UartCmd.c     ****         {
 456              		.loc 1 272 0
 457 00d8 381C     		mov	r0, r7
 458 00da 291C     		mov	r1, r5
 459 00dc 5430     		add	r0, r0, #84
 460 00de 0422     		mov	r2, #4
 461 00e0 FFF7FEFF 		bl	memcmp
 462              	.LVL51:
 463 00e4 0028     		cmp	r0, #0
 464 00e6 00D1     		bne	.LCB417
 465 00e8 1FE1     		b	.L555	@long jump
 466              	.LCB417:
 277:UartCmd.c     ****         {
 467              		.loc 1 277 0
 468 00ea 381C     		mov	r0, r7
 469 00ec 291C     		mov	r1, r5
 470 00ee 5830     		add	r0, r0, #88
 471 00f0 0522     		mov	r2, #5
 472 00f2 FFF7FEFF 		bl	memcmp
 473              	.LVL52:
 474 00f6 0028     		cmp	r0, #0
 475 00f8 00D1     		bne	.LCB425
 476 00fa 6BE1     		b	.L556	@long jump
 477              	.LCB425:
 282:UartCmd.c     ****         {
 478              		.loc 1 282 0
 479 00fc 381C     		mov	r0, r7
 480 00fe 291C     		mov	r1, r5
 481 0100 6030     		add	r0, r0, #96
 482 0102 0522     		mov	r2, #5
 483 0104 FFF7FEFF 		bl	memcmp
 484              	.LVL53:
 485 0108 0028     		cmp	r0, #0
 486 010a 00D1     		bne	.LCB433
 487 010c CBE1     		b	.L557	@long jump
 488              	.LCB433:
 287:UartCmd.c     ****         {
 489              		.loc 1 287 0
 490 010e 381C     		mov	r0, r7
 491 0110 291C     		mov	r1, r5
 492 0112 6830     		add	r0, r0, #104
 493 0114 0522     		mov	r2, #5
 494 0116 FFF7FEFF 		bl	memcmp
 495              	.LVL54:
 496 011a 0028     		cmp	r0, #0
ARM GAS  C:\Users\ramanatg\AppData\Local\Temp\ccxbhSsV.s 			page 57


 497 011c 00D1     		bne	.LCB441
 498 011e 5AE2     		b	.L558	@long jump
 499              	.LCB441:
 292:UartCmd.c     ****         {
 500              		.loc 1 292 0
 501 0120 381C     		mov	r0, r7
 502 0122 291C     		mov	r1, r5
 503 0124 7030     		add	r0, r0, #112
 504 0126 0522     		mov	r2, #5
 505 0128 FFF7FEFF 		bl	memcmp
 506              	.LVL55:
 507 012c 0028     		cmp	r0, #0
 508 012e 00D1     		bne	.LCB449
 509 0130 08E2     		b	.L559	@long jump
 510              	.LCB449:
 297:UartCmd.c     ****         {
 511              		.loc 1 297 0
 512 0132 381C     		mov	r0, r7
 513 0134 291C     		mov	r1, r5
 514 0136 7830     		add	r0, r0, #120
 515 0138 0522     		mov	r2, #5
 516 013a FFF7FEFF 		bl	memcmp
 517              	.LVL56:
 518 013e 0028     		cmp	r0, #0
 519 0140 01D1     		bne	.LCB457
 520 0142 00F06AFF 		bl	.L560	@far jump
 521              	.LCB457:
 302:UartCmd.c     ****         {
 522              		.loc 1 302 0
 523 0146 874F     		ldr	r7, .L627+12
 524 0148 291C     		mov	r1, r5
 525 014a 381C     		mov	r0, r7
 526 014c 0722     		mov	r2, #7
 527 014e FFF7FEFF 		bl	memcmp
 528              	.LVL57:
 529 0152 0028     		cmp	r0, #0
 530 0154 01D1     		bne	.LCB465
 531 0156 00F018FE 		bl	.L561	@far jump
 532              	.LCB465:
 307:UartCmd.c     ****         {
 533              		.loc 1 307 0
 534 015a 381C     		mov	r0, r7
 535 015c 291C     		mov	r1, r5
 536 015e 0830     		add	r0, r0, #8
 537 0160 0522     		mov	r2, #5
 538 0162 FFF7FEFF 		bl	memcmp
 539              	.LVL58:
 540 0166 0028     		cmp	r0, #0
 541 0168 01D1     		bne	.LCB473
 542 016a 01F059FB 		bl	.L562	@far jump
 543              	.LCB473:
 312:UartCmd.c     ****         {
 544              		.loc 1 312 0
 545 016e 381C     		mov	r0, r7
 546 0170 291C     		mov	r1, r5
 547 0172 1030     		add	r0, r0, #16
 548 0174 0722     		mov	r2, #7
ARM GAS  C:\Users\ramanatg\AppData\Local\Temp\ccxbhSsV.s 			page 58


 549 0176 FFF7FEFF 		bl	memcmp
 550              	.LVL59:
 551 017a 0028     		cmp	r0, #0
 552 017c 01D1     		bne	.LCB481
 553 017e 01F0AFFA 		bl	.L563	@far jump
 554              	.LCB481:
 317:UartCmd.c     ****         {
 555              		.loc 1 317 0
 556 0182 381C     		mov	r0, r7
 557 0184 291C     		mov	r1, r5
 558 0186 2030     		add	r0, r0, #32
 559 0188 0722     		mov	r2, #7
 560 018a FFF7FEFF 		bl	memcmp
 561              	.LVL60:
 562 018e 0028     		cmp	r0, #0
 563 0190 01D1     		bne	.LCB489
 564 0192 00F063FC 		bl	.L564	@far jump
 565              	.LCB489:
 322:UartCmd.c     ****         {
 566              		.loc 1 322 0
 567 0196 381C     		mov	r0, r7
 568 0198 291C     		mov	r1, r5
 569 019a 2830     		add	r0, r0, #40
 570 019c 0822     		mov	r2, #8
 571 019e FFF7FEFF 		bl	memcmp
 572              	.LVL61:
 573 01a2 8046     		mov	r8, r0
 574 01a4 0028     		cmp	r0, #0
 575 01a6 01D1     		bne	.LCB498
 576 01a8 00F060FE 		bl	.L565	@far jump
 577              	.LCB498:
 327:UartCmd.c     ****         {
 578              		.loc 1 327 0
 579 01ac 381C     		mov	r0, r7
 580 01ae 291C     		mov	r1, r5
 581 01b0 4030     		add	r0, r0, #64
 582 01b2 0722     		mov	r2, #7
 583 01b4 FFF7FEFF 		bl	memcmp
 584              	.LVL62:
 585 01b8 0028     		cmp	r0, #0
 586 01ba 01D1     		bne	.LCB506
 587 01bc 01F032FA 		bl	.L566	@far jump
 588              	.LCB506:
 332:UartCmd.c     ****         {
 589              		.loc 1 332 0
 590 01c0 381C     		mov	r0, r7
 591 01c2 291C     		mov	r1, r5
 592 01c4 4830     		add	r0, r0, #72
 593 01c6 0422     		mov	r2, #4
 594 01c8 FFF7FEFF 		bl	memcmp
 595              	.LVL63:
 596 01cc 061E     		sub	r6, r0, #0
 597 01ce 01D1     		bne	.LCB515
 598 01d0 01F0CEF9 		bl	.L567	@far jump
 599              	.LCB515:
 337:UartCmd.c     ****         {
 600              		.loc 1 337 0
ARM GAS  C:\Users\ramanatg\AppData\Local\Temp\ccxbhSsV.s 			page 59


 601 01d4 381C     		mov	r0, r7
 602 01d6 291C     		mov	r1, r5
 603 01d8 4C30     		add	r0, r0, #76
 604 01da 0422     		mov	r2, #4
 605 01dc FFF7FEFF 		bl	memcmp
 606              	.LVL64:
 607 01e0 0028     		cmp	r0, #0
 608 01e2 01D1     		bne	.LCB523
 609 01e4 00F045FD 		bl	.L568	@far jump
 610              	.LCB523:
 342:UartCmd.c     ****         {
 611              		.loc 1 342 0
 612 01e8 381C     		mov	r0, r7
 613 01ea 291C     		mov	r1, r5
 614 01ec 5030     		add	r0, r0, #80
 615 01ee 0422     		mov	r2, #4
 616 01f0 FFF7FEFF 		bl	memcmp
 617              	.LVL65:
 618 01f4 0028     		cmp	r0, #0
 619 01f6 01D0     		beq	.LCB531
 620 01f8 00F01EFD 		bl	.L223	@far jump
 621              	.LCB531:
 345:UartCmd.c     ****             {
 622              		.loc 1 345 0
 623 01fc 2768     		ldr	r7, [r4]
 624 01fe 3B79     		ldrb	r3, [r7, #4]
 625 0200 002B     		cmp	r3, #0
 626 0202 00D0     		beq	.LCB535
 627 0204 43E7     		b	.L38	@long jump
 628              	.LCB535:
 348:UartCmd.c     ****                                      "Set uuid, input:uuid xxxxxxxx-xxxx-xxxx-xxxx-xxxxxxxxxxxx+Ent
 629              		.loc 1 348 0
 630 0206 5848     		ldr	r0, .L627+16
 631 0208 FFF7FEFF 		bl	UART_UartPutString
 632              	.LVL66:
 350:UartCmd.c     ****                                      "Set major, input:major xxxx+Enter\r\n");
 633              		.loc 1 350 0
 634 020c 5748     		ldr	r0, .L627+20
 635 020e FFF7FEFF 		bl	UART_UartPutString
 636              	.LVL67:
 352:UartCmd.c     ****                                      "Set minor, input:minor xxxx+Enter\r\n");
 637              		.loc 1 352 0
 638 0212 5748     		ldr	r0, .L627+24
 639 0214 FFF7FEFF 		bl	UART_UartPutString
 640              	.LVL68:
 354:UartCmd.c     ****                                      "Set txpwr, input:txpwr *+Enter\r\n");
 641              		.loc 1 354 0
 642 0218 5648     		ldr	r0, .L627+28
 643 021a FFF7FEFF 		bl	UART_UartPutString
 644              	.LVL69:
 356:UartCmd.c     ****                                      "Set rssi, input:rssi *+Enter\r\n");
 645              		.loc 1 356 0
 646 021e 5648     		ldr	r0, .L627+32
 647 0220 FFF7FEFF 		bl	UART_UartPutString
 648              	.LVL70:
 358:UartCmd.c     ****                                      "Set itrvl, input:itrvl *+Enter\r\n");
 649              		.loc 1 358 0
ARM GAS  C:\Users\ramanatg\AppData\Local\Temp\ccxbhSsV.s 			page 60


 650 0224 5548     		ldr	r0, .L627+36
 651 0226 FFF7FEFF 		bl	UART_UartPutString
 652              	.LVL71:
 360:UartCmd.c     ****                                      "Set coid, input:coid xxxx+Enter\r\n");
 653              		.loc 1 360 0
 654 022a 5548     		ldr	r0, .L627+40
 655 022c FFF7FEFF 		bl	UART_UartPutString
 656              	.LVL72:
 362:UartCmd.c     ****                 /* Eddystone commands */
 657              		.loc 1 362 0
 658 0230 544D     		ldr	r5, .L627+44
 659 0232 281C     		mov	r0, r5
 660 0234 FFF7FEFF 		bl	UART_UartPutString
 661              	.LVL73:
 364:UartCmd.c     ****                                      "Set nid, input: ednid x...x(20 char)+Enter\r\n");
 662              		.loc 1 364 0
 663 0238 5348     		ldr	r0, .L627+48
 664 023a FFF7FEFF 		bl	UART_UartPutString
 665              	.LVL74:
 366:UartCmd.c     ****                                      "Set bid, input: edbid x...x(12 char)+Enter\r\n");
 666              		.loc 1 366 0
 667 023e 5348     		ldr	r0, .L627+52
 668 0240 FFF7FEFF 		bl	UART_UartPutString
 669              	.LVL75:
 368:UartCmd.c     ****                                      "Set edtxpwr, input:edtxpwr * * * *+Enter\r\n");
 670              		.loc 1 368 0
 671 0244 5248     		ldr	r0, .L627+56
 672 0246 FFF7FEFF 		bl	UART_UartPutString
 673              	.LVL76:
 370:UartCmd.c     ****                                      "Set edframe, input:edframe + one or some of uid/url/tlm+Enter
 674              		.loc 1 370 0
 675 024a 5248     		ldr	r0, .L627+60
 676 024c FFF7FEFF 		bl	UART_UartPutString
 677              	.LVL77:
 372:UartCmd.c     ****                 SIMPLE_UART_PUTCONST("Set edlock, input: edlock xxxxxxxx-xxxx-xxxx-xxxx-xxxxxxxxxxx
 678              		.loc 1 372 0
 679 0250 5148     		ldr	r0, .L627+64
 680 0252 FFF7FEFF 		bl	UART_UartPutString
 681              	.LVL78:
 373:UartCmd.c     ****                 SIMPLE_UART_PUTCONST("Set edunlock, input: edunlock xxxxxxxx-xxxx-xxxx-xxxx-xxxxxxx
 682              		.loc 1 373 0
 683 0256 5148     		ldr	r0, .L627+68
 684 0258 FFF7FEFF 		bl	UART_UartPutString
 685              	.LVL79:
 374:UartCmd.c     ****                 SIMPLE_UART_PUTCONST("Get eduri, input:eduri+Enter\r\n"
 686              		.loc 1 374 0
 687 025c 5048     		ldr	r0, .L627+72
 688 025e FFF7FEFF 		bl	UART_UartPutString
 689              	.LVL80:
 375:UartCmd.c     ****                                      "Set eduri, input:eduri (url or hex string)+Enter\r\n");
 690              		.loc 1 375 0
 691 0262 5048     		ldr	r0, .L627+76
 692 0264 FFF7FEFF 		bl	UART_UartPutString
 693              	.LVL81:
 377:UartCmd.c     ****                                      "Set edadpwr, input:edadpwr * * * *+Enter\r\n");
 694              		.loc 1 377 0
 695 0268 4F48     		ldr	r0, .L627+80
ARM GAS  C:\Users\ramanatg\AppData\Local\Temp\ccxbhSsV.s 			page 61


 696 026a FFF7FEFF 		bl	UART_UartPutString
 697              	.LVL82:
 379:UartCmd.c     ****                                      "Set edtxmode, input:edtxmode LOWEST/LOW/MEDIUM/HIGH+Enter\r\n
 698              		.loc 1 379 0
 699 026e 4F48     		ldr	r0, .L627+84
 700 0270 FFF7FEFF 		bl	UART_UartPutString
 701              	.LVL83:
 381:UartCmd.c     ****                                      "Set editrvl, input:editrvl *+Enter\r\n");
 702              		.loc 1 381 0
 703 0274 4E48     		ldr	r0, .L627+88
 704 0276 FFF7FEFF 		bl	UART_UartPutString
 705              	.LVL84:
 383:UartCmd.c     ****                 SIMPLE_UART_PUTCONST("\r\n");
 706              		.loc 1 383 0
 707 027a 4E48     		ldr	r0, .L627+92
 708 027c FFF7FEFF 		bl	UART_UartPutString
 709              	.LVL85:
 384:UartCmd.c     ****                 /* Common commands */
 710              		.loc 1 384 0
 711 0280 281C     		mov	r0, r5
 712 0282 FFF7FEFF 		bl	UART_UartPutString
 713              	.LVL86:
 386:UartCmd.c     ****                                      "Set sensor, input:sensor on/off+Enter\r\n");
 714              		.loc 1 386 0
 715 0286 4C48     		ldr	r0, .L627+96
 716 0288 FFF7FEFF 		bl	UART_UartPutString
 717              	.LVL87:
 388:UartCmd.c     ****                                      "Set mode,input: mode BLEBeacon/Eddystone/EDTest+Enter\r\n");
 718              		.loc 1 388 0
 719 028c 4B48     		ldr	r0, .L627+100
 720 028e FFF7FEFF 		bl	UART_UartPutString
 721              	.LVL88:
 390:UartCmd.c     ****                 SIMPLE_UART_PUTCONST("Get ver, input: ver+Enter\r\n");
 722              		.loc 1 390 0
 723 0292 4B48     		ldr	r0, .L627+104
 724 0294 FFF7FEFF 		bl	UART_UartPutString
 725              	.LVL89:
 391:UartCmd.c     ****                 SIMPLE_UART_PUTCONST("Exit, input: exit+Enter\r\n");
 726              		.loc 1 391 0
 727 0298 4A48     		ldr	r0, .L627+108
 728 029a FFF7FEFF 		bl	UART_UartPutString
 729              	.LVL90:
 392:UartCmd.c     ****                 
 730              		.loc 1 392 0
 731 029e 4A48     		ldr	r0, .L627+112
 732 02a0 FFF7FEFF 		bl	UART_UartPutString
 733              	.LVL91:
 394:UartCmd.c     ****             }
 734              		.loc 1 394 0
 735 02a4 0025     		mov	r5, #0
 736 02a6 2768     		ldr	r7, [r4]
 737 02a8 0024     		mov	r4, #0
 738              	.LVL92:
 739              	.L208:
 484:UartCmd.c     ****     
 740              		.loc 1 484 0
 741 02aa 381C     		mov	r0, r7
ARM GAS  C:\Users\ramanatg\AppData\Local\Temp\ccxbhSsV.s 			page 62


 742 02ac 0021     		mov	r1, #0
 743 02ae 3622     		mov	r2, #54
 744 02b0 FFF7FEFF 		bl	memset
 745              	.LVL93:
 746              	.L290:
 491:UartCmd.c     ****     {
 747              		.loc 1 491 0
 748 02b4 022D     		cmp	r5, #2
 749 02b6 00D0     		beq	.LCB633
 750 02b8 CAE6     		b	.L441	@long jump
 751              	.LCB633:
 493:UartCmd.c     ****     }
 752              		.loc 1 493 0
 753 02ba 4448     		ldr	r0, .L627+116
 754 02bc FFF7FEFF 		bl	UART_UartPutString
 755              	.LVL94:
 496:UartCmd.c     **** }
 756              		.loc 1 496 0
 757 02c0 C6E6     		b	.L441
 758              	.LVL95:
 759              	.L552:
 760              	.LBB137:
 761              	.LBB135:
 153:UartCmd.c     ****         return RESULT_INVALID_PARAMETER;
 762              		.loc 1 153 0
 763 02c2 4348     		ldr	r0, .L627+120
 764 02c4 FFF7FEFF 		bl	UART_UartPutString
 765              	.LVL96:
 766 02c8 C1E6     		b	.L544
 767              	.LVL97:
 768              	.L554:
 769              	.LBE135:
 770              	.LBE137:
 771              	.LBB138:
 772              	.LBB139:
 761:UartCmd.c     ****     /* Used to translate uri. */
 773              		.loc 1 761 0
 774 02ca 391C     		mov	r1, r7
 775 02cc 0422     		mov	r2, #4
 776 02ce 0831     		add	r1, r1, #8
 777 02d0 06A8     		add	r0, sp, #24
 778 02d2 FFF7FEFF 		bl	memcpy
 779              	.LVL98:
 763:UartCmd.c     ****     const char *url_SUFFIX[] = {".com/", ".org/", ".edu/", ".net/", ".info/", ".biz/", ".gov/",
 780              		.loc 1 763 0
 781 02d6 0DAE     		add	r6, sp, #52
 782 02d8 3B1C     		mov	r3, r7
 783 02da 321C     		mov	r2, r6
 784 02dc 0C33     		add	r3, r3, #12
 785 02de 23CB     		ldmia	r3!, {r0, r1, r5}
 786 02e0 23C2     		stmia	r2!, {r0, r1, r5}
 764:UartCmd.c     ****                                 ".com",  ".org",  ".edu",  ".net",  ".info",  ".biz",  ".gov" };
 787              		.loc 1 764 0
 788 02e2 391C     		mov	r1, r7
 763:UartCmd.c     ****     const char *url_SUFFIX[] = {".com/", ".org/", ".edu/", ".net/", ".info/", ".biz/", ".gov/",
 789              		.loc 1 763 0
 790 02e4 1B68     		ldr	r3, [r3]
ARM GAS  C:\Users\ramanatg\AppData\Local\Temp\ccxbhSsV.s 			page 63


 764:UartCmd.c     ****                                 ".com",  ".org",  ".edu",  ".net",  ".info",  ".biz",  ".gov" };
 791              		.loc 1 764 0
 792 02e6 1C31     		add	r1, r1, #28
 763:UartCmd.c     ****     const char *url_SUFFIX[] = {".com/", ".org/", ".edu/", ".net/", ".info/", ".biz/", ".gov/",
 793              		.loc 1 763 0
 794 02e8 1360     		str	r3, [r2]
 764:UartCmd.c     ****                                 ".com",  ".org",  ".edu",  ".net",  ".info",  ".biz",  ".gov" };
 795              		.loc 1 764 0
 796 02ea 16AB     		add	r3, sp, #88
 797 02ec 181C     		mov	r0, r3
 798 02ee 3822     		mov	r2, #56
 799 02f0 9946     		mov	r9, r3
 800 02f2 FFF7FEFF 		bl	memcpy
 801              	.LVL99:
 770:UartCmd.c     ****     {
 802              		.loc 1 770 0
 803 02f6 2368     		ldr	r3, [r4]
 804 02f8 9B46     		mov	fp, r3
 805 02fa 5B79     		ldrb	r3, [r3, #5]
 806 02fc 002B     		cmp	r3, #0
 807 02fe 00D1     		bne	.LCB690
 808 0300 AEE2     		b	.L569	@long jump
 809              	.LCB690:
 810              	.LBB140:
 777:UartCmd.c     ****         uint8_t tmp_Uri_Data[EDDYSTONE_URI_DATA_MAX_LEN]; 
 811              		.loc 1 777 0
 812 0302 02AA     		add	r2, sp, #8
 813 0304 9446     		mov	ip, r2
 814 0306 0F27     		mov	r7, #15
 815 0308 4246     		mov	r2, r8
 816 030a 6744     		add	r7, r7, ip
 817 030c 0297     		str	r7, [sp, #8]
 818 030e 3A70     		strb	r2, [r7]
 785:UartCmd.c     ****         }
 819              		.loc 1 785 0
 820 0310 0125     		mov	r5, #1
 783:UartCmd.c     ****         {
 821              		.loc 1 783 0
 822 0312 202B     		cmp	r3, #32
 823 0314 00D1     		bne	.LCB701
 824 0316 E0E1     		b	.L570	@long jump
 825              	.LCB701:
 826              	.LVL100:
 827              	.L80:
 828              	.LBE140:
 829              	.LBE139:
 830              	.LBE138:
 484:UartCmd.c     ****     
 831              		.loc 1 484 0
 832 0318 5846     		mov	r0, fp
 833 031a 0021     		mov	r1, #0
 834 031c 3622     		mov	r2, #54
 835 031e FFF7FEFF 		bl	memset
 836              	.LVL101:
 837 0322 2C1E     		sub	r4, r5, #0
 487:UartCmd.c     ****     {
 838              		.loc 1 487 0
ARM GAS  C:\Users\ramanatg\AppData\Local\Temp\ccxbhSsV.s 			page 64


 839 0324 012C     		cmp	r4, #1
 840 0326 C5D1     		bne	.L290
 841 0328 B6E6     		b	.L291
 842              	.LVL102:
 843              	.L555:
 844              	.LBB195:
 845              	.LBB196:
 526:UartCmd.c     ****     {
 846              		.loc 1 526 0
 847 032a 2568     		ldr	r5, [r4]
 848 032c 2E79     		ldrb	r6, [r5, #4]
 849 032e 002E     		cmp	r6, #0
 850 0330 00D1     		bne	.LCB728
 851 0332 F6E2     		b	.L571	@long jump
 852              	.LCB728:
 531:UartCmd.c     ****     {
 853              		.loc 1 531 0
 854 0334 281D     		add	r0, r5, #4
 855 0336 FFF7FEFF 		bl	strlen
 856              	.LVL103:
 576:UartCmd.c     ****     }
 857              		.loc 1 576 0
 858 033a 0123     		mov	r3, #1
 859 033c 9846     		mov	r8, r3
 531:UartCmd.c     ****     {
 860              		.loc 1 531 0
 861 033e 2528     		cmp	r0, #37
 862 0340 00D1     		bne	.LCB735
 863 0342 C6E2     		b	.L572	@long jump
 864              	.LCB735:
 865              	.LVL104:
 866              	.L99:
 867              	.LBE196:
 868              	.LBE195:
 484:UartCmd.c     ****     
 869              		.loc 1 484 0
 870 0344 281C     		mov	r0, r5
 871 0346 0021     		mov	r1, #0
 872 0348 3622     		mov	r2, #54
 873 034a FFF7FEFF 		bl	memset
 874              	.LVL105:
 487:UartCmd.c     ****     {
 875              		.loc 1 487 0
 876 034e 4346     		mov	r3, r8
 877 0350 012B     		cmp	r3, #1
 878 0352 00D0     		beq	.LCB749
 879 0354 7BE6     		b	.L544	@long jump
 880              	.LCB749:
 881 0356 9FE6     		b	.L291
 882              	.L628:
 883              		.align	2
 884              	.L627:
 885 0358 00000000 		.word	.LANCHOR0
 886 035c A00B0000 		.word	.LC236
 887 0360 00000000 		.word	.LANCHOR1
 888 0364 80000000 		.word	.LANCHOR2
 889 0368 C0030000 		.word	.LC141
ARM GAS  C:\Users\ramanatg\AppData\Local\Temp\ccxbhSsV.s 			page 65


 890 036c 20040000 		.word	.LC143
 891 0370 64040000 		.word	.LC145
 892 0374 A8040000 		.word	.LC147
 893 0378 E8040000 		.word	.LC149
 894 037c 24050000 		.word	.LC151
 895 0380 64050000 		.word	.LC153
 896 0384 74000000 		.word	.LC63
 897 0388 A4050000 		.word	.LC155
 898 038c F0050000 		.word	.LC157
 899 0390 3C060000 		.word	.LC159
 900 0394 8C060000 		.word	.LC161
 901 0398 F0060000 		.word	.LC163
 902 039c 14070000 		.word	.LC165
 903 03a0 5C070000 		.word	.LC167
 904 03a4 A8070000 		.word	.LC169
 905 03a8 FC070000 		.word	.LC171
 906 03ac 4C080000 		.word	.LC173
 907 03b0 AC080000 		.word	.LC175
 908 03b4 F4080000 		.word	.LC177
 909 03b8 14090000 		.word	.LC179
 910 03bc 5C090000 		.word	.LC181
 911 03c0 B0090000 		.word	.LC183
 912 03c4 D0090000 		.word	.LC185
 913 03c8 EC090000 		.word	.LC187
 914 03cc BC0B0000 		.word	.LC238
 915 03d0 00000000 		.word	.LC44
 916              	.LVL106:
 917              	.L556:
 918              	.LBB248:
 919              	.LBB249:
 622:UartCmd.c     ****     uint8_t str[SIZE_OF_BYTE_TO_02X * NID_BYTES + SIZE_OF_NUL];
 920              		.loc 1 622 0
 921 03d4 2568     		ldr	r5, [r4]
 922 03d6 681D     		add	r0, r5, #5
 923 03d8 FFF7FEFF 		bl	strlen
 924              	.LVL107:
 925 03dc 80B2     		uxth	r0, r0
 926              	.LVL108:
 626:UartCmd.c     ****     {
 927              		.loc 1 626 0
 928 03de 0028     		cmp	r0, #0
 929 03e0 5DD0     		beq	.L573
 652:UartCmd.c     ****     }
 930              		.loc 1 652 0
 931 03e2 0123     		mov	r3, #1
 932 03e4 9846     		mov	r8, r3
 631:UartCmd.c     ****     {
 933              		.loc 1 631 0
 934 03e6 1528     		cmp	r0, #21
 935 03e8 ACD1     		bne	.L99
 936              	.LVL109:
 635:UartCmd.c     ****         {
 937              		.loc 1 635 0
 938 03ea 6B79     		ldrb	r3, [r5, #5]
 939 03ec 202B     		cmp	r3, #32
 940 03ee A9D1     		bne	.L99
 941 03f0 291C     		mov	r1, r5
ARM GAS  C:\Users\ramanatg\AppData\Local\Temp\ccxbhSsV.s 			page 66


 942 03f2 0027     		mov	r7, #0
 943 03f4 AE1D     		add	r6, r5, #6
 944              	.LVL110:
 945 03f6 1A31     		add	r1, r1, #26
 946              	.LVL111:
 947              	.L110:
 948              	.LBB250:
 949              	.LBB251:
 950              	.LBB252:
 951              	.LBB253:
2568:UartCmd.c     ****     lower_nibble = atox(*p);
 952              		.loc 1 2568 0
 953 03f8 3378     		ldrb	r3, [r6]
 954              	.LVL112:
 955              	.LBB254:
 956              	.LBB255:
2600:UartCmd.c     ****     {
 957              		.loc 1 2600 0
 958 03fa 1A1C     		mov	r2, r3
 959 03fc 303A     		sub	r2, r2, #48
 960 03fe D2B2     		uxtb	r2, r2
 961 0400 092A     		cmp	r2, #9
 962 0402 1DD9     		bls	.L104
2605:UartCmd.c     ****     {
 963              		.loc 1 2605 0
 964 0404 1A1C     		mov	r2, r3
 965 0406 413A     		sub	r2, r2, #65
 966 0408 052A     		cmp	r2, #5
 967 040a 00D8     		bhi	.LCB842
 968 040c A3E3     		b	.L574	@long jump
 969              	.LCB842:
 970              	.LVL113:
 971              	.LBB256:
 972              	.LBB257:
2610:UartCmd.c     ****     {
 973              		.loc 1 2610 0
 974 040e 1A1C     		mov	r2, r3
 975 0410 613A     		sub	r2, r2, #97
 976 0412 052A     		cmp	r2, #5
 977 0414 12D9     		bls	.L575
 978              	.LBE257:
 979              	.LBE256:
 980              	.LBE255:
 981              	.LBE254:
2569:UartCmd.c     ****     /* If the character is not in '0' and 'f/F'. */
 982              		.loc 1 2569 0
 983 0416 7378     		ldrb	r3, [r6, #1]
 984              	.LVL114:
 985              	.LBB268:
 986              	.LBB269:
2600:UartCmd.c     ****     {
 987              		.loc 1 2600 0
 988 0418 1A1C     		mov	r2, r3
 989              	.LVL115:
 990 041a 303A     		sub	r2, r2, #48
 991 041c 092A     		cmp	r2, #9
 992 041e 0AD9     		bls	.L116
ARM GAS  C:\Users\ramanatg\AppData\Local\Temp\ccxbhSsV.s 			page 67


 993              	.LBE269:
 994              	.LBE268:
 995              	.LBB278:
 996              	.LBB264:
 997              	.LBB261:
 998              	.LBB258:
2617:UartCmd.c     ****     }
 999              		.loc 1 2617 0
 1000 0420 FF22     		mov	r2, #255
 1001              	.LVL116:
 1002              	.L295:
 1003              	.LBE258:
 1004              	.LBE261:
 1005              	.LBE264:
 1006              	.LBE278:
 1007              	.LBB279:
 1008              	.LBB274:
2605:UartCmd.c     ****     {
 1009              		.loc 1 2605 0
 1010 0422 181C     		mov	r0, r3
 1011 0424 4138     		sub	r0, r0, #65
 1012 0426 0528     		cmp	r0, #5
 1013 0428 00D8     		bhi	.LCB889
 1014 042a 9DE3     		b	.L576	@long jump
 1015              	.LCB889:
 1016              	.LVL117:
 1017              	.LBB270:
 1018              	.LBB271:
2610:UartCmd.c     ****     {
 1019              		.loc 1 2610 0
 1020 042c 181C     		mov	r0, r3
 1021 042e 6138     		sub	r0, r0, #97
 1022 0430 0528     		cmp	r0, #5
 1023 0432 00D8     		bhi	.LCB897
 1024 0434 92E3     		b	.L577	@long jump
 1025              	.LCB897:
 1026              	.LVL118:
 1027              	.L116:
 1028              	.LBE271:
 1029              	.LBE270:
 1030              	.LBE274:
 1031              	.LBE279:
 1032              	.LBE253:
 1033              	.LBE252:
 1034              	.LBE251:
 1035              	.LBE250:
 1036              	.LBE249:
 1037              	.LBE248:
 1038              	.LBB303:
 1039              	.LBB304:
 712:UartCmd.c     ****         }
 1040              		.loc 1 712 0
 1041 0436 0123     		mov	r3, #1
 1042 0438 9846     		mov	r8, r3
 1043 043a 83E7     		b	.L99
 1044              	.LVL119:
 1045              	.L575:
ARM GAS  C:\Users\ramanatg\AppData\Local\Temp\ccxbhSsV.s 			page 68


 1046              	.LBE304:
 1047              	.LBE303:
 1048              	.LBB360:
 1049              	.LBB300:
 1050              	.LBB297:
 1051              	.LBB294:
 1052              	.LBB290:
 1053              	.LBB286:
 1054              	.LBB280:
 1055              	.LBB265:
 1056              	.LBB262:
 1057              	.LBB259:
2613:UartCmd.c     ****     }
 1058              		.loc 1 2613 0
 1059 043c 573B     		sub	r3, r3, #87
 1060              	.LVL120:
 1061 043e DAB2     		uxtb	r2, r3
 1062              	.LVL121:
 1063              	.L104:
 1064              	.LBE259:
 1065              	.LBE262:
 1066              	.LBE265:
 1067              	.LBE280:
2569:UartCmd.c     ****     /* If the character is not in '0' and 'f/F'. */
 1068              		.loc 1 2569 0
 1069 0440 7378     		ldrb	r3, [r6, #1]
 1070              	.LVL122:
 1071              	.LBB281:
 1072              	.LBB275:
2600:UartCmd.c     ****     {
 1073              		.loc 1 2600 0
 1074 0442 181C     		mov	r0, r3
 1075 0444 3038     		sub	r0, r0, #48
 1076 0446 C0B2     		uxtb	r0, r0
 1077 0448 0928     		cmp	r0, #9
 1078 044a EAD8     		bhi	.L295
 1079              	.LVL123:
 1080              	.L300:
 1081              	.LBE275:
 1082              	.LBE281:
2576:UartCmd.c     **** }
 1083              		.loc 1 2576 0
 1084 044c 1201     		lsl	r2, r2, #4
 1085              	.LBE286:
 1086              	.LBE290:
2537:UartCmd.c     ****     }
 1087              		.loc 1 2537 0
 1088 044e 11AB     		add	r3, sp, #68
 1089              	.LVL124:
 1090              	.LBB291:
 1091              	.LBB287:
2576:UartCmd.c     **** }
 1092              		.loc 1 2576 0
 1093 0450 1043     		orr	r0, r2
 1094              	.LBE287:
 1095              	.LBE291:
2529:UartCmd.c     ****     {
ARM GAS  C:\Users\ramanatg\AppData\Local\Temp\ccxbhSsV.s 			page 69


 1096              		.loc 1 2529 0
 1097 0452 0236     		add	r6, r6, #2
 1098              	.LVL125:
2537:UartCmd.c     ****     }
 1099              		.loc 1 2537 0
 1100 0454 F854     		strb	r0, [r7, r3]
 1101              	.LVL126:
2529:UartCmd.c     ****     {
 1102              		.loc 1 2529 0
 1103 0456 0137     		add	r7, r7, #1
 1104              	.LVL127:
 1105 0458 8E42     		cmp	r6, r1
 1106 045a CDD1     		bne	.L110
 1107              	.LBE294:
 1108              	.LBE297:
 646:UartCmd.c     ****         SIMPLE_UART_PUTCONST("-> New Eddystone-UID NID : "); 
 1109              		.loc 1 646 0
 1110 045c 0920     		mov	r0, #9
 1111 045e 191C     		mov	r1, r3
 1112 0460 FFF7FEFF 		bl	ConfigRW_UpdateConfig
 1113              	.LVL128:
 647:UartCmd.c     ****     }
 1114              		.loc 1 647 0
 1115 0464 D448     		ldr	r0, .L629
 1116 0466 FFF7FEFF 		bl	UART_UartPutString
 1117              	.LVL129:
 1118              	.L111:
 1119 046a 16AB     		add	r3, sp, #88
 1120 046c 9946     		mov	r9, r3
 1121 046e 1F1C     		mov	r7, r3
 656:UartCmd.c     ****     {
 1122              		.loc 1 656 0
 1123 0470 D24B     		ldr	r3, .L629+4
 1124              	.LBB298:
 1125              	.LBB295:
 1126              	.LBB292:
 1127              	.LBB288:
 1128              	.LBB282:
 1129              	.LBB266:
 1130              	.LBB263:
 1131              	.LBB260:
2617:UartCmd.c     ****     }
 1132              		.loc 1 2617 0
 1133 0472 D34E     		ldr	r6, .L629+8
 1134              	.LBE260:
 1135              	.LBE263:
 1136              	.LBE266:
 1137              	.LBE282:
 1138              	.LBE288:
 1139              	.LBE292:
 1140              	.LBE295:
 1141              	.LBE298:
 656:UartCmd.c     ****     {
 1142              		.loc 1 656 0
 1143 0474 9846     		mov	r8, r3
 1144 0476 D34D     		ldr	r5, .L629+12
 1145              	.LVL130:
ARM GAS  C:\Users\ramanatg\AppData\Local\Temp\ccxbhSsV.s 			page 70


 1146              	.L102:
 658:UartCmd.c     ****     }
 1147              		.loc 1 658 0
 1148 0478 3278     		ldrb	r2, [r6]
 1149 047a 381C     		mov	r0, r7
 1150 047c 291C     		mov	r1, r5
 1151 047e 0136     		add	r6, r6, #1
 1152              	.LVL131:
 1153 0480 FFF7FEFF 		bl	sprintf
 1154              	.LVL132:
 1155 0484 0237     		add	r7, r7, #2
 656:UartCmd.c     ****     {
 1156              		.loc 1 656 0
 1157 0486 4645     		cmp	r6, r8
 1158 0488 F6D1     		bne	.L102
 1159              	.L545:
 1160              	.LBE300:
 1161              	.LBE360:
 1162              	.LBB361:
 1163              	.LBB362:
1286:UartCmd.c     ****     SIMPLE_UART_PUTCONST("\r\n");
 1164              		.loc 1 1286 0
 1165 048a 4846     		mov	r0, r9
 1166              	.L541:
 1167              	.LBE362:
 1168              	.LBE361:
 1169              	.LBB365:
 1170              	.LBB366:
2012:UartCmd.c     ****     }
 1171              		.loc 1 2012 0
 1172 048c FFF7FEFF 		bl	UART_UartPutString
 1173              	.LVL133:
 1174              	.L236:
2014:UartCmd.c     **** 
 1175              		.loc 1 2014 0
 1176 0490 CD48     		ldr	r0, .L629+16
 1177 0492 FFF7FEFF 		bl	UART_UartPutString
 1178              	.LVL134:
2016:UartCmd.c     **** }
 1179              		.loc 1 2016 0
 1180 0496 0023     		mov	r3, #0
 1181 0498 2568     		ldr	r5, [r4]
 1182 049a 9846     		mov	r8, r3
 1183 049c 52E7     		b	.L99
 1184              	.LVL135:
 1185              	.L573:
 1186              	.LBE366:
 1187              	.LBE365:
 1188              	.LBB370:
 1189              	.LBB301:
 628:UartCmd.c     ****     }
 1190              		.loc 1 628 0
 1191 049e CB48     		ldr	r0, .L629+20
 1192              	.LVL136:
 1193 04a0 FFF7FEFF 		bl	UART_UartPutString
 1194              	.LVL137:
 1195 04a4 E1E7     		b	.L111
ARM GAS  C:\Users\ramanatg\AppData\Local\Temp\ccxbhSsV.s 			page 71


 1196              	.L557:
 1197              	.LBE301:
 1198              	.LBE370:
 1199              	.LBB371:
 1200              	.LBB355:
 691:UartCmd.c     ****     uint8_t  str[SIZE_OF_BYTE_TO_02X * BID_BYTES + SIZE_OF_NUL];
 1201              		.loc 1 691 0
 1202 04a6 2568     		ldr	r5, [r4]
 1203 04a8 681D     		add	r0, r5, #5
 1204 04aa FFF7FEFF 		bl	strlen
 1205              	.LVL138:
 1206 04ae 80B2     		uxth	r0, r0
 1207              	.LVL139:
 695:UartCmd.c     ****     {
 1208              		.loc 1 695 0
 1209 04b0 0028     		cmp	r0, #0
 1210 04b2 01D1     		bne	.LCB1113
 1211 04b4 00F0B5FC 		bl	.L578	@far jump
 1212              	.LCB1113:
 721:UartCmd.c     ****     }
 1213              		.loc 1 721 0
 1214 04b8 0123     		mov	r3, #1
 1215 04ba 9846     		mov	r8, r3
 700:UartCmd.c     ****     {
 1216              		.loc 1 700 0
 1217 04bc 0D28     		cmp	r0, #13
 1218 04be 00D0     		beq	.LCB1117
 1219 04c0 40E7     		b	.L99	@long jump
 1220              	.LCB1117:
 1221              	.LVL140:
 704:UartCmd.c     ****         {
 1222              		.loc 1 704 0
 1223 04c2 6B79     		ldrb	r3, [r5, #5]
 1224 04c4 AE1D     		add	r6, r5, #6
 1225              	.LVL141:
 1226 04c6 202B     		cmp	r3, #32
 1227 04c8 00D0     		beq	.LCB1123
 1228 04ca 3BE7     		b	.L99	@long jump
 1229              	.LCB1123:
 1230              	.LVL142:
 1231              	.LBB305:
 1232              	.LBB306:
2522:UartCmd.c     ****     {
 1233              		.loc 1 2522 0
 1234 04cc 002E     		cmp	r6, #0
 1235 04ce B2D0     		beq	.L116
 1236 04d0 291C     		mov	r1, r5
 1237 04d2 0027     		mov	r7, #0
 1238 04d4 1231     		add	r1, r1, #18
 1239              	.LVL143:
 1240              	.L123:
 1241              	.LBB307:
 1242              	.LBB308:
2568:UartCmd.c     ****     lower_nibble = atox(*p);
 1243              		.loc 1 2568 0
 1244 04d6 3378     		ldrb	r3, [r6]
 1245              	.LVL144:
ARM GAS  C:\Users\ramanatg\AppData\Local\Temp\ccxbhSsV.s 			page 72


 1246              	.LBB309:
 1247              	.LBB310:
2600:UartCmd.c     ****     {
 1248              		.loc 1 2600 0
 1249 04d8 1A1C     		mov	r2, r3
 1250 04da 303A     		sub	r2, r2, #48
 1251 04dc D2B2     		uxtb	r2, r2
 1252 04de 092A     		cmp	r2, #9
 1253 04e0 00D8     		bhi	.LCB1152
 1254 04e2 48E2     		b	.L117	@long jump
 1255              	.LCB1152:
2605:UartCmd.c     ****     {
 1256              		.loc 1 2605 0
 1257 04e4 1A1C     		mov	r2, r3
 1258 04e6 413A     		sub	r2, r2, #65
 1259 04e8 052A     		cmp	r2, #5
 1260 04ea 01D8     		bhi	.LCB1157
 1261 04ec 00F0B5FC 		bl	.L579	@far jump
 1262              	.LCB1157:
 1263              	.LVL145:
 1264              	.LBB311:
 1265              	.LBB312:
2610:UartCmd.c     ****     {
 1266              		.loc 1 2610 0
 1267 04f0 1A1C     		mov	r2, r3
 1268 04f2 613A     		sub	r2, r2, #97
 1269 04f4 052A     		cmp	r2, #5
 1270 04f6 00D8     		bhi	.LCB1165
 1271 04f8 3BE2     		b	.L580	@long jump
 1272              	.LCB1165:
 1273              	.LBE312:
 1274              	.LBE311:
 1275              	.LBE310:
 1276              	.LBE309:
2569:UartCmd.c     ****     /* If the character is not in '0' and 'f/F'. */
 1277              		.loc 1 2569 0
 1278 04fa 7378     		ldrb	r3, [r6, #1]
 1279              	.LVL146:
 1280              	.LBB323:
 1281              	.LBB324:
2600:UartCmd.c     ****     {
 1282              		.loc 1 2600 0
 1283 04fc 1A1C     		mov	r2, r3
 1284              	.LVL147:
 1285 04fe 303A     		sub	r2, r2, #48
 1286 0500 092A     		cmp	r2, #9
 1287 0502 98D9     		bls	.L116
 1288              	.LBE324:
 1289              	.LBE323:
 1290              	.LBB330:
 1291              	.LBB319:
 1292              	.LBB316:
 1293              	.LBB313:
2617:UartCmd.c     ****     }
 1294              		.loc 1 2617 0
 1295 0504 FF22     		mov	r2, #255
 1296              	.LVL148:
ARM GAS  C:\Users\ramanatg\AppData\Local\Temp\ccxbhSsV.s 			page 73


 1297              	.L296:
 1298              	.LBE313:
 1299              	.LBE316:
 1300              	.LBE319:
 1301              	.LBE330:
 1302              	.LBB331:
 1303              	.LBB327:
2605:UartCmd.c     ****     {
 1304              		.loc 1 2605 0
 1305 0506 181C     		mov	r0, r3
 1306 0508 4138     		sub	r0, r0, #65
 1307 050a 0528     		cmp	r0, #5
 1308 050c 01D8     		bhi	.LCB1204
 1309 050e 00F080FD 		bl	.L581	@far jump
 1310              	.LCB1204:
 1311              	.LVL149:
 1312              	.LBB325:
 1313              	.LBB326:
2610:UartCmd.c     ****     {
 1314              		.loc 1 2610 0
 1315 0512 181C     		mov	r0, r3
 1316 0514 6138     		sub	r0, r0, #97
 1317 0516 0528     		cmp	r0, #5
 1318 0518 8DD8     		bhi	.L116
2613:UartCmd.c     ****     }
 1319              		.loc 1 2613 0
 1320 051a 573B     		sub	r3, r3, #87
 1321              	.LVL150:
 1322 051c D8B2     		uxtb	r0, r3
 1323              	.LVL151:
 1324              	.L122:
 1325              	.LBE326:
 1326              	.LBE325:
 1327              	.LBE327:
 1328              	.LBE331:
2571:UartCmd.c     ****        (lower_nibble == ATOX_PARAM_ERROR))
 1329              		.loc 1 2571 0
 1330 051e FF2A     		cmp	r2, #255
 1331 0520 89D0     		beq	.L116
 1332              	.L301:
2576:UartCmd.c     **** }
 1333              		.loc 1 2576 0
 1334 0522 1201     		lsl	r2, r2, #4
 1335              	.LBE308:
 1336              	.LBE307:
2537:UartCmd.c     ****     }
 1337              		.loc 1 2537 0
 1338 0524 11AB     		add	r3, sp, #68
 1339              	.LVL152:
 1340              	.LBB342:
 1341              	.LBB337:
2576:UartCmd.c     **** }
 1342              		.loc 1 2576 0
 1343 0526 1043     		orr	r0, r2
 1344              	.LBE337:
 1345              	.LBE342:
2529:UartCmd.c     ****     {
ARM GAS  C:\Users\ramanatg\AppData\Local\Temp\ccxbhSsV.s 			page 74


 1346              		.loc 1 2529 0
 1347 0528 0236     		add	r6, r6, #2
 1348              	.LVL153:
2537:UartCmd.c     ****     }
 1349              		.loc 1 2537 0
 1350 052a F854     		strb	r0, [r7, r3]
 1351              	.LVL154:
2529:UartCmd.c     ****     {
 1352              		.loc 1 2529 0
 1353 052c 0137     		add	r7, r7, #1
 1354              	.LVL155:
 1355 052e 8E42     		cmp	r6, r1
 1356 0530 D1D1     		bne	.L123
 1357              	.LBE306:
 1358              	.LBE305:
 715:UartCmd.c     ****         SIMPLE_UART_PUTCONST("-> New Eddystone-UID BID : "); 
 1359              		.loc 1 715 0
 1360 0532 191C     		mov	r1, r3
 1361 0534 0A20     		mov	r0, #10
 1362 0536 FFF7FEFF 		bl	ConfigRW_UpdateConfig
 1363              	.LVL156:
 716:UartCmd.c     ****     }
 1364              		.loc 1 716 0
 1365 053a A548     		ldr	r0, .L629+24
 1366 053c FFF7FEFF 		bl	UART_UartPutString
 1367              	.LVL157:
 1368 0540 00F072FC 		bl	.L124	@ far jump
 1369              	.LVL158:
 1370              	.L559:
 1371              	.LBE355:
 1372              	.LBE371:
 1373              	.LBB372:
 1374              	.LBB373:
1087:UartCmd.c     ****     {
 1375              		.loc 1 1087 0
 1376 0544 2568     		ldr	r5, [r4]
 1377 0546 6E79     		ldrb	r6, [r5, #5]
 1378 0548 002E     		cmp	r6, #0
 1379 054a 00D1     		bne	.LCB1285
 1380 054c F5E2     		b	.L582	@long jump
 1381              	.LCB1285:
1092:UartCmd.c     ****     {
 1382              		.loc 1 1092 0
 1383 054e 681D     		add	r0, r5, #5
 1384 0550 FFF7FEFF 		bl	strlen
 1385              	.LVL159:
1124:UartCmd.c     ****     }
 1386              		.loc 1 1124 0
 1387 0554 0123     		mov	r3, #1
 1388 0556 9846     		mov	r8, r3
1092:UartCmd.c     ****     {
 1389              		.loc 1 1092 0
 1390 0558 0528     		cmp	r0, #5
 1391 055a 00D0     		beq	.LCB1292
 1392 055c F2E6     		b	.L99	@long jump
 1393              	.LCB1292:
1095:UartCmd.c     ****         {
ARM GAS  C:\Users\ramanatg\AppData\Local\Temp\ccxbhSsV.s 			page 75


 1394              		.loc 1 1095 0
 1395 055e 202E     		cmp	r6, #32
 1396 0560 00D0     		beq	.LCB1294
 1397 0562 EFE6     		b	.L99	@long jump
 1398              	.LCB1294:
 1399              	.LVL160:
1103:UartCmd.c     ****             {
 1400              		.loc 1 1103 0
 1401 0564 A879     		ldrb	r0, [r5, #6]
 1402 0566 FFF7FEFF 		bl	atox
 1403              	.LVL161:
 1404 056a 16AE     		add	r6, sp, #88
 1405 056c 3070     		strb	r0, [r6]
 1406 056e FF28     		cmp	r0, #255
 1407 0570 00D1     		bne	.LCB1302
 1408 0572 E7E6     		b	.L99	@long jump
 1409              	.LCB1302:
 1410              	.LVL162:
 1411 0574 E879     		ldrb	r0, [r5, #7]
 1412 0576 FFF7FEFF 		bl	atox
 1413              	.LVL163:
 1414 057a 7070     		strb	r0, [r6, #1]
 1415 057c FF28     		cmp	r0, #255
 1416 057e 00D1     		bne	.LCB1309
 1417 0580 E0E6     		b	.L99	@long jump
 1418              	.LCB1309:
 1419              	.LVL164:
 1420 0582 287A     		ldrb	r0, [r5, #8]
 1421 0584 FFF7FEFF 		bl	atox
 1422              	.LVL165:
 1423 0588 B070     		strb	r0, [r6, #2]
 1424 058a FF28     		cmp	r0, #255
 1425 058c 00D1     		bne	.LCB1316
 1426 058e D9E6     		b	.L99	@long jump
 1427              	.LCB1316:
 1428              	.LVL166:
 1429 0590 687A     		ldrb	r0, [r5, #9]
 1430 0592 FFF7FEFF 		bl	atox
 1431              	.LVL167:
 1432 0596 F070     		strb	r0, [r6, #3]
 1433 0598 FF28     		cmp	r0, #255
 1434 059a 00D1     		bne	.LCB1323
 1435 059c D2E6     		b	.L99	@long jump
 1436              	.LCB1323:
 1437              	.LVL168:
1115:UartCmd.c     ****         minor = (minor << BIT_PER_BYTE) | BYTE_H4_L4_BIT_SWITCH(&m[MINOR_LOW_BYTE_OFFSET]);
 1438              		.loc 1 1115 0
 1439 059e 3378     		ldrb	r3, [r6]
1116:UartCmd.c     ****         
 1440              		.loc 1 1116 0
 1441 05a0 0DA9     		add	r1, sp, #52
1115:UartCmd.c     ****         minor = (minor << BIT_PER_BYTE) | BYTE_H4_L4_BIT_SWITCH(&m[MINOR_LOW_BYTE_OFFSET]);
 1442              		.loc 1 1115 0
 1443 05a2 1A01     		lsl	r2, r3, #4
 1444 05a4 7378     		ldrb	r3, [r6, #1]
 1445 05a6 1343     		orr	r3, r2
1116:UartCmd.c     ****         
ARM GAS  C:\Users\ramanatg\AppData\Local\Temp\ccxbhSsV.s 			page 76


 1446              		.loc 1 1116 0
 1447 05a8 DBB2     		uxtb	r3, r3
 1448 05aa 1A02     		lsl	r2, r3, #8
 1449 05ac B378     		ldrb	r3, [r6, #2]
 1450 05ae 1801     		lsl	r0, r3, #4
 1451 05b0 F378     		ldrb	r3, [r6, #3]
 1452 05b2 0343     		orr	r3, r0
 1453 05b4 DBB2     		uxtb	r3, r3
 1454 05b6 1343     		orr	r3, r2
1118:UartCmd.c     ****         SIMPLE_UART_PUTCONST("-> New MINOR: ");
 1455              		.loc 1 1118 0
 1456 05b8 0220     		mov	r0, #2
1116:UartCmd.c     ****         
 1457              		.loc 1 1116 0
 1458 05ba 0B80     		strh	r3, [r1]
1118:UartCmd.c     ****         SIMPLE_UART_PUTCONST("-> New MINOR: ");
 1459              		.loc 1 1118 0
 1460 05bc FFF7FEFF 		bl	ConfigRW_UpdateConfig
 1461              	.LVL169:
1119:UartCmd.c     ****     }
 1462              		.loc 1 1119 0
 1463 05c0 8448     		ldr	r0, .L629+28
 1464 05c2 FFF7FEFF 		bl	UART_UartPutString
 1465              	.LVL170:
 1466              	.L139:
1126:UartCmd.c     ****     SIMPLE_UART_PUTCONST(str);
 1467              		.loc 1 1126 0
 1468 05c6 844B     		ldr	r3, .L629+32
 1469 05c8 11A8     		add	r0, sp, #68
 1470 05ca DA8A     		ldrh	r2, [r3, #22]
 1471 05cc 8349     		ldr	r1, .L629+36
 1472 05ce FFF7FEFF 		bl	sprintf
 1473              	.LVL171:
1127:UartCmd.c     ****     SIMPLE_UART_PUTCONST("\r\n");
 1474              		.loc 1 1127 0
 1475 05d2 11A8     		add	r0, sp, #68
 1476 05d4 5AE7     		b	.L541
 1477              	.LVL172:
 1478              	.L558:
 1479              	.LBE373:
 1480              	.LBE372:
 1481              	.LBB375:
 1482              	.LBB376:
1013:UartCmd.c     ****     {
 1483              		.loc 1 1013 0
 1484 05d6 2568     		ldr	r5, [r4]
 1485 05d8 6E79     		ldrb	r6, [r5, #5]
 1486 05da 002E     		cmp	r6, #0
 1487 05dc 00D1     		bne	.LCB1371
 1488 05de B3E2     		b	.L583	@long jump
 1489              	.LCB1371:
1018:UartCmd.c     ****     {
 1490              		.loc 1 1018 0
 1491 05e0 681D     		add	r0, r5, #5
 1492 05e2 FFF7FEFF 		bl	strlen
 1493              	.LVL173:
1050:UartCmd.c     ****     }
ARM GAS  C:\Users\ramanatg\AppData\Local\Temp\ccxbhSsV.s 			page 77


 1494              		.loc 1 1050 0
 1495 05e6 0123     		mov	r3, #1
 1496 05e8 9846     		mov	r8, r3
1018:UartCmd.c     ****     {
 1497              		.loc 1 1018 0
 1498 05ea 0528     		cmp	r0, #5
 1499 05ec 00D0     		beq	.LCB1378
 1500 05ee A9E6     		b	.L99	@long jump
 1501              	.LCB1378:
1021:UartCmd.c     ****         {
 1502              		.loc 1 1021 0
 1503 05f0 202E     		cmp	r6, #32
 1504 05f2 00D0     		beq	.LCB1380
 1505 05f4 A6E6     		b	.L99	@long jump
 1506              	.LCB1380:
 1507              	.LVL174:
1029:UartCmd.c     ****             {
 1508              		.loc 1 1029 0
 1509 05f6 AB79     		ldrb	r3, [r5, #6]
 1510              	.LVL175:
 1511              	.LBB377:
 1512              	.LBB378:
2600:UartCmd.c     ****     {
 1513              		.loc 1 2600 0
 1514 05f8 1A1C     		mov	r2, r3
 1515 05fa 303A     		sub	r2, r2, #48
 1516 05fc D2B2     		uxtb	r2, r2
 1517 05fe 092A     		cmp	r2, #9
 1518 0600 0AD9     		bls	.L129
2605:UartCmd.c     ****     {
 1519              		.loc 1 2605 0
 1520 0602 1A1C     		mov	r2, r3
 1521 0604 413A     		sub	r2, r2, #65
 1522 0606 052A     		cmp	r2, #5
 1523 0608 00D8     		bhi	.LCB1395
 1524 060a 9AE2     		b	.L130	@long jump
 1525              	.LCB1395:
 1526              	.LVL176:
 1527              	.LBB379:
 1528              	.LBB380:
2610:UartCmd.c     ****     {
 1529              		.loc 1 2610 0
 1530 060c 203A     		sub	r2, r2, #32
 1531 060e 052A     		cmp	r2, #5
 1532 0610 00D9     		bls	.LCB1402
 1533 0612 97E6     		b	.L99	@long jump
 1534              	.LCB1402:
2613:UartCmd.c     ****     }
 1535              		.loc 1 2613 0
 1536 0614 573B     		sub	r3, r3, #87
 1537              	.LVL177:
 1538 0616 DAB2     		uxtb	r2, r3
 1539              	.LVL178:
 1540              	.L129:
 1541              	.LBE380:
 1542              	.LBE379:
 1543              	.LBE378:
ARM GAS  C:\Users\ramanatg\AppData\Local\Temp\ccxbhSsV.s 			page 78


 1544              	.LBE377:
1029:UartCmd.c     ****             {
 1545              		.loc 1 1029 0
 1546 0618 16AB     		add	r3, sp, #88
 1547 061a 1A70     		strb	r2, [r3]
 1548              	.LVL179:
 1549 061c 9946     		mov	r9, r3
 1550 061e EB79     		ldrb	r3, [r5, #7]
 1551              	.LVL180:
 1552              	.LBB393:
 1553              	.LBB387:
2600:UartCmd.c     ****     {
 1554              		.loc 1 2600 0
 1555 0620 1A1C     		mov	r2, r3
 1556 0622 303A     		sub	r2, r2, #48
 1557 0624 D2B2     		uxtb	r2, r2
 1558 0626 092A     		cmp	r2, #9
 1559 0628 0DD9     		bls	.L131
2605:UartCmd.c     ****     {
 1560              		.loc 1 2605 0
 1561 062a 1A1C     		mov	r2, r3
 1562 062c 413A     		sub	r2, r2, #65
 1563 062e 052A     		cmp	r2, #5
 1564 0630 00D8     		bhi	.LCB1433
 1565 0632 8DE2     		b	.L132	@long jump
 1566              	.LCB1433:
 1567              	.LVL181:
 1568              	.LBB384:
 1569              	.LBB381:
2610:UartCmd.c     ****     {
 1570              		.loc 1 2610 0
 1571 0634 0122     		mov	r2, #1
 1572 0636 9046     		mov	r8, r2
 1573 0638 1A1C     		mov	r2, r3
 1574 063a 613A     		sub	r2, r2, #97
 1575 063c 052A     		cmp	r2, #5
 1576 063e 00D9     		bls	.LCB1443
 1577 0640 80E6     		b	.L99	@long jump
 1578              	.LCB1443:
2613:UartCmd.c     ****     }
 1579              		.loc 1 2613 0
 1580 0642 573B     		sub	r3, r3, #87
 1581              	.LVL182:
 1582 0644 DAB2     		uxtb	r2, r3
 1583              	.LVL183:
 1584              	.L131:
 1585              	.LBE381:
 1586              	.LBE384:
 1587              	.LBE387:
 1588              	.LBE393:
1029:UartCmd.c     ****             {
 1589              		.loc 1 1029 0
 1590 0646 4B46     		mov	r3, r9
 1591 0648 5A70     		strb	r2, [r3, #1]
 1592              	.LVL184:
 1593 064a 2B7A     		ldrb	r3, [r5, #8]
 1594              	.LVL185:
ARM GAS  C:\Users\ramanatg\AppData\Local\Temp\ccxbhSsV.s 			page 79


 1595              	.LBB394:
 1596              	.LBB388:
2600:UartCmd.c     ****     {
 1597              		.loc 1 2600 0
 1598 064c 1A1C     		mov	r2, r3
 1599 064e 303A     		sub	r2, r2, #48
 1600 0650 D2B2     		uxtb	r2, r2
 1601 0652 092A     		cmp	r2, #9
 1602 0654 0DD9     		bls	.L133
2605:UartCmd.c     ****     {
 1603              		.loc 1 2605 0
 1604 0656 1A1C     		mov	r2, r3
 1605 0658 413A     		sub	r2, r2, #65
 1606 065a 052A     		cmp	r2, #5
 1607 065c 00D8     		bhi	.LCB1473
 1608 065e 86E2     		b	.L134	@long jump
 1609              	.LCB1473:
 1610              	.LVL186:
 1611              	.LBB385:
 1612              	.LBB382:
2610:UartCmd.c     ****     {
 1613              		.loc 1 2610 0
 1614 0660 0122     		mov	r2, #1
 1615 0662 9046     		mov	r8, r2
 1616 0664 1A1C     		mov	r2, r3
 1617 0666 613A     		sub	r2, r2, #97
 1618 0668 052A     		cmp	r2, #5
 1619 066a 00D9     		bls	.LCB1483
 1620 066c 6AE6     		b	.L99	@long jump
 1621              	.LCB1483:
2613:UartCmd.c     ****     }
 1622              		.loc 1 2613 0
 1623 066e 573B     		sub	r3, r3, #87
 1624              	.LVL187:
 1625 0670 DAB2     		uxtb	r2, r3
 1626              	.LVL188:
 1627              	.L133:
 1628              	.LBE382:
 1629              	.LBE385:
 1630              	.LBE388:
 1631              	.LBE394:
1029:UartCmd.c     ****             {
 1632              		.loc 1 1029 0
 1633 0672 4B46     		mov	r3, r9
 1634 0674 9A70     		strb	r2, [r3, #2]
 1635              	.LVL189:
 1636 0676 6A7A     		ldrb	r2, [r5, #9]
 1637              	.LVL190:
 1638              	.LBB395:
 1639              	.LBB389:
2600:UartCmd.c     ****     {
 1640              		.loc 1 2600 0
 1641 0678 131C     		mov	r3, r2
 1642 067a 303B     		sub	r3, r3, #48
 1643 067c D8B2     		uxtb	r0, r3
 1644 067e 0928     		cmp	r0, #9
 1645 0680 0CD9     		bls	.L135
ARM GAS  C:\Users\ramanatg\AppData\Local\Temp\ccxbhSsV.s 			page 80


2605:UartCmd.c     ****     {
 1646              		.loc 1 2605 0
 1647 0682 113B     		sub	r3, r3, #17
 1648 0684 052B     		cmp	r3, #5
 1649 0686 00D8     		bhi	.LCB1512
 1650 0688 74E2     		b	.L584	@long jump
 1651              	.LCB1512:
 1652              	.LVL191:
 1653              	.LBB386:
 1654              	.LBB383:
2610:UartCmd.c     ****     {
 1655              		.loc 1 2610 0
 1656 068a 0123     		mov	r3, #1
 1657 068c 9846     		mov	r8, r3
 1658 068e 131C     		mov	r3, r2
 1659 0690 613B     		sub	r3, r3, #97
 1660 0692 052B     		cmp	r3, #5
 1661 0694 00D9     		bls	.LCB1522
 1662 0696 55E6     		b	.L99	@long jump
 1663              	.LCB1522:
2613:UartCmd.c     ****     }
 1664              		.loc 1 2613 0
 1665 0698 573A     		sub	r2, r2, #87
 1666              	.LVL192:
 1667 069a D0B2     		uxtb	r0, r2
 1668              	.LVL193:
 1669              	.L135:
 1670              	.LBE383:
 1671              	.LBE386:
 1672              	.LBE389:
 1673              	.LBE395:
1029:UartCmd.c     ****             {
 1674              		.loc 1 1029 0
 1675 069c 4B46     		mov	r3, r9
 1676 069e D870     		strb	r0, [r3, #3]
 1677              	.LVL194:
1041:UartCmd.c     ****         major = (major << BIT_PER_BYTE) | BYTE_H4_L4_BIT_SWITCH(&m[MAJOR_LOW_BYTE_OFFSET]);
 1678              		.loc 1 1041 0
 1679 06a0 1B78     		ldrb	r3, [r3]
1042:UartCmd.c     ****         
 1680              		.loc 1 1042 0
 1681 06a2 0DA9     		add	r1, sp, #52
1041:UartCmd.c     ****         major = (major << BIT_PER_BYTE) | BYTE_H4_L4_BIT_SWITCH(&m[MAJOR_LOW_BYTE_OFFSET]);
 1682              		.loc 1 1041 0
 1683 06a4 1A01     		lsl	r2, r3, #4
 1684 06a6 4B46     		mov	r3, r9
 1685 06a8 5B78     		ldrb	r3, [r3, #1]
 1686 06aa 1343     		orr	r3, r2
1042:UartCmd.c     ****         
 1687              		.loc 1 1042 0
 1688 06ac DBB2     		uxtb	r3, r3
 1689 06ae 1A02     		lsl	r2, r3, #8
 1690 06b0 4B46     		mov	r3, r9
 1691 06b2 9B78     		ldrb	r3, [r3, #2]
 1692 06b4 1B01     		lsl	r3, r3, #4
 1693 06b6 0343     		orr	r3, r0
 1694 06b8 DBB2     		uxtb	r3, r3
ARM GAS  C:\Users\ramanatg\AppData\Local\Temp\ccxbhSsV.s 			page 81


 1695 06ba 1343     		orr	r3, r2
1044:UartCmd.c     ****         SIMPLE_UART_PUTCONST("-> New MAJOR: ");
 1696              		.loc 1 1044 0
 1697 06bc 0120     		mov	r0, #1
1042:UartCmd.c     ****         
 1698              		.loc 1 1042 0
 1699 06be 0B80     		strh	r3, [r1]
1044:UartCmd.c     ****         SIMPLE_UART_PUTCONST("-> New MAJOR: ");
 1700              		.loc 1 1044 0
 1701 06c0 FFF7FEFF 		bl	ConfigRW_UpdateConfig
 1702              	.LVL195:
1045:UartCmd.c     ****     }
 1703              		.loc 1 1045 0
 1704 06c4 4648     		ldr	r0, .L629+40
 1705 06c6 FFF7FEFF 		bl	UART_UartPutString
 1706              	.LVL196:
 1707              	.L127:
1052:UartCmd.c     ****     SIMPLE_UART_PUTCONST(str);
 1708              		.loc 1 1052 0
 1709 06ca 434B     		ldr	r3, .L629+32
 1710 06cc 11A8     		add	r0, sp, #68
 1711 06ce 9A8A     		ldrh	r2, [r3, #20]
 1712 06d0 4249     		ldr	r1, .L629+36
 1713 06d2 FFF7FEFF 		bl	sprintf
 1714              	.LVL197:
1053:UartCmd.c     ****     SIMPLE_UART_PUTCONST("\r\n");
 1715              		.loc 1 1053 0
 1716 06d6 11A8     		add	r0, sp, #68
 1717 06d8 D8E6     		b	.L541
 1718              	.LVL198:
 1719              	.L570:
 1720              	.LBE376:
 1721              	.LBE375:
 1722              	.LBB401:
 1723              	.LBB189:
 1724              	.LBB181:
 788:UartCmd.c     ****         
 1725              		.loc 1 788 0
 1726 06da 5B46     		mov	r3, fp
 1727 06dc 981D     		add	r0, r3, #6
 1728              	.LVL199:
 791:UartCmd.c     ****         {
 1729              		.loc 1 791 0
 1730 06de 9B79     		ldrb	r3, [r3, #6]
 1731 06e0 302B     		cmp	r3, #48
 1732 06e2 00D1     		bne	.LCB1592
 1733 06e4 4FE1     		b	.L44	@long jump
 1734              	.LCB1592:
 1735              	.LVL200:
 1736              	.LBB141:
 844:UartCmd.c     ****             {
 1737              		.loc 1 844 0
 1738 06e6 021C     		mov	r2, r0
 1739 06e8 0021     		mov	r1, #0
 1740 06ea 002B     		cmp	r3, #0
 1741 06ec 0FD0     		beq	.L59
 1742              	.LVL201:
ARM GAS  C:\Users\ramanatg\AppData\Local\Temp\ccxbhSsV.s 			page 82


 1743              	.L469:
 846:UartCmd.c     ****                 {
 1744              		.loc 1 846 0
 1745 06ee 2F2B     		cmp	r3, #47
 1746 06f0 00D1     		bne	.LCB1607
 1747 06f2 B3E0     		b	.L585	@long jump
 1748              	.LCB1607:
 851:UartCmd.c     ****             }
 1749              		.loc 1 851 0
 1750 06f4 1D1C     		mov	r5, r3
 1751 06f6 413D     		sub	r5, r5, #65
 1752 06f8 192D     		cmp	r5, #25
 1753 06fa 01D8     		bhi	.L58
 1754 06fc 2033     		add	r3, r3, #32
 1755 06fe DBB2     		uxtb	r3, r3
 1756              	.L58:
 1757 0700 1370     		strb	r3, [r2]
 1758              	.L57:
 844:UartCmd.c     ****             {
 1759              		.loc 1 844 0
 1760 0702 0132     		add	r2, r2, #1
 1761              	.LVL202:
 1762 0704 1378     		ldrb	r3, [r2]
 1763 0706 002B     		cmp	r3, #0
 1764 0708 01D0     		beq	.L59
 1765 070a 0229     		cmp	r1, #2
 1766 070c EFDD     		ble	.L469
 1767              	.LVL203:
 1768              	.L59:
 855:UartCmd.c     ****             {
 1769              		.loc 1 855 0
 1770 070e 06A9     		add	r1, sp, #24
 1771 0710 0422     		mov	r2, #4
 1772 0712 FFF7FEFF 		bl	memcmp
 1773              	.LVL204:
 857:UartCmd.c     ****             }
 1774              		.loc 1 857 0
 1775 0716 0125     		mov	r5, #1
 855:UartCmd.c     ****             {
 1776              		.loc 1 855 0
 1777 0718 0028     		cmp	r0, #0
 1778 071a 00D0     		beq	.LCB1643
 1779 071c FCE5     		b	.L80	@long jump
 1780              	.LCB1643:
 861:UartCmd.c     ****             for(i = 0; i < KINDS_OF_URL_PREFIX; i++)
 1781              		.loc 1 861 0
 1782 071e 0A23     		mov	r3, #10
 864:UartCmd.c     ****                 /* If we find it. */
 1783              		.loc 1 864 0
 1784 0720 0D9A     		ldr	r2, [sp, #52]
 861:UartCmd.c     ****             for(i = 0; i < KINDS_OF_URL_PREFIX; i++)
 1785              		.loc 1 861 0
 1786 0722 5B44     		add	r3, r3, fp
 864:UartCmd.c     ****                 /* If we find it. */
 1787              		.loc 1 864 0
 1788 0724 101C     		mov	r0, r2
 1789 0726 9246     		mov	r10, r2
ARM GAS  C:\Users\ramanatg\AppData\Local\Temp\ccxbhSsV.s 			page 83


 861:UartCmd.c     ****             for(i = 0; i < KINDS_OF_URL_PREFIX; i++)
 1790              		.loc 1 861 0
 1791 0728 1F1C     		mov	r7, r3
 1792              	.LVL205:
 864:UartCmd.c     ****                 /* If we find it. */
 1793              		.loc 1 864 0
 1794 072a FFF7FEFF 		bl	strlen
 1795              	.LVL206:
 866:UartCmd.c     ****                 {
 1796              		.loc 1 866 0
 1797 072e 0004     		lsl	r0, r0, #16
 1798              	.LVL207:
 1799 0730 020C     		lsr	r2, r0, #16
 1800 0732 5146     		mov	r1, r10
 1801 0734 381C     		mov	r0, r7
 1802 0736 9046     		mov	r8, r2
 1803 0738 FFF7FEFF 		bl	memcmp
 1804              	.LVL208:
 1805 073c 0028     		cmp	r0, #0
 1806 073e 00D1     		bne	.LCB1665
 1807 0740 F9E1     		b	.L308	@long jump
 1808              	.LCB1665:
 1809              	.LVL209:
 864:UartCmd.c     ****                 /* If we find it. */
 1810              		.loc 1 864 0
 1811 0742 7268     		ldr	r2, [r6, #4]
 1812 0744 101C     		mov	r0, r2
 1813 0746 9246     		mov	r10, r2
 1814 0748 FFF7FEFF 		bl	strlen
 1815              	.LVL210:
 866:UartCmd.c     ****                 {
 1816              		.loc 1 866 0
 1817 074c 0004     		lsl	r0, r0, #16
 1818              	.LVL211:
 1819 074e 020C     		lsr	r2, r0, #16
 1820 0750 5146     		mov	r1, r10
 1821 0752 381C     		mov	r0, r7
 1822 0754 9046     		mov	r8, r2
 1823 0756 FFF7FEFF 		bl	memcmp
 1824              	.LVL212:
 1825 075a 0028     		cmp	r0, #0
 1826 075c 00D1     		bne	.LCB1682
 1827 075e E8E1     		b	.L309	@long jump
 1828              	.LCB1682:
 1829              	.LVL213:
 864:UartCmd.c     ****                 /* If we find it. */
 1830              		.loc 1 864 0
 1831 0760 B268     		ldr	r2, [r6, #8]
 1832 0762 101C     		mov	r0, r2
 1833 0764 9246     		mov	r10, r2
 1834 0766 FFF7FEFF 		bl	strlen
 1835              	.LVL214:
 866:UartCmd.c     ****                 {
 1836              		.loc 1 866 0
 1837 076a 0004     		lsl	r0, r0, #16
 1838              	.LVL215:
 1839 076c 020C     		lsr	r2, r0, #16
ARM GAS  C:\Users\ramanatg\AppData\Local\Temp\ccxbhSsV.s 			page 84


 1840 076e 5146     		mov	r1, r10
 1841 0770 381C     		mov	r0, r7
 1842 0772 9046     		mov	r8, r2
 1843 0774 FFF7FEFF 		bl	memcmp
 1844              	.LVL216:
 1845 0778 0028     		cmp	r0, #0
 1846 077a 00D1     		bne	.LCB1699
 1847 077c D7E1     		b	.L310	@long jump
 1848              	.LCB1699:
 1849              	.LVL217:
 864:UartCmd.c     ****                 /* If we find it. */
 1850              		.loc 1 864 0
 1851 077e F268     		ldr	r2, [r6, #12]
 1852 0780 101C     		mov	r0, r2
 1853 0782 9246     		mov	r10, r2
 1854 0784 FFF7FEFF 		bl	strlen
 1855              	.LVL218:
 866:UartCmd.c     ****                 {
 1856              		.loc 1 866 0
 1857 0788 0004     		lsl	r0, r0, #16
 1858              	.LVL219:
 1859 078a 020C     		lsr	r2, r0, #16
 1860 078c 5146     		mov	r1, r10
 1861 078e 381C     		mov	r0, r7
 1862 0790 9046     		mov	r8, r2
 1863 0792 FFF7FEFF 		bl	memcmp
 1864              	.LVL220:
 862:UartCmd.c     ****             {
 1865              		.loc 1 862 0
 1866 0796 0323     		mov	r3, #3
 866:UartCmd.c     ****                 {
 1867              		.loc 1 866 0
 1868 0798 0028     		cmp	r0, #0
 1869 079a 00D0     		beq	.LCB1717
 1870 079c BCE5     		b	.L80	@long jump
 1871              	.LCB1717:
 1872              	.LVL221:
 1873              	.L61:
 868:UartCmd.c     ****                     /* Skip the prefix we have found. */
 1874              		.loc 1 868 0
 1875 079e 0298     		ldr	r0, [sp, #8]
 1876 07a0 B346     		mov	fp, r6
 1877              	.LVL222:
 1878 07a2 0278     		ldrb	r2, [r0]
 1879 07a4 511C     		add	r1, r2, #1
 1880 07a6 0170     		strb	r1, [r0]
 1881 07a8 11A9     		add	r1, sp, #68
 1882 07aa 8B54     		strb	r3, [r1, r2]
 870:UartCmd.c     ****                     break;
 1883              		.loc 1 870 0
 1884 07ac 3B1C     		mov	r3, r7
 1885 07ae 4344     		add	r3, r3, r8
 868:UartCmd.c     ****                     /* Skip the prefix we have found. */
 1886              		.loc 1 868 0
 1887 07b0 8A46     		mov	r10, r1
 870:UartCmd.c     ****                     break;
 1888              		.loc 1 870 0
ARM GAS  C:\Users\ramanatg\AppData\Local\Temp\ccxbhSsV.s 			page 85


 1889 07b2 1D1C     		mov	r5, r3
 1890              	.LVL223:
 1891 07b4 1DE0     		b	.L62
 1892              	.L630:
 1893 07b6 C046     		.align	2
 1894              	.L629:
 1895 07b8 BC000000 		.word	.LC75
 1896 07bc AAF2FF0F 		.word	268432042
 1897 07c0 A0F2FF0F 		.word	268432032
 1898 07c4 80000000 		.word	.LC67
 1899 07c8 74000000 		.word	.LC63
 1900 07cc A4000000 		.word	.LC73
 1901 07d0 F0000000 		.word	.LC79
 1902 07d4 2C010000 		.word	.LC87
 1903 07d8 80F2FF0F 		.word	268432000
 1904 07dc 18010000 		.word	.LC83
 1905 07e0 DC0B0000 		.word	.LC240
 1906              	.LVL224:
 1907              	.L64:
 914:UartCmd.c     ****                 }
 1908              		.loc 1 914 0
 1909 07e4 029A     		ldr	r2, [sp, #8]
 1910 07e6 731C     		add	r3, r6, #1
 1911 07e8 1370     		strb	r3, [r2]
 1912 07ea 5246     		mov	r2, r10
 1913 07ec 2B78     		ldrb	r3, [r5]
 1914 07ee 0135     		add	r5, r5, #1
 1915              	.LVL225:
 1916 07f0 9355     		strb	r3, [r2, r6]
 1917              	.L62:
 881:UartCmd.c     ****             {
 1918              		.loc 1 881 0
 1919 07f2 2B78     		ldrb	r3, [r5]
 1920 07f4 002B     		cmp	r3, #0
 1921 07f6 00D1     		bne	.LCB1771
 1922 07f8 96E1     		b	.L312	@long jump
 1923              	.LCB1771:
 1924 07fa 029A     		ldr	r2, [sp, #8]
 1925 07fc 1678     		ldrb	r6, [r2]
 1926 07fe 112E     		cmp	r6, #17
 1927 0800 00D9     		bls	.LCB1776
 1928 0802 56E1     		b	.L204	@long jump
 1929              	.LCB1776:
 884:UartCmd.c     ****                 { 
 1930              		.loc 1 884 0
 1931 0804 1A1C     		mov	r2, r3
 1932 0806 213A     		sub	r2, r2, #33
 1933 0808 5D2A     		cmp	r2, #93
 1934 080a 00D9     		bls	.LCB1781
 1935 080c 51E1     		b	.L204	@long jump
 1936              	.LCB1781:
 889:UartCmd.c     ****                 {
 1937              		.loc 1 889 0
 1938 080e 2E2B     		cmp	r3, #46
 1939 0810 E8D1     		bne	.L64
 1940 0812 0023     		mov	r3, #0
 1941 0814 9846     		mov	r8, r3
ARM GAS  C:\Users\ramanatg\AppData\Local\Temp\ccxbhSsV.s 			page 86


 1942 0816 05E0     		b	.L67
 1943              	.LVL226:
 1944              	.L65:
 891:UartCmd.c     ****                     {
 1945              		.loc 1 891 0
 1946 0818 0123     		mov	r3, #1
 1947 081a 9C46     		mov	ip, r3
 1948 081c E044     		add	r8, r8, ip
 1949              	.LVL227:
 1950 081e 4346     		mov	r3, r8
 1951 0820 0E2B     		cmp	r3, #14
 1952 0822 DFD0     		beq	.L64
 1953              	.LVL228:
 1954              	.L67:
 1955 0824 4346     		mov	r3, r8
 893:UartCmd.c     ****                         /* If we find it. */
 1956              		.loc 1 893 0
 1957 0826 4A46     		mov	r2, r9
 1958 0828 9B00     		lsl	r3, r3, #2
 1959 082a D358     		ldr	r3, [r2, r3]
 1960 082c 181C     		mov	r0, r3
 1961 082e 1F1C     		mov	r7, r3
 1962 0830 FFF7FEFF 		bl	strlen
 1963              	.LVL229:
 895:UartCmd.c     ****                         {
 1964              		.loc 1 895 0
 1965 0834 0004     		lsl	r0, r0, #16
 1966              	.LVL230:
 1967 0836 030C     		lsr	r3, r0, #16
 1968 0838 391C     		mov	r1, r7
 1969 083a 281C     		mov	r0, r5
 1970 083c 1A1C     		mov	r2, r3
 1971 083e 0393     		str	r3, [sp, #12]
 1972 0840 FFF7FEFF 		bl	memcmp
 1973              	.LVL231:
 1974 0844 0028     		cmp	r0, #0
 1975 0846 E7D1     		bne	.L65
 897:UartCmd.c     ****                             /* Skip the suffix we have just found. */
 1976              		.loc 1 897 0
 1977 0848 029A     		ldr	r2, [sp, #8]
 1978 084a 731C     		add	r3, r6, #1
 1979 084c 1370     		strb	r3, [r2]
 1980 084e 5346     		mov	r3, r10
 1981 0850 4246     		mov	r2, r8
 1982 0852 9A55     		strb	r2, [r3, r6]
 899:UartCmd.c     ****                             break;
 1983              		.loc 1 899 0
 1984 0854 039B     		ldr	r3, [sp, #12]
 1985 0856 9C46     		mov	ip, r3
 1986 0858 6544     		add	r5, r5, ip
 1987              	.LVL232:
 1988 085a CAE7     		b	.L62
 1989              	.LVL233:
 1990              	.L585:
 848:UartCmd.c     ****                     continue;
 1991              		.loc 1 848 0
 1992 085c 0131     		add	r1, r1, #1
ARM GAS  C:\Users\ramanatg\AppData\Local\Temp\ccxbhSsV.s 			page 87


 1993              	.LVL234:
 1994 085e 50E7     		b	.L57
 1995              	.LVL235:
 1996              	.L569:
 1997              	.LBE141:
 1998              	.LBE181:
 772:UartCmd.c     ****     }
 1999              		.loc 1 772 0
 2000 0860 C648     		ldr	r0, .L631
 2001 0862 FFF7FEFF 		bl	UART_UartPutString
 2002              	.LVL236:
 2003              	.L42:
 950:UartCmd.c     ****         SIMPLE_UART_PUTCONST((char *)url_PREFIX[pBeaconConfig->URI_Data[0]]); 
 2004              		.loc 1 950 0
 2005 0866 C648     		ldr	r0, .L631+4
 2006 0868 FFF7FEFF 		bl	UART_UartPutString
 2007              	.LVL237:
 951:UartCmd.c     **** 
 2008              		.loc 1 951 0
 2009 086c 4723     		mov	r3, #71
 2010 086e C54D     		ldr	r5, .L631+8
 953:UartCmd.c     ****         {
 2011              		.loc 1 953 0
 2012 0870 4627     		mov	r7, #70
 951:UartCmd.c     **** 
 2013              		.loc 1 951 0
 2014 0872 EB5C     		ldrb	r3, [r5, r3]
 2015 0874 9B00     		lsl	r3, r3, #2
 2016 0876 F058     		ldr	r0, [r6, r3]
 2017 0878 FFF7FEFF 		bl	UART_UartPutString
 2018              	.LVL238:
 953:UartCmd.c     ****         {
 2019              		.loc 1 953 0
 2020 087c 4623     		mov	r3, #70
 2021 087e EB5C     		ldrb	r3, [r5, r3]
 2022 0880 0126     		mov	r6, #1
 2023 0882 012B     		cmp	r3, #1
 2024 0884 09DC     		bgt	.L468
 2025 0886 1DE0     		b	.L537
 2026              	.LVL239:
 2027              	.L586:
 958:UartCmd.c     ****             }
 2028              		.loc 1 958 0
 2029 0888 4B46     		mov	r3, r9
 2030 088a 8000     		lsl	r0, r0, #2
 2031 088c 1858     		ldr	r0, [r3, r0]
 2032 088e FFF7FEFF 		bl	UART_UartPutString
 2033              	.LVL240:
 2034              	.L77:
 953:UartCmd.c     ****         {
 2035              		.loc 1 953 0
 2036 0892 EB5D     		ldrb	r3, [r5, r7]
 2037 0894 0136     		add	r6, r6, #1
 2038              	.LVL241:
 2039 0896 9E42     		cmp	r6, r3
 2040 0898 14DA     		bge	.L537
 2041              	.LVL242:
ARM GAS  C:\Users\ramanatg\AppData\Local\Temp\ccxbhSsV.s 			page 88


 2042              	.L468:
 2043 089a BB4B     		ldr	r3, .L631+12
 2044 089c F318     		add	r3, r6, r3
 956:UartCmd.c     ****             {
 2045              		.loc 1 956 0
 2046 089e 1878     		ldrb	r0, [r3]
 2047 08a0 0D28     		cmp	r0, #13
 2048 08a2 F1D9     		bls	.L586
 963:UartCmd.c     ****             }
 2049              		.loc 1 963 0
 2050 08a4 FFF7FEFF 		bl	UART_SpiUartWriteTxData
 2051              	.LVL243:
 2052 08a8 F3E7     		b	.L77
 2053              	.LVL244:
 2054              	.L603:
 2055              	.LBE189:
 2056              	.LBE401:
 2057              	.LBB402:
 2058              	.LBB403:
1322:UartCmd.c     ****     }
 2059              		.loc 1 1322 0
 2060 08aa B848     		ldr	r0, .L631+16
 2061 08ac FFF7FEFF 		bl	UART_UartPutString
 2062              	.LVL245:
 2063              	.L153:
1391:UartCmd.c     ****     SIMPLE_UART_PUTCONST(str); 
 2064              		.loc 1 1391 0
 2065 08b0 6023     		mov	r3, #96
 2066 08b2 B44A     		ldr	r2, .L631+8
 2067 08b4 11A8     		add	r0, sp, #68
 2068 08b6 D25A     		ldrh	r2, [r2, r3]
 2069 08b8 B549     		ldr	r1, .L631+20
 2070 08ba FFF7FEFF 		bl	sprintf
 2071              	.LVL246:
1392:UartCmd.c     ****     SIMPLE_UART_PUTCONST("\r\n"); 
 2072              		.loc 1 1392 0
 2073 08be 11A8     		add	r0, sp, #68
 2074              	.L539:
 2075              	.LBE403:
 2076              	.LBE402:
 2077              	.LBB406:
 2078              	.LBB407:
1852:UartCmd.c     ****     SIMPLE_UART_PUTCONST("\r\n");
 2079              		.loc 1 1852 0
 2080 08c0 FFF7FEFF 		bl	UART_UartPutString
 2081              	.LVL247:
 2082              	.L537:
1853:UartCmd.c     **** 
 2083              		.loc 1 1853 0
 2084 08c4 B348     		ldr	r0, .L631+24
 2085 08c6 FFF7FEFF 		bl	UART_UartPutString
 2086              	.LVL248:
 2087 08ca 2368     		ldr	r3, [r4]
1855:UartCmd.c     **** }
 2088              		.loc 1 1855 0
 2089 08cc 0025     		mov	r5, #0
 2090 08ce 9B46     		mov	fp, r3
ARM GAS  C:\Users\ramanatg\AppData\Local\Temp\ccxbhSsV.s 			page 89


 2091 08d0 22E5     		b	.L80
 2092              	.LVL249:
 2093              	.L572:
 2094              	.LBE407:
 2095              	.LBE406:
 2096              	.LBB411:
 2097              	.LBB245:
 534:UartCmd.c     ****         {
 2098              		.loc 1 534 0
 2099 08d2 202E     		cmp	r6, #32
 2100 08d4 00D0     		beq	.LCB1959
 2101 08d6 35E5     		b	.L99	@long jump
 2102              	.LCB1959:
 2103              	.LVL250:
 539:UartCmd.c     ****         
 2104              		.loc 1 539 0
 2105 08d8 691D     		add	r1, r5, #5
 2106              	.LVL251:
 2107 08da 0026     		mov	r6, #0
 542:UartCmd.c     ****         for(i = 0; i < SIZE_OF_UUID_PARAM; i++)
 2108              		.loc 1 542 0
 2109 08dc 0023     		mov	r3, #0
 2110 08de 17E0     		b	.L85
 2111              	.LVL252:
 2112              	.L588:
 546:UartCmd.c     ****                (UUID_STR_HYPHEN_POS_2 == i) || 
 2113              		.loc 1 546 0
 2114 08e0 0D28     		cmp	r0, #13
 2115 08e2 18D0     		beq	.L87
 547:UartCmd.c     ****                (UUID_STR_HYPHEN_POS_3 == i) || 
 2116              		.loc 1 547 0
 2117 08e4 1228     		cmp	r0, #18
 2118 08e6 16D0     		beq	.L87
 548:UartCmd.c     ****                (UUID_STR_HYPHEN_POS_4 == i))
 2119              		.loc 1 548 0
 2120 08e8 1728     		cmp	r0, #23
 2121 08ea 14D0     		beq	.L87
 560:UartCmd.c     ****             }
 2122              		.loc 1 560 0
 2123 08ec 0F78     		ldrb	r7, [r1]
 2124 08ee 581C     		add	r0, r3, #1
 2125 08f0 BC46     		mov	ip, r7
 2126 08f2 6246     		mov	r2, ip
 2127 08f4 16AF     		add	r7, sp, #88
 2128 08f6 FA54     		strb	r2, [r7, r3]
 543:UartCmd.c     ****         {
 2129              		.loc 1 543 0
 2130 08f8 4346     		mov	r3, r8
 2131              	.LVL253:
 560:UartCmd.c     ****             }
 2132              		.loc 1 560 0
 2133 08fa 80B2     		uxth	r0, r0
 2134              	.LVL254:
 543:UartCmd.c     ****         {
 2135              		.loc 1 543 0
 2136 08fc 242B     		cmp	r3, #36
 2137 08fe 00D1     		bne	.LCB2000
ARM GAS  C:\Users\ramanatg\AppData\Local\Temp\ccxbhSsV.s 			page 90


 2138 0900 56E1     		b	.L587	@long jump
 2139              	.LCB2000:
 2140              	.LVL255:
 2141              	.L88:
 2142 0902 4246     		mov	r2, r8
 2143 0904 0132     		add	r2, r2, #1
 2144 0906 93B2     		uxth	r3, r2
 2145 0908 9846     		mov	r8, r3
 552:UartCmd.c     ****                 {
 2146              		.loc 1 552 0
 2147 090a 031C     		mov	r3, r0
 2148 090c 0136     		add	r6, r6, #1
 2149 090e 0131     		add	r1, r1, #1
 2150              	.L85:
 2151              	.LVL256:
 2152 0910 B0B2     		uxth	r0, r6
 546:UartCmd.c     ****                (UUID_STR_HYPHEN_POS_2 == i) || 
 2153              		.loc 1 546 0
 2154 0912 082E     		cmp	r6, #8
 2155 0914 E4D1     		bne	.L588
 2156              	.LVL257:
 2157              	.L87:
 552:UartCmd.c     ****                 {
 2158              		.loc 1 552 0
 2159 0916 0878     		ldrb	r0, [r1]
 2160 0918 2D28     		cmp	r0, #45
 2161 091a 00D0     		beq	.LCB2022
 2162 091c 8BE5     		b	.L116	@long jump
 2163              	.LCB2022:
 2164 091e 181C     		mov	r0, r3
 2165 0920 EFE7     		b	.L88
 2166              	.LVL258:
 2167              	.L571:
 528:UartCmd.c     ****     }
 2168              		.loc 1 528 0
 2169 0922 9D48     		ldr	r0, .L631+28
 2170 0924 FFF7FEFF 		bl	UART_UartPutString
 2171              	.LVL259:
 2172 0928 16AB     		add	r3, sp, #88
 2173 092a 9946     		mov	r9, r3
 2174              	.LVL260:
 2175              	.L96:
 2176              	.LBB197:
 2177              	.LBB198:
 2178              	.LBB199:
 2179              	.LBB200:
 2180              	.LBB201:
 2181              	.LBB202:
 2182              	.LBB203:
 2183              	.LBB204:
2617:UartCmd.c     ****     }
 2184              		.loc 1 2617 0
 2185 092c 0023     		mov	r3, #0
 2186 092e 9B4D     		ldr	r5, .L631+32
 2187 0930 9846     		mov	r8, r3
 2188              	.LBE204:
 2189              	.LBE203:
ARM GAS  C:\Users\ramanatg\AppData\Local\Temp\ccxbhSsV.s 			page 91


 2190              	.LBE202:
 2191              	.LBE201:
 2192              	.LBE200:
 2193              	.LBE199:
 2194              	.LBE198:
 2195              	.LBE197:
 582:UartCmd.c     ****            (UUID_HYPHEN_POS_2 == i) || \
 2196              		.loc 1 582 0
 2197 0932 0233     		add	r3, r3, #2
 2198 0934 9B46     		mov	fp, r3
 2199 0936 0233     		add	r3, r3, #2
 2200 0938 9A46     		mov	r10, r3
 2201 093a 2B1C     		mov	r3, r5
 2202              	.LBB242:
 2203              	.LBB239:
 2204              	.LBB235:
 2205              	.LBB231:
 2206              	.LBB218:
 2207              	.LBB213:
 2208              	.LBB209:
 2209              	.LBB205:
2617:UartCmd.c     ****     }
 2210              		.loc 1 2617 0
 2211 093c 0027     		mov	r7, #0
 2212 093e 4546     		mov	r5, r8
 2213 0940 0026     		mov	r6, #0
 2214 0942 9846     		mov	r8, r3
 2215              	.LVL261:
 2216              	.L83:
 2217              	.LBE205:
 2218              	.LBE209:
 2219              	.LBE213:
 2220              	.LBE218:
 2221              	.LBE231:
 2222              	.LBE235:
 2223              	.LBE239:
 2224              	.LBE242:
 582:UartCmd.c     ****            (UUID_HYPHEN_POS_2 == i) || \
 2225              		.loc 1 582 0
 2226 0944 5A46     		mov	r2, fp
 2227 0946 3B1C     		mov	r3, r7
 2228 0948 9343     		bic	r3, r2
 2229 094a 5246     		mov	r2, r10
 2230 094c 043B     		sub	r3, r3, #4
 2231 094e 9343     		bic	r3, r2
 2232 0950 9BB2     		uxth	r3, r3
 2233 0952 002B     		cmp	r3, #0
 2234 0954 00D1     		bne	.LCB2101
 2235 0956 79E2     		b	.L589	@long jump
 2236              	.LCB2101:
 2237              	.L98:
 590:UartCmd.c     ****     }
 2238              		.loc 1 590 0
 2239 0958 8A4B     		ldr	r3, .L631+8
 2240 095a 7019     		add	r0, r6, r5
 2241 095c FB18     		add	r3, r7, r3
 2242 095e 4844     		add	r0, r0, r9
ARM GAS  C:\Users\ramanatg\AppData\Local\Temp\ccxbhSsV.s 			page 92


 2243 0960 1A79     		ldrb	r2, [r3, #4]
 2244 0962 4146     		mov	r1, r8
 2245 0964 0137     		add	r7, r7, #1
 2246              	.LVL262:
 2247 0966 FFF7FEFF 		bl	sprintf
 2248              	.LVL263:
 2249 096a 0235     		add	r5, r5, #2
 580:UartCmd.c     ****     {
 2250              		.loc 1 580 0
 2251 096c 102F     		cmp	r7, #16
 2252 096e E9D1     		bne	.L83
 2253 0970 8BE5     		b	.L545
 2254              	.LVL264:
 2255              	.L580:
 2256              	.LBE245:
 2257              	.LBE411:
 2258              	.LBB412:
 2259              	.LBB356:
 2260              	.LBB351:
 2261              	.LBB347:
 2262              	.LBB343:
 2263              	.LBB338:
 2264              	.LBB332:
 2265              	.LBB320:
 2266              	.LBB317:
 2267              	.LBB314:
2613:UartCmd.c     ****     }
 2268              		.loc 1 2613 0
 2269 0972 573B     		sub	r3, r3, #87
 2270              	.LVL265:
 2271 0974 DAB2     		uxtb	r2, r3
 2272              	.LVL266:
 2273              	.L117:
 2274              	.LBE314:
 2275              	.LBE317:
 2276              	.LBE320:
 2277              	.LBE332:
2569:UartCmd.c     ****     /* If the character is not in '0' and 'f/F'. */
 2278              		.loc 1 2569 0
 2279 0976 7378     		ldrb	r3, [r6, #1]
 2280              	.LVL267:
 2281              	.LBB333:
 2282              	.LBB328:
2600:UartCmd.c     ****     {
 2283              		.loc 1 2600 0
 2284 0978 181C     		mov	r0, r3
 2285 097a 3038     		sub	r0, r0, #48
 2286 097c C0B2     		uxtb	r0, r0
 2287 097e 0928     		cmp	r0, #9
 2288 0980 00D9     		bls	.LCB2169
 2289 0982 C0E5     		b	.L296	@long jump
 2290              	.LCB2169:
 2291 0984 CDE5     		b	.L301
 2292              	.LVL268:
 2293              	.L44:
 2294              	.LBE328:
 2295              	.LBE333:
ARM GAS  C:\Users\ramanatg\AppData\Local\Temp\ccxbhSsV.s 			page 93


 2296              	.LBE338:
 2297              	.LBE343:
 2298              	.LBE347:
 2299              	.LBE351:
 2300              	.LBE356:
 2301              	.LBE412:
 2302              	.LBB413:
 2303              	.LBB190:
 2304              	.LBB182:
 2305              	.LBB142:
 801:UartCmd.c     ****             {
 2306              		.loc 1 801 0
 2307 0986 5B46     		mov	r3, fp
 2308 0988 DB79     		ldrb	r3, [r3, #7]
 2309 098a 303B     		sub	r3, r3, #48
 2310 098c DBB2     		uxtb	r3, r3
 2311 098e 032B     		cmp	r3, #3
 2312 0990 00D9     		bls	.LCB2205
 2313 0992 C1E4     		b	.L80	@long jump
 2314              	.LCB2205:
 803:UartCmd.c     ****             }
 2315              		.loc 1 803 0
 2316 0994 029A     		ldr	r2, [sp, #8]
 2317 0996 1570     		strb	r5, [r2]
 2318 0998 11AA     		add	r2, sp, #68
 2319 099a 1370     		strb	r3, [r2]
 811:UartCmd.c     ****             {
 2320              		.loc 1 811 0
 2321 099c 5B46     		mov	r3, fp
 803:UartCmd.c     ****             }
 2322              		.loc 1 803 0
 2323 099e 5D46     		mov	r5, fp
 811:UartCmd.c     ****             {
 2324              		.loc 1 811 0
 2325 09a0 1B7A     		ldrb	r3, [r3, #8]
 803:UartCmd.c     ****             }
 2326              		.loc 1 803 0
 2327 09a2 0835     		add	r5, r5, #8
 2328              	.LVL269:
 2329 09a4 9246     		mov	r10, r2
 811:UartCmd.c     ****             {
 2330              		.loc 1 811 0
 2331 09a6 002B     		cmp	r3, #0
 2332 09a8 4CD0     		beq	.L47
 2333 09aa 02A9     		add	r1, sp, #8
 2334 09ac 3D22     		mov	r2, #61
 2335 09ae 8C46     		mov	ip, r1
 2336 09b0 0120     		mov	r0, #1
 2337              	.LVL270:
 2338 09b2 6244     		add	r2, r2, ip
 2339              	.L55:
 2340              	.LVL271:
 2341              	.LBB143:
 2342              	.LBB144:
 2343              	.LBB145:
 2344              	.LBB146:
2600:UartCmd.c     ****     {
ARM GAS  C:\Users\ramanatg\AppData\Local\Temp\ccxbhSsV.s 			page 94


 2345              		.loc 1 2600 0
 2346 09b4 191C     		mov	r1, r3
 2347 09b6 3039     		sub	r1, r1, #48
 2348 09b8 C9B2     		uxtb	r1, r1
 2349 09ba 0929     		cmp	r1, #9
 2350 09bc 19D9     		bls	.L48
2605:UartCmd.c     ****     {
 2351              		.loc 1 2605 0
 2352 09be 191C     		mov	r1, r3
 2353 09c0 4139     		sub	r1, r1, #65
 2354 09c2 0529     		cmp	r1, #5
 2355 09c4 35D9     		bls	.L590
 2356              	.LVL272:
 2357              	.LBB147:
 2358              	.LBB148:
2610:UartCmd.c     ****     {
 2359              		.loc 1 2610 0
 2360 09c6 191C     		mov	r1, r3
 2361 09c8 6139     		sub	r1, r1, #97
 2362 09ca 0529     		cmp	r1, #5
 2363 09cc 0FD9     		bls	.L591
 2364              	.LBE148:
 2365              	.LBE147:
 2366              	.LBE146:
 2367              	.LBE145:
2569:UartCmd.c     ****     /* If the character is not in '0' and 'f/F'. */
 2368              		.loc 1 2569 0
 2369 09ce 6B78     		ldrb	r3, [r5, #1]
 2370              	.LVL273:
 2371 09d0 9846     		mov	r8, r3
 2372              	.LVL274:
 2373              	.LBB156:
 2374              	.LBB157:
2600:UartCmd.c     ****     {
 2375              		.loc 1 2600 0
 2376 09d2 303B     		sub	r3, r3, #48
 2377              	.LVL275:
 2378 09d4 092B     		cmp	r3, #9
 2379 09d6 08D9     		bls	.L413
 2380              	.LBE157:
 2381              	.LBE156:
 2382              	.LBB165:
 2383              	.LBB153:
 2384              	.LBB151:
 2385              	.LBB149:
2617:UartCmd.c     ****     }
 2386              		.loc 1 2617 0
 2387 09d8 FF21     		mov	r1, #255
 2388              	.LVL276:
 2389              	.L293:
 2390              	.LBE149:
 2391              	.LBE151:
 2392              	.LBE153:
 2393              	.LBE165:
 2394              	.LBB166:
 2395              	.LBB162:
2605:UartCmd.c     ****     {
ARM GAS  C:\Users\ramanatg\AppData\Local\Temp\ccxbhSsV.s 			page 95


 2396              		.loc 1 2605 0
 2397 09da 4346     		mov	r3, r8
 2398 09dc 413B     		sub	r3, r3, #65
 2399 09de 052B     		cmp	r3, #5
 2400 09e0 2AD9     		bls	.L543
 2401              	.LVL277:
 2402              	.LBB158:
 2403              	.LBB159:
2610:UartCmd.c     ****     {
 2404              		.loc 1 2610 0
 2405 09e2 4346     		mov	r3, r8
 2406 09e4 613B     		sub	r3, r3, #97
 2407 09e6 052B     		cmp	r3, #5
 2408 09e8 26D9     		bls	.L543
 2409              	.LVL278:
 2410              	.L413:
 2411              	.LBE159:
 2412              	.LBE158:
 2413              	.LBE162:
 2414              	.LBE166:
 2415              	.LBE144:
 2416              	.LBE143:
 2417              	.LBE142:
 2418              	.LBE182:
 2419              	.LBE190:
 2420              	.LBE413:
 2421              	.LBB414:
 2422              	.LBB415:
2384:UartCmd.c     ****         }
 2423              		.loc 1 2384 0
 2424 09ea 0125     		mov	r5, #1
 2425              	.LVL279:
 2426 09ec 94E4     		b	.L80
 2427              	.LVL280:
 2428              	.L591:
 2429              	.LBE415:
 2430              	.LBE414:
 2431              	.LBB457:
 2432              	.LBB191:
 2433              	.LBB183:
 2434              	.LBB177:
 2435              	.LBB174:
 2436              	.LBB171:
 2437              	.LBB167:
 2438              	.LBB154:
 2439              	.LBB152:
 2440              	.LBB150:
2613:UartCmd.c     ****     }
 2441              		.loc 1 2613 0
 2442 09ee 573B     		sub	r3, r3, #87
 2443              	.LVL281:
 2444 09f0 D9B2     		uxtb	r1, r3
 2445              	.L48:
 2446              	.LBE150:
 2447              	.LBE152:
 2448              	.LBE154:
 2449              	.LBE167:
ARM GAS  C:\Users\ramanatg\AppData\Local\Temp\ccxbhSsV.s 			page 96


2569:UartCmd.c     ****     /* If the character is not in '0' and 'f/F'. */
 2450              		.loc 1 2569 0
 2451 09f2 6B78     		ldrb	r3, [r5, #1]
 2452 09f4 9846     		mov	r8, r3
 2453              	.LVL282:
 2454              	.LBB168:
 2455              	.LBB163:
2600:UartCmd.c     ****     {
 2456              		.loc 1 2600 0
 2457 09f6 303B     		sub	r3, r3, #48
 2458              	.LVL283:
 2459 09f8 DBB2     		uxtb	r3, r3
 2460 09fa 092B     		cmp	r3, #9
 2461 09fc EDD8     		bhi	.L293
 2462              	.LVL284:
 2463              	.L298:
 2464              	.LBE163:
 2465              	.LBE168:
 2466              	.LBE171:
 2467              	.LBE174:
 820:UartCmd.c     ****                     (tmp_result < KINDS_OF_URL_SUFFIX) )
 2468              		.loc 1 820 0
 2469 09fe 2127     		mov	r7, #33
 2470 0a00 7F42     		neg	r7, r7
 2471 0a02 BC46     		mov	ip, r7
 2472              	.LBB175:
 2473              	.LBB172:
2576:UartCmd.c     **** }
 2474              		.loc 1 2576 0
 2475 0a04 0901     		lsl	r1, r1, #4
 2476 0a06 0B43     		orr	r3, r1
 2477 0a08 99B2     		uxth	r1, r3
 2478              	.LBE172:
 2479              	.LBE175:
 820:UartCmd.c     ****                     (tmp_result < KINDS_OF_URL_SUFFIX) )
 2480              		.loc 1 820 0
 2481 0a0a 8C44     		add	ip, ip, r1
 2482 0a0c 6746     		mov	r7, ip
 2483 0a0e 5D2F     		cmp	r7, #93
 2484 0a10 01D9     		bls	.L54
 2485 0a12 0D29     		cmp	r1, #13
 2486 0a14 E9D8     		bhi	.L413
 2487              	.L54:
 823:UartCmd.c     ****                 }
 2488              		.loc 1 823 0
 2489 0a16 0130     		add	r0, r0, #1
 2490 0a18 0299     		ldr	r1, [sp, #8]
 2491 0a1a C0B2     		uxtb	r0, r0
 2492 0a1c 0870     		strb	r0, [r1]
 2493 0a1e 1370     		strb	r3, [r2]
 811:UartCmd.c     ****             {
 2494              		.loc 1 811 0
 2495 0a20 0235     		add	r5, r5, #2
 2496              	.LVL285:
 2497 0a22 2B78     		ldrb	r3, [r5]
 2498 0a24 002B     		cmp	r3, #0
 2499 0a26 0DD0     		beq	.L47
ARM GAS  C:\Users\ramanatg\AppData\Local\Temp\ccxbhSsV.s 			page 97


 2500 0a28 0132     		add	r2, r2, #1
 2501 0a2a 1228     		cmp	r0, #18
 2502 0a2c C2D1     		bne	.L55
 2503              	.LBE177:
 2504              	.LBE183:
 2505              	.LBE191:
 2506              	.LBE457:
 2507              	.LBB458:
 2508              	.LBB450:
2384:UartCmd.c     ****         }
 2509              		.loc 1 2384 0
 2510 0a2e 0125     		mov	r5, #1
 2511              	.LVL286:
 2512 0a30 72E4     		b	.L80
 2513              	.LVL287:
 2514              	.L590:
 2515              	.LBE450:
 2516              	.LBE458:
 2517              	.LBB459:
 2518              	.LBB192:
 2519              	.LBB184:
 2520              	.LBB178:
 2521              	.LBB176:
 2522              	.LBB173:
 2523              	.LBB169:
 2524              	.LBB155:
2608:UartCmd.c     ****     }
 2525              		.loc 1 2608 0
 2526 0a32 373B     		sub	r3, r3, #55
 2527              	.LVL288:
 2528 0a34 D9B2     		uxtb	r1, r3
 2529 0a36 DCE7     		b	.L48
 2530              	.L543:
 2531              	.LBE155:
 2532              	.LBE169:
 2533              	.LBB170:
 2534              	.LBB164:
 2535              	.LBB161:
 2536              	.LBB160:
2613:UartCmd.c     ****     }
 2537              		.loc 1 2613 0
 2538 0a38 0A33     		add	r3, r3, #10
 2539 0a3a DBB2     		uxtb	r3, r3
 2540              	.LBE160:
 2541              	.LBE161:
 2542              	.LBE164:
 2543              	.LBE170:
2571:UartCmd.c     ****        (lower_nibble == ATOX_PARAM_ERROR))
 2544              		.loc 1 2571 0
 2545 0a3c FF29     		cmp	r1, #255
 2546 0a3e DED1     		bne	.L298
 2547              	.LBE173:
 2548              	.LBE176:
 2549              	.LBE178:
 2550              	.LBE184:
 2551              	.LBE192:
 2552              	.LBE459:
ARM GAS  C:\Users\ramanatg\AppData\Local\Temp\ccxbhSsV.s 			page 98


 2553              	.LBB460:
 2554              	.LBB451:
2384:UartCmd.c     ****         }
 2555              		.loc 1 2384 0
 2556 0a40 0125     		mov	r5, #1
 2557              	.LVL289:
 2558 0a42 69E4     		b	.L80
 2559              	.LVL290:
 2560              	.L47:
 2561              	.LBE451:
 2562              	.LBE460:
 2563              	.LBB461:
 2564              	.LBB193:
 2565              	.LBB185:
 2566              	.LBB179:
 795:UartCmd.c     ****             
 2567              		.loc 1 795 0
 2568 0a44 0025     		mov	r5, #0
 2569              	.LVL291:
 2570              	.L69:
 2571              	.LBE179:
 925:UartCmd.c     ****         {
 2572              		.loc 1 925 0
 2573 0a46 4F4B     		ldr	r3, .L631+8
 2574 0a48 9846     		mov	r8, r3
 2575 0a4a 3523     		mov	r3, #53
 2576 0a4c 4246     		mov	r2, r8
 2577 0a4e D35C     		ldrb	r3, [r2, r3]
 2578 0a50 002B     		cmp	r3, #0
 2579 0a52 32D0     		beq	.L592
 2580              	.LVL292:
 2581              	.L540:
 2582 0a54 2368     		ldr	r3, [r4]
 2583              	.LBE185:
 2584              	.LBE193:
 2585              	.LBE461:
 2586              	.LBB462:
 2587              	.LBB408:
1829:UartCmd.c     ****         }
 2588              		.loc 1 1829 0
 2589 0a56 0225     		mov	r5, #2
 2590 0a58 9B46     		mov	fp, r3
 2591 0a5a 5DE4     		b	.L80
 2592              	.L564:
 2593              	.LVL293:
 2594              	.LBE408:
 2595              	.LBE462:
 2596              	.LBB463:
 2597              	.LBB464:
1670:UartCmd.c     ****     int8_t tmp_Adv_TXPowerLevels[ES_TX_POWER_MODE_COUNT];
 2598              		.loc 1 1670 0
 2599 0a5c 11AB     		add	r3, sp, #68
 2600 0a5e 9A46     		mov	r10, r3
 2601 0a60 1870     		strb	r0, [r3]
 2602 0a62 5870     		strb	r0, [r3, #1]
 2603 0a64 9870     		strb	r0, [r3, #2]
 2604 0a66 D870     		strb	r0, [r3, #3]
ARM GAS  C:\Users\ramanatg\AppData\Local\Temp\ccxbhSsV.s 			page 99


 2605 0a68 1871     		strb	r0, [r3, #4]
 2606 0a6a 5871     		strb	r0, [r3, #5]
1674:UartCmd.c     ****     {
 2607              		.loc 1 1674 0
 2608 0a6c 2368     		ldr	r3, [r4]
 2609 0a6e 9B46     		mov	fp, r3
 2610 0a70 DB79     		ldrb	r3, [r3, #7]
 2611 0a72 002B     		cmp	r3, #0
 2612 0a74 00D1     		bne	.LCB2531
 2613 0a76 B9E2     		b	.L593	@long jump
 2614              	.LCB2531:
 2615              	.LVL294:
1687:UartCmd.c     ****             
 2616              		.loc 1 1687 0
 2617 0a78 5D46     		mov	r5, fp
 2618 0a7a 0026     		mov	r6, #0
 2619 0a7c 0835     		add	r5, r5, #8
 2620              	.LVL295:
1695:UartCmd.c     ****             {
 2621              		.loc 1 1695 0
 2622 0a7e 2027     		mov	r7, #32
1687:UartCmd.c     ****             
 2623              		.loc 1 1687 0
 2624 0a80 202B     		cmp	r3, #32
 2625 0a82 B2D1     		bne	.L413
 2626              	.LVL296:
 2627              	.L185:
1695:UartCmd.c     ****             {
 2628              		.loc 1 1695 0
 2629 0a84 2A78     		ldrb	r2, [r5]
 2630 0a86 131C     		mov	r3, r2
 2631 0a88 BB43     		bic	r3, r7
 2632 0a8a 00D1     		bne	.LCB2554
 2633 0a8c 92E2     		b	.L365	@long jump
 2634              	.LCB2554:
 2635 0a8e 0023     		mov	r3, #0
 2636 0a90 0BE0     		b	.L190
 2637              	.LVL297:
 2638              	.L187:
1697:UartCmd.c     ****                    ((*p >= '0') && (*p <= '9')))        /* The char is in 0~9. */
 2639              		.loc 1 1697 0
 2640 0a92 303A     		sub	r2, r2, #48
 2641 0a94 092A     		cmp	r2, #9
 2642 0a96 0CD8     		bhi	.L204
 2643              	.L188:
1700:UartCmd.c     ****                     i++;
 2644              		.loc 1 1700 0
 2645 0a98 0135     		add	r5, r5, #1
 2646              	.LVL298:
1695:UartCmd.c     ****             {
 2647              		.loc 1 1695 0
 2648 0a9a 2A78     		ldrb	r2, [r5]
1701:UartCmd.c     ****                 }
 2649              		.loc 1 1701 0
 2650 0a9c 0133     		add	r3, r3, #1
 2651              	.LVL299:
1695:UartCmd.c     ****             {
ARM GAS  C:\Users\ramanatg\AppData\Local\Temp\ccxbhSsV.s 			page 100


 2652              		.loc 1 1695 0
 2653 0a9e 111C     		mov	r1, r2
1701:UartCmd.c     ****                 }
 2654              		.loc 1 1701 0
 2655 0aa0 DBB2     		uxtb	r3, r3
 2656              	.LVL300:
1695:UartCmd.c     ****             {
 2657              		.loc 1 1695 0
 2658 0aa2 B943     		bic	r1, r7
 2659 0aa4 01D1     		bne	.LCB2581
 2660 0aa6 00F039FF 		bl	.L594	@far jump
 2661              	.LCB2581:
 2662              	.LVL301:
 2663              	.L190:
1697:UartCmd.c     ****                    ((*p >= '0') && (*p <= '9')))        /* The char is in 0~9. */
 2664              		.loc 1 1697 0
 2665 0aaa 2D2A     		cmp	r2, #45
 2666 0aac F1D1     		bne	.L187
 2667 0aae 002B     		cmp	r3, #0
 2668 0ab0 F2D0     		beq	.L188
 2669              	.LVL302:
 2670              	.L204:
 2671 0ab2 2368     		ldr	r3, [r4]
 2672              	.LBE464:
 2673              	.LBE463:
 2674              	.LBB467:
 2675              	.LBB409:
1823:UartCmd.c     ****         }
 2676              		.loc 1 1823 0
 2677 0ab4 0125     		mov	r5, #1
 2678 0ab6 9B46     		mov	fp, r3
 2679 0ab8 2EE4     		b	.L80
 2680              	.LVL303:
 2681              	.L592:
 2682              	.LBE409:
 2683              	.LBE467:
 2684              	.LBB468:
 2685              	.LBB194:
 2686              	.LBB186:
 930:UartCmd.c     ****         ConfigRW_UpdateConfig(CONFIG_TYPE_URIDATA, tmp_Uri_Data);
 2687              		.loc 1 930 0
 2688 0aba 0299     		ldr	r1, [sp, #8]
 2689 0abc 0F20     		mov	r0, #15
 2690 0abe FFF7FEFF 		bl	ConfigRW_UpdateConfig
 2691              	.LVL304:
 931:UartCmd.c     ****         
 2692              		.loc 1 931 0
 2693 0ac2 5146     		mov	r1, r10
 2694 0ac4 1020     		mov	r0, #16
 2695 0ac6 FFF7FEFF 		bl	ConfigRW_UpdateConfig
 2696              	.LVL305:
 935:UartCmd.c     ****         UpdateHandle.attrHandle = CYBLE_EDDYSTONEURL_CONFIGURATION_URI_DATA_CHAR_HANDLE;
 2697              		.loc 1 935 0
 2698 0aca 4627     		mov	r7, #70
 2699 0acc 4346     		mov	r3, r8
 2700 0ace 6822     		mov	r2, #104
 2701 0ad0 DB5D     		ldrb	r3, [r3, r7]
ARM GAS  C:\Users\ramanatg\AppData\Local\Temp\ccxbhSsV.s 			page 101


 2702 0ad2 3349     		ldr	r1, .L631+36
 936:UartCmd.c     ****         UpdateHandle.value.val  = pBeaconConfig->URI_Data;
 2703              		.loc 1 936 0
 2704 0ad4 0AA8     		add	r0, sp, #40
 935:UartCmd.c     ****         UpdateHandle.attrHandle = CYBLE_EDDYSTONEURL_CONFIGURATION_URI_DATA_CHAR_HANDLE;
 2705              		.loc 1 935 0
 2706 0ad6 8B52     		strh	r3, [r1, r2]
 936:UartCmd.c     ****         UpdateHandle.value.val  = pBeaconConfig->URI_Data;
 2707              		.loc 1 936 0
 2708 0ad8 543A     		sub	r2, r2, #84
 2709 0ada 0281     		strh	r2, [r0, #8]
 937:UartCmd.c     ****         UpdateHandle.value.len  = pBeaconConfig->URI_Length;
 2710              		.loc 1 937 0
 2711 0adc 2A4A     		ldr	r2, .L631+12
 938:UartCmd.c     ****         CyBle_GattsWriteAttributeValue(&UpdateHandle, 
 2712              		.loc 1 938 0
 2713 0ade 8380     		strh	r3, [r0, #4]
 937:UartCmd.c     ****         UpdateHandle.value.len  = pBeaconConfig->URI_Length;
 2714              		.loc 1 937 0
 2715 0ae0 0A92     		str	r2, [sp, #40]
 939:UartCmd.c     ****                                        WRITE_ATTRIB_OFFSET_0, 
 2716              		.loc 1 939 0
 2717 0ae2 0021     		mov	r1, #0
 2718 0ae4 0022     		mov	r2, #0
 2719 0ae6 0023     		mov	r3, #0
 2720 0ae8 FFF7FEFF 		bl	CyBle_GattsWriteAttributeValue
 2721              	.LVL306:
 944:UartCmd.c     ****     }
 2722              		.loc 1 944 0
 2723 0aec 2D48     		ldr	r0, .L631+40
 2724 0aee FFF7FEFF 		bl	UART_UartPutString
 2725              	.LVL307:
 2726              	.LBE186:
 948:UartCmd.c     ****     {
 2727              		.loc 1 948 0
 2728 0af2 002D     		cmp	r5, #0
 2729 0af4 00D0     		beq	.LCB2647
 2730 0af6 B6E6     		b	.L42	@long jump
 2731              	.LCB2647:
 2732              	.LVL308:
 2733              	.LBB187:
 973:UartCmd.c     ****         {
 2734              		.loc 1 973 0
 2735 0af8 4346     		mov	r3, r8
 2736 0afa DB5D     		ldrb	r3, [r3, r7]
 2737 0afc 002B     		cmp	r3, #0
 2738 0afe 00D1     		bne	.LCB2653
 2739 0b00 E0E6     		b	.L537	@long jump
 2740              	.LCB2653:
 2741 0b02 0026     		mov	r6, #0
 2742 0b04 4627     		mov	r7, #70
 2743 0b06 254D     		ldr	r5, .L631+32
 2744              	.LVL309:
 2745              	.L73:
 2746 0b08 1F4B     		ldr	r3, .L631+12
 975:UartCmd.c     ****             SIMPLE_UART_PUTCONST(str);
 2747              		.loc 1 975 0
ARM GAS  C:\Users\ramanatg\AppData\Local\Temp\ccxbhSsV.s 			page 102


 2748 0b0a 291C     		mov	r1, r5
 2749 0b0c F318     		add	r3, r6, r3
 2750 0b0e 1A78     		ldrb	r2, [r3]
 2751 0b10 5046     		mov	r0, r10
 2752 0b12 FFF7FEFF 		bl	sprintf
 2753              	.LVL310:
 976:UartCmd.c     ****         }
 2754              		.loc 1 976 0
 2755 0b16 5046     		mov	r0, r10
 2756 0b18 FFF7FEFF 		bl	UART_UartPutString
 2757              	.LVL311:
 973:UartCmd.c     ****         {
 2758              		.loc 1 973 0
 2759 0b1c 4346     		mov	r3, r8
 2760 0b1e DB5D     		ldrb	r3, [r3, r7]
 2761 0b20 0136     		add	r6, r6, #1
 2762              	.LVL312:
 2763 0b22 9E42     		cmp	r6, r3
 2764 0b24 F0DB     		blt	.L73
 2765 0b26 CDE6     		b	.L537
 2766              	.LVL313:
 2767              	.L312:
 2768 0b28 5E46     		mov	r6, fp
 2769              	.LBE187:
 767:UartCmd.c     ****     
 2770              		.loc 1 767 0
 2771 0b2a 0125     		mov	r5, #1
 2772              	.LVL314:
 2773 0b2c 8BE7     		b	.L69
 2774              	.LVL315:
 2775              	.L310:
 2776              	.LBB188:
 2777              	.LBB180:
 862:UartCmd.c     ****             {
 2778              		.loc 1 862 0
 2779 0b2e 0223     		mov	r3, #2
 2780 0b30 35E6     		b	.L61
 2781              	.LVL316:
 2782              	.L309:
 2783 0b32 0123     		mov	r3, #1
 2784 0b34 33E6     		b	.L61
 2785              	.LVL317:
 2786              	.L308:
 2787 0b36 0023     		mov	r3, #0
 2788 0b38 31E6     		b	.L61
 2789              	.LVL318:
 2790              	.L582:
 2791              	.LBE180:
 2792              	.LBE188:
 2793              	.LBE194:
 2794              	.LBE468:
 2795              	.LBB469:
 2796              	.LBB374:
1089:UartCmd.c     ****     }
 2797              		.loc 1 1089 0
 2798 0b3a 1B48     		ldr	r0, .L631+44
 2799 0b3c FFF7FEFF 		bl	UART_UartPutString
ARM GAS  C:\Users\ramanatg\AppData\Local\Temp\ccxbhSsV.s 			page 103


 2800              	.LVL319:
 2801 0b40 41E5     		b	.L139
 2802              	.LVL320:
 2803              	.L130:
 2804              	.LBE374:
 2805              	.LBE469:
 2806              	.LBB470:
 2807              	.LBB399:
 2808              	.LBB396:
 2809              	.LBB390:
2608:UartCmd.c     ****     }
 2810              		.loc 1 2608 0
 2811 0b42 373B     		sub	r3, r3, #55
 2812              	.LVL321:
 2813 0b44 DAB2     		uxtb	r2, r3
 2814 0b46 67E5     		b	.L129
 2815              	.LVL322:
 2816              	.L583:
 2817              	.LBE390:
 2818              	.LBE396:
1015:UartCmd.c     ****     }
 2819              		.loc 1 1015 0
 2820 0b48 1848     		ldr	r0, .L631+48
 2821 0b4a FFF7FEFF 		bl	UART_UartPutString
 2822              	.LVL323:
 2823 0b4e BCE5     		b	.L127
 2824              	.LVL324:
 2825              	.L132:
 2826              	.LBB397:
 2827              	.LBB391:
2608:UartCmd.c     ****     }
 2828              		.loc 1 2608 0
 2829 0b50 373B     		sub	r3, r3, #55
 2830              	.LVL325:
 2831 0b52 DAB2     		uxtb	r2, r3
 2832 0b54 77E5     		b	.L131
 2833              	.LVL326:
 2834              	.L574:
 2835              	.LBE391:
 2836              	.LBE397:
 2837              	.LBE399:
 2838              	.LBE470:
 2839              	.LBB471:
 2840              	.LBB302:
 2841              	.LBB299:
 2842              	.LBB296:
 2843              	.LBB293:
 2844              	.LBB289:
 2845              	.LBB283:
 2846              	.LBB267:
 2847 0b56 373B     		sub	r3, r3, #55
 2848              	.LVL327:
 2849 0b58 DAB2     		uxtb	r2, r3
 2850 0b5a 71E4     		b	.L104
 2851              	.LVL328:
 2852              	.L577:
 2853              	.LBE267:
ARM GAS  C:\Users\ramanatg\AppData\Local\Temp\ccxbhSsV.s 			page 104


 2854              	.LBE283:
 2855              	.LBB284:
 2856              	.LBB276:
 2857              	.LBB273:
 2858              	.LBB272:
2613:UartCmd.c     ****     }
 2859              		.loc 1 2613 0
 2860 0b5c 573B     		sub	r3, r3, #87
 2861              	.LVL329:
 2862 0b5e D8B2     		uxtb	r0, r3
 2863              	.LVL330:
 2864              	.L109:
 2865              	.LBE272:
 2866              	.LBE273:
 2867              	.LBE276:
 2868              	.LBE284:
2571:UartCmd.c     ****        (lower_nibble == ATOX_PARAM_ERROR))
 2869              		.loc 1 2571 0
 2870 0b60 FF2A     		cmp	r2, #255
 2871 0b62 00D0     		beq	.LCB2832
 2872 0b64 72E4     		b	.L300	@long jump
 2873              	.LCB2832:
 2874 0b66 66E4     		b	.L116
 2875              	.LVL331:
 2876              	.L576:
 2877              	.LBB285:
 2878              	.LBB277:
2608:UartCmd.c     ****     }
 2879              		.loc 1 2608 0
 2880 0b68 373B     		sub	r3, r3, #55
 2881              	.LVL332:
 2882 0b6a D8B2     		uxtb	r0, r3
 2883 0b6c F8E7     		b	.L109
 2884              	.LVL333:
 2885              	.L134:
 2886              	.LBE277:
 2887              	.LBE285:
 2888              	.LBE289:
 2889              	.LBE293:
 2890              	.LBE296:
 2891              	.LBE299:
 2892              	.LBE302:
 2893              	.LBE471:
 2894              	.LBB472:
 2895              	.LBB400:
 2896              	.LBB398:
 2897              	.LBB392:
 2898 0b6e 373B     		sub	r3, r3, #55
 2899              	.LVL334:
 2900 0b70 DAB2     		uxtb	r2, r3
 2901 0b72 7EE5     		b	.L133
 2902              	.LVL335:
 2903              	.L584:
 2904 0b74 373A     		sub	r2, r2, #55
 2905              	.LVL336:
 2906 0b76 D0B2     		uxtb	r0, r2
 2907 0b78 90E5     		b	.L135
ARM GAS  C:\Users\ramanatg\AppData\Local\Temp\ccxbhSsV.s 			page 105


 2908              	.L632:
 2909 0b7a C046     		.align	2
 2910              	.L631:
 2911 0b7c 38000000 		.word	.LC58
 2912 0b80 78000000 		.word	.LC65
 2913 0b84 80F2FF0F 		.word	268432000
 2914 0b88 C7F2FF0F 		.word	268432071
 2915 0b8c A0010000 		.word	.LC96
 2916 0b90 FC010000 		.word	.LC100
 2917 0b94 74000000 		.word	.LC63
 2918 0b98 88000000 		.word	.LC69
 2919 0b9c 80000000 		.word	.LC67
 2920 0ba0 00000000 		.word	cyBle_attValuesLen
 2921 0ba4 54000000 		.word	.LC61
 2922 0ba8 20010000 		.word	.LC85
 2923 0bac 0C010000 		.word	.LC81
 2924              	.LVL337:
 2925              	.L587:
 2926 0bb0 B946     		mov	r9, r7
 2927              	.LBE392:
 2928              	.LBE398:
 2929              	.LBE400:
 2930              	.LBE472:
 2931              	.LBB473:
 2932              	.LBB246:
 543:UartCmd.c     ****         {
 2933              		.loc 1 543 0
 2934 0bb2 0027     		mov	r7, #0
 2935 0bb4 4E46     		mov	r6, r9
 2936              	.LVL338:
 2937              	.L95:
 2938              	.LBB243:
 2939              	.LBB240:
 2940              	.LBB236:
 2941              	.LBB232:
2568:UartCmd.c     ****     lower_nibble = atox(*p);
 2942              		.loc 1 2568 0
 2943 0bb6 3378     		ldrb	r3, [r6]
 2944              	.LVL339:
 2945              	.LBB219:
 2946              	.LBB214:
2600:UartCmd.c     ****     {
 2947              		.loc 1 2600 0
 2948 0bb8 1A1C     		mov	r2, r3
 2949 0bba 303A     		sub	r2, r2, #48
 2950 0bbc D2B2     		uxtb	r2, r2
 2951 0bbe 092A     		cmp	r2, #9
 2952 0bc0 2DD9     		bls	.L89
2605:UartCmd.c     ****     {
 2953              		.loc 1 2605 0
 2954 0bc2 1A1C     		mov	r2, r3
 2955 0bc4 413A     		sub	r2, r2, #65
 2956 0bc6 052A     		cmp	r2, #5
 2957 0bc8 33D9     		bls	.L595
 2958              	.LVL340:
 2959              	.LBB210:
 2960              	.LBB206:
ARM GAS  C:\Users\ramanatg\AppData\Local\Temp\ccxbhSsV.s 			page 106


2610:UartCmd.c     ****     {
 2961              		.loc 1 2610 0
 2962 0bca 1A1C     		mov	r2, r3
 2963 0bcc 613A     		sub	r2, r2, #97
 2964 0bce 052A     		cmp	r2, #5
 2965 0bd0 23D9     		bls	.L596
 2966              	.LBE206:
 2967              	.LBE210:
 2968              	.LBE214:
 2969              	.LBE219:
2569:UartCmd.c     ****     /* If the character is not in '0' and 'f/F'. */
 2970              		.loc 1 2569 0
 2971 0bd2 7378     		ldrb	r3, [r6, #1]
 2972              	.LVL341:
 2973              	.LBB220:
 2974              	.LBB221:
2600:UartCmd.c     ****     {
 2975              		.loc 1 2600 0
 2976 0bd4 1A1C     		mov	r2, r3
 2977              	.LVL342:
 2978 0bd6 303A     		sub	r2, r2, #48
 2979 0bd8 092A     		cmp	r2, #9
 2980 0bda 00D8     		bhi	.LCB2969
 2981 0bdc 2BE4     		b	.L116	@long jump
 2982              	.LCB2969:
 2983              	.LBE221:
 2984              	.LBE220:
 2985              	.LBB226:
 2986              	.LBB215:
 2987              	.LBB211:
 2988              	.LBB207:
2617:UartCmd.c     ****     }
 2989              		.loc 1 2617 0
 2990 0bde FF22     		mov	r2, #255
 2991              	.LVL343:
 2992              	.L294:
 2993              	.LBE207:
 2994              	.LBE211:
 2995              	.LBE215:
 2996              	.LBE226:
 2997              	.LBB227:
 2998              	.LBB224:
2605:UartCmd.c     ****     {
 2999              		.loc 1 2605 0
 3000 0be0 191C     		mov	r1, r3
 3001 0be2 4139     		sub	r1, r1, #65
 3002 0be4 0529     		cmp	r1, #5
 3003 0be6 21D9     		bls	.L597
 3004              	.LVL344:
 3005              	.LBB222:
 3006              	.LBB223:
2610:UartCmd.c     ****     {
 3007              		.loc 1 2610 0
 3008 0be8 191C     		mov	r1, r3
 3009 0bea 6139     		sub	r1, r1, #97
 3010 0bec 0529     		cmp	r1, #5
 3011 0bee 00D9     		bls	.LCB2999
ARM GAS  C:\Users\ramanatg\AppData\Local\Temp\ccxbhSsV.s 			page 107


 3012 0bf0 21E4     		b	.L116	@long jump
 3013              	.LCB2999:
2613:UartCmd.c     ****     }
 3014              		.loc 1 2613 0
 3015 0bf2 573B     		sub	r3, r3, #87
 3016              	.LVL345:
 3017 0bf4 D8B2     		uxtb	r0, r3
 3018              	.LVL346:
 3019              	.L94:
 3020              	.LBE223:
 3021              	.LBE222:
 3022              	.LBE224:
 3023              	.LBE227:
2571:UartCmd.c     ****        (lower_nibble == ATOX_PARAM_ERROR))
 3024              		.loc 1 2571 0
 3025 0bf6 FF2A     		cmp	r2, #255
 3026 0bf8 00D1     		bne	.LCB3015
 3027 0bfa 1CE4     		b	.L116	@long jump
 3028              	.LCB3015:
 3029              	.L299:
2576:UartCmd.c     **** }
 3030              		.loc 1 2576 0
 3031 0bfc 1301     		lsl	r3, r2, #4
 3032              	.LBE232:
 3033              	.LBE236:
2537:UartCmd.c     ****     }
 3034              		.loc 1 2537 0
 3035 0bfe 11A9     		add	r1, sp, #68
 3036              	.LBB237:
 3037              	.LBB233:
2576:UartCmd.c     **** }
 3038              		.loc 1 2576 0
 3039 0c00 0343     		orr	r3, r0
 3040              	.LBE233:
 3041              	.LBE237:
2537:UartCmd.c     ****     }
 3042              		.loc 1 2537 0
 3043 0c02 7B54     		strb	r3, [r7, r1]
2529:UartCmd.c     ****     {
 3044              		.loc 1 2529 0
 3045 0c04 0137     		add	r7, r7, #1
 3046              	.LVL347:
 3047 0c06 0236     		add	r6, r6, #2
 3048              	.LVL348:
 3049 0c08 102F     		cmp	r7, #16
 3050 0c0a D4D1     		bne	.L95
 3051              	.LBE240:
 3052              	.LBE243:
 570:UartCmd.c     ****         SIMPLE_UART_PUTCONST("-> New UUID: ");
 3053              		.loc 1 570 0
 3054 0c0c 0020     		mov	r0, #0
 3055 0c0e FFF7FEFF 		bl	ConfigRW_UpdateConfig
 3056              	.LVL349:
 571:UartCmd.c     ****     }
 3057              		.loc 1 571 0
 3058 0c12 D948     		ldr	r0, .L633
 3059 0c14 FFF7FEFF 		bl	UART_UartPutString
ARM GAS  C:\Users\ramanatg\AppData\Local\Temp\ccxbhSsV.s 			page 108


 3060              	.LVL350:
 3061 0c18 88E6     		b	.L96
 3062              	.LVL351:
 3063              	.L596:
 3064              	.LBB244:
 3065              	.LBB241:
 3066              	.LBB238:
 3067              	.LBB234:
 3068              	.LBB228:
 3069              	.LBB216:
 3070              	.LBB212:
 3071              	.LBB208:
2613:UartCmd.c     ****     }
 3072              		.loc 1 2613 0
 3073 0c1a 573B     		sub	r3, r3, #87
 3074              	.LVL352:
 3075 0c1c DAB2     		uxtb	r2, r3
 3076              	.LVL353:
 3077              	.L89:
 3078              	.LBE208:
 3079              	.LBE212:
 3080              	.LBE216:
 3081              	.LBE228:
2569:UartCmd.c     ****     /* If the character is not in '0' and 'f/F'. */
 3082              		.loc 1 2569 0
 3083 0c1e 7378     		ldrb	r3, [r6, #1]
 3084              	.LVL354:
 3085              	.LBB229:
 3086              	.LBB225:
2600:UartCmd.c     ****     {
 3087              		.loc 1 2600 0
 3088 0c20 181C     		mov	r0, r3
 3089 0c22 3038     		sub	r0, r0, #48
 3090 0c24 C0B2     		uxtb	r0, r0
 3091 0c26 0928     		cmp	r0, #9
 3092 0c28 DAD8     		bhi	.L294
 3093 0c2a E7E7     		b	.L299
 3094              	.L597:
2608:UartCmd.c     ****     }
 3095              		.loc 1 2608 0
 3096 0c2c 373B     		sub	r3, r3, #55
 3097              	.LVL355:
 3098 0c2e D8B2     		uxtb	r0, r3
 3099 0c30 E1E7     		b	.L94
 3100              	.LVL356:
 3101              	.L595:
 3102              	.LBE225:
 3103              	.LBE229:
 3104              	.LBB230:
 3105              	.LBB217:
 3106 0c32 373B     		sub	r3, r3, #55
 3107              	.LVL357:
 3108 0c34 DAB2     		uxtb	r2, r3
 3109 0c36 F2E7     		b	.L89
 3110              	.LVL358:
 3111              	.L223:
 3112              	.LBE217:
ARM GAS  C:\Users\ramanatg\AppData\Local\Temp\ccxbhSsV.s 			page 109


 3113              	.LBE230:
 3114              	.LBE234:
 3115              	.LBE238:
 3116              	.LBE241:
 3117              	.LBE244:
 3118              	.LBE246:
 3119              	.LBE473:
 403:UartCmd.c     ****         {
 3120              		.loc 1 403 0
 3121 0c38 381C     		mov	r0, r7
 3122 0c3a 291C     		mov	r1, r5
 3123 0c3c 5430     		add	r0, r0, #84
 3124 0c3e 0322     		mov	r2, #3
 3125 0c40 FFF7FEFF 		bl	memcmp
 3126              	.LVL359:
 3127 0c44 0028     		cmp	r0, #0
 3128 0c46 01D1     		bne	.LCB3136
 3129 0c48 00F0FBFC 		bl	.L598	@far jump
 3130              	.LCB3136:
 408:UartCmd.c     ****         {
 3131              		.loc 1 408 0
 3132 0c4c 381C     		mov	r0, r7
 3133 0c4e 291C     		mov	r1, r5
 3134 0c50 5830     		add	r0, r0, #88
 3135 0c52 0422     		mov	r2, #4
 3136 0c54 FFF7FEFF 		bl	memcmp
 3137              	.LVL360:
 3138 0c58 0028     		cmp	r0, #0
 3139 0c5a 5DD1     		bne	.L226
 411:UartCmd.c     ****             {
 3140              		.loc 1 411 0
 3141 0c5c 2768     		ldr	r7, [r4]
 3142 0c5e 3B79     		ldrb	r3, [r7, #4]
 3143 0c60 002B     		cmp	r3, #0
 3144 0c62 01D0     		beq	.LCB3148
 3145 0c64 FFF713FA 		bl	.L38	@far jump
 3146              	.LCB3148:
 3147 0c68 8024     		mov	r4, #128
 3148 0c6a 6401     		lsl	r4, r4, #5
 413:UartCmd.c     ****             }
 3149              		.loc 1 413 0
 3150 0c6c 251C     		mov	r5, r4
 3151 0c6e FFF71CFB 		bl	.L208	@ far jump
 3152              	.L568:
 3153              	.LVL361:
 3154              	.LBB474:
 3155              	.LBB475:
1883:UartCmd.c     **** 
 3156              		.loc 1 1883 0
 3157 0c72 0DAE     		add	r6, sp, #52
1886:UartCmd.c     ****     {
 3158              		.loc 1 1886 0
 3159 0c74 2568     		ldr	r5, [r4]
1883:UartCmd.c     **** 
 3160              		.loc 1 1883 0
 3161 0c76 3080     		strh	r0, [r6]
1886:UartCmd.c     ****     {
ARM GAS  C:\Users\ramanatg\AppData\Local\Temp\ccxbhSsV.s 			page 110


 3162              		.loc 1 1886 0
 3163 0c78 2F79     		ldrb	r7, [r5, #4]
 3164 0c7a 002F     		cmp	r7, #0
 3165 0c7c 01D1     		bne	.LCB3164
 3166 0c7e 00F0FBFC 		bl	.L599	@far jump
 3167              	.LCB3164:
1891:UartCmd.c     ****     {
 3168              		.loc 1 1891 0
 3169 0c82 281D     		add	r0, r5, #4
 3170 0c84 FFF7FEFF 		bl	strlen
 3171              	.LVL362:
1923:UartCmd.c     ****     }
 3172              		.loc 1 1923 0
 3173 0c88 0123     		mov	r3, #1
 3174 0c8a 9846     		mov	r8, r3
1891:UartCmd.c     ****     {
 3175              		.loc 1 1891 0
 3176 0c8c 0528     		cmp	r0, #5
 3177 0c8e 01D0     		beq	.LCB3171
 3178 0c90 FFF758FB 		bl	.L99	@far jump
 3179              	.LCB3171:
1894:UartCmd.c     ****         {
 3180              		.loc 1 1894 0
 3181 0c94 202F     		cmp	r7, #32
 3182 0c96 01D0     		beq	.LCB3173
 3183 0c98 FFF754FB 		bl	.L99	@far jump
 3184              	.LCB3173:
 3185              	.LVL363:
1902:UartCmd.c     ****             {
 3186              		.loc 1 1902 0
 3187 0c9c 6879     		ldrb	r0, [r5, #5]
 3188 0c9e FFF7FEFF 		bl	atox
 3189              	.LVL364:
 3190 0ca2 16AF     		add	r7, sp, #88
 3191 0ca4 3870     		strb	r0, [r7]
 3192 0ca6 FF28     		cmp	r0, #255
 3193 0ca8 01D1     		bne	.LCB3181
 3194 0caa FFF74BFB 		bl	.L99	@far jump
 3195              	.LCB3181:
 3196              	.LVL365:
 3197 0cae A879     		ldrb	r0, [r5, #6]
 3198 0cb0 FFF7FEFF 		bl	atox
 3199              	.LVL366:
 3200 0cb4 7870     		strb	r0, [r7, #1]
 3201 0cb6 FF28     		cmp	r0, #255
 3202 0cb8 01D1     		bne	.LCB3188
 3203 0cba FFF743FB 		bl	.L99	@far jump
 3204              	.LCB3188:
 3205              	.LVL367:
 3206 0cbe E879     		ldrb	r0, [r5, #7]
 3207 0cc0 FFF7FEFF 		bl	atox
 3208              	.LVL368:
 3209 0cc4 B870     		strb	r0, [r7, #2]
 3210 0cc6 FF28     		cmp	r0, #255
 3211 0cc8 01D1     		bne	.LCB3195
 3212 0cca FFF73BFB 		bl	.L99	@far jump
 3213              	.LCB3195:
ARM GAS  C:\Users\ramanatg\AppData\Local\Temp\ccxbhSsV.s 			page 111


 3214              	.LVL369:
 3215 0cce 287A     		ldrb	r0, [r5, #8]
 3216 0cd0 FFF7FEFF 		bl	atox
 3217              	.LVL370:
 3218 0cd4 F870     		strb	r0, [r7, #3]
 3219 0cd6 FF28     		cmp	r0, #255
 3220 0cd8 01D1     		bne	.LCB3202
 3221 0cda FFF733FB 		bl	.L99	@far jump
 3222              	.LCB3202:
 3223              	.LVL371:
1914:UartCmd.c     ****         company_id = (company_id << BIT_PER_BYTE) | BYTE_H4_L4_BIT_SWITCH(&m[COID_LOW_BYTE_OFFSET])
 3224              		.loc 1 1914 0
 3225 0cde 3B78     		ldrb	r3, [r7]
 3226 0ce0 1A01     		lsl	r2, r3, #4
 3227 0ce2 7B78     		ldrb	r3, [r7, #1]
 3228 0ce4 1343     		orr	r3, r2
1915:UartCmd.c     **** 
 3229              		.loc 1 1915 0
 3230 0ce6 DBB2     		uxtb	r3, r3
 3231 0ce8 1A02     		lsl	r2, r3, #8
 3232 0cea BB78     		ldrb	r3, [r7, #2]
 3233 0cec 1901     		lsl	r1, r3, #4
 3234 0cee C3B2     		uxtb	r3, r0
 3235 0cf0 0B43     		orr	r3, r1
 3236 0cf2 DBB2     		uxtb	r3, r3
 3237 0cf4 1343     		orr	r3, r2
1917:UartCmd.c     ****         SIMPLE_UART_PUTCONST("-> New Company ID: ");
 3238              		.loc 1 1917 0
 3239 0cf6 0420     		mov	r0, #4
 3240 0cf8 311C     		mov	r1, r6
1915:UartCmd.c     **** 
 3241              		.loc 1 1915 0
 3242 0cfa 3380     		strh	r3, [r6]
1917:UartCmd.c     ****         SIMPLE_UART_PUTCONST("-> New Company ID: ");
 3243              		.loc 1 1917 0
 3244 0cfc FFF7FEFF 		bl	ConfigRW_UpdateConfig
 3245              	.LVL372:
1918:UartCmd.c     ****     }
 3246              		.loc 1 1918 0
 3247 0d00 9E48     		ldr	r0, .L633+4
 3248 0d02 FFF7FEFF 		bl	UART_UartPutString
 3249              	.LVL373:
 3250              	.L221:
1926:UartCmd.c     ****     SIMPLE_UART_PUTCONST(str);
 3251              		.loc 1 1926 0
 3252 0d06 9E4B     		ldr	r3, .L633+8
 3253 0d08 11A8     		add	r0, sp, #68
 3254 0d0a 5A8B     		ldrh	r2, [r3, #26]
 3255 0d0c 9D49     		ldr	r1, .L633+12
 3256 0d0e FFF7FEFF 		bl	sprintf
 3257              	.LVL374:
1927:UartCmd.c     ****     SIMPLE_UART_PUTCONST("\r\n");
 3258              		.loc 1 1927 0
 3259 0d12 11A8     		add	r0, sp, #68
 3260 0d14 FFF7BAFB 		bl	.L541	@ far jump
 3261              	.LVL375:
 3262              	.L226:
ARM GAS  C:\Users\ramanatg\AppData\Local\Temp\ccxbhSsV.s 			page 112


 3263              	.LBE475:
 3264              	.LBE474:
 422:UartCmd.c     ****         {
 3265              		.loc 1 422 0
 3266 0d18 381C     		mov	r0, r7
 3267 0d1a 291C     		mov	r1, r5
 3268 0d1c 5C30     		add	r0, r0, #92
 3269 0d1e 0622     		mov	r2, #6
 3270 0d20 FFF7FEFF 		bl	memcmp
 3271              	.LVL376:
 3272 0d24 0028     		cmp	r0, #0
 3273 0d26 00D1     		bne	.LCB3251
 3274 0d28 CDE3     		b	.L600	@long jump
 3275              	.LCB3251:
 427:UartCmd.c     ****         {
 3276              		.loc 1 427 0
 3277 0d2a 381C     		mov	r0, r7
 3278 0d2c 291C     		mov	r1, r5
 3279 0d2e 6C30     		add	r0, r0, #108
 3280 0d30 0422     		mov	r2, #4
 3281 0d32 FFF7FEFF 		bl	memcmp
 3282              	.LVL377:
 3283 0d36 0028     		cmp	r0, #0
 3284 0d38 00D1     		bne	.LCB3259
 3285 0d3a 9EE3     		b	.L601	@long jump
 3286              	.LCB3259:
 432:UartCmd.c     ****         {
 3287              		.loc 1 432 0
 3288 0d3c 924F     		ldr	r7, .L633+16
 3289 0d3e 291C     		mov	r1, r5
 3290 0d40 381C     		mov	r0, r7
 3291 0d42 0722     		mov	r2, #7
 3292 0d44 1030     		add	r0, r0, #16
 3293 0d46 FFF7FEFF 		bl	memcmp
 3294              	.LVL378:
 3295 0d4a 0028     		cmp	r0, #0
 3296 0d4c 00D1     		bne	.LCB3268
 3297 0d4e F4E1     		b	.L602	@long jump
 3298              	.LCB3268:
 437:UartCmd.c     ****         {
 3299              		.loc 1 437 0
 3300 0d50 381C     		mov	r0, r7
 3301 0d52 291C     		mov	r1, r5
 3302 0d54 2430     		add	r0, r0, #36
 3303 0d56 0722     		mov	r2, #7
 3304 0d58 FFF7FEFF 		bl	memcmp
 3305              	.LVL379:
 3306 0d5c 0028     		cmp	r0, #0
 3307 0d5e 00D0     		beq	.LCB3276
 3308 0d60 BEE1     		b	.L262	@long jump
 3309              	.LCB3276:
 440:UartCmd.c     ****             {
 3310              		.loc 1 440 0
 3311 0d62 2768     		ldr	r7, [r4]
 3312 0d64 FB79     		ldrb	r3, [r7, #7]
 3313 0d66 002B     		cmp	r3, #0
 3314 0d68 01D0     		beq	.LCB3280
ARM GAS  C:\Users\ramanatg\AppData\Local\Temp\ccxbhSsV.s 			page 113


 3315 0d6a FFF790F9 		bl	.L38	@far jump
 3316              	.LCB3280:
 3317              	.LVL380:
 445:UartCmd.c     ****                 {
 3318              		.loc 1 445 0
 3319 0d6e 844A     		ldr	r2, .L633+8
 3320 0d70 3533     		add	r3, r3, #53
 3321 0d72 D35C     		ldrb	r3, [r2, r3]
 3322 0d74 002B     		cmp	r3, #0
 3323 0d76 00D1     		bne	.LCB3286
 3324 0d78 97E1     		b	.L263	@long jump
 3325              	.LCB3286:
 447:UartCmd.c     ****                 }
 3326              		.loc 1 447 0
 3327 0d7a 8448     		ldr	r0, .L633+20
 3328 0d7c FFF7FEFF 		bl	UART_UartPutString
 3329              	.LVL381:
 442:UartCmd.c     ****                 
 3330              		.loc 1 442 0
 3331 0d80 0025     		mov	r5, #0
 3332 0d82 2768     		ldr	r7, [r4]
 3333 0d84 0024     		mov	r4, #0
 3334 0d86 FFF790FA 		bl	.L208	@ far jump
 3335              	.LVL382:
 3336              	.L561:
 3337              	.LBB477:
 3338              	.LBB404:
1320:UartCmd.c     ****     {
 3339              		.loc 1 1320 0
 3340 0d8a 2368     		ldr	r3, [r4]
1314:UartCmd.c     ****     uint8_t *p;
 3341              		.loc 1 1314 0
 3342 0d8c 0D90     		str	r0, [sp, #52]
1320:UartCmd.c     ****     {
 3343              		.loc 1 1320 0
 3344 0d8e 9B46     		mov	fp, r3
 3345 0d90 DB79     		ldrb	r3, [r3, #7]
 3346 0d92 002B     		cmp	r3, #0
 3347 0d94 00D1     		bne	.LCB3305
 3348 0d96 88E5     		b	.L603	@long jump
 3349              	.LCB3305:
 3350              	.LVL383:
1332:UartCmd.c     ****         }
 3351              		.loc 1 1332 0
 3352 0d98 0125     		mov	r5, #1
1330:UartCmd.c     ****         {
 3353              		.loc 1 1330 0
 3354 0d9a 202B     		cmp	r3, #32
 3355 0d9c 01D0     		beq	.LCB3309
 3356 0d9e FFF7BBFA 		bl	.L80	@far jump
 3357              	.LCB3309:
1336:UartCmd.c     ****         {
 3358              		.loc 1 1336 0
 3359 0da2 5B46     		mov	r3, fp
1334:UartCmd.c     ****         /* If the subsequent is nul. */
 3360              		.loc 1 1334 0
 3361 0da4 5946     		mov	r1, fp
ARM GAS  C:\Users\ramanatg\AppData\Local\Temp\ccxbhSsV.s 			page 114


1336:UartCmd.c     ****         {
 3362              		.loc 1 1336 0
 3363 0da6 1B7A     		ldrb	r3, [r3, #8]
1334:UartCmd.c     ****         /* If the subsequent is nul. */
 3364              		.loc 1 1334 0
 3365 0da8 0831     		add	r1, r1, #8
 3366              	.LVL384:
1336:UartCmd.c     ****         {
 3367              		.loc 1 1336 0
 3368 0daa 002B     		cmp	r3, #0
 3369 0dac 01D1     		bne	.LCB3316
 3370 0dae FFF7B3FA 		bl	.L80	@far jump
 3371              	.LCB3316:
1349:UartCmd.c     ****             {
 3372              		.loc 1 1349 0
 3373 0db2 A020     		mov	r0, #160
1344:UartCmd.c     ****             {
 3374              		.loc 1 1344 0
 3375 0db4 303B     		sub	r3, r3, #48
 3376 0db6 DAB2     		uxtb	r2, r3
1349:UartCmd.c     ****             {
 3377              		.loc 1 1349 0
 3378 0db8 8001     		lsl	r0, r0, #6
1344:UartCmd.c     ****             {
 3379              		.loc 1 1344 0
 3380 0dba 092A     		cmp	r2, #9
 3381 0dbc 06D9     		bls	.L156
 3382 0dbe FFF7ABFA 		bl	.L80	@ far jump
 3383              	.L158:
 3384 0dc2 303B     		sub	r3, r3, #48
 3385 0dc4 DAB2     		uxtb	r2, r3
 3386 0dc6 092A     		cmp	r2, #9
 3387 0dc8 00D9     		bls	.LCB3332
 3388 0dca 0EE6     		b	.L413	@long jump
 3389              	.LCB3332:
 3390              	.L156:
1349:UartCmd.c     ****             {
 3391              		.loc 1 1349 0
 3392 0dcc 8642     		cmp	r6, r0
 3393 0dce 04D8     		bhi	.L157
1356:UartCmd.c     ****             }
 3394              		.loc 1 1356 0
 3395 0dd0 B200     		lsl	r2, r6, #2
 3396 0dd2 9619     		add	r6, r2, r6
 3397 0dd4 7600     		lsl	r6, r6, #1
 3398 0dd6 9E19     		add	r6, r3, r6
 3399 0dd8 0D96     		str	r6, [sp, #52]
 3400              	.L157:
1341:UartCmd.c     ****         {
 3401              		.loc 1 1341 0
 3402 0dda 0131     		add	r1, r1, #1
 3403              	.LVL385:
 3404 0ddc 0B78     		ldrb	r3, [r1]
 3405 0dde 002B     		cmp	r3, #0
 3406 0de0 EFD1     		bne	.L158
1361:UartCmd.c     ****         {
 3407              		.loc 1 1361 0
ARM GAS  C:\Users\ramanatg\AppData\Local\Temp\ccxbhSsV.s 			page 115


 3408 0de2 731E     		sub	r3, r6, #1
 3409 0de4 622B     		cmp	r3, #98
 3410 0de6 3BD8     		bhi	.L159
1363:UartCmd.c     ****         }
 3411              		.loc 1 1363 0
 3412 0de8 6423     		mov	r3, #100
 3413 0dea 0D93     		str	r3, [sp, #52]
 3414              	.L160:
1371:UartCmd.c     ****         {
 3415              		.loc 1 1371 0
 3416 0dec 3523     		mov	r3, #53
 3417 0dee 644A     		ldr	r2, .L633+8
1373:UartCmd.c     ****         }
 3418              		.loc 1 1373 0
 3419 0df0 0225     		mov	r5, #2
1371:UartCmd.c     ****         {
 3420              		.loc 1 1371 0
 3421 0df2 D35C     		ldrb	r3, [r2, r3]
 3422 0df4 002B     		cmp	r3, #0
 3423 0df6 01D0     		beq	.LCB3365
 3424 0df8 FFF78EFA 		bl	.L80	@far jump
 3425              	.LCB3365:
1377:UartCmd.c     ****         
 3426              		.loc 1 1377 0
 3427 0dfc 0DA9     		add	r1, sp, #52
 3428              	.LVL386:
 3429 0dfe 1420     		mov	r0, #20
 3430 0e00 FFF7FEFF 		bl	ConfigRW_UpdateConfig
 3431              	.LVL387:
1380:UartCmd.c     ****         UpdateHandle.value.val  = (uint8_t *)(&(pBeaconConfig->URLPeriod));
 3432              		.loc 1 1380 0
 3433 0e04 1C23     		mov	r3, #28
 3434 0e06 16A8     		add	r0, sp, #88
 3435 0e08 0381     		strh	r3, [r0, #8]
1381:UartCmd.c     ****         UpdateHandle.value.len  = sizeof(pBeaconConfig->URLPeriod);
 3436              		.loc 1 1381 0
 3437 0e0a 614B     		ldr	r3, .L633+24
1383:UartCmd.c     ****                                        WRITE_ATTRIB_OFFSET_0, 
 3438              		.loc 1 1383 0
 3439 0e0c 0021     		mov	r1, #0
1381:UartCmd.c     ****         UpdateHandle.value.len  = sizeof(pBeaconConfig->URLPeriod);
 3440              		.loc 1 1381 0
 3441 0e0e 1693     		str	r3, [sp, #88]
1383:UartCmd.c     ****                                        WRITE_ATTRIB_OFFSET_0, 
 3442              		.loc 1 1383 0
 3443 0e10 0022     		mov	r2, #0
 3444 0e12 0023     		mov	r3, #0
1382:UartCmd.c     ****         CyBle_GattsWriteAttributeValue(&UpdateHandle, 
 3445              		.loc 1 1382 0
 3446 0e14 8580     		strh	r5, [r0, #4]
1383:UartCmd.c     ****                                        WRITE_ATTRIB_OFFSET_0, 
 3447              		.loc 1 1383 0
 3448 0e16 FFF7FEFF 		bl	CyBle_GattsWriteAttributeValue
 3449              	.LVL388:
1388:UartCmd.c     ****     }
 3450              		.loc 1 1388 0
 3451 0e1a 5E48     		ldr	r0, .L633+28
ARM GAS  C:\Users\ramanatg\AppData\Local\Temp\ccxbhSsV.s 			page 116


 3452 0e1c FFF7FEFF 		bl	UART_UartPutString
 3453              	.LVL389:
 3454 0e20 46E5     		b	.L153
 3455              	.LVL390:
 3456              	.L578:
 3457              	.LBE404:
 3458              	.LBE477:
 3459              	.LBB478:
 3460              	.LBB357:
 697:UartCmd.c     ****     }
 3461              		.loc 1 697 0
 3462 0e22 5D48     		ldr	r0, .L633+32
 3463              	.LVL391:
 3464 0e24 FFF7FEFF 		bl	UART_UartPutString
 3465              	.LVL392:
 3466              	.L124:
 3467 0e28 16AB     		add	r3, sp, #88
 3468 0e2a 9946     		mov	r9, r3
 3469 0e2c 1F1C     		mov	r7, r3
 725:UartCmd.c     ****     {
 3470              		.loc 1 725 0
 3471 0e2e 5B4B     		ldr	r3, .L633+36
 3472              	.LBB352:
 3473              	.LBB348:
 3474              	.LBB344:
 3475              	.LBB339:
 3476              	.LBB334:
 3477              	.LBB321:
 3478              	.LBB318:
 3479              	.LBB315:
2617:UartCmd.c     ****     }
 3480              		.loc 1 2617 0
 3481 0e30 5B4E     		ldr	r6, .L633+40
 3482              	.LBE315:
 3483              	.LBE318:
 3484              	.LBE321:
 3485              	.LBE334:
 3486              	.LBE339:
 3487              	.LBE344:
 3488              	.LBE348:
 3489              	.LBE352:
 725:UartCmd.c     ****     {
 3490              		.loc 1 725 0
 3491 0e32 9846     		mov	r8, r3
 3492 0e34 5B4D     		ldr	r5, .L633+44
 3493              	.LVL393:
 3494              	.L114:
 727:UartCmd.c     ****     }
 3495              		.loc 1 727 0
 3496 0e36 3278     		ldrb	r2, [r6]
 3497 0e38 381C     		mov	r0, r7
 3498 0e3a 291C     		mov	r1, r5
 3499 0e3c 0136     		add	r6, r6, #1
 3500              	.LVL394:
 3501 0e3e FFF7FEFF 		bl	sprintf
 3502              	.LVL395:
 3503 0e42 0237     		add	r7, r7, #2
ARM GAS  C:\Users\ramanatg\AppData\Local\Temp\ccxbhSsV.s 			page 117


 725:UartCmd.c     ****     {
 3504              		.loc 1 725 0
 3505 0e44 4645     		cmp	r6, r8
 3506 0e46 F6D1     		bne	.L114
 3507 0e48 FFF71FFB 		bl	.L545	@ far jump
 3508              	.LVL396:
 3509              	.L589:
 3510              	.LBE357:
 3511              	.LBE478:
 3512              	.LBB479:
 3513              	.LBB247:
 587:UartCmd.c     ****             j++;
 3514              		.loc 1 587 0
 3515 0e4c 4B46     		mov	r3, r9
 3516 0e4e 2D22     		mov	r2, #45
 3517 0e50 9B19     		add	r3, r3, r6
 588:UartCmd.c     ****         }
 3518              		.loc 1 588 0
 3519 0e52 0136     		add	r6, r6, #1
 3520              	.LVL397:
 587:UartCmd.c     ****             j++;
 3521              		.loc 1 587 0
 3522 0e54 5A55     		strb	r2, [r3, r5]
 588:UartCmd.c     ****         }
 3523              		.loc 1 588 0
 3524 0e56 B6B2     		uxth	r6, r6
 3525              	.LVL398:
 3526 0e58 7EE5     		b	.L98
 3527              	.LVL399:
 3528              	.L579:
 3529              	.LBE247:
 3530              	.LBE479:
 3531              	.LBB480:
 3532              	.LBB358:
 3533              	.LBB353:
 3534              	.LBB349:
 3535              	.LBB345:
 3536              	.LBB340:
 3537              	.LBB335:
 3538              	.LBB322:
2608:UartCmd.c     ****     }
 3539              		.loc 1 2608 0
 3540 0e5a 373B     		sub	r3, r3, #55
 3541              	.LVL400:
 3542 0e5c DAB2     		uxtb	r2, r3
 3543 0e5e 8AE5     		b	.L117
 3544              	.LVL401:
 3545              	.L159:
 3546              	.LBE322:
 3547              	.LBE335:
 3548              	.LBE340:
 3549              	.LBE345:
 3550              	.LBE349:
 3551              	.LBE353:
 3552              	.LBE358:
 3553              	.LBE480:
 3554              	.LBB481:
ARM GAS  C:\Users\ramanatg\AppData\Local\Temp\ccxbhSsV.s 			page 118


 3555              	.LBB405:
1365:UartCmd.c     ****         {
 3556              		.loc 1 1365 0
 3557 0e60 A023     		mov	r3, #160
 3558 0e62 9B01     		lsl	r3, r3, #6
 3559 0e64 9E42     		cmp	r6, r3
 3560 0e66 C1D9     		bls	.L160
1367:UartCmd.c     ****         }
 3561              		.loc 1 1367 0
 3562 0e68 0D93     		str	r3, [sp, #52]
 3563 0e6a BFE7     		b	.L160
 3564              	.LVL402:
 3565              	.L565:
 3566              	.LBE405:
 3567              	.LBE481:
 3568              	.LBB482:
 3569              	.LBB410:
1796:UartCmd.c     **** 
 3570              		.loc 1 1796 0
 3571 0e6c 391C     		mov	r1, r7
 3572 0e6e 16AB     		add	r3, sp, #88
 3573 0e70 3031     		add	r1, r1, #48
 3574 0e72 9946     		mov	r9, r3
 3575 0e74 25C9     		ldmia	r1!, {r0, r2, r5}
 3576 0e76 25C3     		stmia	r3!, {r0, r2, r5}
 3577 0e78 0A68     		ldr	r2, [r1]
 3578 0e7a 1A60     		str	r2, [r3]
1799:UartCmd.c     ****     {
 3579              		.loc 1 1799 0
 3580 0e7c 2368     		ldr	r3, [r4]
 3581 0e7e 9B46     		mov	fp, r3
 3582 0e80 1B7A     		ldrb	r3, [r3, #8]
 3583 0e82 002B     		cmp	r3, #0
 3584 0e84 73D0     		beq	.L604
1848:UartCmd.c     ****     }
 3585              		.loc 1 1848 0
 3586 0e86 0125     		mov	r5, #1
1804:UartCmd.c     ****     {
 3587              		.loc 1 1804 0
 3588 0e88 202B     		cmp	r3, #32
 3589 0e8a 01D0     		beq	.LCB3541
 3590 0e8c FFF744FA 		bl	.L80	@far jump
 3591              	.LCB3541:
1806:UartCmd.c     ****         strupr((char *)p);
 3592              		.loc 1 1806 0
 3593 0e90 173B     		sub	r3, r3, #23
 3594 0e92 9C46     		mov	ip, r3
 3595 0e94 E344     		add	fp, fp, ip
 3596              	.LVL403:
1807:UartCmd.c     ****         
 3597              		.loc 1 1807 0
 3598 0e96 5846     		mov	r0, fp
 3599 0e98 FFF7FEFF 		bl	strupr
 3600              	.LVL404:
1810:UartCmd.c     ****         {
 3601              		.loc 1 1810 0
 3602 0e9c 4346     		mov	r3, r8
ARM GAS  C:\Users\ramanatg\AppData\Local\Temp\ccxbhSsV.s 			page 119


 3603 0e9e 0DAE     		add	r6, sp, #52
 3604 0ea0 3370     		strb	r3, [r6]
1812:UartCmd.c     ****             /* find the matching parameter */
 3605              		.loc 1 1812 0
 3606 0ea2 4B46     		mov	r3, r9
 3607 0ea4 1B68     		ldr	r3, [r3]
 3608 0ea6 181C     		mov	r0, r3
 3609 0ea8 9A46     		mov	r10, r3
 3610 0eaa FFF7FEFF 		bl	strlen
 3611              	.LVL405:
1814:UartCmd.c     ****             {
 3612              		.loc 1 1814 0
 3613 0eae FF23     		mov	r3, #255
 3614 0eb0 1F1C     		mov	r7, r3
 3615 0eb2 0740     		and	r7, r0
 3616 0eb4 5146     		mov	r1, r10
 3617 0eb6 5846     		mov	r0, fp
 3618              	.LVL406:
 3619 0eb8 3A1C     		mov	r2, r7
 3620 0eba 9846     		mov	r8, r3
 3621 0ebc FFF7FEFF 		bl	memcmp
 3622              	.LVL407:
 3623 0ec0 0028     		cmp	r0, #0
 3624 0ec2 2FD0     		beq	.L202
1812:UartCmd.c     ****             /* find the matching parameter */
 3625              		.loc 1 1812 0
 3626 0ec4 4B46     		mov	r3, r9
1810:UartCmd.c     ****         {
 3627              		.loc 1 1810 0
 3628 0ec6 3570     		strb	r5, [r6]
1812:UartCmd.c     ****             /* find the matching parameter */
 3629              		.loc 1 1812 0
 3630 0ec8 5D68     		ldr	r5, [r3, #4]
1814:UartCmd.c     ****             {
 3631              		.loc 1 1814 0
 3632 0eca 4746     		mov	r7, r8
1812:UartCmd.c     ****             /* find the matching parameter */
 3633              		.loc 1 1812 0
 3634 0ecc 281C     		mov	r0, r5
 3635 0ece FFF7FEFF 		bl	strlen
 3636              	.LVL408:
1814:UartCmd.c     ****             {
 3637              		.loc 1 1814 0
 3638 0ed2 0740     		and	r7, r0
 3639 0ed4 291C     		mov	r1, r5
 3640 0ed6 5846     		mov	r0, fp
 3641              	.LVL409:
 3642 0ed8 3A1C     		mov	r2, r7
 3643 0eda FFF7FEFF 		bl	memcmp
 3644              	.LVL410:
 3645 0ede 0028     		cmp	r0, #0
 3646 0ee0 20D0     		beq	.L202
1810:UartCmd.c     ****         {
 3647              		.loc 1 1810 0
 3648 0ee2 0223     		mov	r3, #2
 3649 0ee4 3370     		strb	r3, [r6]
1812:UartCmd.c     ****             /* find the matching parameter */
ARM GAS  C:\Users\ramanatg\AppData\Local\Temp\ccxbhSsV.s 			page 120


 3650              		.loc 1 1812 0
 3651 0ee6 4B46     		mov	r3, r9
 3652 0ee8 9D68     		ldr	r5, [r3, #8]
1814:UartCmd.c     ****             {
 3653              		.loc 1 1814 0
 3654 0eea 4746     		mov	r7, r8
1812:UartCmd.c     ****             /* find the matching parameter */
 3655              		.loc 1 1812 0
 3656 0eec 281C     		mov	r0, r5
 3657 0eee FFF7FEFF 		bl	strlen
 3658              	.LVL411:
1814:UartCmd.c     ****             {
 3659              		.loc 1 1814 0
 3660 0ef2 0740     		and	r7, r0
 3661 0ef4 291C     		mov	r1, r5
 3662 0ef6 5846     		mov	r0, fp
 3663              	.LVL412:
 3664 0ef8 3A1C     		mov	r2, r7
 3665 0efa FFF7FEFF 		bl	memcmp
 3666              	.LVL413:
 3667 0efe 0028     		cmp	r0, #0
 3668 0f00 10D0     		beq	.L202
1810:UartCmd.c     ****         {
 3669              		.loc 1 1810 0
 3670 0f02 0323     		mov	r3, #3
 3671 0f04 3370     		strb	r3, [r6]
1812:UartCmd.c     ****             /* find the matching parameter */
 3672              		.loc 1 1812 0
 3673 0f06 4B46     		mov	r3, r9
 3674 0f08 DD68     		ldr	r5, [r3, #12]
1814:UartCmd.c     ****             {
 3675              		.loc 1 1814 0
 3676 0f0a FF27     		mov	r7, #255
1812:UartCmd.c     ****             /* find the matching parameter */
 3677              		.loc 1 1812 0
 3678 0f0c 281C     		mov	r0, r5
 3679 0f0e FFF7FEFF 		bl	strlen
 3680              	.LVL414:
1814:UartCmd.c     ****             {
 3681              		.loc 1 1814 0
 3682 0f12 0740     		and	r7, r0
 3683 0f14 291C     		mov	r1, r5
 3684 0f16 5846     		mov	r0, fp
 3685              	.LVL415:
 3686 0f18 3A1C     		mov	r2, r7
 3687 0f1a FFF7FEFF 		bl	memcmp
 3688              	.LVL416:
 3689 0f1e 0028     		cmp	r0, #0
 3690 0f20 00D0     		beq	.LCB3624
 3691 0f22 C6E5     		b	.L204	@long jump
 3692              	.LCB3624:
 3693              	.L202:
1821:UartCmd.c     ****         {
 3694              		.loc 1 1821 0
 3695 0f24 5B46     		mov	r3, fp
 3696 0f26 DB5D     		ldrb	r3, [r3, r7]
 3697 0f28 002B     		cmp	r3, #0
ARM GAS  C:\Users\ramanatg\AppData\Local\Temp\ccxbhSsV.s 			page 121


 3698 0f2a 00D0     		beq	.LCB3631
 3699 0f2c C1E5     		b	.L204	@long jump
 3700              	.LCB3631:
1827:UartCmd.c     ****         {
 3701              		.loc 1 1827 0
 3702 0f2e 3523     		mov	r3, #53
 3703 0f30 134A     		ldr	r2, .L633+8
 3704 0f32 D35C     		ldrb	r3, [r2, r3]
 3705 0f34 002B     		cmp	r3, #0
 3706 0f36 00D0     		beq	.LCB3636
 3707 0f38 8CE5     		b	.L540	@long jump
 3708              	.LCB3636:
1832:UartCmd.c     ****         
 3709              		.loc 1 1832 0
 3710 0f3a 311C     		mov	r1, r6
 3711 0f3c 1320     		mov	r0, #19
 3712 0f3e FFF7FEFF 		bl	ConfigRW_UpdateConfig
 3713              	.LVL417:
1835:UartCmd.c     ****         UpdateHandle.value.val  = &(pBeaconConfig->TXPowerMode);
 3714              		.loc 1 1835 0
 3715 0f42 1A23     		mov	r3, #26
 3716 0f44 11A8     		add	r0, sp, #68
 3717 0f46 0381     		strh	r3, [r0, #8]
1836:UartCmd.c     ****         UpdateHandle.value.len  = sizeof(pBeaconConfig->TXPowerMode);
 3718              		.loc 1 1836 0
 3719 0f48 174B     		ldr	r3, .L633+48
1838:UartCmd.c     ****                                        WRITE_ATTRIB_OFFSET_0, 
 3720              		.loc 1 1838 0
 3721 0f4a 0021     		mov	r1, #0
1836:UartCmd.c     ****         UpdateHandle.value.len  = sizeof(pBeaconConfig->TXPowerMode);
 3722              		.loc 1 1836 0
 3723 0f4c 1193     		str	r3, [sp, #68]
1837:UartCmd.c     ****         CyBle_GattsWriteAttributeValue(&UpdateHandle, 
 3724              		.loc 1 1837 0
 3725 0f4e 0123     		mov	r3, #1
1838:UartCmd.c     ****                                        WRITE_ATTRIB_OFFSET_0, 
 3726              		.loc 1 1838 0
 3727 0f50 0022     		mov	r2, #0
1837:UartCmd.c     ****         CyBle_GattsWriteAttributeValue(&UpdateHandle, 
 3728              		.loc 1 1837 0
 3729 0f52 8380     		strh	r3, [r0, #4]
1838:UartCmd.c     ****                                        WRITE_ATTRIB_OFFSET_0, 
 3730              		.loc 1 1838 0
 3731 0f54 0023     		mov	r3, #0
 3732 0f56 FFF7FEFF 		bl	CyBle_GattsWriteAttributeValue
 3733              	.LVL418:
1843:UartCmd.c     ****     }
 3734              		.loc 1 1843 0
 3735 0f5a 1448     		ldr	r0, .L633+52
 3736 0f5c FFF7FEFF 		bl	UART_UartPutString
 3737              	.LVL419:
 3738              	.L200:
1852:UartCmd.c     ****     SIMPLE_UART_PUTCONST("\r\n");
 3739              		.loc 1 1852 0
 3740 0f60 5E23     		mov	r3, #94
 3741 0f62 074A     		ldr	r2, .L633+8
 3742 0f64 D35C     		ldrb	r3, [r2, r3]
ARM GAS  C:\Users\ramanatg\AppData\Local\Temp\ccxbhSsV.s 			page 122


 3743 0f66 4A46     		mov	r2, r9
 3744 0f68 9B00     		lsl	r3, r3, #2
 3745 0f6a D058     		ldr	r0, [r2, r3]
 3746 0f6c A8E4     		b	.L539
 3747              	.L604:
1801:UartCmd.c     ****     }
 3748              		.loc 1 1801 0
 3749 0f6e 1048     		ldr	r0, .L633+56
 3750 0f70 FFF7FEFF 		bl	UART_UartPutString
 3751              	.LVL420:
 3752 0f74 F4E7     		b	.L200
 3753              	.L634:
 3754 0f76 C046     		.align	2
 3755              	.L633:
 3756 0f78 94000000 		.word	.LC71
 3757 0f7c AC030000 		.word	.LC139
 3758 0f80 80F2FF0F 		.word	268432000
 3759 0f84 18010000 		.word	.LC83
 3760 0f88 00010000 		.word	.LANCHOR3
 3761 0f8c 1C0B0000 		.word	.LC226
 3762 0f90 E0F2FF0F 		.word	268432096
 3763 0f94 CC010000 		.word	.LC98
 3764 0f98 D8000000 		.word	.LC77
 3765 0f9c B0F2FF0F 		.word	268432048
 3766 0fa0 AAF2FF0F 		.word	268432042
 3767 0fa4 80000000 		.word	.LC67
 3768 0fa8 DEF2FF0F 		.word	268432094
 3769 0fac 34030000 		.word	.LC129
 3770 0fb0 14030000 		.word	.LC127
 3771              	.LVL421:
 3772              	.L365:
 3773              	.LBE410:
 3774              	.LBE482:
 3775              	.LBB483:
 3776              	.LBB465:
1695:UartCmd.c     ****             {
 3777              		.loc 1 1695 0
 3778 0fb4 0023     		mov	r3, #0
 3779              	.LVL422:
 3780              	.L186:
1714:UartCmd.c     ****             /* If it is not in the range -100~20. */
 3781              		.loc 1 1714 0
 3782 0fb6 E818     		add	r0, r5, r3
 3783 0fb8 FFF7FEFF 		bl	atoi
 3784              	.LVL423:
1716:UartCmd.c     ****             {
 3785              		.loc 1 1716 0
 3786 0fbc 031C     		mov	r3, r0
 3787 0fbe 6433     		add	r3, r3, #100
 3788 0fc0 782B     		cmp	r3, #120
 3789 0fc2 00D9     		bls	.LCB3716
 3790 0fc4 75E5     		b	.L204	@long jump
 3791              	.LCB3716:
 3792 0fc6 721C     		add	r2, r6, #1
1721:UartCmd.c     ****         }
 3793              		.loc 1 1721 0
 3794 0fc8 0DA9     		add	r1, sp, #52
ARM GAS  C:\Users\ramanatg\AppData\Local\Temp\ccxbhSsV.s 			page 123


 3795 0fca D3B2     		uxtb	r3, r2
 3796 0fcc 7054     		strb	r0, [r6, r1]
 3797 0fce 9846     		mov	r8, r3
 3798              	.LVL424:
1683:UartCmd.c     ****         {
 3799              		.loc 1 1683 0
 3800 0fd0 2B78     		ldrb	r3, [r5]
 3801 0fd2 002B     		cmp	r3, #0
 3802 0fd4 01D1     		bne	.LCB3728
 3803 0fd6 00F0B1FC 		bl	.L193	@far jump
 3804              	.LCB3728:
 3805 0fda 032E     		cmp	r6, #3
 3806 0fdc 00D1     		bne	.LCB3730
 3807 0fde 68E5     		b	.L204	@long jump
 3808              	.LCB3730:
 3809              	.LVL425:
1687:UartCmd.c     ****             
 3810              		.loc 1 1687 0
 3811 0fe0 0135     		add	r5, r5, #1
 3812              	.LVL426:
 3813 0fe2 161C     		mov	r6, r2
 3814 0fe4 202B     		cmp	r3, #32
 3815 0fe6 00D1     		bne	.LCB3737
 3816 0fe8 4CE5     		b	.L185	@long jump
 3817              	.LCB3737:
 3818 0fea 62E5     		b	.L204
 3819              	.LVL427:
 3820              	.L593:
1676:UartCmd.c     ****     }
 3821              		.loc 1 1676 0
 3822 0fec D548     		ldr	r0, .L635
 3823 0fee FFF7FEFF 		bl	UART_UartPutString
 3824              	.LVL428:
 3825              	.L197:
1695:UartCmd.c     ****             {
 3826              		.loc 1 1695 0
 3827 0ff2 D54D     		ldr	r5, .L635+4
 3828 0ff4 D54E     		ldr	r6, .L635+8
1759:UartCmd.c     ****     {
 3829              		.loc 1 1759 0
 3830 0ff6 D64F     		ldr	r7, .L635+12
 3831              	.LVL429:
 3832              	.L182:
1761:UartCmd.c     ****         SIMPLE_UART_PUTCONST(str);
 3833              		.loc 1 1761 0
 3834 0ff8 0022     		mov	r2, #0
 3835 0ffa 311C     		mov	r1, r6
 3836 0ffc AA56     		ldrsb	r2, [r5, r2]
 3837 0ffe 5046     		mov	r0, r10
 3838 1000 FFF7FEFF 		bl	sprintf
 3839              	.LVL430:
 3840 1004 0135     		add	r5, r5, #1
 3841              	.LVL431:
1762:UartCmd.c     ****     }
 3842              		.loc 1 1762 0
 3843 1006 5046     		mov	r0, r10
 3844 1008 FFF7FEFF 		bl	UART_UartPutString
ARM GAS  C:\Users\ramanatg\AppData\Local\Temp\ccxbhSsV.s 			page 124


 3845              	.LVL432:
1759:UartCmd.c     ****     {
 3846              		.loc 1 1759 0
 3847 100c BD42     		cmp	r5, r7
 3848 100e F3D1     		bne	.L182
 3849 1010 58E4     		b	.L537
 3850              	.LVL433:
 3851              	.L581:
 3852              	.LBE465:
 3853              	.LBE483:
 3854              	.LBB484:
 3855              	.LBB359:
 3856              	.LBB354:
 3857              	.LBB350:
 3858              	.LBB346:
 3859              	.LBB341:
 3860              	.LBB336:
 3861              	.LBB329:
2608:UartCmd.c     ****     }
 3862              		.loc 1 2608 0
 3863 1012 373B     		sub	r3, r3, #55
 3864              	.LVL434:
 3865 1014 D8B2     		uxtb	r0, r3
 3866 1016 FFF782FA 		bl	.L122	@ far jump
 3867              	.LVL435:
 3868              	.L560:
 3869              	.LBE329:
 3870              	.LBE336:
 3871              	.LBE341:
 3872              	.LBE346:
 3873              	.LBE350:
 3874              	.LBE354:
 3875              	.LBE359:
 3876              	.LBE484:
 3877              	.LBB485:
 3878              	.LBB363:
1244:UartCmd.c     ****     uint32_t adv_interval = 0;
 3879              		.loc 1 1244 0
 3880 101a 16AB     		add	r3, sp, #88
 3881 101c 9946     		mov	r9, r3
 3882 101e 0023     		mov	r3, #0
 3883 1020 4A46     		mov	r2, r9
1246:UartCmd.c     ****     
 3884              		.loc 1 1246 0
 3885 1022 2568     		ldr	r5, [r4]
1244:UartCmd.c     ****     uint32_t adv_interval = 0;
 3886              		.loc 1 1244 0
 3887 1024 1370     		strb	r3, [r2]
1246:UartCmd.c     ****     
 3888              		.loc 1 1246 0
 3889 1026 681D     		add	r0, r5, #5
1244:UartCmd.c     ****     uint32_t adv_interval = 0;
 3890              		.loc 1 1244 0
 3891 1028 5370     		strb	r3, [r2, #1]
 3892 102a 9370     		strb	r3, [r2, #2]
 3893 102c D370     		strb	r3, [r2, #3]
 3894 102e 1371     		strb	r3, [r2, #4]
ARM GAS  C:\Users\ramanatg\AppData\Local\Temp\ccxbhSsV.s 			page 125


 3895 1030 5371     		strb	r3, [r2, #5]
1245:UartCmd.c     ****     uint16_t len = strlen((const char *)(data_array + sizeof(cmd_ITRVL)));
 3896              		.loc 1 1245 0
 3897 1032 1193     		str	r3, [sp, #68]
1246:UartCmd.c     ****     
 3898              		.loc 1 1246 0
 3899 1034 FFF7FEFF 		bl	strlen
 3900              	.LVL436:
 3901 1038 83B2     		uxth	r3, r0
 3902              	.LVL437:
1249:UartCmd.c     ****     {
 3903              		.loc 1 1249 0
 3904 103a 002B     		cmp	r3, #0
 3905 103c 3DD0     		beq	.L605
1282:UartCmd.c     ****     }
 3906              		.loc 1 1282 0
 3907 103e 0122     		mov	r2, #1
1254:UartCmd.c     ****     {
 3908              		.loc 1 1254 0
 3909 1040 043B     		sub	r3, r3, #4
 3910              	.LVL438:
1282:UartCmd.c     ****     }
 3911              		.loc 1 1282 0
 3912 1042 9046     		mov	r8, r2
1254:UartCmd.c     ****     {
 3913              		.loc 1 1254 0
 3914 1044 022B     		cmp	r3, #2
 3915 1046 01D9     		bls	.LCB3851
 3916 1048 FFF77CF9 		bl	.L99	@far jump
 3917              	.LCB3851:
1257:UartCmd.c     ****         {
 3918              		.loc 1 1257 0
 3919 104c 6B79     		ldrb	r3, [r5, #5]
 3920              	.LVL439:
 3921 104e 202B     		cmp	r3, #32
 3922 1050 01D0     		beq	.LCB3855
 3923 1052 FFF777F9 		bl	.L99	@far jump
 3924              	.LCB3855:
 3925              	.LVL440:
 3926 1056 0304     		lsl	r3, r0, #16
 3927 1058 1B0C     		lsr	r3, r3, #16
1261:UartCmd.c     ****         {
 3928              		.loc 1 1261 0
 3929 105a 013B     		sub	r3, r3, #1
 3930 105c 002B     		cmp	r3, #0
 3931 105e 17DD     		ble	.L150
1263:UartCmd.c     ****             if((str[i] < '0') || (str[i] > '9'))
 3932              		.loc 1 1263 0
 3933 1060 4946     		mov	r1, r9
 3934 1062 AA79     		ldrb	r2, [r5, #6]
 3935 1064 0A70     		strb	r2, [r1]
1264:UartCmd.c     ****             {
 3936              		.loc 1 1264 0
 3937 1066 303A     		sub	r2, r2, #48
 3938 1068 092A     		cmp	r2, #9
 3939 106a 01D9     		bls	.LCB3868
 3940 106c FFF76AF9 		bl	.L99	@far jump
ARM GAS  C:\Users\ramanatg\AppData\Local\Temp\ccxbhSsV.s 			page 126


 3941              	.LCB3868:
 3942 1070 0022     		mov	r2, #0
 3943 1072 4846     		mov	r0, r9
 3944              	.LVL441:
 3945 1074 07E0     		b	.L148
 3946              	.LVL442:
 3947              	.L149:
1263:UartCmd.c     ****             if((str[i] < '0') || (str[i] > '9'))
 3948              		.loc 1 1263 0
 3949 1076 A918     		add	r1, r5, r2
 3950 1078 8979     		ldrb	r1, [r1, #6]
 3951 107a 8154     		strb	r1, [r0, r2]
1264:UartCmd.c     ****             {
 3952              		.loc 1 1264 0
 3953 107c 3039     		sub	r1, r1, #48
 3954 107e 0929     		cmp	r1, #9
 3955 1080 01D9     		bls	.LCB3883
 3956 1082 FFF7D8F9 		bl	.L116	@far jump
 3957              	.LCB3883:
 3958              	.LVL443:
 3959              	.L148:
1261:UartCmd.c     ****         {
 3960              		.loc 1 1261 0
 3961 1086 0132     		add	r2, r2, #1
 3962              	.LVL444:
 3963 1088 92B2     		uxth	r2, r2
 3964              	.LVL445:
 3965 108a 9A42     		cmp	r2, r3
 3966 108c F3DB     		blt	.L149
 3967 108e 8146     		mov	r9, r0
 3968              	.LVL446:
 3969              	.L150:
1269:UartCmd.c     ****         /* Advertising interval between 100ms and 10.24s */
 3970              		.loc 1 1269 0
 3971 1090 4846     		mov	r0, r9
 3972 1092 FFF7FEFF 		bl	atoi
 3973              	.LVL447:
1271:UartCmd.c     ****         {
 3974              		.loc 1 1271 0
 3975 1096 AF4B     		ldr	r3, .L635+16
1269:UartCmd.c     ****         /* Advertising interval between 100ms and 10.24s */
 3976              		.loc 1 1269 0
 3977 1098 1190     		str	r0, [sp, #68]
1271:UartCmd.c     ****         {
 3978              		.loc 1 1271 0
 3979 109a 6438     		sub	r0, r0, #100
 3980 109c 9842     		cmp	r0, r3
 3981 109e 17D9     		bls	.L606
 3982              	.LVL448:
 3983              	.L234:
 3984              	.LBE363:
 3985              	.LBE485:
 3986              	.LBB486:
 3987              	.LBB367:
1994:UartCmd.c     ****         }
 3988              		.loc 1 1994 0
 3989 10a0 0123     		mov	r3, #1
ARM GAS  C:\Users\ramanatg\AppData\Local\Temp\ccxbhSsV.s 			page 127


 3990 10a2 2568     		ldr	r5, [r4]
 3991 10a4 9846     		mov	r8, r3
 3992 10a6 FFF74DF9 		bl	.L99	@ far jump
 3993              	.LVL449:
 3994              	.L263:
 3995              	.LBE367:
 3996              	.LBE486:
 452:UartCmd.c     ****                 }
 3997              		.loc 1 452 0
 3998 10aa AB48     		ldr	r0, .L635+20
 3999 10ac FFF7FEFF 		bl	UART_UartPutString
 4000              	.LVL450:
 442:UartCmd.c     ****                 
 4001              		.loc 1 442 0
 4002 10b0 0025     		mov	r5, #0
 4003 10b2 2768     		ldr	r7, [r4]
 452:UartCmd.c     ****                 }
 4004              		.loc 1 452 0
 4005 10b4 0024     		mov	r4, #0
 4006 10b6 FFF7F8F8 		bl	.L208	@ far jump
 4007              	.LVL451:
 4008              	.L605:
 4009              	.LBB487:
 4010              	.LBB364:
1251:UartCmd.c     ****     }
 4011              		.loc 1 1251 0
 4012 10ba A848     		ldr	r0, .L635+24
 4013 10bc FFF7FEFF 		bl	UART_UartPutString
 4014              	.LVL452:
 4015              	.L143:
1285:UartCmd.c     ****     SIMPLE_UART_PUTCONST(str);
 4016              		.loc 1 1285 0
 4017 10c0 A74B     		ldr	r3, .L635+28
 4018 10c2 4846     		mov	r0, r9
 4019 10c4 1A8B     		ldrh	r2, [r3, #24]
 4020 10c6 A749     		ldr	r1, .L635+32
 4021 10c8 FFF7FEFF 		bl	sprintf
 4022              	.LVL453:
 4023 10cc FFF7DDF9 		bl	.L545	@ far jump
 4024              	.L606:
1276:UartCmd.c     ****         SIMPLE_UART_PUTCONST("-> New BLEBeacon Advertise Interval in msec: ");
 4025              		.loc 1 1276 0
 4026 10d0 11A9     		add	r1, sp, #68
 4027 10d2 0320     		mov	r0, #3
 4028 10d4 FFF7FEFF 		bl	ConfigRW_UpdateConfig
 4029              	.LVL454:
1277:UartCmd.c     ****     }
 4030              		.loc 1 1277 0
 4031 10d8 A348     		ldr	r0, .L635+36
 4032 10da FFF7FEFF 		bl	UART_UartPutString
 4033              	.LVL455:
 4034 10de EFE7     		b	.L143
 4035              	.LVL456:
 4036              	.L262:
 4037              	.LBE364:
 4038              	.LBE487:
 462:UartCmd.c     ****         {
ARM GAS  C:\Users\ramanatg\AppData\Local\Temp\ccxbhSsV.s 			page 128


 4039              		.loc 1 462 0
 4040 10e0 381C     		mov	r0, r7
 4041 10e2 291C     		mov	r1, r5
 4042 10e4 2C30     		add	r0, r0, #44
 4043 10e6 0622     		mov	r2, #6
 4044 10e8 FFF7FEFF 		bl	memcmp
 4045              	.LVL457:
 4046 10ec 0028     		cmp	r0, #0
 4047 10ee 00D1     		bne	.LCB3975
 4048 10f0 9BE0     		b	.L607	@long jump
 4049              	.LCB3975:
 467:UartCmd.c     ****         {
 4050              		.loc 1 467 0
 4051 10f2 381C     		mov	r0, r7
 4052 10f4 291C     		mov	r1, r5
 4053 10f6 3430     		add	r0, r0, #52
 4054 10f8 0822     		mov	r2, #8
 4055 10fa FFF7FEFF 		bl	memcmp
 4056              	.LVL458:
 4057 10fe 0028     		cmp	r0, #0
 4058 1100 61D0     		beq	.L608
 472:UartCmd.c     ****         {
 4059              		.loc 1 472 0
 4060 1102 381C     		mov	r0, r7
 4061 1104 291C     		mov	r1, r5
 4062 1106 3C30     		add	r0, r0, #60
 4063 1108 0422     		mov	r2, #4
 4064 110a FFF7FEFF 		bl	memcmp
 4065              	.LVL459:
 4066              	.LBB488:
 4067              	.LBB489:
2481:UartCmd.c     ****     {
 4068              		.loc 1 2481 0
 4069 110e 2768     		ldr	r7, [r4]
 4070              	.LBE489:
 4071              	.LBE488:
 472:UartCmd.c     ****         {
 4072              		.loc 1 472 0
 4073 1110 0028     		cmp	r0, #0
 4074 1112 01D0     		beq	.LCB3996
 4075 1114 FEF7BBFF 		bl	.L38	@far jump
 4076              	.LCB3996:
 4077              	.LBB491:
 4078              	.LBB490:
2481:UartCmd.c     ****     {
 4079              		.loc 1 2481 0
 4080 1118 3B79     		ldrb	r3, [r7, #4]
 4081 111a 002B     		cmp	r3, #0
 4082 111c 01D0     		beq	.LCB4001
 4083 111e FEF7B6FF 		bl	.L38	@far jump
 4084              	.LCB4001:
2486:UartCmd.c     ****     /* update GATT database. */
 4085              		.loc 1 2486 0
 4086 1122 FFF7FEFF 		bl	ConfigRW_WriteDefault
 4087              	.LVL460:
2488:UartCmd.c     ****     SIMPLE_UART_PUTCONST("-> Restore to default! \r\n");
 4088              		.loc 1 2488 0
ARM GAS  C:\Users\ramanatg\AppData\Local\Temp\ccxbhSsV.s 			page 129


 4089 1126 FFF7FEFF 		bl	EddystoneURL_Config_UpdateAllAttrib
 4090              	.LVL461:
2489:UartCmd.c     **** 
 4091              		.loc 1 2489 0
 4092 112a 9048     		ldr	r0, .L635+40
 4093 112c FFF7FEFF 		bl	UART_UartPutString
 4094              	.LVL462:
2491:UartCmd.c     **** }
 4095              		.loc 1 2491 0
 4096 1130 0025     		mov	r5, #0
 4097 1132 2768     		ldr	r7, [r4]
2489:UartCmd.c     **** 
 4098              		.loc 1 2489 0
 4099 1134 0024     		mov	r4, #0
 4100 1136 FFF7B8F8 		bl	.L208	@ far jump
 4101              	.L602:
 4102              	.LBE490:
 4103              	.LBE491:
 4104              	.LBB492:
 4105              	.LBB493:
2127:UartCmd.c     ****     const char url[] = {' ', 'U', 'R', 'L'};
 4106              		.loc 1 2127 0
 4107 113a 391C     		mov	r1, r7
 4108 113c 0DAE     		add	r6, sp, #52
 4109 113e 1831     		add	r1, r1, #24
 4110 1140 0422     		mov	r2, #4
 4111 1142 301C     		mov	r0, r6
 4112 1144 FFF7FEFF 		bl	memcpy
 4113              	.LVL463:
2128:UartCmd.c     ****     const char tlm[] = {' ', 'T', 'L', 'M'};
 4114              		.loc 1 2128 0
 4115 1148 391C     		mov	r1, r7
 4116 114a 11AB     		add	r3, sp, #68
 4117 114c 1C31     		add	r1, r1, #28
 4118 114e 181C     		mov	r0, r3
 4119 1150 0422     		mov	r2, #4
 4120 1152 9A46     		mov	r10, r3
 4121 1154 FFF7FEFF 		bl	memcpy
 4122              	.LVL464:
2129:UartCmd.c     ****     
 4123              		.loc 1 2129 0
 4124 1158 391C     		mov	r1, r7
 4125 115a 16AB     		add	r3, sp, #88
 4126 115c 181C     		mov	r0, r3
 4127 115e 2031     		add	r1, r1, #32
 4128 1160 0422     		mov	r2, #4
 4129 1162 9946     		mov	r9, r3
 4130 1164 FFF7FEFF 		bl	memcpy
 4131              	.LVL465:
2132:UartCmd.c     ****     {
 4132              		.loc 1 2132 0
 4133 1168 2568     		ldr	r5, [r4]
 4134 116a EB79     		ldrb	r3, [r5, #7]
 4135 116c 002B     		cmp	r3, #0
 4136 116e 01D0     		beq	.LCB4046
 4137 1170 00F027FC 		bl	.L248	@far jump
 4138              	.LCB4046:
ARM GAS  C:\Users\ramanatg\AppData\Local\Temp\ccxbhSsV.s 			page 130


2134:UartCmd.c     ****     }
 4139              		.loc 1 2134 0
 4140 1174 7E48     		ldr	r0, .L635+44
 4141 1176 FFF7FEFF 		bl	UART_UartPutString
 4142              	.LVL466:
 4143              	.L249:
2190:UartCmd.c     ****     {
 4144              		.loc 1 2190 0
 4145 117a 3423     		mov	r3, #52
 4146 117c 784A     		ldr	r2, .L635+28
 4147 117e D35C     		ldrb	r3, [r2, r3]
 4148 1180 DB07     		lsl	r3, r3, #31
 4149 1182 01D4     		bmi	.LCB4059
 4150 1184 00F018FC 		bl	.L256	@far jump
 4151              	.LCB4059:
2192:UartCmd.c     ****     }
 4152              		.loc 1 2192 0
 4153 1188 7A48     		ldr	r0, .L635+48
 4154 118a FFF7FEFF 		bl	UART_UartPutString
 4155              	.LVL467:
 4156              	.L257:
2199:UartCmd.c     ****     {
 4157              		.loc 1 2199 0
 4158 118e 3423     		mov	r3, #52
 4159 1190 734A     		ldr	r2, .L635+28
 4160 1192 D35C     		ldrb	r3, [r2, r3]
 4161 1194 9B07     		lsl	r3, r3, #30
 4162 1196 01D4     		bmi	.LCB4072
 4163 1198 00F009FC 		bl	.L258	@far jump
 4164              	.LCB4072:
2201:UartCmd.c     ****     }
 4165              		.loc 1 2201 0
 4166 119c 7648     		ldr	r0, .L635+52
 4167 119e FFF7FEFF 		bl	UART_UartPutString
 4168              	.LVL468:
 4169              	.L259:
2208:UartCmd.c     ****     {
 4170              		.loc 1 2208 0
 4171 11a2 3423     		mov	r3, #52
 4172 11a4 6E4A     		ldr	r2, .L635+28
 4173 11a6 D35C     		ldrb	r3, [r2, r3]
 4174 11a8 5B07     		lsl	r3, r3, #29
 4175 11aa 01D4     		bmi	.LCB4085
 4176 11ac 00F0FAFB 		bl	.L260	@far jump
 4177              	.LCB4085:
2210:UartCmd.c     ****     }
 4178              		.loc 1 2210 0
 4179 11b0 7248     		ldr	r0, .L635+56
 4180 11b2 FFF7FEFF 		bl	UART_UartPutString
 4181              	.LVL469:
 4182              	.L261:
2216:UartCmd.c     **** 
 4183              		.loc 1 2216 0
 4184 11b6 7248     		ldr	r0, .L635+60
 4185 11b8 FFF7FEFF 		bl	UART_UartPutString
 4186              	.LVL470:
2218:UartCmd.c     **** }
ARM GAS  C:\Users\ramanatg\AppData\Local\Temp\ccxbhSsV.s 			page 131


 4187              		.loc 1 2218 0
 4188 11bc 0023     		mov	r3, #0
 4189 11be 9846     		mov	r8, r3
 4190              	.L254:
 4191              	.LVL471:
 4192 11c0 2568     		ldr	r5, [r4]
 4193              	.LBE493:
 4194              	.LBE492:
 4195 11c2 FFF7BFF8 		bl	.L99	@ far jump
 4196              	.LVL472:
 4197              	.L608:
 4198              	.LBB496:
 4199              	.LBB452:
2350:UartCmd.c     ****     {
 4200              		.loc 1 2350 0
 4201 11c6 2368     		ldr	r3, [r4]
2344:UartCmd.c     ****     uint8_t *pPos;
 4202              		.loc 1 2344 0
 4203 11c8 0AAF     		add	r7, sp, #40
 4204 11ca 3870     		strb	r0, [r7]
2350:UartCmd.c     ****     {
 4205              		.loc 1 2350 0
 4206 11cc 181C     		mov	r0, r3
 4207 11ce 0830     		add	r0, r0, #8
 4208 11d0 9B46     		mov	fp, r3
 4209 11d2 FFF7FEFF 		bl	strlen
 4210              	.LVL473:
2418:UartCmd.c     ****     }
 4211              		.loc 1 2418 0
 4212 11d6 0125     		mov	r5, #1
2350:UartCmd.c     ****     {
 4213              		.loc 1 2350 0
 4214 11d8 2528     		cmp	r0, #37
 4215 11da 01D0     		beq	.LCB4119
 4216 11dc FFF79CF8 		bl	.L80	@far jump
 4217              	.LCB4119:
 4218              	.LVL474:
2354:UartCmd.c     ****         {
 4219              		.loc 1 2354 0
 4220 11e0 5B46     		mov	r3, fp
 4221 11e2 5846     		mov	r0, fp
 4222 11e4 1B7A     		ldrb	r3, [r3, #8]
 4223 11e6 0930     		add	r0, r0, #9
 4224              	.LVL475:
 4225 11e8 202B     		cmp	r3, #32
 4226 11ea 01D0     		beq	.LCB4127
 4227 11ec FFF794F8 		bl	.L80	@far jump
 4228              	.LCB4127:
 4229 11f0 0122     		mov	r2, #1
 4230 11f2 0023     		mov	r3, #0
 4231 11f4 0021     		mov	r1, #0
 4232              	.L273:
 4233              	.LVL476:
 4234 11f6 DDB2     		uxtb	r5, r3
2364:UartCmd.c     ****                (LOCKCODE_STR_HYPHEN_POS_2 == i) || 
 4235              		.loc 1 2364 0
 4236 11f8 082B     		cmp	r3, #8
ARM GAS  C:\Users\ramanatg\AppData\Local\Temp\ccxbhSsV.s 			page 132


 4237 11fa 00D1     		bne	.LCB4137
 4238 11fc 36E1     		b	.L274	@long jump
 4239              	.LCB4137:
 4240 11fe 0D2D     		cmp	r5, #13
 4241 1200 00D1     		bne	.LCB4142
 4242 1202 2CE1     		b	.L275	@long jump
 4243              	.LCB4142:
2365:UartCmd.c     ****                (LOCKCODE_STR_HYPHEN_POS_3 == i) || 
 4244              		.loc 1 2365 0
 4245 1204 122D     		cmp	r5, #18
 4246 1206 00D1     		bne	.LCB4144
 4247 1208 29E1     		b	.L275	@long jump
 4248              	.LCB4144:
2366:UartCmd.c     ****                (LOCKCODE_STR_HYPHEN_POS_4 == i))
 4249              		.loc 1 2366 0
 4250 120a 172D     		cmp	r5, #23
 4251 120c 00D1     		bne	.LCB4146
 4252 120e 26E1     		b	.L275	@long jump
 4253              	.LCB4146:
2378:UartCmd.c     ****             }
 4254              		.loc 1 2378 0
 4255 1210 4E1C     		add	r6, r1, #1
 4256 1212 F5B2     		uxtb	r5, r6
 4257 1214 C65C     		ldrb	r6, [r0, r3]
 4258 1216 A846     		mov	r8, r5
 4259              	.LVL477:
 4260 1218 16AD     		add	r5, sp, #88
 4261 121a 6E54     		strb	r6, [r5, r1]
 4262              	.LVL478:
2361:UartCmd.c     ****         {
 4263              		.loc 1 2361 0
 4264 121c 242A     		cmp	r2, #36
 4265 121e 36D0     		beq	.L609
2378:UartCmd.c     ****             }
 4266              		.loc 1 2378 0
 4267 1220 4146     		mov	r1, r8
 4268              	.LVL479:
 4269              	.L276:
 4270 1222 0132     		add	r2, r2, #1
 4271 1224 0133     		add	r3, r3, #1
 4272 1226 D2B2     		uxtb	r2, r2
 4273 1228 E5E7     		b	.L273
 4274              	.LVL480:
 4275              	.L607:
 4276              	.LBE452:
 4277              	.LBE496:
 4278              	.LBB497:
 4279              	.LBB498:
2245:UartCmd.c     ****     uint8_t *pPos;
 4280              		.loc 1 2245 0
 4281 122a 0126     		mov	r6, #1
2251:UartCmd.c     ****     {
 4282              		.loc 1 2251 0
 4283 122c 2368     		ldr	r3, [r4]
2245:UartCmd.c     ****     uint8_t *pPos;
 4284              		.loc 1 2245 0
 4285 122e 0AAF     		add	r7, sp, #40
ARM GAS  C:\Users\ramanatg\AppData\Local\Temp\ccxbhSsV.s 			page 133


2251:UartCmd.c     ****     {
 4286              		.loc 1 2251 0
 4287 1230 981D     		add	r0, r3, #6
2245:UartCmd.c     ****     uint8_t *pPos;
 4288              		.loc 1 2245 0
 4289 1232 3E70     		strb	r6, [r7]
2251:UartCmd.c     ****     {
 4290              		.loc 1 2251 0
 4291 1234 9B46     		mov	fp, r3
 4292 1236 FFF7FEFF 		bl	strlen
 4293              	.LVL481:
2314:UartCmd.c     ****     }
 4294              		.loc 1 2314 0
 4295 123a 0125     		mov	r5, #1
2251:UartCmd.c     ****     {
 4296              		.loc 1 2251 0
 4297 123c 2528     		cmp	r0, #37
 4298 123e 01D0     		beq	.LCB4188
 4299 1240 FFF76AF8 		bl	.L80	@far jump
 4300              	.LCB4188:
 4301              	.LVL482:
2255:UartCmd.c     ****         {
 4302              		.loc 1 2255 0
 4303 1244 5B46     		mov	r3, fp
 4304 1246 D81D     		add	r0, r3, #7
 4305              	.LVL483:
 4306 1248 9B79     		ldrb	r3, [r3, #6]
 4307 124a 202B     		cmp	r3, #32
 4308 124c 01D0     		beq	.LCB4195
 4309 124e FFF763F8 		bl	.L80	@far jump
 4310              	.LCB4195:
 4311 1252 0122     		mov	r2, #1
 4312 1254 0023     		mov	r3, #0
 4313 1256 0021     		mov	r1, #0
 4314              	.L266:
 4315              	.LVL484:
 4316 1258 DDB2     		uxtb	r5, r3
2265:UartCmd.c     ****                (LOCKCODE_STR_HYPHEN_POS_2 == i) || 
 4317              		.loc 1 2265 0
 4318 125a 082B     		cmp	r3, #8
 4319 125c 00D1     		bne	.LCB4205
 4320 125e F7E0     		b	.L267	@long jump
 4321              	.LCB4205:
 4322 1260 0D2D     		cmp	r5, #13
 4323 1262 00D1     		bne	.LCB4210
 4324 1264 EDE0     		b	.L268	@long jump
 4325              	.LCB4210:
2266:UartCmd.c     ****                (LOCKCODE_STR_HYPHEN_POS_3 == i) || 
 4326              		.loc 1 2266 0
 4327 1266 122D     		cmp	r5, #18
 4328 1268 00D1     		bne	.LCB4212
 4329 126a EAE0     		b	.L268	@long jump
 4330              	.LCB4212:
2267:UartCmd.c     ****                (LOCKCODE_STR_HYPHEN_POS_4 == i))
 4331              		.loc 1 2267 0
 4332 126c 172D     		cmp	r5, #23
 4333 126e 00D1     		bne	.LCB4214
ARM GAS  C:\Users\ramanatg\AppData\Local\Temp\ccxbhSsV.s 			page 134


 4334 1270 E7E0     		b	.L268	@long jump
 4335              	.LCB4214:
2279:UartCmd.c     ****             }
 4336              		.loc 1 2279 0
 4337 1272 4E1C     		add	r6, r1, #1
 4338 1274 F5B2     		uxtb	r5, r6
 4339 1276 C65C     		ldrb	r6, [r0, r3]
 4340 1278 A846     		mov	r8, r5
 4341              	.LVL485:
 4342 127a 16AD     		add	r5, sp, #88
 4343 127c 6E54     		strb	r6, [r5, r1]
 4344              	.LVL486:
2262:UartCmd.c     ****         {
 4345              		.loc 1 2262 0
 4346 127e 242A     		cmp	r2, #36
 4347 1280 00D1     		bne	.LCB4227
 4348 1282 85E0     		b	.L610	@long jump
 4349              	.LCB4227:
2279:UartCmd.c     ****             }
 4350              		.loc 1 2279 0
 4351 1284 4146     		mov	r1, r8
 4352              	.LVL487:
 4353              	.L269:
 4354 1286 0132     		add	r2, r2, #1
 4355 1288 0133     		add	r3, r3, #1
 4356 128a D2B2     		uxtb	r2, r2
 4357 128c E4E7     		b	.L266
 4358              	.LVL488:
 4359              	.L609:
 4360              	.LBE498:
 4361              	.LBE497:
 4362              	.LBB508:
 4363              	.LBB453:
2361:UartCmd.c     ****         {
 4364              		.loc 1 2361 0
 4365 128e 0026     		mov	r6, #0
 4366              	.LVL489:
 4367              	.L283:
 4368              	.LBB416:
 4369              	.LBB417:
 4370              	.LBB418:
 4371              	.LBB419:
2568:UartCmd.c     ****     lower_nibble = atox(*p);
 4372              		.loc 1 2568 0
 4373 1290 2B78     		ldrb	r3, [r5]
 4374              	.LVL490:
 4375              	.LBB420:
 4376              	.LBB421:
2600:UartCmd.c     ****     {
 4377              		.loc 1 2600 0
 4378 1292 1A1C     		mov	r2, r3
 4379 1294 303A     		sub	r2, r2, #48
 4380 1296 D2B2     		uxtb	r2, r2
 4381 1298 092A     		cmp	r2, #9
 4382 129a 00D8     		bhi	.LCB4269
 4383 129c C6E0     		b	.L277	@long jump
 4384              	.LCB4269:
ARM GAS  C:\Users\ramanatg\AppData\Local\Temp\ccxbhSsV.s 			page 135


2605:UartCmd.c     ****     {
 4385              		.loc 1 2605 0
 4386 129e 1A1C     		mov	r2, r3
 4387 12a0 413A     		sub	r2, r2, #65
 4388 12a2 052A     		cmp	r2, #5
 4389 12a4 00D8     		bhi	.LCB4274
 4390 12a6 C9E0     		b	.L611	@long jump
 4391              	.LCB4274:
 4392              	.LVL491:
 4393              	.LBB422:
 4394              	.LBB423:
2610:UartCmd.c     ****     {
 4395              		.loc 1 2610 0
 4396 12a8 1A1C     		mov	r2, r3
 4397 12aa 613A     		sub	r2, r2, #97
 4398 12ac 052A     		cmp	r2, #5
 4399 12ae 00D8     		bhi	.LCB4282
 4400 12b0 BAE0     		b	.L612	@long jump
 4401              	.LCB4282:
 4402              	.LBE423:
 4403              	.LBE422:
 4404              	.LBE421:
 4405              	.LBE420:
2569:UartCmd.c     ****     /* If the character is not in '0' and 'f/F'. */
 4406              		.loc 1 2569 0
 4407 12b2 6B78     		ldrb	r3, [r5, #1]
 4408              	.LVL492:
 4409              	.LBB431:
 4410              	.LBB432:
2600:UartCmd.c     ****     {
 4411              		.loc 1 2600 0
 4412 12b4 1A1C     		mov	r2, r3
 4413              	.LVL493:
 4414 12b6 303A     		sub	r2, r2, #48
 4415 12b8 092A     		cmp	r2, #9
 4416 12ba 01D8     		bhi	.LCB4299
 4417 12bc FFF795FB 		bl	.L413	@far jump
 4418              	.LCB4299:
 4419              	.LBE432:
 4420              	.LBE431:
 4421              	.LBB438:
 4422              	.LBB428:
 4423              	.LBB426:
 4424              	.LBB424:
2617:UartCmd.c     ****     }
 4425              		.loc 1 2617 0
 4426 12c0 FF22     		mov	r2, #255
 4427              	.LVL494:
 4428              	.L297:
 4429              	.LBE424:
 4430              	.LBE426:
 4431              	.LBE428:
 4432              	.LBE438:
 4433              	.LBB439:
 4434              	.LBB435:
2605:UartCmd.c     ****     {
 4435              		.loc 1 2605 0
ARM GAS  C:\Users\ramanatg\AppData\Local\Temp\ccxbhSsV.s 			page 136


 4436 12c2 191C     		mov	r1, r3
 4437 12c4 4139     		sub	r1, r1, #65
 4438 12c6 0529     		cmp	r1, #5
 4439 12c8 00D8     		bhi	.LCB4321
 4440 12ca AAE0     		b	.L613	@long jump
 4441              	.LCB4321:
 4442              	.LVL495:
 4443              	.LBB433:
 4444              	.LBB434:
2610:UartCmd.c     ****     {
 4445              		.loc 1 2610 0
 4446 12cc 191C     		mov	r1, r3
 4447 12ce 6139     		sub	r1, r1, #97
 4448 12d0 0529     		cmp	r1, #5
 4449 12d2 01D9     		bls	.LCB4329
 4450 12d4 FFF789FB 		bl	.L413	@far jump
 4451              	.LCB4329:
2613:UartCmd.c     ****     }
 4452              		.loc 1 2613 0
 4453 12d8 573B     		sub	r3, r3, #87
 4454              	.LVL496:
 4455 12da D8B2     		uxtb	r0, r3
 4456              	.LVL497:
 4457              	.L282:
 4458              	.LBE434:
 4459              	.LBE433:
 4460              	.LBE435:
 4461              	.LBE439:
2571:UartCmd.c     ****        (lower_nibble == ATOX_PARAM_ERROR))
 4462              		.loc 1 2571 0
 4463 12dc FF2A     		cmp	r2, #255
 4464 12de 01D1     		bne	.LCB4345
 4465 12e0 FFF783FB 		bl	.L413	@far jump
 4466              	.LCB4345:
 4467              	.L302:
2576:UartCmd.c     **** }
 4468              		.loc 1 2576 0
 4469 12e4 1301     		lsl	r3, r2, #4
 4470              	.LBE419:
 4471              	.LBE418:
2537:UartCmd.c     ****     }
 4472              		.loc 1 2537 0
 4473 12e6 11A9     		add	r1, sp, #68
 4474              	.LBB446:
 4475              	.LBB444:
2576:UartCmd.c     **** }
 4476              		.loc 1 2576 0
 4477 12e8 0343     		orr	r3, r0
 4478              	.LBE444:
 4479              	.LBE446:
2537:UartCmd.c     ****     }
 4480              		.loc 1 2537 0
 4481 12ea 7354     		strb	r3, [r6, r1]
2529:UartCmd.c     ****     {
 4482              		.loc 1 2529 0
 4483 12ec 0136     		add	r6, r6, #1
 4484              	.LVL498:
ARM GAS  C:\Users\ramanatg\AppData\Local\Temp\ccxbhSsV.s 			page 137


 4485 12ee 0235     		add	r5, r5, #2
 4486              	.LVL499:
 4487 12f0 102E     		cmp	r6, #16
 4488 12f2 CDD1     		bne	.L283
 4489              	.LBE417:
 4490              	.LBE416:
2388:UartCmd.c     ****         {
 4491              		.loc 1 2388 0
 4492 12f4 3523     		mov	r3, #53
 4493 12f6 1A4A     		ldr	r2, .L635+28
 4494 12f8 D35C     		ldrb	r3, [r2, r3]
 4495 12fa 002B     		cmp	r3, #0
 4496 12fc 00D1     		bne	.LCB4375
 4497 12fe 88E0     		b	.L614	@long jump
 4498              	.LCB4375:
2394:UartCmd.c     ****         {
 4499              		.loc 1 2394 0
 4500 1300 2048     		ldr	r0, .L635+64
 4501 1302 1022     		mov	r2, #16
 4502 1304 FFF7FEFF 		bl	memcmp
 4503              	.LVL500:
2396:UartCmd.c     ****         }
 4504              		.loc 1 2396 0
 4505 1308 0225     		mov	r5, #2
 4506              	.LVL501:
2394:UartCmd.c     ****         {
 4507              		.loc 1 2394 0
 4508 130a 0028     		cmp	r0, #0
 4509 130c 01D0     		beq	.LCB4385
 4510 130e FFF703F8 		bl	.L80	@far jump
 4511              	.LCB4385:
2400:UartCmd.c     ****         
 4512              		.loc 1 2400 0
 4513 1312 391C     		mov	r1, r7
 4514 1314 0D30     		add	r0, r0, #13
 4515 1316 FFF7FEFF 		bl	ConfigRW_UpdateConfig
 4516              	.LVL502:
2403:UartCmd.c     ****         UpdateHandle.value.val  = &(pBeaconConfig->LockState);
 4517              		.loc 1 2403 0
 4518 131a 0E23     		mov	r3, #14
 4519 131c 0DA8     		add	r0, sp, #52
 4520 131e 0381     		strh	r3, [r0, #8]
2404:UartCmd.c     ****         UpdateHandle.value.len  = sizeof(pBeaconConfig->LockState);
 4521              		.loc 1 2404 0
 4522 1320 194B     		ldr	r3, .L635+68
2406:UartCmd.c     ****                                        WRITE_ATTRIB_OFFSET_0, 
 4523              		.loc 1 2406 0
 4524 1322 0021     		mov	r1, #0
2404:UartCmd.c     ****         UpdateHandle.value.len  = sizeof(pBeaconConfig->LockState);
 4525              		.loc 1 2404 0
 4526 1324 0D93     		str	r3, [sp, #52]
2405:UartCmd.c     ****         CyBle_GattsWriteAttributeValue(&UpdateHandle, 
 4527              		.loc 1 2405 0
 4528 1326 0123     		mov	r3, #1
2406:UartCmd.c     ****                                        WRITE_ATTRIB_OFFSET_0, 
 4529              		.loc 1 2406 0
 4530 1328 0022     		mov	r2, #0
ARM GAS  C:\Users\ramanatg\AppData\Local\Temp\ccxbhSsV.s 			page 138


2405:UartCmd.c     ****         CyBle_GattsWriteAttributeValue(&UpdateHandle, 
 4531              		.loc 1 2405 0
 4532 132a 8380     		strh	r3, [r0, #4]
2406:UartCmd.c     ****                                        WRITE_ATTRIB_OFFSET_0, 
 4533              		.loc 1 2406 0
 4534 132c 0023     		mov	r3, #0
 4535 132e FFF7FEFF 		bl	CyBle_GattsWriteAttributeValue
 4536              	.LVL503:
2411:UartCmd.c     ****         
 4537              		.loc 1 2411 0
 4538 1332 1648     		ldr	r0, .L635+72
 4539 1334 FFF7FEFF 		bl	UART_UartPutString
 4540              	.LVL504:
 4541 1338 2368     		ldr	r3, [r4]
2413:UartCmd.c     ****     }
 4542              		.loc 1 2413 0
 4543 133a 0025     		mov	r5, #0
 4544 133c 9B46     		mov	fp, r3
 4545              	.LVL505:
 4546 133e FEF7EBFF 		bl	.L80	@ far jump
 4547              	.L636:
 4548 1342 C046     		.align	2
 4549              	.L635:
 4550 1344 B8020000 		.word	.LC122
 4551 1348 DAF2FF0F 		.word	268432090
 4552 134c B4020000 		.word	.LC120
 4553 1350 DEF2FF0F 		.word	268432094
 4554 1354 9C270000 		.word	10140
 4555 1358 340B0000 		.word	.LC228
 4556 135c 3C010000 		.word	.LC89
 4557 1360 80F2FF0F 		.word	268432000
 4558 1364 98010000 		.word	.LC93
 4559 1368 68010000 		.word	.LC91
 4560 136c 840B0000 		.word	.LC234
 4561 1370 B00A0000 		.word	.LC210
 4562 1374 DC0A0000 		.word	.LC214
 4563 1378 F40A0000 		.word	.LC218
 4564 137c 0C0B0000 		.word	.LC222
 4565 1380 74000000 		.word	.LC63
 4566 1384 B6F2FF0F 		.word	268432054
 4567 1388 B5F2FF0F 		.word	268432053
 4568 138c 680B0000 		.word	.LC232
 4569              	.LVL506:
 4570              	.L610:
 4571              	.LBE453:
 4572              	.LBE508:
 4573              	.LBB509:
 4574              	.LBB505:
2262:UartCmd.c     ****         {
 4575              		.loc 1 2262 0
 4576 1390 0023     		mov	r3, #0
 4577 1392 9846     		mov	r8, r3
 4578              	.LVL507:
 4579 1394 3B1C     		mov	r3, r7
 4580 1396 4746     		mov	r7, r8
 4581 1398 9846     		mov	r8, r3
 4582              	.LVL508:
ARM GAS  C:\Users\ramanatg\AppData\Local\Temp\ccxbhSsV.s 			page 139


 4583              	.L270:
 4584              	.LBB499:
 4585              	.LBB500:
 4586              	.LBB501:
 4587              	.LBB502:
2568:UartCmd.c     ****     lower_nibble = atox(*p);
 4588              		.loc 1 2568 0
 4589 139a 2878     		ldrb	r0, [r5]
 4590 139c FFF7FEFF 		bl	atox
 4591              	.LVL509:
 4592 13a0 8146     		mov	r9, r0
 4593              	.LVL510:
2569:UartCmd.c     ****     /* If the character is not in '0' and 'f/F'. */
 4594              		.loc 1 2569 0
 4595 13a2 6878     		ldrb	r0, [r5, #1]
 4596 13a4 FFF7FEFF 		bl	atox
 4597              	.LVL511:
2571:UartCmd.c     ****        (lower_nibble == ATOX_PARAM_ERROR))
 4598              		.loc 1 2571 0
 4599 13a8 4B46     		mov	r3, r9
 4600 13aa FF2B     		cmp	r3, #255
 4601 13ac 01D1     		bne	.LCB4481
 4602 13ae FFF71CFB 		bl	.L413	@far jump
 4603              	.LCB4481:
 4604 13b2 FF28     		cmp	r0, #255
 4605 13b4 01D1     		bne	.LCB4483
 4606 13b6 FFF718FB 		bl	.L413	@far jump
 4607              	.LCB4483:
2576:UartCmd.c     **** }
 4608              		.loc 1 2576 0
 4609 13ba 1B01     		lsl	r3, r3, #4
 4610              	.LBE502:
 4611              	.LBE501:
2537:UartCmd.c     ****     }
 4612              		.loc 1 2537 0
 4613 13bc 11AE     		add	r6, sp, #68
 4614              	.LBB504:
 4615              	.LBB503:
2576:UartCmd.c     **** }
 4616              		.loc 1 2576 0
 4617 13be 1843     		orr	r0, r3
 4618              	.LVL512:
 4619              	.LBE503:
 4620              	.LBE504:
2537:UartCmd.c     ****     }
 4621              		.loc 1 2537 0
 4622 13c0 B855     		strb	r0, [r7, r6]
2529:UartCmd.c     ****     {
 4623              		.loc 1 2529 0
 4624 13c2 0137     		add	r7, r7, #1
 4625              	.LVL513:
 4626 13c4 0235     		add	r5, r5, #2
 4627              	.LVL514:
 4628 13c6 102F     		cmp	r7, #16
 4629 13c8 E7D1     		bne	.L270
 4630              	.LBE500:
 4631              	.LBE499:
ARM GAS  C:\Users\ramanatg\AppData\Local\Temp\ccxbhSsV.s 			page 140


2289:UartCmd.c     ****         {
 4632              		.loc 1 2289 0
 4633 13ca 3523     		mov	r3, #53
 4634 13cc B34A     		ldr	r2, .L637
2291:UartCmd.c     ****         }
 4635              		.loc 1 2291 0
 4636 13ce 0225     		mov	r5, #2
 4637              	.LVL515:
2289:UartCmd.c     ****         {
 4638              		.loc 1 2289 0
 4639 13d0 D35C     		ldrb	r3, [r2, r3]
 4640 13d2 002B     		cmp	r3, #0
 4641 13d4 01D0     		beq	.LCB4514
 4642 13d6 FEF79FFF 		bl	.L80	@far jump
 4643              	.LCB4514:
2295:UartCmd.c     ****         ConfigRW_UpdateConfig(CONFIG_TYPE_LOCK, tmp_lock);
 4644              		.loc 1 2295 0
 4645 13da 4146     		mov	r1, r8
 4646 13dc 0D20     		mov	r0, #13
 4647 13de FFF7FEFF 		bl	ConfigRW_UpdateConfig
 4648              	.LVL516:
2296:UartCmd.c     ****         
 4649              		.loc 1 2296 0
 4650 13e2 311C     		mov	r1, r6
 4651 13e4 0E20     		mov	r0, #14
 4652 13e6 FFF7FEFF 		bl	ConfigRW_UpdateConfig
 4653              	.LVL517:
2299:UartCmd.c     ****         UpdateHandle.value.val  = &(pBeaconConfig->LockState);
 4654              		.loc 1 2299 0
 4655 13ea 0E23     		mov	r3, #14
 4656 13ec 0DA8     		add	r0, sp, #52
 4657 13ee 0381     		strh	r3, [r0, #8]
2300:UartCmd.c     ****         UpdateHandle.value.len  = sizeof(pBeaconConfig->LockState);
 4658              		.loc 1 2300 0
 4659 13f0 AB4B     		ldr	r3, .L637+4
2302:UartCmd.c     ****                                        WRITE_ATTRIB_OFFSET_0, 
 4660              		.loc 1 2302 0
 4661 13f2 0021     		mov	r1, #0
2300:UartCmd.c     ****         UpdateHandle.value.len  = sizeof(pBeaconConfig->LockState);
 4662              		.loc 1 2300 0
 4663 13f4 0D93     		str	r3, [sp, #52]
2301:UartCmd.c     ****         CyBle_GattsWriteAttributeValue(&UpdateHandle, 
 4664              		.loc 1 2301 0
 4665 13f6 0123     		mov	r3, #1
2302:UartCmd.c     ****                                        WRITE_ATTRIB_OFFSET_0, 
 4666              		.loc 1 2302 0
 4667 13f8 0022     		mov	r2, #0
2301:UartCmd.c     ****         CyBle_GattsWriteAttributeValue(&UpdateHandle, 
 4668              		.loc 1 2301 0
 4669 13fa 8380     		strh	r3, [r0, #4]
2302:UartCmd.c     ****                                        WRITE_ATTRIB_OFFSET_0, 
 4670              		.loc 1 2302 0
 4671 13fc 0023     		mov	r3, #0
 4672 13fe FFF7FEFF 		bl	CyBle_GattsWriteAttributeValue
 4673              	.LVL518:
2307:UartCmd.c     ****         
 4674              		.loc 1 2307 0
ARM GAS  C:\Users\ramanatg\AppData\Local\Temp\ccxbhSsV.s 			page 141


 4675 1402 A848     		ldr	r0, .L637+8
 4676 1404 FFF7FEFF 		bl	UART_UartPutString
 4677              	.LVL519:
 4678 1408 2368     		ldr	r3, [r4]
2309:UartCmd.c     ****     }
 4679              		.loc 1 2309 0
 4680 140a 0025     		mov	r5, #0
 4681 140c 9B46     		mov	fp, r3
 4682              	.LVL520:
 4683 140e FEF783FF 		bl	.L80	@ far jump
 4684              	.LVL521:
 4685              	.L614:
 4686              	.LBE505:
 4687              	.LBE509:
 4688              	.LBB510:
 4689              	.LBB454:
2390:UartCmd.c     ****             return RESULT_OK;
 4690              		.loc 1 2390 0
 4691 1412 A548     		ldr	r0, .L637+12
 4692 1414 FFF7FEFF 		bl	UART_UartPutString
 4693              	.LVL522:
 4694 1418 2368     		ldr	r3, [r4]
2391:UartCmd.c     ****         }
 4695              		.loc 1 2391 0
 4696 141a 0025     		mov	r5, #0
 4697              	.LVL523:
 4698 141c 9B46     		mov	fp, r3
 4699              	.LVL524:
 4700 141e FEF77BFF 		bl	.L80	@ far jump
 4701              	.LVL525:
 4702              	.L613:
 4703              	.LBB449:
 4704              	.LBB448:
 4705              	.LBB447:
 4706              	.LBB445:
 4707              	.LBB440:
 4708              	.LBB436:
2608:UartCmd.c     ****     }
 4709              		.loc 1 2608 0
 4710 1422 373B     		sub	r3, r3, #55
 4711              	.LVL526:
 4712 1424 D8B2     		uxtb	r0, r3
 4713 1426 59E7     		b	.L282
 4714              	.LVL527:
 4715              	.L612:
 4716              	.LBE436:
 4717              	.LBE440:
 4718              	.LBB441:
 4719              	.LBB429:
 4720              	.LBB427:
 4721              	.LBB425:
2613:UartCmd.c     ****     }
 4722              		.loc 1 2613 0
 4723 1428 573B     		sub	r3, r3, #87
 4724              	.LVL528:
 4725 142a DAB2     		uxtb	r2, r3
 4726              	.LVL529:
ARM GAS  C:\Users\ramanatg\AppData\Local\Temp\ccxbhSsV.s 			page 142


 4727              	.L277:
 4728              	.LBE425:
 4729              	.LBE427:
 4730              	.LBE429:
 4731              	.LBE441:
2569:UartCmd.c     ****     /* If the character is not in '0' and 'f/F'. */
 4732              		.loc 1 2569 0
 4733 142c 6B78     		ldrb	r3, [r5, #1]
 4734              	.LVL530:
 4735              	.LBB442:
 4736              	.LBB437:
2600:UartCmd.c     ****     {
 4737              		.loc 1 2600 0
 4738 142e 181C     		mov	r0, r3
 4739 1430 3038     		sub	r0, r0, #48
 4740 1432 C0B2     		uxtb	r0, r0
 4741 1434 0928     		cmp	r0, #9
 4742 1436 00D9     		bls	.LCB4627
 4743 1438 43E7     		b	.L297	@long jump
 4744              	.LCB4627:
 4745 143a 53E7     		b	.L302
 4746              	.LVL531:
 4747              	.L611:
 4748              	.LBE437:
 4749              	.LBE442:
 4750              	.LBB443:
 4751              	.LBB430:
2608:UartCmd.c     ****     }
 4752              		.loc 1 2608 0
 4753 143c 373B     		sub	r3, r3, #55
 4754              	.LVL532:
 4755 143e DAB2     		uxtb	r2, r3
 4756 1440 F4E7     		b	.L277
 4757              	.LVL533:
 4758              	.L268:
 4759              	.LBE430:
 4760              	.LBE443:
 4761              	.LBE445:
 4762              	.LBE447:
 4763              	.LBE448:
 4764              	.LBE449:
 4765              	.LBE454:
 4766              	.LBE510:
 4767              	.LBB511:
 4768              	.LBB506:
2271:UartCmd.c     ****                 {
 4769              		.loc 1 2271 0
 4770 1442 C55C     		ldrb	r5, [r0, r3]
 4771 1444 2D2D     		cmp	r5, #45
 4772 1446 00D1     		bne	.LCB4669
 4773 1448 1DE7     		b	.L269	@long jump
 4774              	.LCB4669:
 4775              	.LBE506:
 4776              	.LBE511:
 4777              	.LBB512:
 4778              	.LBB455:
2384:UartCmd.c     ****         }
ARM GAS  C:\Users\ramanatg\AppData\Local\Temp\ccxbhSsV.s 			page 143


 4779              		.loc 1 2384 0
 4780 144a 0125     		mov	r5, #1
 4781              	.LVL534:
 4782 144c FEF764FF 		bl	.L80	@ far jump
 4783              	.LVL535:
 4784              	.L267:
 4785              	.LBE455:
 4786              	.LBE512:
 4787              	.LBB513:
 4788              	.LBB507:
2271:UartCmd.c     ****                 {
 4789              		.loc 1 2271 0
 4790 1450 057A     		ldrb	r5, [r0, #8]
 4791 1452 2D2D     		cmp	r5, #45
 4792 1454 00D1     		bne	.LCB4688
 4793 1456 16E7     		b	.L269	@long jump
 4794              	.LCB4688:
 4795              	.LBE507:
 4796              	.LBE513:
 4797              	.LBB514:
 4798              	.LBB456:
2384:UartCmd.c     ****         }
 4799              		.loc 1 2384 0
 4800 1458 0125     		mov	r5, #1
 4801              	.LVL536:
 4802 145a FEF75DFF 		bl	.L80	@ far jump
 4803              	.LVL537:
 4804              	.L275:
2370:UartCmd.c     ****                 {
 4805              		.loc 1 2370 0
 4806 145e C55C     		ldrb	r5, [r0, r3]
 4807 1460 2D2D     		cmp	r5, #45
 4808 1462 00D1     		bne	.LCB4708
 4809 1464 DDE6     		b	.L276	@long jump
 4810              	.LCB4708:
2384:UartCmd.c     ****         }
 4811              		.loc 1 2384 0
 4812 1466 0125     		mov	r5, #1
 4813              	.LVL538:
 4814 1468 FEF756FF 		bl	.L80	@ far jump
 4815              	.LVL539:
 4816              	.L274:
2370:UartCmd.c     ****                 {
 4817              		.loc 1 2370 0
 4818 146c 057A     		ldrb	r5, [r0, #8]
 4819 146e 2D2D     		cmp	r5, #45
 4820 1470 00D1     		bne	.LCB4719
 4821 1472 D6E6     		b	.L276	@long jump
 4822              	.LCB4719:
2384:UartCmd.c     ****         }
 4823              		.loc 1 2384 0
 4824 1474 0125     		mov	r5, #1
 4825              	.LVL540:
 4826 1476 FEF74FFF 		bl	.L80	@ far jump
 4827              	.LVL541:
 4828              	.L601:
 4829              	.LBE456:
ARM GAS  C:\Users\ramanatg\AppData\Local\Temp\ccxbhSsV.s 			page 144


 4830              	.LBE514:
 4831              	.LBB515:
 4832              	.LBB516:
2041:UartCmd.c     ****     const char eddystone[] = {' ', 'E', 'D', 'D', 'Y', 'S', 'T', 'O', 'N', 'E', '\0'};
 4833              		.loc 1 2041 0
 4834 147a 391C     		mov	r1, r7
 4835 147c 0B22     		mov	r2, #11
 4836 147e 7031     		add	r1, r1, #112
 4837 1480 11A8     		add	r0, sp, #68
 4838 1482 FFF7FEFF 		bl	memcpy
 4839              	.LVL542:
2042:UartCmd.c     ****     const char edtest[]    = {' ', 'E', 'D', 'T', 'E', 'S', 'T', '\0'};
 4840              		.loc 1 2042 0
 4841 1486 391C     		mov	r1, r7
 4842 1488 0B22     		mov	r2, #11
 4843 148a 7C31     		add	r1, r1, #124
 4844 148c 16A8     		add	r0, sp, #88
 4845 148e FFF7FEFF 		bl	memcpy
 4846              	.LVL543:
2043:UartCmd.c     ****     int8_t mode;
 4847              		.loc 1 2043 0
 4848 1492 8649     		ldr	r1, .L637+16
 4849 1494 0DA8     		add	r0, sp, #52
 4850 1496 0831     		add	r1, r1, #8
 4851 1498 0822     		mov	r2, #8
 4852 149a FFF7FEFF 		bl	memcpy
 4853              	.LVL544:
2047:UartCmd.c     ****     {
 4854              		.loc 1 2047 0
 4855 149e 2568     		ldr	r5, [r4]
 4856 14a0 2B79     		ldrb	r3, [r5, #4]
 4857 14a2 002B     		cmp	r3, #0
 4858 14a4 00D0     		beq	.LCB4758
 4859 14a6 B3E2     		b	.L238	@long jump
 4860              	.LCB4758:
2049:UartCmd.c     ****     }
 4861              		.loc 1 2049 0
 4862 14a8 8148     		ldr	r0, .L637+20
 4863 14aa FFF7FEFF 		bl	UART_UartPutString
 4864              	.LVL545:
 4865              	.L239:
2085:UartCmd.c     ****     {
 4866              		.loc 1 2085 0
 4867 14ae 7B4B     		ldr	r3, .L637
 4868 14b0 DB7F     		ldrb	r3, [r3, #31]
 4869 14b2 002B     		cmp	r3, #0
 4870 14b4 00D1     		bne	.LCB4767
 4871 14b6 A6E2     		b	.L615	@long jump
 4872              	.LCB4767:
2090:UartCmd.c     ****     {
 4873              		.loc 1 2090 0
 4874 14b8 012B     		cmp	r3, #1
 4875 14ba 00D1     		bne	.LCB4770
 4876 14bc BDE2     		b	.L616	@long jump
 4877              	.LCB4770:
2097:UartCmd.c     ****     }
 4878              		.loc 1 2097 0
ARM GAS  C:\Users\ramanatg\AppData\Local\Temp\ccxbhSsV.s 			page 145


 4879 14be 7D48     		ldr	r0, .L637+24
 4880 14c0 FFF7FEFF 		bl	UART_UartPutString
 4881              	.LVL546:
 4882 14c4 77E6     		b	.L261
 4883              	.L600:
 4884              	.LBE516:
 4885              	.LBE515:
 4886              	.LBB519:
 4887              	.LBB368:
1955:UartCmd.c     ****     const char on[]  = {'O', 'N'};
 4888              		.loc 1 1955 0
 4889 14c6 2568     		ldr	r5, [r4]
 4890 14c8 A81D     		add	r0, r5, #6
 4891 14ca FFF7FEFF 		bl	strlen
 4892              	.LVL547:
1956:UartCmd.c     ****     const char off[] = {'O', 'F', 'F'};
 4893              		.loc 1 1956 0
 4894 14ce 391C     		mov	r1, r7
 4895 14d0 11AB     		add	r3, sp, #68
1955:UartCmd.c     ****     const char on[]  = {'O', 'N'};
 4896              		.loc 1 1955 0
 4897 14d2 86B2     		uxth	r6, r0
 4898              	.LVL548:
1956:UartCmd.c     ****     const char off[] = {'O', 'F', 'F'};
 4899              		.loc 1 1956 0
 4900 14d4 6431     		add	r1, r1, #100
 4901 14d6 0222     		mov	r2, #2
 4902 14d8 181C     		mov	r0, r3
 4903 14da 9A46     		mov	r10, r3
 4904 14dc FFF7FEFF 		bl	memcpy
 4905              	.LVL549:
1957:UartCmd.c     ****     uint8_t sensor;
 4906              		.loc 1 1957 0
 4907 14e0 391C     		mov	r1, r7
 4908 14e2 16A8     		add	r0, sp, #88
 4909 14e4 6831     		add	r1, r1, #104
 4910 14e6 0322     		mov	r2, #3
 4911 14e8 FFF7FEFF 		bl	memcpy
 4912              	.LVL550:
1961:UartCmd.c     ****     {
 4913              		.loc 1 1961 0
 4914 14ec 002E     		cmp	r6, #0
 4915 14ee 38D0     		beq	.L617
2003:UartCmd.c     ****     }
 4916              		.loc 1 2003 0
 4917 14f0 0122     		mov	r2, #1
1966:UartCmd.c     ****             ((SIZE_OF_PARAM_SPACE + sizeof(off)) == len)) /* space(len=1) + value(len=2/3) */
 4918              		.loc 1 1966 0
 4919 14f2 F31E     		sub	r3, r6, #3
2003:UartCmd.c     ****     }
 4920              		.loc 1 2003 0
 4921 14f4 9046     		mov	r8, r2
1966:UartCmd.c     ****             ((SIZE_OF_PARAM_SPACE + sizeof(off)) == len)) /* space(len=1) + value(len=2/3) */
 4922              		.loc 1 1966 0
 4923 14f6 012B     		cmp	r3, #1
 4924 14f8 01D9     		bls	.LCB4810
 4925 14fa FEF723FF 		bl	.L99	@far jump
ARM GAS  C:\Users\ramanatg\AppData\Local\Temp\ccxbhSsV.s 			page 146


 4926              	.LCB4810:
1970:UartCmd.c     ****         {
 4927              		.loc 1 1970 0
 4928 14fe AB79     		ldrb	r3, [r5, #6]
 4929 1500 202B     		cmp	r3, #32
 4930 1502 01D0     		beq	.LCB4813
 4931 1504 FEF71EFF 		bl	.L99	@far jump
 4932              	.LCB4813:
1975:UartCmd.c     ****         /* Convert the input into Capital form. */
 4933              		.loc 1 1975 0
 4934 1508 0735     		add	r5, r5, #7
 4935              	.LVL551:
1977:UartCmd.c     ****         
 4936              		.loc 1 1977 0
 4937 150a 281C     		mov	r0, r5
 4938 150c FFF7FEFF 		bl	strupr
 4939              	.LVL552:
1980:UartCmd.c     ****            ((SIZE_OF_PARAM_SPACE + sizeof(off)) == len))
 4940              		.loc 1 1980 0
 4941 1510 281C     		mov	r0, r5
 4942 1512 16A9     		add	r1, sp, #88
 4943 1514 0322     		mov	r2, #3
 4944 1516 FFF7FEFF 		bl	memcmp
 4945              	.LVL553:
 4946 151a 0028     		cmp	r0, #0
 4947 151c 02D1     		bne	.L231
 4948 151e 042E     		cmp	r6, #4
 4949 1520 00D1     		bne	.LCB4827
 4950 1522 F6E2     		b	.L618	@long jump
 4951              	.LCB4827:
 4952              	.L231:
1986:UartCmd.c     ****                 ((SIZE_OF_PARAM_SPACE + sizeof(on)) == len))
 4953              		.loc 1 1986 0
 4954 1524 281C     		mov	r0, r5
 4955 1526 5146     		mov	r1, r10
 4956 1528 0222     		mov	r2, #2
 4957 152a FFF7FEFF 		bl	memcmp
 4958              	.LVL554:
 4959 152e 0028     		cmp	r0, #0
 4960 1530 00D0     		beq	.LCB4835
 4961 1532 B5E5     		b	.L234	@long jump
 4962              	.LCB4835:
 4963 1534 032E     		cmp	r6, #3
 4964 1536 00D0     		beq	.LCB4837
 4965 1538 B2E5     		b	.L234	@long jump
 4966              	.LCB4837:
1989:UartCmd.c     ****         }
 4967              		.loc 1 1989 0
 4968 153a 0123     		mov	r3, #1
 4969 153c 0DAE     		add	r6, sp, #52
 4970              	.LVL555:
 4971 153e 3370     		strb	r3, [r6]
 4972              	.L232:
1997:UartCmd.c     ****         SIMPLE_UART_PUTCONST("-> New Sensor mode : ");
 4973              		.loc 1 1997 0
 4974 1540 0720     		mov	r0, #7
 4975 1542 311C     		mov	r1, r6
ARM GAS  C:\Users\ramanatg\AppData\Local\Temp\ccxbhSsV.s 			page 147


 4976 1544 FFF7FEFF 		bl	ConfigRW_UpdateConfig
 4977              	.LVL556:
1998:UartCmd.c     ****     }
 4978              		.loc 1 1998 0
 4979 1548 5B48     		ldr	r0, .L637+28
 4980 154a FFF7FEFF 		bl	UART_UartPutString
 4981              	.LVL557:
 4982              	.L229:
2006:UartCmd.c     ****     {
 4983              		.loc 1 2006 0
 4984 154e 534B     		ldr	r3, .L637
 4985 1550 9B7F     		ldrb	r3, [r3, #30]
 4986 1552 5BB2     		sxtb	r3, r3
 4987 1554 002B     		cmp	r3, #0
 4988 1556 08D0     		beq	.L235
2008:UartCmd.c     ****     }
 4989              		.loc 1 2008 0
 4990 1558 5848     		ldr	r0, .L637+32
 4991 155a FFF7FEFF 		bl	UART_UartPutString
 4992              	.LVL558:
 4993 155e FEF797FF 		bl	.L236	@ far jump
 4994              	.LVL559:
 4995              	.L617:
1963:UartCmd.c     ****     }
 4996              		.loc 1 1963 0
 4997 1562 5748     		ldr	r0, .L637+36
 4998 1564 FFF7FEFF 		bl	UART_UartPutString
 4999              	.LVL560:
 5000 1568 F1E7     		b	.L229
 5001              	.LVL561:
 5002              	.L235:
2012:UartCmd.c     ****     }
 5003              		.loc 1 2012 0
 5004 156a 5648     		ldr	r0, .L637+40
 5005 156c FEF78EFF 		bl	.L541	@ far jump
 5006              	.L567:
 5007              	.LVL562:
 5008              	.LBE368:
 5009              	.LBE519:
 5010              	.LBB520:
 5011              	.LBB521:
1158:UartCmd.c     **** 
 5012              		.loc 1 1158 0
 5013 1570 2568     		ldr	r5, [r4]
1156:UartCmd.c     ****     int32_t rssi = 0;
 5014              		.loc 1 1156 0
 5015 1572 1190     		str	r0, [sp, #68]
1157:UartCmd.c     ****     uint16_t len = strlen((const char *)(data_array + sizeof(cmd_RSSI)));
 5016              		.loc 1 1157 0
 5017 1574 1690     		str	r0, [sp, #88]
1158:UartCmd.c     **** 
 5018              		.loc 1 1158 0
 5019 1576 281D     		add	r0, r5, #4
 5020 1578 FFF7FEFF 		bl	strlen
 5021              	.LVL563:
 5022 157c 81B2     		uxth	r1, r0
 5023              	.LVL564:
ARM GAS  C:\Users\ramanatg\AppData\Local\Temp\ccxbhSsV.s 			page 148


1161:UartCmd.c     ****     {
 5024              		.loc 1 1161 0
 5025 157e 0029     		cmp	r1, #0
 5026 1580 4AD0     		beq	.L619
1166:UartCmd.c     ****     {
 5027              		.loc 1 1166 0
 5028 1582 0129     		cmp	r1, #1
 5029 1584 01D1     		bne	.LCB4898
 5030 1586 FEF756FF 		bl	.L116	@far jump
 5031              	.LCB4898:
1175:UartCmd.c     ****         }
 5032              		.loc 1 1175 0
 5033 158a 0122     		mov	r2, #1
1173:UartCmd.c     ****         {
 5034              		.loc 1 1173 0
 5035 158c 2B79     		ldrb	r3, [r5, #4]
1175:UartCmd.c     ****         }
 5036              		.loc 1 1175 0
 5037 158e 9046     		mov	r8, r2
1173:UartCmd.c     ****         {
 5038              		.loc 1 1173 0
 5039 1590 202B     		cmp	r3, #32
 5040 1592 01D0     		beq	.LCB4903
 5041 1594 FEF7D6FE 		bl	.L99	@far jump
 5042              	.LCB4903:
 5043              	.LVL565:
 5044 1598 0304     		lsl	r3, r0, #16
 5045 159a 1B0C     		lsr	r3, r3, #16
1178:UartCmd.c     ****         {
 5046              		.loc 1 1178 0
 5047 159c 013B     		sub	r3, r3, #1
 5048 159e 0022     		mov	r2, #0
 5049 15a0 002B     		cmp	r3, #0
 5050 15a2 16DD     		ble	.L620
 5051              	.LVL566:
 5052              	.L470:
1181:UartCmd.c     ****                 (data_array[i + sizeof(cmd_RSSI) + SIZE_OF_PARAM_SPACE] <= '9')) || \
 5053              		.loc 1 1181 0
 5054 15a4 A818     		add	r0, r5, r2
 5055 15a6 4079     		ldrb	r0, [r0, #5]
 5056 15a8 071C     		mov	r7, r0
 5057 15aa 303F     		sub	r7, r7, #48
 5058 15ac 092F     		cmp	r7, #9
 5059 15ae 07D9     		bls	.L216
1182:UartCmd.c     ****                 ((0 == i) && (data_array[i + sizeof(cmd_RSSI) + SIZE_OF_PARAM_SPACE] == '-')))
 5060              		.loc 1 1182 0
 5061 15b0 002A     		cmp	r2, #0
 5062 15b2 01D0     		beq	.LCB4922
 5063 15b4 FEF73FFF 		bl	.L116	@far jump
 5064              	.LCB4922:
1183:UartCmd.c     ****             {
 5065              		.loc 1 1183 0
 5066 15b8 2D28     		cmp	r0, #45
 5067 15ba 01D0     		beq	.LCB4924
 5068 15bc FEF73BFF 		bl	.L116	@far jump
 5069              	.LCB4924:
 5070              	.L216:
ARM GAS  C:\Users\ramanatg\AppData\Local\Temp\ccxbhSsV.s 			page 149


1178:UartCmd.c     ****         {
 5071              		.loc 1 1178 0
 5072 15c0 0132     		add	r2, r2, #1
 5073              	.LVL567:
1185:UartCmd.c     ****             }
 5074              		.loc 1 1185 0
 5075 15c2 11AF     		add	r7, sp, #68
1178:UartCmd.c     ****         {
 5076              		.loc 1 1178 0
 5077 15c4 92B2     		uxth	r2, r2
 5078              	.LVL568:
1185:UartCmd.c     ****             }
 5079              		.loc 1 1185 0
 5080 15c6 B855     		strb	r0, [r7, r6]
1178:UartCmd.c     ****         {
 5081              		.loc 1 1178 0
 5082 15c8 161E     		sub	r6, r2, #0
 5083 15ca 9E42     		cmp	r6, r3
 5084 15cc EADB     		blt	.L470
 5085 15ce BA46     		mov	r10, r7
 5086 15d0 01E0     		b	.L217
 5087              	.LVL569:
 5088              	.L620:
 5089 15d2 11AB     		add	r3, sp, #68
 5090 15d4 9A46     		mov	r10, r3
 5091              	.LVL570:
 5092              	.L217:
1193:UartCmd.c     ****         {
 5093              		.loc 1 1193 0
 5094 15d6 0229     		cmp	r1, #2
 5095 15d8 05D1     		bne	.L215
 5096 15da 5346     		mov	r3, r10
 5097 15dc 1B78     		ldrb	r3, [r3]
 5098 15de 2D2B     		cmp	r3, #45
 5099 15e0 01D1     		bne	.LCB4951
 5100 15e2 FEF728FF 		bl	.L116	@far jump
 5101              	.LCB4951:
 5102              	.L215:
1197:UartCmd.c     **** 
 5103              		.loc 1 1197 0
 5104 15e6 5046     		mov	r0, r10
 5105 15e8 FFF7FEFF 		bl	atoi
 5106              	.LVL571:
 5107 15ec 1690     		str	r0, [sp, #88]
1200:UartCmd.c     ****         {
 5108              		.loc 1 1200 0
 5109 15ee 8030     		add	r0, r0, #128
 5110 15f0 FF28     		cmp	r0, #255
 5111 15f2 00D9     		bls	.LCB4960
 5112 15f4 54E5     		b	.L234	@long jump
 5113              	.LCB4960:
1204:UartCmd.c     ****             SIMPLE_UART_PUTCONST("-> New RSSI in dBm: ");
 5114              		.loc 1 1204 0
 5115 15f6 0620     		mov	r0, #6
 5116 15f8 16A9     		add	r1, sp, #88
 5117 15fa FFF7FEFF 		bl	ConfigRW_UpdateConfig
 5118              	.LVL572:
ARM GAS  C:\Users\ramanatg\AppData\Local\Temp\ccxbhSsV.s 			page 150


1205:UartCmd.c     ****         }
 5119              		.loc 1 1205 0
 5120 15fe 3248     		ldr	r0, .L637+44
 5121 1600 FFF7FEFF 		bl	UART_UartPutString
 5122              	.LVL573:
 5123              	.L211:
1214:UartCmd.c     ****     SIMPLE_UART_PUTCONST(str);
 5124              		.loc 1 1214 0
 5125 1604 1D22     		mov	r2, #29
 5126 1606 254B     		ldr	r3, .L637
 5127              	.LVL574:
 5128              	.L546:
 5129 1608 9A56     		ldrsb	r2, [r3, r2]
 5130 160a 5046     		mov	r0, r10
 5131 160c 2F49     		ldr	r1, .L637+48
 5132 160e FFF7FEFF 		bl	sprintf
 5133              	.LVL575:
1215:UartCmd.c     ****     SIMPLE_UART_PUTCONST("\r\n");
 5134              		.loc 1 1215 0
 5135 1612 5046     		mov	r0, r10
 5136 1614 FEF73AFF 		bl	.L541	@ far jump
 5137              	.LVL576:
 5138              	.L619:
1163:UartCmd.c     ****     }
 5139              		.loc 1 1163 0
 5140 1618 2D48     		ldr	r0, .L637+52
 5141 161a FFF7FEFF 		bl	UART_UartPutString
 5142              	.LVL577:
 5143 161e 11AB     		add	r3, sp, #68
 5144 1620 9A46     		mov	r10, r3
 5145 1622 EFE7     		b	.L211
 5146              	.LVL578:
 5147              	.L566:
 5148              	.LBE521:
 5149              	.LBE520:
 5150              	.LBB522:
 5151              	.LBB523:
1420:UartCmd.c     ****     {
 5152              		.loc 1 1420 0
 5153 1624 2768     		ldr	r7, [r4]
 5154 1626 FB79     		ldrb	r3, [r7, #7]
 5155 1628 002B     		cmp	r3, #0
 5156 162a 01D0     		beq	.LCB5007
 5157 162c FEF72FFD 		bl	.L38	@far jump
 5158              	.LCB5007:
1425:UartCmd.c     ****     {
 5159              		.loc 1 1425 0
 5160 1630 1A4A     		ldr	r2, .L637
 5161 1632 3533     		add	r3, r3, #53
 5162 1634 D35C     		ldrb	r3, [r2, r3]
 5163 1636 002B     		cmp	r3, #0
 5164 1638 23D0     		beq	.L621
 5165 163a 0224     		mov	r4, #2
1427:UartCmd.c     ****     }
 5166              		.loc 1 1427 0
 5167 163c 0225     		mov	r5, #2
 5168 163e FEF734FE 		bl	.L208	@ far jump
ARM GAS  C:\Users\ramanatg\AppData\Local\Temp\ccxbhSsV.s 			page 151


 5169              	.L598:
 5170              	.LBE523:
 5171              	.LBE522:
 5172              	.LBB525:
 5173              	.LBB526:
2443:UartCmd.c     **** 
 5174              		.loc 1 2443 0
 5175 1642 8022     		mov	r2, #128
 5176 1644 16A8     		add	r0, sp, #88
 5177 1646 0021     		mov	r1, #0
 5178 1648 FFF7FEFF 		bl	memset
 5179              	.LVL579:
2448:UartCmd.c     ****     }
 5180              		.loc 1 2448 0
 5181 164c 0122     		mov	r2, #1
2446:UartCmd.c     ****     {
 5182              		.loc 1 2446 0
 5183 164e 2568     		ldr	r5, [r4]
2448:UartCmd.c     ****     }
 5184              		.loc 1 2448 0
 5185 1650 9046     		mov	r8, r2
2446:UartCmd.c     ****     {
 5186              		.loc 1 2446 0
 5187 1652 EB78     		ldrb	r3, [r5, #3]
 5188 1654 002B     		cmp	r3, #0
 5189 1656 01D0     		beq	.LCB5034
 5190 1658 FEF774FE 		bl	.L99	@far jump
 5191              	.LCB5034:
2452:UartCmd.c     **** 
 5192              		.loc 1 2452 0
 5193 165c 0093     		str	r3, [sp]
 5194 165e 1D49     		ldr	r1, .L637+56
 5195 1660 0233     		add	r3, r3, #2
 5196 1662 16A8     		add	r0, sp, #88
 5197 1664 FFF7FEFF 		bl	sprintf
 5198              	.LVL580:
2454:UartCmd.c     **** 
 5199              		.loc 1 2454 0
 5200 1668 16A8     		add	r0, sp, #88
 5201 166a FFF7FEFF 		bl	UART_UartPutString
 5202              	.LVL581:
2456:UartCmd.c     **** }
 5203              		.loc 1 2456 0
 5204 166e 0023     		mov	r3, #0
 5205 1670 2568     		ldr	r5, [r4]
 5206 1672 9846     		mov	r8, r3
 5207 1674 FEF766FE 		bl	.L99	@ far jump
 5208              	.LVL582:
 5209              	.L599:
 5210              	.LBE526:
 5211              	.LBE525:
 5212              	.LBB527:
 5213              	.LBB476:
1888:UartCmd.c     ****     }
 5214              		.loc 1 1888 0
 5215 1678 1748     		ldr	r0, .L637+60
 5216 167a FFF7FEFF 		bl	UART_UartPutString
ARM GAS  C:\Users\ramanatg\AppData\Local\Temp\ccxbhSsV.s 			page 152


 5217              	.LVL583:
 5218 167e FFF742FB 		bl	.L221	@ far jump
 5219              	.LVL584:
 5220              	.L621:
 5221              	.LBE476:
 5222              	.LBE527:
 5223              	.LBB528:
 5224              	.LBB524:
1432:UartCmd.c     ****         EddystoneURL_Config_UpdateAllAttrib();
 5225              		.loc 1 1432 0
 5226 1682 FFF7FEFF 		bl	ConfigRW_WriteReset
 5227              	.LVL585:
1433:UartCmd.c     ****         
 5228              		.loc 1 1433 0
 5229 1686 FFF7FEFF 		bl	EddystoneURL_Config_UpdateAllAttrib
 5230              	.LVL586:
1435:UartCmd.c     ****     }
 5231              		.loc 1 1435 0
 5232 168a 1448     		ldr	r0, .L637+64
 5233 168c FFF7FEFF 		bl	UART_UartPutString
 5234              	.LVL587:
1438:UartCmd.c     **** }
 5235              		.loc 1 1438 0
 5236 1690 0025     		mov	r5, #0
 5237 1692 2768     		ldr	r7, [r4]
1435:UartCmd.c     ****     }
 5238              		.loc 1 1435 0
 5239 1694 0024     		mov	r4, #0
 5240 1696 FEF708FE 		bl	.L208	@ far jump
 5241              	.L638:
 5242 169a C046     		.align	2
 5243              	.L637:
 5244 169c 80F2FF0F 		.word	268432000
 5245 16a0 B5F2FF0F 		.word	268432053
 5246 16a4 4C0B0000 		.word	.LC230
 5247 16a8 340B0000 		.word	.LC228
 5248 16ac 00010000 		.word	.LANCHOR3
 5249 16b0 740A0000 		.word	.LC200
 5250 16b4 A80A0000 		.word	.LC208
 5251 16b8 540A0000 		.word	.LC193
 5252 16bc 6C0A0000 		.word	.LC195
 5253 16c0 400A0000 		.word	.LC191
 5254 16c4 700A0000 		.word	.LC197
 5255 16c8 84030000 		.word	.LC135
 5256 16cc 34020000 		.word	.LC106
 5257 16d0 70030000 		.word	.LC133
 5258 16d4 080A0000 		.word	.LC189
 5259 16d8 9C030000 		.word	.LC137
 5260 16dc 58030000 		.word	.LC131
 5261              	.L563:
 5262              	.LBE524:
 5263              	.LBE528:
 5264              	.LBB529:
 5265              	.LBB530:
1572:UartCmd.c     ****                                TXPWR_ACCEPTED_VALUE_NEG_6,  TXPWR_ACCEPTED_VALUE_NEG_3, 
 5266              		.loc 1 1572 0
 5267 16e0 391C     		mov	r1, r7
ARM GAS  C:\Users\ramanatg\AppData\Local\Temp\ccxbhSsV.s 			page 153


1568:UartCmd.c     ****     int8_t tmp_TXPowerLevels[ES_TX_POWER_MODE_COUNT];
 5268              		.loc 1 1568 0
 5269 16e2 11AB     		add	r3, sp, #68
 5270 16e4 1870     		strb	r0, [r3]
 5271 16e6 5870     		strb	r0, [r3, #1]
 5272 16e8 9870     		strb	r0, [r3, #2]
 5273 16ea D870     		strb	r0, [r3, #3]
 5274 16ec 1871     		strb	r0, [r3, #4]
 5275 16ee 5871     		strb	r0, [r3, #5]
 5276              	.LVL588:
 5277 16f0 9A46     		mov	r10, r3
1572:UartCmd.c     ****                                TXPWR_ACCEPTED_VALUE_NEG_6,  TXPWR_ACCEPTED_VALUE_NEG_3, 
 5278              		.loc 1 1572 0
 5279 16f2 16AB     		add	r3, sp, #88
 5280 16f4 181C     		mov	r0, r3
 5281 16f6 1831     		add	r1, r1, #24
 5282 16f8 0822     		mov	r2, #8
 5283 16fa 9946     		mov	r9, r3
 5284 16fc FFF7FEFF 		bl	memcpy
 5285              	.LVL589:
1578:UartCmd.c     ****     {
 5286              		.loc 1 1578 0
 5287 1700 2368     		ldr	r3, [r4]
 5288 1702 9B46     		mov	fp, r3
 5289 1704 DB79     		ldrb	r3, [r3, #7]
 5290 1706 002B     		cmp	r3, #0
 5291 1708 00D1     		bne	.LCB5136
 5292 170a 03E1     		b	.L622	@long jump
 5293              	.LCB5136:
1586:UartCmd.c     ****         for(i = 0; i < ES_TX_POWER_MODE_COUNT; i++)
 5294              		.loc 1 1586 0
 5295 170c 5B46     		mov	r3, fp
 5296 170e DD1D     		add	r5, r3, #7
 5297              	.LVL590:
 5298 1710 D44B     		ldr	r3, .L639
 5299 1712 0026     		mov	r6, #0
 5300 1714 9846     		mov	r8, r3
1593:UartCmd.c     ****                 {
 5301              		.loc 1 1593 0
 5302 1716 D44F     		ldr	r7, .L639+4
 5303              	.LVL591:
 5304              	.L175:
 5305 1718 4046     		mov	r0, r8
 5306 171a 291C     		mov	r1, r5
 5307 171c 0422     		mov	r2, #4
 5308 171e FFF7FEFF 		bl	memcmp
 5309              	.LVL592:
 5310 1722 0028     		cmp	r0, #0
 5311 1724 00D1     		bne	.LCB5165
 5312 1726 F3E0     		b	.L351	@long jump
 5313              	.LCB5165:
 5314              	.LVL593:
 5315 1728 381C     		mov	r0, r7
 5316 172a 291C     		mov	r1, r5
 5317 172c 0422     		mov	r2, #4
 5318 172e FFF7FEFF 		bl	memcmp
 5319              	.LVL594:
ARM GAS  C:\Users\ramanatg\AppData\Local\Temp\ccxbhSsV.s 			page 154


 5320 1732 0028     		cmp	r0, #0
 5321 1734 00D1     		bne	.LCB5175
 5322 1736 E8E0     		b	.L352	@long jump
 5323              	.LCB5175:
 5324              	.LVL595:
 5325 1738 CC48     		ldr	r0, .L639+8
 5326 173a 291C     		mov	r1, r5
 5327 173c 0322     		mov	r2, #3
 5328 173e FFF7FEFF 		bl	memcmp
 5329              	.LVL596:
 5330 1742 0028     		cmp	r0, #0
 5331 1744 00D1     		bne	.LCB5184
 5332 1746 DDE0     		b	.L353	@long jump
 5333              	.LCB5184:
 5334              	.LVL597:
 5335 1748 C948     		ldr	r0, .L639+12
 5336 174a 291C     		mov	r1, r5
 5337 174c 0322     		mov	r2, #3
 5338 174e FFF7FEFF 		bl	memcmp
 5339              	.LVL598:
 5340 1752 0028     		cmp	r0, #0
 5341 1754 00D1     		bne	.LCB5193
 5342 1756 D2E0     		b	.L354	@long jump
 5343              	.LCB5193:
 5344              	.LVL599:
 5345 1758 C648     		ldr	r0, .L639+16
 5346 175a 291C     		mov	r1, r5
 5347 175c 0322     		mov	r2, #3
 5348 175e FFF7FEFF 		bl	memcmp
 5349              	.LVL600:
 5350 1762 0028     		cmp	r0, #0
 5351 1764 00D1     		bne	.LCB5202
 5352 1766 C7E0     		b	.L355	@long jump
 5353              	.LCB5202:
 5354              	.LVL601:
 5355 1768 C348     		ldr	r0, .L639+20
 5356 176a 291C     		mov	r1, r5
 5357 176c 0322     		mov	r2, #3
 5358 176e FFF7FEFF 		bl	memcmp
 5359              	.LVL602:
 5360 1772 0028     		cmp	r0, #0
 5361 1774 00D1     		bne	.LCB5211
 5362 1776 BAE0     		b	.L356	@long jump
 5363              	.LCB5211:
 5364              	.LVL603:
 5365 1778 C048     		ldr	r0, .L639+24
 5366 177a 291C     		mov	r1, r5
 5367 177c 0222     		mov	r2, #2
 5368 177e FFF7FEFF 		bl	memcmp
 5369              	.LVL604:
 5370 1782 0028     		cmp	r0, #0
 5371 1784 00D1     		bne	.LCB5220
 5372 1786 AFE0     		b	.L357	@long jump
 5373              	.LCB5220:
 5374              	.LVL605:
 5375 1788 BD48     		ldr	r0, .L639+28
 5376 178a 291C     		mov	r1, r5
ARM GAS  C:\Users\ramanatg\AppData\Local\Temp\ccxbhSsV.s 			page 155


 5377 178c 0222     		mov	r2, #2
 5378 178e FFF7FEFF 		bl	memcmp
 5379              	.LVL606:
 5380 1792 0028     		cmp	r0, #0
 5381 1794 01D0     		beq	.LCB5229
 5382 1796 FFF728F9 		bl	.L413	@far jump
 5383              	.LCB5229:
 5384 179a 0223     		mov	r3, #2
1591:UartCmd.c     ****                 /* We find it in the strTab. */
 5385              		.loc 1 1591 0
 5386 179c 0720     		mov	r0, #7
 5387              	.LVL607:
 5388              	.L177:
1595:UartCmd.c     ****                     p += length;    /* skip the matching part */  
 5389              		.loc 1 1595 0
 5390 179e 4A46     		mov	r2, r9
 5391 17a0 125C     		ldrb	r2, [r2, r0]
 5392 17a2 0DA9     		add	r1, sp, #52
 5393 17a4 7254     		strb	r2, [r6, r1]
 5394 17a6 0136     		add	r6, r6, #1
 5395              	.LVL608:
1596:UartCmd.c     ****                     break;
 5396              		.loc 1 1596 0
 5397 17a8 ED18     		add	r5, r5, r3
 5398              	.LVL609:
1587:UartCmd.c     ****         {
 5399              		.loc 1 1587 0
 5400 17aa 042E     		cmp	r6, #4
 5401 17ac B4D1     		bne	.L175
1607:UartCmd.c     ****         {
 5402              		.loc 1 1607 0
 5403 17ae 2B78     		ldrb	r3, [r5]
1609:UartCmd.c     ****         }
 5404              		.loc 1 1609 0
 5405 17b0 0125     		mov	r5, #1
 5406              	.LVL610:
1607:UartCmd.c     ****         {
 5407              		.loc 1 1607 0
 5408 17b2 002B     		cmp	r3, #0
 5409 17b4 01D0     		beq	.LCB5252
 5410 17b6 FEF7AFFD 		bl	.L80	@far jump
 5411              	.LCB5252:
1612:UartCmd.c     ****             (tmp_TXPowerLevels[1] < tmp_TXPowerLevels[2]) && \
 5412              		.loc 1 1612 0
 5413 17ba 0023     		mov	r3, #0
 5414 17bc 0122     		mov	r2, #1
 5415 17be CB56     		ldrsb	r3, [r1, r3]
 5416 17c0 8A56     		ldrsb	r2, [r1, r2]
 5417 17c2 9342     		cmp	r3, r2
 5418 17c4 01DB     		blt	.LCB5259
 5419 17c6 FEF7A7FD 		bl	.L80	@far jump
 5420              	.LCB5259:
 5421 17ca 0223     		mov	r3, #2
 5422 17cc CB56     		ldrsb	r3, [r1, r3]
 5423 17ce 9A42     		cmp	r2, r3
 5424 17d0 01DB     		blt	.LCB5264
 5425 17d2 FEF7A1FD 		bl	.L80	@far jump
ARM GAS  C:\Users\ramanatg\AppData\Local\Temp\ccxbhSsV.s 			page 156


 5426              	.LCB5264:
1613:UartCmd.c     ****             (tmp_TXPowerLevels[2] < tmp_TXPowerLevels[3]) )
 5427              		.loc 1 1613 0
 5428 17d6 0322     		mov	r2, #3
 5429 17d8 8A56     		ldrsb	r2, [r1, r2]
 5430 17da 9A42     		cmp	r2, r3
 5431 17dc 01DC     		bgt	.LCB5268
 5432 17de FEF79BFD 		bl	.L80	@far jump
 5433              	.LCB5268:
1617:UartCmd.c     ****             {
 5434              		.loc 1 1617 0
 5435 17e2 3523     		mov	r3, #53
 5436 17e4 A74A     		ldr	r2, .L639+32
1619:UartCmd.c     ****             }
 5437              		.loc 1 1619 0
 5438 17e6 0135     		add	r5, r5, #1
1617:UartCmd.c     ****             {
 5439              		.loc 1 1617 0
 5440 17e8 D35C     		ldrb	r3, [r2, r3]
 5441 17ea 002B     		cmp	r3, #0
 5442 17ec 01D0     		beq	.LCB5274
 5443 17ee FEF793FD 		bl	.L80	@far jump
 5444              	.LCB5274:
1622:UartCmd.c     ****             SIMPLE_UART_PUTCONST("-> New Eddystone Radio TX Power Levels :");
 5445              		.loc 1 1622 0
 5446 17f2 0B20     		mov	r0, #11
 5447 17f4 FFF7FEFF 		bl	ConfigRW_UpdateConfig
 5448              	.LVL611:
1623:UartCmd.c     ****         }
 5449              		.loc 1 1623 0
 5450 17f8 A348     		ldr	r0, .L639+36
 5451 17fa FFF7FEFF 		bl	UART_UartPutString
 5452              	.LVL612:
 5453              	.L179:
1586:UartCmd.c     ****         for(i = 0; i < ES_TX_POWER_MODE_COUNT; i++)
 5454              		.loc 1 1586 0
 5455 17fe A34D     		ldr	r5, .L639+40
 5456 1800 A34E     		ldr	r6, .L639+44
1632:UartCmd.c     ****     {
 5457              		.loc 1 1632 0
 5458 1802 A44F     		ldr	r7, .L639+48
 5459              	.LVL613:
 5460              	.L174:
1634:UartCmd.c     ****         SIMPLE_UART_PUTCONST(str);
 5461              		.loc 1 1634 0
 5462 1804 0022     		mov	r2, #0
 5463 1806 311C     		mov	r1, r6
 5464 1808 AA56     		ldrsb	r2, [r5, r2]
 5465 180a 5046     		mov	r0, r10
 5466 180c FFF7FEFF 		bl	sprintf
 5467              	.LVL614:
 5468 1810 0135     		add	r5, r5, #1
 5469              	.LVL615:
1635:UartCmd.c     ****     }
 5470              		.loc 1 1635 0
 5471 1812 5046     		mov	r0, r10
 5472 1814 FFF7FEFF 		bl	UART_UartPutString
ARM GAS  C:\Users\ramanatg\AppData\Local\Temp\ccxbhSsV.s 			page 157


 5473              	.LVL616:
1632:UartCmd.c     ****     {
 5474              		.loc 1 1632 0
 5475 1818 BD42     		cmp	r5, r7
 5476 181a F3D1     		bne	.L174
 5477 181c FFF752F8 		bl	.L537	@ far jump
 5478              	.LVL617:
 5479              	.L562:
 5480              	.LBE530:
 5481              	.LBE529:
 5482              	.LBB532:
 5483              	.LBB533:
1466:UartCmd.c     ****     
 5484              		.loc 1 1466 0
 5485 1820 2568     		ldr	r5, [r4]
1464:UartCmd.c     ****     int32_t txpwr = 0;
 5486              		.loc 1 1464 0
 5487 1822 1190     		str	r0, [sp, #68]
1465:UartCmd.c     ****     uint16_t len = strlen((const char *)(data_array + sizeof(cmd_TXPWR)));
 5488              		.loc 1 1465 0
 5489 1824 1690     		str	r0, [sp, #88]
1466:UartCmd.c     ****     
 5490              		.loc 1 1466 0
 5491 1826 681D     		add	r0, r5, #5
 5492 1828 FFF7FEFF 		bl	strlen
 5493              	.LVL618:
 5494 182c 82B2     		uxth	r2, r0
 5495              	.LVL619:
1469:UartCmd.c     ****     {
 5496              		.loc 1 1469 0
 5497 182e 002A     		cmp	r2, #0
 5498 1830 54D0     		beq	.L623
1479:UartCmd.c     ****         }
 5499              		.loc 1 1479 0
 5500 1832 0121     		mov	r1, #1
1477:UartCmd.c     ****         {
 5501              		.loc 1 1477 0
 5502 1834 6B79     		ldrb	r3, [r5, #5]
1479:UartCmd.c     ****         }
 5503              		.loc 1 1479 0
 5504 1836 8846     		mov	r8, r1
1477:UartCmd.c     ****         {
 5505              		.loc 1 1477 0
 5506 1838 202B     		cmp	r3, #32
 5507 183a 01D0     		beq	.LCB5339
 5508 183c FEF782FD 		bl	.L99	@far jump
 5509              	.LCB5339:
1481:UartCmd.c     ****         {
 5510              		.loc 1 1481 0
 5511 1840 AB79     		ldrb	r3, [r5, #6]
 5512 1842 2D2B     		cmp	r3, #45
 5513 1844 27D0     		beq	.L624
1503:UartCmd.c     ****             {
 5514              		.loc 1 1503 0
 5515 1846 022A     		cmp	r2, #2
 5516 1848 01D0     		beq	.LCB5344
 5517 184a FEF77BFD 		bl	.L99	@far jump
ARM GAS  C:\Users\ramanatg\AppData\Local\Temp\ccxbhSsV.s 			page 158


 5518              	.LCB5344:
1507:UartCmd.c     ****             /* Characters must be '0' - '9'. */
 5519              		.loc 1 1507 0
 5520 184e 11AA     		add	r2, sp, #68
 5521              	.LVL620:
 5522 1850 1370     		strb	r3, [r2]
1509:UartCmd.c     ****             {
 5523              		.loc 1 1509 0
 5524 1852 303B     		sub	r3, r3, #48
1507:UartCmd.c     ****             /* Characters must be '0' - '9'. */
 5525              		.loc 1 1507 0
 5526 1854 9246     		mov	r10, r2
1509:UartCmd.c     ****             {
 5527              		.loc 1 1509 0
 5528 1856 092B     		cmp	r3, #9
 5529 1858 01D9     		bls	.LCB5352
 5530 185a FEF773FD 		bl	.L99	@far jump
 5531              	.LCB5352:
 5532              	.LVL621:
 5533              	.L171:
1514:UartCmd.c     ****         /* accepted values are -18, -12, -6, -3, -2, -1, 0 and 3 dBm */
 5534              		.loc 1 1514 0
 5535 185e 5046     		mov	r0, r10
 5536 1860 FFF7FEFF 		bl	atoi
 5537              	.LVL622:
1516:UartCmd.c     ****             (TXPWR_ACCEPTED_VALUE_NEG_12 == txpwr) ||
 5538              		.loc 1 1516 0
 5539 1864 031C     		mov	r3, r0
1514:UartCmd.c     ****         /* accepted values are -18, -12, -6, -3, -2, -1, 0 and 3 dBm */
 5540              		.loc 1 1514 0
 5541 1866 1690     		str	r0, [sp, #88]
1516:UartCmd.c     ****             (TXPWR_ACCEPTED_VALUE_NEG_12 == txpwr) ||
 5542              		.loc 1 1516 0
 5543 1868 1233     		add	r3, r3, #18
 5544 186a 0AD0     		beq	.L167
 5545 186c 031C     		mov	r3, r0
 5546 186e 0C33     		add	r3, r3, #12
 5547 1870 07D0     		beq	.L167
1517:UartCmd.c     ****             (TXPWR_ACCEPTED_VALUE_NEG_6 == txpwr)  ||
 5548              		.loc 1 1517 0
 5549 1872 831D     		add	r3, r0, #6
 5550 1874 05D0     		beq	.L167
1518:UartCmd.c     ****             (TXPWR_ACCEPTED_VALUE_NEG_3 == txpwr)  ||
 5551              		.loc 1 1518 0
 5552 1876 C31C     		add	r3, r0, #3
 5553 1878 032B     		cmp	r3, #3
 5554 187a 02D9     		bls	.L167
1522:UartCmd.c     ****             (TXPWR_ACCEPTED_VALUE_3 == txpwr))
 5555              		.loc 1 1522 0
 5556 187c 0328     		cmp	r0, #3
 5557 187e 00D0     		beq	.LCB5371
 5558 1880 0EE4     		b	.L234	@long jump
 5559              	.LCB5371:
 5560              	.L167:
1525:UartCmd.c     ****             SIMPLE_UART_PUTCONST("-> New TX power in dBm: ");
 5561              		.loc 1 1525 0
 5562 1882 0520     		mov	r0, #5
ARM GAS  C:\Users\ramanatg\AppData\Local\Temp\ccxbhSsV.s 			page 159


 5563 1884 16A9     		add	r1, sp, #88
 5564 1886 FFF7FEFF 		bl	ConfigRW_UpdateConfig
 5565              	.LVL623:
1526:UartCmd.c     ****         }
 5566              		.loc 1 1526 0
 5567 188a 8348     		ldr	r0, .L639+52
 5568 188c FFF7FEFF 		bl	UART_UartPutString
 5569              	.LVL624:
 5570              	.L163:
1535:UartCmd.c     ****     SIMPLE_UART_PUTCONST(str);
 5571              		.loc 1 1535 0
 5572 1890 7C4B     		ldr	r3, .L639+32
 5573 1892 1C22     		mov	r2, #28
 5574 1894 B8E6     		b	.L546
 5575              	.LVL625:
 5576              	.L624:
1484:UartCmd.c     ****                (len != SIZE_OF_PARAM_SPACE + TXPWR_MINUS_VALID_LEN_2))
 5577              		.loc 1 1484 0
 5578 1896 033A     		sub	r2, r2, #3
 5579              	.LVL626:
 5580 1898 012A     		cmp	r2, #1
 5581 189a 01D9     		bls	.LCB5393
 5582 189c FEF752FD 		bl	.L99	@far jump
 5583              	.LCB5393:
1489:UartCmd.c     ****             for(i = TXPWR_MINUS_VALUE_OFFSET; i < len - SIZE_OF_PARAM_SPACE; i++) 
 5584              		.loc 1 1489 0
 5585 18a0 11AA     		add	r2, sp, #68
 5586              	.LVL627:
 5587 18a2 1370     		strb	r3, [r2]
 5588              	.LVL628:
 5589 18a4 0304     		lsl	r3, r0, #16
 5590 18a6 1B0C     		lsr	r3, r3, #16
1490:UartCmd.c     ****             {
 5591              		.loc 1 1490 0
 5592 18a8 013B     		sub	r3, r3, #1
1489:UartCmd.c     ****             for(i = TXPWR_MINUS_VALUE_OFFSET; i < len - SIZE_OF_PARAM_SPACE; i++) 
 5593              		.loc 1 1489 0
 5594 18aa 9246     		mov	r10, r2
1490:UartCmd.c     ****             {
 5595              		.loc 1 1490 0
 5596 18ac 012B     		cmp	r3, #1
 5597 18ae D6DD     		ble	.L171
1492:UartCmd.c     ****                 /* Characters must be '0' - '9'. */
 5598              		.loc 1 1492 0
 5599 18b0 5146     		mov	r1, r10
 5600 18b2 EA79     		ldrb	r2, [r5, #7]
 5601 18b4 4A70     		strb	r2, [r1, #1]
1494:UartCmd.c     ****                 {
 5602              		.loc 1 1494 0
 5603 18b6 303A     		sub	r2, r2, #48
 5604 18b8 092A     		cmp	r2, #9
 5605 18ba 01D9     		bls	.LCB5410
 5606 18bc FEF742FD 		bl	.L99	@far jump
 5607              	.LCB5410:
 5608 18c0 0122     		mov	r2, #1
 5609 18c2 5046     		mov	r0, r10
 5610              	.LVL629:
ARM GAS  C:\Users\ramanatg\AppData\Local\Temp\ccxbhSsV.s 			page 160


 5611              	.L169:
1490:UartCmd.c     ****             {
 5612              		.loc 1 1490 0
 5613 18c4 0132     		add	r2, r2, #1
 5614              	.LVL630:
 5615 18c6 92B2     		uxth	r2, r2
 5616              	.LVL631:
 5617 18c8 9A42     		cmp	r2, r3
 5618 18ca 13DA     		bge	.L625
1492:UartCmd.c     ****                 /* Characters must be '0' - '9'. */
 5619              		.loc 1 1492 0
 5620 18cc A918     		add	r1, r5, r2
 5621 18ce 8979     		ldrb	r1, [r1, #6]
 5622 18d0 8154     		strb	r1, [r0, r2]
1494:UartCmd.c     ****                 {
 5623              		.loc 1 1494 0
 5624 18d2 3039     		sub	r1, r1, #48
 5625 18d4 0929     		cmp	r1, #9
 5626 18d6 F5D9     		bls	.L169
 5627 18d8 FEF7ADFD 		bl	.L116	@ far jump
 5628              	.LVL632:
 5629              	.L623:
1471:UartCmd.c     ****     }
 5630              		.loc 1 1471 0
 5631 18dc 6F48     		ldr	r0, .L639+56
 5632 18de FFF7FEFF 		bl	UART_UartPutString
 5633              	.LVL633:
 5634 18e2 11AB     		add	r3, sp, #68
 5635 18e4 9A46     		mov	r10, r3
 5636 18e6 D3E7     		b	.L163
 5637              	.LVL634:
 5638              	.L357:
 5639              	.LBE533:
 5640              	.LBE532:
 5641              	.LBB534:
 5642              	.LBB531:
1593:UartCmd.c     ****                 {
 5643              		.loc 1 1593 0
 5644 18e8 0223     		mov	r3, #2
1591:UartCmd.c     ****                 /* We find it in the strTab. */
 5645              		.loc 1 1591 0
 5646 18ea 0620     		mov	r0, #6
 5647 18ec 57E7     		b	.L177
 5648              	.LVL635:
 5649              	.L356:
1593:UartCmd.c     ****                 {
 5650              		.loc 1 1593 0
 5651 18ee 0323     		mov	r3, #3
1591:UartCmd.c     ****                 /* We find it in the strTab. */
 5652              		.loc 1 1591 0
 5653 18f0 0520     		mov	r0, #5
 5654 18f2 54E7     		b	.L177
 5655              	.LVL636:
 5656              	.L625:
 5657 18f4 8246     		mov	r10, r0
 5658 18f6 B2E7     		b	.L171
 5659              	.LVL637:
ARM GAS  C:\Users\ramanatg\AppData\Local\Temp\ccxbhSsV.s 			page 161


 5660              	.L355:
1593:UartCmd.c     ****                 {
 5661              		.loc 1 1593 0
 5662 18f8 0323     		mov	r3, #3
1591:UartCmd.c     ****                 /* We find it in the strTab. */
 5663              		.loc 1 1591 0
 5664 18fa 0420     		mov	r0, #4
 5665 18fc 4FE7     		b	.L177
 5666              	.LVL638:
 5667              	.L354:
1593:UartCmd.c     ****                 {
 5668              		.loc 1 1593 0
 5669 18fe 0323     		mov	r3, #3
1591:UartCmd.c     ****                 /* We find it in the strTab. */
 5670              		.loc 1 1591 0
 5671 1900 0320     		mov	r0, #3
 5672 1902 4CE7     		b	.L177
 5673              	.LVL639:
 5674              	.L353:
1593:UartCmd.c     ****                 {
 5675              		.loc 1 1593 0
 5676 1904 0323     		mov	r3, #3
1591:UartCmd.c     ****                 /* We find it in the strTab. */
 5677              		.loc 1 1591 0
 5678 1906 0220     		mov	r0, #2
 5679 1908 49E7     		b	.L177
 5680              	.LVL640:
 5681              	.L352:
1593:UartCmd.c     ****                 {
 5682              		.loc 1 1593 0
 5683 190a 0423     		mov	r3, #4
1591:UartCmd.c     ****                 /* We find it in the strTab. */
 5684              		.loc 1 1591 0
 5685 190c 0120     		mov	r0, #1
 5686 190e 46E7     		b	.L177
 5687              	.LVL641:
 5688              	.L351:
1593:UartCmd.c     ****                 {
 5689              		.loc 1 1593 0
 5690 1910 0423     		mov	r3, #4
 5691 1912 44E7     		b	.L177
 5692              	.LVL642:
 5693              	.L622:
1580:UartCmd.c     ****     }
 5694              		.loc 1 1580 0
 5695 1914 6248     		ldr	r0, .L639+60
 5696 1916 FFF7FEFF 		bl	UART_UartPutString
 5697              	.LVL643:
 5698 191a 70E7     		b	.L179
 5699              	.LVL644:
 5700              	.L594:
 5701              	.LBE531:
 5702              	.LBE534:
 5703              	.LBB535:
 5704              	.LBB466:
1709:UartCmd.c     ****                ((i == 1) && (*(p - i) == '-')))         /* The input num is only a '-'. */
 5705              		.loc 1 1709 0
ARM GAS  C:\Users\ramanatg\AppData\Local\Temp\ccxbhSsV.s 			page 162


 5706 191c 042B     		cmp	r3, #4
 5707 191e 01D9     		bls	.LCB5576
 5708 1920 FFF7C7F8 		bl	.L204	@far jump
 5709              	.LCB5576:
 5710 1924 012B     		cmp	r3, #1
 5711 1926 06D1     		bne	.L536
1710:UartCmd.c     ****             {
 5712              		.loc 1 1710 0
 5713 1928 6B1E     		sub	r3, r5, #1
 5714              	.LVL645:
 5715 192a 1B78     		ldrb	r3, [r3]
 5716 192c 2D2B     		cmp	r3, #45
 5717 192e 01D1     		bne	.LCB5583
 5718 1930 FFF7BFF8 		bl	.L204	@far jump
 5719              	.LCB5583:
 5720 1934 0123     		mov	r3, #1
 5721              	.L536:
 5722 1936 5B42     		neg	r3, r3
 5723 1938 FFF73DFB 		bl	.L186	@ far jump
 5724              	.LVL646:
 5725              	.L193:
1724:UartCmd.c     ****         {
 5726              		.loc 1 1724 0
 5727 193c 4346     		mov	r3, r8
 5728 193e 042B     		cmp	r3, #4
 5729 1940 01D0     		beq	.LCB5599
 5730 1942 FFF7B6F8 		bl	.L204	@far jump
 5731              	.LCB5599:
1729:UartCmd.c     ****            (tmp_Adv_TXPowerLevels[1] < tmp_Adv_TXPowerLevels[2]) &&
 5732              		.loc 1 1729 0
 5733 1946 0023     		mov	r3, #0
 5734 1948 0122     		mov	r2, #1
 5735 194a CB56     		ldrsb	r3, [r1, r3]
 5736 194c 8A56     		ldrsb	r2, [r1, r2]
 5737 194e 9342     		cmp	r3, r2
 5738 1950 01DB     		blt	.LCB5606
 5739 1952 FFF7AEF8 		bl	.L204	@far jump
 5740              	.LCB5606:
 5741 1956 0223     		mov	r3, #2
 5742 1958 CB56     		ldrsb	r3, [r1, r3]
 5743 195a 9A42     		cmp	r2, r3
 5744 195c 01DB     		blt	.LCB5611
 5745 195e FFF7A8F8 		bl	.L204	@far jump
 5746              	.LCB5611:
1730:UartCmd.c     ****            (tmp_Adv_TXPowerLevels[2] < tmp_Adv_TXPowerLevels[3]))
 5747              		.loc 1 1730 0
 5748 1962 0322     		mov	r2, #3
 5749 1964 8A56     		ldrsb	r2, [r1, r2]
 5750 1966 9A42     		cmp	r2, r3
 5751 1968 01DC     		bgt	.LCB5615
 5752 196a FFF7A2F8 		bl	.L204	@far jump
 5753              	.LCB5615:
1734:UartCmd.c     ****             {
 5754              		.loc 1 1734 0
 5755 196e 3523     		mov	r3, #53
 5756 1970 444A     		ldr	r2, .L639+32
 5757 1972 D35C     		ldrb	r3, [r2, r3]
ARM GAS  C:\Users\ramanatg\AppData\Local\Temp\ccxbhSsV.s 			page 163


 5758 1974 002B     		cmp	r3, #0
 5759 1976 01D0     		beq	.LCB5620
 5760 1978 FFF76CF8 		bl	.L540	@far jump
 5761              	.LCB5620:
1739:UartCmd.c     ****             
 5762              		.loc 1 1739 0
 5763 197c 1220     		mov	r0, #18
 5764              	.LVL647:
 5765 197e FFF7FEFF 		bl	ConfigRW_UpdateConfig
 5766              	.LVL648:
1742:UartCmd.c     ****             UpdateHandle.value.val  = (uint8_t *)(pBeaconConfig->Adv_TXPowerLevels);
 5767              		.loc 1 1742 0
 5768 1982 1823     		mov	r3, #24
 5769 1984 16A8     		add	r0, sp, #88
 5770 1986 0381     		strh	r3, [r0, #8]
1743:UartCmd.c     ****             UpdateHandle.value.len  = ES_TX_POWER_MODE_COUNT;
 5771              		.loc 1 1743 0
 5772 1988 464B     		ldr	r3, .L639+64
1745:UartCmd.c     ****                                            WRITE_ATTRIB_OFFSET_0, 
 5773              		.loc 1 1745 0
 5774 198a 0021     		mov	r1, #0
1743:UartCmd.c     ****             UpdateHandle.value.len  = ES_TX_POWER_MODE_COUNT;
 5775              		.loc 1 1743 0
 5776 198c 1693     		str	r3, [sp, #88]
1744:UartCmd.c     ****             CyBle_GattsWriteAttributeValue(&UpdateHandle, 
 5777              		.loc 1 1744 0
 5778 198e 4346     		mov	r3, r8
1745:UartCmd.c     ****                                            WRITE_ATTRIB_OFFSET_0, 
 5779              		.loc 1 1745 0
 5780 1990 0022     		mov	r2, #0
1744:UartCmd.c     ****             CyBle_GattsWriteAttributeValue(&UpdateHandle, 
 5781              		.loc 1 1744 0
 5782 1992 8380     		strh	r3, [r0, #4]
1745:UartCmd.c     ****                                            WRITE_ATTRIB_OFFSET_0, 
 5783              		.loc 1 1745 0
 5784 1994 0023     		mov	r3, #0
 5785 1996 FFF7FEFF 		bl	CyBle_GattsWriteAttributeValue
 5786              	.LVL649:
1750:UartCmd.c     ****         }
 5787              		.loc 1 1750 0
 5788 199a 4348     		ldr	r0, .L639+68
 5789 199c FFF7FEFF 		bl	UART_UartPutString
 5790              	.LVL650:
 5791 19a0 FFF727FB 		bl	.L197	@ far jump
 5792              	.LVL651:
 5793              	.L260:
 5794              	.LBE466:
 5795              	.LBE535:
 5796              	.LBB536:
 5797              	.LBB494:
2214:UartCmd.c     ****     }
 5798              		.loc 1 2214 0
 5799 19a4 4148     		ldr	r0, .L639+72
 5800 19a6 FFF7FEFF 		bl	UART_UartPutString
 5801              	.LVL652:
 5802 19aa FFF704FC 		bl	.L261	@ far jump
 5803              	.L258:
ARM GAS  C:\Users\ramanatg\AppData\Local\Temp\ccxbhSsV.s 			page 164


2205:UartCmd.c     ****     }
 5804              		.loc 1 2205 0
 5805 19ae 4048     		ldr	r0, .L639+76
 5806 19b0 FFF7FEFF 		bl	UART_UartPutString
 5807              	.LVL653:
 5808 19b4 FFF7F5FB 		bl	.L259	@ far jump
 5809              	.L256:
2196:UartCmd.c     ****     }
 5810              		.loc 1 2196 0
 5811 19b8 3E48     		ldr	r0, .L639+80
 5812 19ba FFF7FEFF 		bl	UART_UartPutString
 5813              	.LVL654:
 5814 19be FFF7E6FB 		bl	.L257	@ far jump
 5815              	.L248:
2139:UartCmd.c     ****         
 5816              		.loc 1 2139 0
 5817 19c2 0735     		add	r5, r5, #7
 5818              	.LVL655:
2141:UartCmd.c     ****         
 5819              		.loc 1 2141 0
 5820 19c4 281C     		mov	r0, r5
 5821 19c6 FFF7FEFF 		bl	strupr
 5822              	.LVL656:
2146:UartCmd.c     ****         
 5823              		.loc 1 2146 0
 5824 19ca FC23     		mov	r3, #252
2144:UartCmd.c     ****         frame.URLisEnabled = false;
 5825              		.loc 1 2144 0
 5826 19cc 0AAF     		add	r7, sp, #40
 5827 19ce 3A78     		ldrb	r2, [r7]
 5828 19d0 B046     		mov	r8, r6
2146:UartCmd.c     ****         
 5829              		.loc 1 2146 0
 5830 19d2 1340     		and	r3, r2
 5831 19d4 0422     		mov	r2, #4
 5832 19d6 9343     		bic	r3, r2
 5833 19d8 3B70     		strb	r3, [r7]
2158:UartCmd.c     ****             {
 5834              		.loc 1 2158 0
 5835 19da 0223     		mov	r3, #2
 5836 19dc 2E1C     		mov	r6, r5
 5837 19de 9B46     		mov	fp, r3
 5838              	.LVL657:
 5839              	.L250:
2149:UartCmd.c     ****         {
 5840              		.loc 1 2149 0
 5841 19e0 3378     		ldrb	r3, [r6]
 5842 19e2 002B     		cmp	r3, #0
 5843 19e4 6ED0     		beq	.L626
2152:UartCmd.c     ****             {
 5844              		.loc 1 2152 0
 5845 19e6 0123     		mov	r3, #1
 5846 19e8 3D78     		ldrb	r5, [r7]
 5847 19ea 2B42     		tst	r3, r5
 5848 19ec 2AD1     		bne	.L251
 5849 19ee 301C     		mov	r0, r6
 5850 19f0 4146     		mov	r1, r8
ARM GAS  C:\Users\ramanatg\AppData\Local\Temp\ccxbhSsV.s 			page 165


 5851 19f2 0422     		mov	r2, #4
 5852 19f4 FFF7FEFF 		bl	memcmp
 5853              	.LVL658:
 5854 19f8 0028     		cmp	r0, #0
 5855 19fa 23D1     		bne	.L251
2154:UartCmd.c     ****                 p = p + sizeof(uid); 
 5856              		.loc 1 2154 0
 5857 19fc 0123     		mov	r3, #1
 5858 19fe 1D43     		orr	r5, r3
 5859 1a00 3D70     		strb	r5, [r7]
 5860              	.LVL659:
 5861              	.L252:
 5862 1a02 0436     		add	r6, r6, #4
 5863 1a04 ECE7     		b	.L250
 5864              	.L615:
 5865              	.LBE494:
 5866              	.LBE536:
 5867              	.LBB537:
 5868              	.LBB517:
2087:UartCmd.c     ****     }
 5869              		.loc 1 2087 0
 5870 1a06 2C48     		ldr	r0, .L639+84
 5871 1a08 FFF7FEFF 		bl	UART_UartPutString
 5872              	.LVL660:
 5873 1a0c FFF7D3FB 		bl	.L261	@ far jump
 5874              	.L238:
2054:UartCmd.c     ****         
 5875              		.loc 1 2054 0
 5876 1a10 0435     		add	r5, r5, #4
 5877              	.LVL661:
2057:UartCmd.c     ****         
 5878              		.loc 1 2057 0
 5879 1a12 281C     		mov	r0, r5
 5880 1a14 FFF7FEFF 		bl	strupr
 5881              	.LVL662:
2060:UartCmd.c     ****         {
 5882              		.loc 1 2060 0
 5883 1a18 281C     		mov	r0, r5
 5884 1a1a 11A9     		add	r1, sp, #68
 5885 1a1c 0B22     		mov	r2, #11
 5886 1a1e FFF7FEFF 		bl	memcmp
 5887              	.LVL663:
 5888 1a22 0028     		cmp	r0, #0
 5889 1a24 78D1     		bne	.L240
2062:UartCmd.c     ****         }
 5890              		.loc 1 2062 0
 5891 1a26 0AAF     		add	r7, sp, #40
 5892 1a28 3870     		strb	r0, [r7]
 5893              	.L241:
2080:UartCmd.c     ****         SIMPLE_UART_PUTCONST("-> New mode : ");
 5894              		.loc 1 2080 0
 5895 1a2a 391C     		mov	r1, r7
 5896 1a2c 0820     		mov	r0, #8
 5897 1a2e FFF7FEFF 		bl	ConfigRW_UpdateConfig
 5898              	.LVL664:
2081:UartCmd.c     ****     }
 5899              		.loc 1 2081 0
ARM GAS  C:\Users\ramanatg\AppData\Local\Temp\ccxbhSsV.s 			page 166


 5900 1a32 2248     		ldr	r0, .L639+88
 5901 1a34 FFF7FEFF 		bl	UART_UartPutString
 5902              	.LVL665:
 5903 1a38 39E5     		b	.L239
 5904              	.LVL666:
 5905              	.L616:
2092:UartCmd.c     ****     }
 5906              		.loc 1 2092 0
 5907 1a3a 2148     		ldr	r0, .L639+92
 5908 1a3c FFF7FEFF 		bl	UART_UartPutString
 5909              	.LVL667:
 5910 1a40 FFF7B9FB 		bl	.L261	@ far jump
 5911              	.LVL668:
 5912              	.L251:
 5913              	.LBE517:
 5914              	.LBE537:
 5915              	.LBB538:
 5916              	.LBB495:
2158:UartCmd.c     ****             {
 5917              		.loc 1 2158 0
 5918 1a44 0223     		mov	r3, #2
 5919 1a46 2B42     		tst	r3, r5
 5920 1a48 50D1     		bne	.L253
 5921 1a4a 301C     		mov	r0, r6
 5922 1a4c 5146     		mov	r1, r10
 5923 1a4e 0422     		mov	r2, #4
 5924 1a50 FFF7FEFF 		bl	memcmp
 5925              	.LVL669:
 5926 1a54 0028     		cmp	r0, #0
 5927 1a56 49D1     		bne	.L253
2160:UartCmd.c     ****                 p = p + sizeof(url); 
 5928              		.loc 1 2160 0
 5929 1a58 5A46     		mov	r2, fp
 5930 1a5a 3B78     		ldrb	r3, [r7]
 5931 1a5c 1343     		orr	r3, r2
 5932 1a5e 3B70     		strb	r3, [r7]
 5933              	.LVL670:
 5934 1a60 CFE7     		b	.L252
 5935              	.L640:
 5936 1a62 C046     		.align	2
 5937              	.L639:
 5938 1a64 60020000 		.word	.LC21
 5939 1a68 68020000 		.word	.LC22
 5940 1a6c 70020000 		.word	.LC23
 5941 1a70 74020000 		.word	.LC24
 5942 1a74 78020000 		.word	.LC25
 5943 1a78 7C020000 		.word	.LC26
 5944 1a7c 80020000 		.word	.LC27
 5945 1a80 84020000 		.word	.LC28
 5946 1a84 80F2FF0F 		.word	268432000
 5947 1a88 88020000 		.word	.LC118
 5948 1a8c B0F2FF0F 		.word	268432048
 5949 1a90 B4020000 		.word	.LC120
 5950 1a94 B4F2FF0F 		.word	268432052
 5951 1a98 18020000 		.word	.LC104
 5952 1a9c 00020000 		.word	.LC102
 5953 1aa0 38020000 		.word	.LC108
ARM GAS  C:\Users\ramanatg\AppData\Local\Temp\ccxbhSsV.s 			page 167


 5954 1aa4 DAF2FF0F 		.word	268432090
 5955 1aa8 E4020000 		.word	.LC124
 5956 1aac 140B0000 		.word	.LC224
 5957 1ab0 000B0000 		.word	.LC220
 5958 1ab4 E80A0000 		.word	.LC216
 5959 1ab8 900A0000 		.word	.LC204
 5960 1abc 800A0000 		.word	.LC202
 5961 1ac0 9C0A0000 		.word	.LC206
 5962              	.LVL671:
 5963              	.L626:
2178:UartCmd.c     ****         /* Three frame cannot be enabled at the same time. (For Solar BLE Module) */
 5964              		.loc 1 2178 0
 5965 1ac4 0722     		mov	r2, #7
 5966 1ac6 3B78     		ldrb	r3, [r7]
 5967 1ac8 1340     		and	r3, r2
 5968 1aca 042B     		cmp	r3, #4
 5969 1acc 1DD0     		beq	.L387
2172:UartCmd.c     ****             }
 5970              		.loc 1 2172 0
 5971 1ace 063A     		sub	r2, r2, #6
 5972 1ad0 9046     		mov	r8, r2
2178:UartCmd.c     ****         /* Three frame cannot be enabled at the same time. (For Solar BLE Module) */
 5973              		.loc 1 2178 0
 5974 1ad2 072B     		cmp	r3, #7
 5975 1ad4 01D1     		bne	.LCB5841
 5976 1ad6 FFF773FB 		bl	.L254	@far jump
 5977              	.LCB5841:
2186:UartCmd.c     ****         SIMPLE_UART_PUTCONST("-> New EDFrame mode : ");
 5978              		.loc 1 2186 0
 5979 1ada 391C     		mov	r1, r7
 5980 1adc 0C20     		mov	r0, #12
 5981 1ade FFF7FEFF 		bl	ConfigRW_UpdateConfig
 5982              	.LVL672:
2187:UartCmd.c     ****     }
 5983              		.loc 1 2187 0
 5984 1ae2 1A48     		ldr	r0, .L641
 5985 1ae4 FFF7FEFF 		bl	UART_UartPutString
 5986              	.LVL673:
 5987 1ae8 FFF747FB 		bl	.L249	@ far jump
 5988              	.L253:
2164:UartCmd.c     ****             {
 5989              		.loc 1 2164 0
 5990 1aec 0423     		mov	r3, #4
 5991 1aee 2B42     		tst	r3, r5
 5992 1af0 0BD1     		bne	.L387
 5993 1af2 301C     		mov	r0, r6
 5994 1af4 4946     		mov	r1, r9
 5995 1af6 0422     		mov	r2, #4
 5996 1af8 FFF7FEFF 		bl	memcmp
 5997              	.LVL674:
 5998 1afc 0028     		cmp	r0, #0
 5999 1afe 04D1     		bne	.L387
2166:UartCmd.c     ****                 p = p + sizeof(tlm); 
 6000              		.loc 1 2166 0
 6001 1b00 0422     		mov	r2, #4
 6002 1b02 3B78     		ldrb	r3, [r7]
 6003 1b04 1343     		orr	r3, r2
ARM GAS  C:\Users\ramanatg\AppData\Local\Temp\ccxbhSsV.s 			page 168


 6004 1b06 3B70     		strb	r3, [r7]
 6005              	.LVL675:
 6006 1b08 7BE7     		b	.L252
 6007              	.LVL676:
 6008              	.L387:
2172:UartCmd.c     ****             }
 6009              		.loc 1 2172 0
 6010 1b0a 0123     		mov	r3, #1
 6011 1b0c 9846     		mov	r8, r3
 6012 1b0e FFF757FB 		bl	.L254	@ far jump
 6013              	.LVL677:
 6014              	.L618:
 6015              	.LBE495:
 6016              	.LBE538:
 6017              	.LBB539:
 6018              	.LBB369:
1983:UartCmd.c     ****         }
 6019              		.loc 1 1983 0
 6020 1b12 0DAE     		add	r6, sp, #52
 6021              	.LVL678:
 6022 1b14 3070     		strb	r0, [r6]
 6023 1b16 13E5     		b	.L232
 6024              	.LVL679:
 6025              	.L240:
 6026              	.LBE369:
 6027              	.LBE539:
 6028              	.LBB540:
 6029              	.LBB518:
2065:UartCmd.c     ****         {
 6030              		.loc 1 2065 0
 6031 1b18 281C     		mov	r0, r5
 6032 1b1a 16A9     		add	r1, sp, #88
 6033 1b1c 0B22     		mov	r2, #11
 6034 1b1e FFF7FEFF 		bl	memcmp
 6035              	.LVL680:
 6036 1b22 0028     		cmp	r0, #0
 6037 1b24 03D1     		bne	.L242
2067:UartCmd.c     ****         }
 6038              		.loc 1 2067 0
 6039 1b26 0123     		mov	r3, #1
 6040 1b28 0AAF     		add	r7, sp, #40
 6041 1b2a 3B70     		strb	r3, [r7]
 6042 1b2c 7DE7     		b	.L241
 6043              	.L242:
2070:UartCmd.c     ****         {
 6044              		.loc 1 2070 0
 6045 1b2e 281C     		mov	r0, r5
 6046 1b30 0DA9     		add	r1, sp, #52
 6047 1b32 0822     		mov	r2, #8
 6048 1b34 FFF7FEFF 		bl	memcmp
 6049              	.LVL681:
2077:UartCmd.c     ****         }
 6050              		.loc 1 2077 0
 6051 1b38 0123     		mov	r3, #1
 6052 1b3a 9846     		mov	r8, r3
2070:UartCmd.c     ****         {
 6053              		.loc 1 2070 0
ARM GAS  C:\Users\ramanatg\AppData\Local\Temp\ccxbhSsV.s 			page 169


 6054 1b3c 0028     		cmp	r0, #0
 6055 1b3e 01D0     		beq	.LCB5924
 6056 1b40 FFF73EFB 		bl	.L254	@far jump
 6057              	.LCB5924:
2072:UartCmd.c     ****         }
 6058              		.loc 1 2072 0
 6059 1b44 0AAF     		add	r7, sp, #40
 6060 1b46 0133     		add	r3, r3, #1
 6061 1b48 3B70     		strb	r3, [r7]
 6062 1b4a 6EE7     		b	.L241
 6063              	.L642:
 6064              		.align	2
 6065              	.L641:
 6066 1b4c C40A0000 		.word	.LC212
 6067              	.LBE518:
 6068              	.LBE540:
 6069              		.cfi_endproc
 6070              	.LFE39:
 6071              		.size	UartCmd_ProcessInput, .-UartCmd_ProcessInput
 6072              		.section	.rodata
 6073              		.align	2
 6074              		.set	.LANCHOR1,. + 0
 6075              		.set	.LANCHOR2,. + 128
 6076              		.set	.LANCHOR3,. + 256
 6077              		.type	cmd_EDURI, %object
 6078              		.size	cmd_EDURI, 5
 6079              	cmd_EDURI:
 6080 0000 45       		.byte	69
 6081 0001 44       		.byte	68
 6082 0002 55       		.byte	85
 6083 0003 52       		.byte	82
 6084 0004 49       		.byte	73
 6085 0005 000000   		.space	3
 6086              	.LC0:
 6087 0008 68       		.byte	104
 6088 0009 74       		.byte	116
 6089 000a 74       		.byte	116
 6090 000b 70       		.byte	112
 6091              	.LC56:
 6092 000c 780C0000 		.word	.LC1
 6093 0010 800C0000 		.word	.LC2
 6094 0014 8C0C0000 		.word	.LC3
 6095 0018 900C0000 		.word	.LC4
 6096              	.LC57:
 6097 001c 080C0000 		.word	.LC6
 6098 0020 100C0000 		.word	.LC7
 6099 0024 180C0000 		.word	.LC8
 6100 0028 200C0000 		.word	.LC9
 6101 002c 280C0000 		.word	.LC10
 6102 0030 300C0000 		.word	.LC11
 6103 0034 380C0000 		.word	.LC12
 6104 0038 400C0000 		.word	.LC13
 6105 003c 480C0000 		.word	.LC14
 6106 0040 500C0000 		.word	.LC15
 6107 0044 580C0000 		.word	.LC16
 6108 0048 600C0000 		.word	.LC17
 6109 004c 680C0000 		.word	.LC18
ARM GAS  C:\Users\ramanatg\AppData\Local\Temp\ccxbhSsV.s 			page 170


 6110 0050 700C0000 		.word	.LC19
 6111              		.type	cmd_UUID, %object
 6112              		.size	cmd_UUID, 4
 6113              	cmd_UUID:
 6114 0054 55       		.byte	85
 6115 0055 55       		.byte	85
 6116 0056 49       		.byte	73
 6117 0057 44       		.byte	68
 6118              		.type	cmd_EDNID, %object
 6119              		.size	cmd_EDNID, 5
 6120              	cmd_EDNID:
 6121 0058 45       		.byte	69
 6122 0059 44       		.byte	68
 6123 005a 4E       		.byte	78
 6124 005b 49       		.byte	73
 6125 005c 44       		.byte	68
 6126 005d 000000   		.space	3
 6127              		.type	cmd_EDBID, %object
 6128              		.size	cmd_EDBID, 5
 6129              	cmd_EDBID:
 6130 0060 45       		.byte	69
 6131 0061 44       		.byte	68
 6132 0062 42       		.byte	66
 6133 0063 49       		.byte	73
 6134 0064 44       		.byte	68
 6135 0065 000000   		.space	3
 6136              		.type	cmd_MAJOR, %object
 6137              		.size	cmd_MAJOR, 5
 6138              	cmd_MAJOR:
 6139 0068 4D       		.byte	77
 6140 0069 41       		.byte	65
 6141 006a 4A       		.byte	74
 6142 006b 4F       		.byte	79
 6143 006c 52       		.byte	82
 6144 006d 000000   		.space	3
 6145              		.type	cmd_MINOR, %object
 6146              		.size	cmd_MINOR, 5
 6147              	cmd_MINOR:
 6148 0070 4D       		.byte	77
 6149 0071 49       		.byte	73
 6150 0072 4E       		.byte	78
 6151 0073 4F       		.byte	79
 6152 0074 52       		.byte	82
 6153 0075 000000   		.space	3
 6154              		.type	cmd_ITRVL, %object
 6155              		.size	cmd_ITRVL, 5
 6156              	cmd_ITRVL:
 6157 0078 49       		.byte	73
 6158 0079 54       		.byte	84
 6159 007a 52       		.byte	82
 6160 007b 56       		.byte	86
 6161 007c 4C       		.byte	76
 6162 007d 000000   		.space	3
 6163              		.type	cmd_EDITRVL, %object
 6164              		.size	cmd_EDITRVL, 7
 6165              	cmd_EDITRVL:
 6166 0080 45       		.byte	69
ARM GAS  C:\Users\ramanatg\AppData\Local\Temp\ccxbhSsV.s 			page 171


 6167 0081 44       		.byte	68
 6168 0082 49       		.byte	73
 6169 0083 54       		.byte	84
 6170 0084 52       		.byte	82
 6171 0085 56       		.byte	86
 6172 0086 4C       		.byte	76
 6173 0087 00       		.space	1
 6174              		.type	cmd_TXPWR, %object
 6175              		.size	cmd_TXPWR, 5
 6176              	cmd_TXPWR:
 6177 0088 54       		.byte	84
 6178 0089 58       		.byte	88
 6179 008a 50       		.byte	80
 6180 008b 57       		.byte	87
 6181 008c 52       		.byte	82
 6182 008d 000000   		.space	3
 6183              		.type	cmd_EDTXPWR, %object
 6184              		.size	cmd_EDTXPWR, 7
 6185              	cmd_EDTXPWR:
 6186 0090 45       		.byte	69
 6187 0091 44       		.byte	68
 6188 0092 54       		.byte	84
 6189 0093 58       		.byte	88
 6190 0094 50       		.byte	80
 6191 0095 57       		.byte	87
 6192 0096 52       		.byte	82
 6193 0097 00       		.space	1
 6194              	.LC30:
 6195 0098 EE       		.byte	-18
 6196 0099 F4       		.byte	-12
 6197 009a FA       		.byte	-6
 6198 009b FD       		.byte	-3
 6199 009c FE       		.byte	-2
 6200 009d FF       		.byte	-1
 6201 009e 00       		.byte	0
 6202 009f 03       		.byte	3
 6203              		.type	cmd_EDADPWR, %object
 6204              		.size	cmd_EDADPWR, 7
 6205              	cmd_EDADPWR:
 6206 00a0 45       		.byte	69
 6207 00a1 44       		.byte	68
 6208 00a2 41       		.byte	65
 6209 00a3 44       		.byte	68
 6210 00a4 50       		.byte	80
 6211 00a5 57       		.byte	87
 6212 00a6 52       		.byte	82
 6213 00a7 00       		.space	1
 6214              		.type	cmd_EDTXMODE, %object
 6215              		.size	cmd_EDTXMODE, 8
 6216              	cmd_EDTXMODE:
 6217 00a8 45       		.byte	69
 6218 00a9 44       		.byte	68
 6219 00aa 54       		.byte	84
 6220 00ab 58       		.byte	88
 6221 00ac 4D       		.byte	77
 6222 00ad 4F       		.byte	79
 6223 00ae 44       		.byte	68
ARM GAS  C:\Users\ramanatg\AppData\Local\Temp\ccxbhSsV.s 			page 172


 6224 00af 45       		.byte	69
 6225              	.LC126:
 6226 00b0 EC0B0000 		.word	.LC31
 6227 00b4 F40B0000 		.word	.LC32
 6228 00b8 F80B0000 		.word	.LC33
 6229 00bc 000C0000 		.word	.LC34
 6230              		.type	cmd_EDRESET, %object
 6231              		.size	cmd_EDRESET, 7
 6232              	cmd_EDRESET:
 6233 00c0 45       		.byte	69
 6234 00c1 44       		.byte	68
 6235 00c2 52       		.byte	82
 6236 00c3 45       		.byte	69
 6237 00c4 53       		.byte	83
 6238 00c5 45       		.byte	69
 6239 00c6 54       		.byte	84
 6240 00c7 00       		.space	1
 6241              		.type	cmd_RSSI, %object
 6242              		.size	cmd_RSSI, 4
 6243              	cmd_RSSI:
 6244 00c8 52       		.byte	82
 6245 00c9 53       		.byte	83
 6246 00ca 53       		.byte	83
 6247 00cb 49       		.byte	73
 6248              		.type	cmd_COID, %object
 6249              		.size	cmd_COID, 4
 6250              	cmd_COID:
 6251 00cc 43       		.byte	67
 6252 00cd 4F       		.byte	79
 6253 00ce 49       		.byte	73
 6254 00cf 44       		.byte	68
 6255              		.type	cmd_HELP, %object
 6256              		.size	cmd_HELP, 4
 6257              	cmd_HELP:
 6258 00d0 48       		.byte	72
 6259 00d1 45       		.byte	69
 6260 00d2 4C       		.byte	76
 6261 00d3 50       		.byte	80
 6262              		.type	cmd_VER, %object
 6263              		.size	cmd_VER, 3
 6264              	cmd_VER:
 6265 00d4 56       		.byte	86
 6266 00d5 45       		.byte	69
 6267 00d6 52       		.byte	82
 6268 00d7 00       		.space	1
 6269              		.type	cmd_EXIT, %object
 6270              		.size	cmd_EXIT, 4
 6271              	cmd_EXIT:
 6272 00d8 45       		.byte	69
 6273 00d9 58       		.byte	88
 6274 00da 49       		.byte	73
 6275 00db 54       		.byte	84
 6276              		.type	cmd_EXSENS, %object
 6277              		.size	cmd_EXSENS, 6
 6278              	cmd_EXSENS:
 6279 00dc 53       		.byte	83
 6280 00dd 45       		.byte	69
ARM GAS  C:\Users\ramanatg\AppData\Local\Temp\ccxbhSsV.s 			page 173


 6281 00de 4E       		.byte	78
 6282 00df 53       		.byte	83
 6283 00e0 4F       		.byte	79
 6284 00e1 52       		.byte	82
 6285 00e2 0000     		.space	2
 6286              	.LC36:
 6287 00e4 4F       		.byte	79
 6288 00e5 4E       		.byte	78
 6289 00e6 0000     		.space	2
 6290              	.LC37:
 6291 00e8 4F       		.byte	79
 6292 00e9 46       		.byte	70
 6293 00ea 46       		.byte	70
 6294 00eb 00       		.space	1
 6295              		.type	cmd_MODE, %object
 6296              		.size	cmd_MODE, 4
 6297              	cmd_MODE:
 6298 00ec 4D       		.byte	77
 6299 00ed 4F       		.byte	79
 6300 00ee 44       		.byte	68
 6301 00ef 45       		.byte	69
 6302              	.LC38:
 6303 00f0 20       		.byte	32
 6304 00f1 42       		.byte	66
 6305 00f2 4C       		.byte	76
 6306 00f3 45       		.byte	69
 6307 00f4 42       		.byte	66
 6308 00f5 45       		.byte	69
 6309 00f6 41       		.byte	65
 6310 00f7 43       		.byte	67
 6311 00f8 4F       		.byte	79
 6312 00f9 4E       		.byte	78
 6313 00fa 00       		.byte	0
 6314 00fb 00       		.space	1
 6315              	.LC39:
 6316 00fc 20       		.byte	32
 6317 00fd 45       		.byte	69
 6318 00fe 44       		.byte	68
 6319 00ff 44       		.byte	68
 6320 0100 59       		.byte	89
 6321 0101 53       		.byte	83
 6322 0102 54       		.byte	84
 6323 0103 4F       		.byte	79
 6324 0104 4E       		.byte	78
 6325 0105 45       		.byte	69
 6326 0106 00       		.byte	0
 6327 0107 00       		.space	1
 6328              	.LC40:
 6329 0108 20       		.byte	32
 6330 0109 45       		.byte	69
 6331 010a 44       		.byte	68
 6332 010b 54       		.byte	84
 6333 010c 45       		.byte	69
 6334 010d 53       		.byte	83
 6335 010e 54       		.byte	84
 6336 010f 00       		.byte	0
 6337              		.type	cmd_EDFRAME, %object
ARM GAS  C:\Users\ramanatg\AppData\Local\Temp\ccxbhSsV.s 			page 174


 6338              		.size	cmd_EDFRAME, 7
 6339              	cmd_EDFRAME:
 6340 0110 45       		.byte	69
 6341 0111 44       		.byte	68
 6342 0112 46       		.byte	70
 6343 0113 52       		.byte	82
 6344 0114 41       		.byte	65
 6345 0115 4D       		.byte	77
 6346 0116 45       		.byte	69
 6347 0117 00       		.space	1
 6348              	.LC41:
 6349 0118 20       		.byte	32
 6350 0119 55       		.byte	85
 6351 011a 49       		.byte	73
 6352 011b 44       		.byte	68
 6353              	.LC42:
 6354 011c 20       		.byte	32
 6355 011d 55       		.byte	85
 6356 011e 52       		.byte	82
 6357 011f 4C       		.byte	76
 6358              	.LC43:
 6359 0120 20       		.byte	32
 6360 0121 54       		.byte	84
 6361 0122 4C       		.byte	76
 6362 0123 4D       		.byte	77
 6363              		.type	cmd_EDSTATE, %object
 6364              		.size	cmd_EDSTATE, 7
 6365              	cmd_EDSTATE:
 6366 0124 45       		.byte	69
 6367 0125 44       		.byte	68
 6368 0126 53       		.byte	83
 6369 0127 54       		.byte	84
 6370 0128 41       		.byte	65
 6371 0129 54       		.byte	84
 6372 012a 45       		.byte	69
 6373 012b 00       		.space	1
 6374              		.type	cmd_EDLOCK, %object
 6375              		.size	cmd_EDLOCK, 6
 6376              	cmd_EDLOCK:
 6377 012c 45       		.byte	69
 6378 012d 44       		.byte	68
 6379 012e 4C       		.byte	76
 6380 012f 4F       		.byte	79
 6381 0130 43       		.byte	67
 6382 0131 4B       		.byte	75
 6383 0132 0000     		.space	2
 6384              		.type	cmd_EDUNLOCK, %object
 6385              		.size	cmd_EDUNLOCK, 8
 6386              	cmd_EDUNLOCK:
 6387 0134 45       		.byte	69
 6388 0135 44       		.byte	68
 6389 0136 55       		.byte	85
 6390 0137 4E       		.byte	78
 6391 0138 4C       		.byte	76
 6392 0139 4F       		.byte	79
 6393 013a 43       		.byte	67
 6394 013b 4B       		.byte	75
ARM GAS  C:\Users\ramanatg\AppData\Local\Temp\ccxbhSsV.s 			page 175


 6395              		.type	cmd_INIT, %object
 6396              		.size	cmd_INIT, 4
 6397              	cmd_INIT:
 6398 013c 49       		.byte	73
 6399 013d 4E       		.byte	78
 6400 013e 49       		.byte	73
 6401 013f 54       		.byte	84
 6402              		.section	.rodata.str1.4,"aMS",%progbits,1
 6403              		.align	2
 6404              	.LC44:
 6405 0000 52657365 		.ascii	"Reset buffer to 0 after handling it.\015\012\000"
 6405      74206275 
 6405      66666572 
 6405      20746F20 
 6405      30206166 
 6406 0027 00       		.space	1
 6407              	.LC47:
 6408 0028 0D0A5374 		.ascii	"\015\012Start ...\015\012\000"
 6408      61727420 
 6408      2E2E2E0D 
 6408      0A00
 6409 0036 0000     		.space	2
 6410              	.LC58:
 6411 0038 2D3E2045 		.ascii	"-> Eddystone-URL URI Data :\000"
 6411      64647973 
 6411      746F6E65 
 6411      2D55524C 
 6411      20555249 
 6412              	.LC61:
 6413 0054 2D3E204E 		.ascii	"-> New Eddystone-URL URI Data :\000"
 6413      65772045 
 6413      64647973 
 6413      746F6E65 
 6413      2D55524C 
 6414              	.LC63:
 6415 0074 0D0A00   		.ascii	"\015\012\000"
 6416 0077 00       		.space	1
 6417              	.LC65:
 6418 0078 68747470 		.ascii	"http\000"
 6418      00
 6419 007d 000000   		.space	3
 6420              	.LC67:
 6421 0080 25303258 		.ascii	"%02X\000"
 6421      00
 6422 0085 000000   		.space	3
 6423              	.LC69:
 6424 0088 2D3E2055 		.ascii	"-> UUID: \000"
 6424      5549443A 
 6424      2000
 6425 0092 0000     		.space	2
 6426              	.LC71:
 6427 0094 2D3E204E 		.ascii	"-> New UUID: \000"
 6427      65772055 
 6427      5549443A 
 6427      2000
 6428 00a2 0000     		.space	2
 6429              	.LC73:
ARM GAS  C:\Users\ramanatg\AppData\Local\Temp\ccxbhSsV.s 			page 176


 6430 00a4 2D3E2045 		.ascii	"-> Eddystone-UID NID : \000"
 6430      64647973 
 6430      746F6E65 
 6430      2D554944 
 6430      204E4944 
 6431              	.LC75:
 6432 00bc 2D3E204E 		.ascii	"-> New Eddystone-UID NID : \000"
 6432      65772045 
 6432      64647973 
 6432      746F6E65 
 6432      2D554944 
 6433              	.LC77:
 6434 00d8 2D3E2045 		.ascii	"-> Eddystone-UID BID : \000"
 6434      64647973 
 6434      746F6E65 
 6434      2D554944 
 6434      20424944 
 6435              	.LC79:
 6436 00f0 2D3E204E 		.ascii	"-> New Eddystone-UID BID : \000"
 6436      65772045 
 6436      64647973 
 6436      746F6E65 
 6436      2D554944 
 6437              	.LC81:
 6438 010c 2D3E204D 		.ascii	"-> MAJOR: \000"
 6438      414A4F52 
 6438      3A2000
 6439 0117 00       		.space	1
 6440              	.LC83:
 6441 0118 25303458 		.ascii	"%04X\000"
 6441      00
 6442 011d 000000   		.space	3
 6443              	.LC85:
 6444 0120 2D3E204D 		.ascii	"-> MINOR: \000"
 6444      494E4F52 
 6444      3A2000
 6445 012b 00       		.space	1
 6446              	.LC87:
 6447 012c 2D3E204E 		.ascii	"-> New MINOR: \000"
 6447      6577204D 
 6447      494E4F52 
 6447      3A2000
 6448 013b 00       		.space	1
 6449              	.LC89:
 6450 013c 2D3E2042 		.ascii	"-> BLEBeacon Advertise Interval in msec: \000"
 6450      4C454265 
 6450      61636F6E 
 6450      20416476 
 6450      65727469 
 6451 0166 0000     		.space	2
 6452              	.LC91:
 6453 0168 2D3E204E 		.ascii	"-> New BLEBeacon Advertise Interval in msec: \000"
 6453      65772042 
 6453      4C454265 
 6453      61636F6E 
 6453      20416476 
 6454 0196 0000     		.space	2
ARM GAS  C:\Users\ramanatg\AppData\Local\Temp\ccxbhSsV.s 			page 177


 6455              	.LC93:
 6456 0198 25356C64 		.ascii	"%5ld\000"
 6456      00
 6457 019d 000000   		.space	3
 6458              	.LC96:
 6459 01a0 2D3E2045 		.ascii	"-> Eddystone Advertise Interval in msec: \000"
 6459      64647973 
 6459      746F6E65 
 6459      20416476 
 6459      65727469 
 6460 01ca 0000     		.space	2
 6461              	.LC98:
 6462 01cc 2D3E204E 		.ascii	"-> New Eddystone Advertise Interval in msec: \000"
 6462      65772045 
 6462      64647973 
 6462      746F6E65 
 6462      20416476 
 6463 01fa 0000     		.space	2
 6464              	.LC100:
 6465 01fc 25356400 		.ascii	"%5d\000"
 6466              	.LC102:
 6467 0200 2D3E2054 		.ascii	"-> TX power in dBm: \000"
 6467      5820706F 
 6467      77657220 
 6467      696E2064 
 6467      426D3A20 
 6468 0215 000000   		.space	3
 6469              	.LC104:
 6470 0218 2D3E204E 		.ascii	"-> New TX power in dBm: \000"
 6470      65772054 
 6470      5820706F 
 6470      77657220 
 6470      696E2064 
 6471 0231 000000   		.space	3
 6472              	.LC106:
 6473 0234 256400   		.ascii	"%d\000"
 6474 0237 00       		.space	1
 6475              	.LC108:
 6476 0238 2D3E2045 		.ascii	"-> Eddystone Radio TX Power Levels :\000"
 6476      64647973 
 6476      746F6E65 
 6476      20526164 
 6476      696F2054 
 6477 025d 000000   		.space	3
 6478              	.LC21:
 6479 0260 202D3138 		.ascii	" -18\000"
 6479      00
 6480 0265 000000   		.space	3
 6481              	.LC22:
 6482 0268 202D3132 		.ascii	" -12\000"
 6482      00
 6483 026d 000000   		.space	3
 6484              	.LC23:
 6485 0270 202D3600 		.ascii	" -6\000"
 6486              	.LC24:
 6487 0274 202D3300 		.ascii	" -3\000"
 6488              	.LC25:
ARM GAS  C:\Users\ramanatg\AppData\Local\Temp\ccxbhSsV.s 			page 178


 6489 0278 202D3200 		.ascii	" -2\000"
 6490              	.LC26:
 6491 027c 202D3100 		.ascii	" -1\000"
 6492              	.LC27:
 6493 0280 203000   		.ascii	" 0\000"
 6494 0283 00       		.space	1
 6495              	.LC28:
 6496 0284 203300   		.ascii	" 3\000"
 6497 0287 00       		.space	1
 6498              	.LC118:
 6499 0288 2D3E204E 		.ascii	"-> New Eddystone Radio TX Power Levels :\000"
 6499      65772045 
 6499      64647973 
 6499      746F6E65 
 6499      20526164 
 6500 02b1 000000   		.space	3
 6501              	.LC120:
 6502 02b4 20256400 		.ascii	" %d\000"
 6503              	.LC122:
 6504 02b8 2D3E2045 		.ascii	"-> Eddystone Advertised TX Power Levels :\000"
 6504      64647973 
 6504      746F6E65 
 6504      20416476 
 6504      65727469 
 6505 02e2 0000     		.space	2
 6506              	.LC124:
 6507 02e4 2D3E204E 		.ascii	"-> New Eddystone Advertised TX Power Levels :\000"
 6507      65772045 
 6507      64647973 
 6507      746F6E65 
 6507      20416476 
 6508 0312 0000     		.space	2
 6509              	.LC127:
 6510 0314 2D3E2045 		.ascii	"-> Eddystone TX Power Mode : \000"
 6510      64647973 
 6510      746F6E65 
 6510      20545820 
 6510      506F7765 
 6511 0332 0000     		.space	2
 6512              	.LC129:
 6513 0334 2D3E204E 		.ascii	"-> New Eddystone TX Power Mode : \000"
 6513      65772045 
 6513      64647973 
 6513      746F6E65 
 6513      20545820 
 6514 0356 0000     		.space	2
 6515              	.LC131:
 6516 0358 2D3E2052 		.ascii	"-> Reset finished!\015\012\000"
 6516      65736574 
 6516      2066696E 
 6516      69736865 
 6516      64210D0A 
 6517 036d 000000   		.space	3
 6518              	.LC133:
 6519 0370 2D3E2052 		.ascii	"-> RSSI in dBm: \000"
 6519      53534920 
 6519      696E2064 
ARM GAS  C:\Users\ramanatg\AppData\Local\Temp\ccxbhSsV.s 			page 179


 6519      426D3A20 
 6519      00
 6520 0381 000000   		.space	3
 6521              	.LC135:
 6522 0384 2D3E204E 		.ascii	"-> New RSSI in dBm: \000"
 6522      65772052 
 6522      53534920 
 6522      696E2064 
 6522      426D3A20 
 6523 0399 000000   		.space	3
 6524              	.LC137:
 6525 039c 2D3E2043 		.ascii	"-> Company ID: \000"
 6525      6F6D7061 
 6525      6E792049 
 6525      443A2000 
 6526              	.LC139:
 6527 03ac 2D3E204E 		.ascii	"-> New Company ID: \000"
 6527      65772043 
 6527      6F6D7061 
 6527      6E792049 
 6527      443A2000 
 6528              	.LC141:
 6529 03c0 47657420 		.ascii	"Get uuid, input:uuid+Enter\015\012Set uuid, input:u"
 6529      75756964 
 6529      2C20696E 
 6529      7075743A 
 6529      75756964 
 6530 03ed 75696420 		.ascii	"uid xxxxxxxx-xxxx-xxxx-xxxx-xxxxxxxxxxxx+Enter\015\012"
 6530      78787878 
 6530      78787878 
 6530      2D787878 
 6530      782D7878 
 6531 041d 00       		.ascii	"\000"
 6532 041e 0000     		.space	2
 6533              	.LC143:
 6534 0420 47657420 		.ascii	"Get major, input:major+Enter\015\012Set major, inpu"
 6534      6D616A6F 
 6534      722C2069 
 6534      6E707574 
 6534      3A6D616A 
 6535 044d 743A6D61 		.ascii	"t:major xxxx+Enter\015\012\000"
 6535      6A6F7220 
 6535      78787878 
 6535      2B456E74 
 6535      65720D0A 
 6536 0462 0000     		.space	2
 6537              	.LC145:
 6538 0464 47657420 		.ascii	"Get minor, input:minor+Enter\015\012Set minor, inpu"
 6538      6D696E6F 
 6538      722C2069 
 6538      6E707574 
 6538      3A6D696E 
 6539 0491 743A6D69 		.ascii	"t:minor xxxx+Enter\015\012\000"
 6539      6E6F7220 
 6539      78787878 
 6539      2B456E74 
 6539      65720D0A 
ARM GAS  C:\Users\ramanatg\AppData\Local\Temp\ccxbhSsV.s 			page 180


 6540 04a6 0000     		.space	2
 6541              	.LC147:
 6542 04a8 47657420 		.ascii	"Get txpwr, input:txpwr+Enter\015\012Set txpwr, inpu"
 6542      74787077 
 6542      722C2069 
 6542      6E707574 
 6542      3A747870 
 6543 04d5 743A7478 		.ascii	"t:txpwr *+Enter\015\012\000"
 6543      70777220 
 6543      2A2B456E 
 6543      7465720D 
 6543      0A00
 6544 04e7 00       		.space	1
 6545              	.LC149:
 6546 04e8 47657420 		.ascii	"Get rssi, input:rssi+Enter\015\012Set rssi, input:r"
 6546      72737369 
 6546      2C20696E 
 6546      7075743A 
 6546      72737369 
 6547 0515 73736920 		.ascii	"ssi *+Enter\015\012\000"
 6547      2A2B456E 
 6547      7465720D 
 6547      0A00
 6548 0523 00       		.space	1
 6549              	.LC151:
 6550 0524 47657420 		.ascii	"Get itrvl, input:itrvl+Enter\015\012Set itrvl, inpu"
 6550      69747276 
 6550      6C2C2069 
 6550      6E707574 
 6550      3A697472 
 6551 0551 743A6974 		.ascii	"t:itrvl *+Enter\015\012\000"
 6551      72766C20 
 6551      2A2B456E 
 6551      7465720D 
 6551      0A00
 6552 0563 00       		.space	1
 6553              	.LC153:
 6554 0564 47657420 		.ascii	"Get coid, input:coid+Enter\015\012Set coid, input:c"
 6554      636F6964 
 6554      2C20696E 
 6554      7075743A 
 6554      636F6964 
 6555 0591 6F696420 		.ascii	"oid xxxx+Enter\015\012\000"
 6555      78787878 
 6555      2B456E74 
 6555      65720D0A 
 6555      00
 6556 05a2 0000     		.space	2
 6557              	.LC155:
 6558 05a4 47657420 		.ascii	"Get nid, input: ednid+Enter\015\012Set nid, input: "
 6558      6E69642C 
 6558      20696E70 
 6558      75743A20 
 6558      65646E69 
 6559 05d1 65646E69 		.ascii	"ednid x...x(20 char)+Enter\015\012\000"
 6559      6420782E 
 6559      2E2E7828 
ARM GAS  C:\Users\ramanatg\AppData\Local\Temp\ccxbhSsV.s 			page 181


 6559      32302063 
 6559      68617229 
 6560 05ee 0000     		.space	2
 6561              	.LC157:
 6562 05f0 47657420 		.ascii	"Get bid, input: edbid+Enter\015\012Set bid, input: "
 6562      6269642C 
 6562      20696E70 
 6562      75743A20 
 6562      65646269 
 6563 061d 65646269 		.ascii	"edbid x...x(12 char)+Enter\015\012\000"
 6563      6420782E 
 6563      2E2E7828 
 6563      31322063 
 6563      68617229 
 6564 063a 0000     		.space	2
 6565              	.LC159:
 6566 063c 47657420 		.ascii	"Get edtxpwr, input:edtxpwr+Enter\015\012Set edtxpwr"
 6566      65647478 
 6566      7077722C 
 6566      20696E70 
 6566      75743A65 
 6567 0669 2C20696E 		.ascii	", input:edtxpwr * * * *+Enter\015\012\000"
 6567      7075743A 
 6567      65647478 
 6567      70777220 
 6567      2A202A20 
 6568 0689 000000   		.space	3
 6569              	.LC161:
 6570 068c 47657420 		.ascii	"Get edframe, input:edframe+Enter\015\012Set edframe"
 6570      65646672 
 6570      616D652C 
 6570      20696E70 
 6570      75743A65 
 6571 06b9 2C20696E 		.ascii	", input:edframe + one or some of uid/url/tlm+Enter\015"
 6571      7075743A 
 6571      65646672 
 6571      616D6520 
 6571      2B206F6E 
 6572 06ec 0A00     		.ascii	"\012\000"
 6573 06ee 0000     		.space	2
 6574              	.LC163:
 6575 06f0 47657420 		.ascii	"Get edstate, input: edstate+Enter\015\012\000"
 6575      65647374 
 6575      6174652C 
 6575      20696E70 
 6575      75743A20 
 6576              	.LC165:
 6577 0714 53657420 		.ascii	"Set edlock, input: edlock xxxxxxxx-xxxx-xxxx-xxxx-x"
 6577      65646C6F 
 6577      636B2C20 
 6577      696E7075 
 6577      743A2065 
 6578 0747 78787878 		.ascii	"xxxxxxxxxxx+Enter\015\012\000"
 6578      78787878 
 6578      7878782B 
 6578      456E7465 
 6578      720D0A00 
ARM GAS  C:\Users\ramanatg\AppData\Local\Temp\ccxbhSsV.s 			page 182


 6579 075b 00       		.space	1
 6580              	.LC167:
 6581 075c 53657420 		.ascii	"Set edunlock, input: edunlock xxxxxxxx-xxxx-xxxx-xx"
 6581      6564756E 
 6581      6C6F636B 
 6581      2C20696E 
 6581      7075743A 
 6582 078f 78782D78 		.ascii	"xx-xxxxxxxxxxxx+Enter\015\012\000"
 6582      78787878 
 6582      78787878 
 6582      7878782B 
 6582      456E7465 
 6583 07a7 00       		.space	1
 6584              	.LC169:
 6585 07a8 47657420 		.ascii	"Get eduri, input:eduri+Enter\015\012Set eduri, inpu"
 6585      65647572 
 6585      692C2069 
 6585      6E707574 
 6585      3A656475 
 6586 07d5 743A6564 		.ascii	"t:eduri (url or hex string)+Enter\015\012\000"
 6586      75726920 
 6586      2875726C 
 6586      206F7220 
 6586      68657820 
 6587 07f9 000000   		.space	3
 6588              	.LC171:
 6589 07fc 47657420 		.ascii	"Get edadpwr, input:edadpwr+Enter\015\012Set edadpwr"
 6589      65646164 
 6589      7077722C 
 6589      20696E70 
 6589      75743A65 
 6590 0829 2C20696E 		.ascii	", input:edadpwr * * * *+Enter\015\012\000"
 6590      7075743A 
 6590      65646164 
 6590      70777220 
 6590      2A202A20 
 6591 0849 000000   		.space	3
 6592              	.LC173:
 6593 084c 47657420 		.ascii	"Get edtxmode, input:edtxmode+Enter\015\012Set edtxm"
 6593      65647478 
 6593      6D6F6465 
 6593      2C20696E 
 6593      7075743A 
 6594 0879 6F64652C 		.ascii	"ode, input:edtxmode LOWEST/LOW/MEDIUM/HIGH+Enter\015"
 6594      20696E70 
 6594      75743A65 
 6594      6474786D 
 6594      6F646520 
 6595 08aa 0A00     		.ascii	"\012\000"
 6596              	.LC175:
 6597 08ac 47657420 		.ascii	"Get editrvl, input:editrvl+Enter\015\012Set editrvl"
 6597      65646974 
 6597      72766C2C 
 6597      20696E70 
 6597      75743A65 
 6598 08d9 2C20696E 		.ascii	", input:editrvl *+Enter\015\012\000"
 6598      7075743A 
ARM GAS  C:\Users\ramanatg\AppData\Local\Temp\ccxbhSsV.s 			page 183


 6598      65646974 
 6598      72766C20 
 6598      2A2B456E 
 6599 08f3 00       		.space	1
 6600              	.LC177:
 6601 08f4 65647265 		.ascii	"edreset, input: edreset+Enter\015\012\000"
 6601      7365742C 
 6601      20696E70 
 6601      75743A20 
 6601      65647265 
 6602              	.LC179:
 6603 0914 47657420 		.ascii	"Get sensor, input:sensor+Enter\015\012Set sensor, i"
 6603      73656E73 
 6603      6F722C20 
 6603      696E7075 
 6603      743A7365 
 6604 0941 6E707574 		.ascii	"nput:sensor on/off+Enter\015\012\000"
 6604      3A73656E 
 6604      736F7220 
 6604      6F6E2F6F 
 6604      66662B45 
 6605              	.LC181:
 6606 095c 47657420 		.ascii	"Get mode,input: mode+Enter\015\012Set mode,input: m"
 6606      6D6F6465 
 6606      2C696E70 
 6606      75743A20 
 6606      6D6F6465 
 6607 0989 6F646520 		.ascii	"ode BLEBeacon/Eddystone/EDTest+Enter\015\012\000"
 6607      424C4542 
 6607      6561636F 
 6607      6E2F4564 
 6607      64797374 
 6608              	.LC183:
 6609 09b0 496E6974 		.ascii	"Initialize, input: init+Enter\015\012\000"
 6609      69616C69 
 6609      7A652C20 
 6609      696E7075 
 6609      743A2069 
 6610              	.LC185:
 6611 09d0 47657420 		.ascii	"Get ver, input: ver+Enter\015\012\000"
 6611      7665722C 
 6611      20696E70 
 6611      75743A20 
 6611      7665722B 
 6612              	.LC187:
 6613 09ec 45786974 		.ascii	"Exit, input: exit+Enter\015\012\000"
 6613      2C20696E 
 6613      7075743A 
 6613      20657869 
 6613      742B456E 
 6614 0a06 0000     		.space	2
 6615              	.LC189:
 6616 0a08 2D3E2043 		.ascii	"-> CYALKIT-E02 Sample Firmware, Version %d.%d.%02d\015"
 6616      59414C4B 
 6616      49542D45 
 6616      30322053 
 6616      616D706C 
ARM GAS  C:\Users\ramanatg\AppData\Local\Temp\ccxbhSsV.s 			page 184


 6617 0a3b 0A00     		.ascii	"\012\000"
 6618 0a3d 000000   		.space	3
 6619              	.LC191:
 6620 0a40 2D3E2053 		.ascii	"-> Sensor mode : \000"
 6620      656E736F 
 6620      72206D6F 
 6620      6465203A 
 6620      2000
 6621 0a52 0000     		.space	2
 6622              	.LC193:
 6623 0a54 2D3E204E 		.ascii	"-> New Sensor mode : \000"
 6623      65772053 
 6623      656E736F 
 6623      72206D6F 
 6623      6465203A 
 6624 0a6a 0000     		.space	2
 6625              	.LC195:
 6626 0a6c 6F6E00   		.ascii	"on\000"
 6627 0a6f 00       		.space	1
 6628              	.LC197:
 6629 0a70 6F666600 		.ascii	"off\000"
 6630              	.LC200:
 6631 0a74 2D3E204D 		.ascii	"-> Mode : \000"
 6631      6F646520 
 6631      3A2000
 6632 0a7f 00       		.space	1
 6633              	.LC202:
 6634 0a80 2D3E204E 		.ascii	"-> New mode : \000"
 6634      6577206D 
 6634      6F646520 
 6634      3A2000
 6635 0a8f 00       		.space	1
 6636              	.LC204:
 6637 0a90 424C4542 		.ascii	"BLEBeacon\000"
 6637      6561636F 
 6637      6E00
 6638 0a9a 0000     		.space	2
 6639              	.LC206:
 6640 0a9c 45646479 		.ascii	"Eddystone\000"
 6640      73746F6E 
 6640      6500
 6641 0aa6 0000     		.space	2
 6642              	.LC208:
 6643 0aa8 45445465 		.ascii	"EDTest\000"
 6643      737400
 6644 0aaf 00       		.space	1
 6645              	.LC210:
 6646 0ab0 2D3E2045 		.ascii	"-> EDFrame mode : \000"
 6646      44467261 
 6646      6D65206D 
 6646      6F646520 
 6646      3A2000
 6647 0ac3 00       		.space	1
 6648              	.LC212:
 6649 0ac4 2D3E204E 		.ascii	"-> New EDFrame mode : \000"
 6649      65772045 
 6649      44467261 
ARM GAS  C:\Users\ramanatg\AppData\Local\Temp\ccxbhSsV.s 			page 185


 6649      6D65206D 
 6649      6F646520 
 6650 0adb 00       		.space	1
 6651              	.LC214:
 6652 0adc 75696420 		.ascii	"uid on, \000"
 6652      6F6E2C20 
 6652      00
 6653 0ae5 000000   		.space	3
 6654              	.LC216:
 6655 0ae8 75696420 		.ascii	"uid off, \000"
 6655      6F66662C 
 6655      2000
 6656 0af2 0000     		.space	2
 6657              	.LC218:
 6658 0af4 75726C20 		.ascii	"url on, \000"
 6658      6F6E2C20 
 6658      00
 6659 0afd 000000   		.space	3
 6660              	.LC220:
 6661 0b00 75726C20 		.ascii	"url off, \000"
 6661      6F66662C 
 6661      2000
 6662 0b0a 0000     		.space	2
 6663              	.LC222:
 6664 0b0c 746C6D20 		.ascii	"tlm on\000"
 6664      6F6E00
 6665 0b13 00       		.space	1
 6666              	.LC224:
 6667 0b14 746C6D20 		.ascii	"tlm off\000"
 6667      6F666600 
 6668              	.LC226:
 6669 0b1c 2D3E2045 		.ascii	"-> EDSTATE : locked\015\012\000"
 6669      44535441 
 6669      5445203A 
 6669      206C6F63 
 6669      6B65640D 
 6670 0b32 0000     		.space	2
 6671              	.LC228:
 6672 0b34 2D3E2045 		.ascii	"-> EDSTATE : unlocked\015\012\000"
 6672      44535441 
 6672      5445203A 
 6672      20756E6C 
 6672      6F636B65 
 6673              	.LC230:
 6674 0b4c 2D3E204E 		.ascii	"-> New EDSTATE : locked\015\012\000"
 6674      65772045 
 6674      44535441 
 6674      5445203A 
 6674      206C6F63 
 6675 0b66 0000     		.space	2
 6676              	.LC232:
 6677 0b68 2D3E204E 		.ascii	"-> New EDSTATE : unlocked\015\012\000"
 6677      65772045 
 6677      44535441 
 6677      5445203A 
 6677      20756E6C 
 6678              	.LC234:
ARM GAS  C:\Users\ramanatg\AppData\Local\Temp\ccxbhSsV.s 			page 186


 6679 0b84 2D3E2052 		.ascii	"-> Restore to default! \015\012\000"
 6679      6573746F 
 6679      72652074 
 6679      6F206465 
 6679      6661756C 
 6680 0b9e 0000     		.space	2
 6681              	.LC236:
 6682 0ba0 436F6D6D 		.ascii	"Command format error!!\015\012\000"
 6682      616E6420 
 6682      666F726D 
 6682      61742065 
 6682      72726F72 
 6683 0bb9 000000   		.space	3
 6684              	.LC238:
 6685 0bbc 496E7375 		.ascii	"Insufficient Authorization!!\015\012\000"
 6685      66666963 
 6685      69656E74 
 6685      20417574 
 6685      686F7269 
 6686 0bdb 00       		.space	1
 6687              	.LC240:
 6688 0bdc 2D3E204E 		.ascii	"-> New MAJOR: \000"
 6688      6577204D 
 6688      414A4F52 
 6688      3A2000
 6689 0beb 00       		.space	1
 6690              	.LC31:
 6691 0bec 4C4F5745 		.ascii	"LOWEST\000"
 6691      535400
 6692 0bf3 00       		.space	1
 6693              	.LC32:
 6694 0bf4 4C4F5700 		.ascii	"LOW\000"
 6695              	.LC33:
 6696 0bf8 4D454449 		.ascii	"MEDIUM\000"
 6696      554D00
 6697 0bff 00       		.space	1
 6698              	.LC34:
 6699 0c00 48494748 		.ascii	"HIGH\000"
 6699      00
 6700 0c05 000000   		.space	3
 6701              	.LC6:
 6702 0c08 2E636F6D 		.ascii	".com/\000"
 6702      2F00
 6703 0c0e 0000     		.space	2
 6704              	.LC7:
 6705 0c10 2E6F7267 		.ascii	".org/\000"
 6705      2F00
 6706 0c16 0000     		.space	2
 6707              	.LC8:
 6708 0c18 2E656475 		.ascii	".edu/\000"
 6708      2F00
 6709 0c1e 0000     		.space	2
 6710              	.LC9:
 6711 0c20 2E6E6574 		.ascii	".net/\000"
 6711      2F00
 6712 0c26 0000     		.space	2
 6713              	.LC10:
ARM GAS  C:\Users\ramanatg\AppData\Local\Temp\ccxbhSsV.s 			page 187


 6714 0c28 2E696E66 		.ascii	".info/\000"
 6714      6F2F00
 6715 0c2f 00       		.space	1
 6716              	.LC11:
 6717 0c30 2E62697A 		.ascii	".biz/\000"
 6717      2F00
 6718 0c36 0000     		.space	2
 6719              	.LC12:
 6720 0c38 2E676F76 		.ascii	".gov/\000"
 6720      2F00
 6721 0c3e 0000     		.space	2
 6722              	.LC13:
 6723 0c40 2E636F6D 		.ascii	".com\000"
 6723      00
 6724 0c45 000000   		.space	3
 6725              	.LC14:
 6726 0c48 2E6F7267 		.ascii	".org\000"
 6726      00
 6727 0c4d 000000   		.space	3
 6728              	.LC15:
 6729 0c50 2E656475 		.ascii	".edu\000"
 6729      00
 6730 0c55 000000   		.space	3
 6731              	.LC16:
 6732 0c58 2E6E6574 		.ascii	".net\000"
 6732      00
 6733 0c5d 000000   		.space	3
 6734              	.LC17:
 6735 0c60 2E696E66 		.ascii	".info\000"
 6735      6F00
 6736 0c66 0000     		.space	2
 6737              	.LC18:
 6738 0c68 2E62697A 		.ascii	".biz\000"
 6738      00
 6739 0c6d 000000   		.space	3
 6740              	.LC19:
 6741 0c70 2E676F76 		.ascii	".gov\000"
 6741      00
 6742 0c75 000000   		.space	3
 6743              	.LC1:
 6744 0c78 3A2F2F77 		.ascii	"://www.\000"
 6744      77772E00 
 6745              	.LC2:
 6746 0c80 733A2F2F 		.ascii	"s://www.\000"
 6746      7777772E 
 6746      00
 6747 0c89 000000   		.space	3
 6748              	.LC3:
 6749 0c8c 3A2F2F00 		.ascii	"://\000"
 6750              	.LC4:
 6751 0c90 733A2F2F 		.ascii	"s://\000"
 6751      00
 6752 0c95 000000   		.bss
 6753              		.align	2
 6754              		.set	.LANCHOR0,. + 0
 6755              		.type	data_array, %object
 6756              		.size	data_array, 4
ARM GAS  C:\Users\ramanatg\AppData\Local\Temp\ccxbhSsV.s 			page 188


 6757              	data_array:
 6758 0000 00000000 		.space	4
 6759              		.text
 6760              	.Letext0:
 6761              		.file 2 "c:\\program files (x86)\\cypress\\psoc creator\\4.0\\psoc creator\\import\\gnu\\arm\\4.9.
 6762              		.file 3 "c:\\program files (x86)\\cypress\\psoc creator\\4.0\\psoc creator\\import\\gnu\\arm\\4.9.
 6763              		.file 4 "Generated_Source\\PSoC4/cytypes.h"
 6764              		.file 5 "c:\\program files (x86)\\cypress\\psoc creator\\4.0\\psoc creator\\import\\gnu\\arm\\4.9.
 6765              		.file 6 "Generated_Source\\PSoC4/BLE_Stack.h"
 6766              		.file 7 "Generated_Source\\PSoC4/BLE_StackGatt.h"
 6767              		.file 8 "Generated_Source\\PSoC4/BLE_StackGattDb.h"
 6768              		.file 9 "ConfigRW.h"
 6769              		.file 10 "Generated_Source\\PSoC4/BLE_gatt.h"
 6770              		.file 11 "Generated_Source\\PSoC4/UART_SPI_UART.h"
 6771              		.file 12 "c:\\program files (x86)\\cypress\\psoc creator\\4.0\\psoc creator\\import\\gnu\\arm\\4.9
 6772              		.file 13 "Generated_Source\\PSoC4/CyLib.h"
 6773              		.file 14 "c:\\program files (x86)\\cypress\\psoc creator\\4.0\\psoc creator\\import\\gnu\\arm\\4.9
 6774              		.file 15 "c:\\program files (x86)\\cypress\\psoc creator\\4.0\\psoc creator\\import\\gnu\\arm\\4.9
 6775              		.file 16 "Generated_Source\\PSoC4/UART.h"
 6776              		.file 17 "Eddystone.h"
 6777              		.section	.debug_info,"",%progbits
 6778              	.Ldebug_info0:
 6779 0000 DE380000 		.4byte	0x38de
 6780 0004 0400     		.2byte	0x4
 6781 0006 00000000 		.4byte	.Ldebug_abbrev0
 6782 000a 04       		.byte	0x4
 6783 000b 01       		.uleb128 0x1
 6784 000c 2E100000 		.4byte	.LASF318
 6785 0010 01       		.byte	0x1
 6786 0011 34150000 		.4byte	.LASF319
 6787 0015 D8070000 		.4byte	.LASF320
 6788 0019 18080000 		.4byte	.Ldebug_ranges0+0x818
 6789 001d 00000000 		.4byte	0
 6790 0021 00000000 		.4byte	.Ldebug_line0
 6791 0025 02       		.uleb128 0x2
 6792 0026 2D0F0000 		.4byte	.LASF0
 6793 002a 02       		.byte	0x2
 6794 002b 1B       		.byte	0x1b
 6795 002c 30000000 		.4byte	0x30
 6796 0030 03       		.uleb128 0x3
 6797 0031 01       		.byte	0x1
 6798 0032 06       		.byte	0x6
 6799 0033 22180000 		.4byte	.LASF2
 6800 0037 02       		.uleb128 0x2
 6801 0038 CB130000 		.4byte	.LASF1
 6802 003c 02       		.byte	0x2
 6803 003d 1D       		.byte	0x1d
 6804 003e 42000000 		.4byte	0x42
 6805 0042 03       		.uleb128 0x3
 6806 0043 01       		.byte	0x1
 6807 0044 08       		.byte	0x8
 6808 0045 B9150000 		.4byte	.LASF3
 6809 0049 03       		.uleb128 0x3
 6810 004a 02       		.byte	0x2
 6811 004b 05       		.byte	0x5
 6812 004c BC020000 		.4byte	.LASF4
 6813 0050 02       		.uleb128 0x2
ARM GAS  C:\Users\ramanatg\AppData\Local\Temp\ccxbhSsV.s 			page 189


 6814 0051 AA060000 		.4byte	.LASF5
 6815 0055 02       		.byte	0x2
 6816 0056 2B       		.byte	0x2b
 6817 0057 5B000000 		.4byte	0x5b
 6818 005b 03       		.uleb128 0x3
 6819 005c 02       		.byte	0x2
 6820 005d 07       		.byte	0x7
 6821 005e 2E180000 		.4byte	.LASF6
 6822 0062 02       		.uleb128 0x2
 6823 0063 50020000 		.4byte	.LASF7
 6824 0067 02       		.byte	0x2
 6825 0068 3F       		.byte	0x3f
 6826 0069 6D000000 		.4byte	0x6d
 6827 006d 03       		.uleb128 0x3
 6828 006e 04       		.byte	0x4
 6829 006f 05       		.byte	0x5
 6830 0070 C6110000 		.4byte	.LASF8
 6831 0074 02       		.uleb128 0x2
 6832 0075 D1150000 		.4byte	.LASF9
 6833 0079 02       		.byte	0x2
 6834 007a 41       		.byte	0x41
 6835 007b 7F000000 		.4byte	0x7f
 6836 007f 03       		.uleb128 0x3
 6837 0080 04       		.byte	0x4
 6838 0081 07       		.byte	0x7
 6839 0082 5A0E0000 		.4byte	.LASF10
 6840 0086 03       		.uleb128 0x3
 6841 0087 08       		.byte	0x8
 6842 0088 05       		.byte	0x5
 6843 0089 070B0000 		.4byte	.LASF11
 6844 008d 03       		.uleb128 0x3
 6845 008e 08       		.byte	0x8
 6846 008f 07       		.byte	0x7
 6847 0090 CD040000 		.4byte	.LASF12
 6848 0094 04       		.uleb128 0x4
 6849 0095 04       		.byte	0x4
 6850 0096 05       		.byte	0x5
 6851 0097 696E7400 		.ascii	"int\000"
 6852 009b 03       		.uleb128 0x3
 6853 009c 04       		.byte	0x4
 6854 009d 07       		.byte	0x7
 6855 009e 19140000 		.4byte	.LASF13
 6856 00a2 02       		.uleb128 0x2
 6857 00a3 7D040000 		.4byte	.LASF14
 6858 00a7 03       		.byte	0x3
 6859 00a8 14       		.byte	0x14
 6860 00a9 25000000 		.4byte	0x25
 6861 00ad 02       		.uleb128 0x2
 6862 00ae 880A0000 		.4byte	.LASF15
 6863 00b2 03       		.byte	0x3
 6864 00b3 15       		.byte	0x15
 6865 00b4 37000000 		.4byte	0x37
 6866 00b8 02       		.uleb128 0x2
 6867 00b9 A40F0000 		.4byte	.LASF16
 6868 00bd 03       		.byte	0x3
 6869 00be 21       		.byte	0x21
 6870 00bf 50000000 		.4byte	0x50
ARM GAS  C:\Users\ramanatg\AppData\Local\Temp\ccxbhSsV.s 			page 190


 6871 00c3 02       		.uleb128 0x2
 6872 00c4 F0140000 		.4byte	.LASF17
 6873 00c8 03       		.byte	0x3
 6874 00c9 2C       		.byte	0x2c
 6875 00ca 62000000 		.4byte	0x62
 6876 00ce 02       		.uleb128 0x2
 6877 00cf 74040000 		.4byte	.LASF18
 6878 00d3 03       		.byte	0x3
 6879 00d4 2D       		.byte	0x2d
 6880 00d5 74000000 		.4byte	0x74
 6881 00d9 05       		.uleb128 0x5
 6882 00da 2B040000 		.4byte	.LASF19
 6883 00de 04       		.byte	0x4
 6884 00df B901     		.2byte	0x1b9
 6885 00e1 42000000 		.4byte	0x42
 6886 00e5 05       		.uleb128 0x5
 6887 00e6 DF0A0000 		.4byte	.LASF20
 6888 00ea 04       		.byte	0x4
 6889 00eb BA01     		.2byte	0x1ba
 6890 00ed 5B000000 		.4byte	0x5b
 6891 00f1 05       		.uleb128 0x5
 6892 00f2 C00D0000 		.4byte	.LASF21
 6893 00f6 04       		.byte	0x4
 6894 00f7 BB01     		.2byte	0x1bb
 6895 00f9 7F000000 		.4byte	0x7f
 6896 00fd 03       		.uleb128 0x3
 6897 00fe 04       		.byte	0x4
 6898 00ff 04       		.byte	0x4
 6899 0100 45050000 		.4byte	.LASF22
 6900 0104 03       		.uleb128 0x3
 6901 0105 08       		.byte	0x8
 6902 0106 04       		.byte	0x4
 6903 0107 B0180000 		.4byte	.LASF23
 6904 010b 05       		.uleb128 0x5
 6905 010c 770B0000 		.4byte	.LASF24
 6906 0110 04       		.byte	0x4
 6907 0111 CA01     		.2byte	0x1ca
 6908 0113 17010000 		.4byte	0x117
 6909 0117 03       		.uleb128 0x3
 6910 0118 01       		.byte	0x1
 6911 0119 08       		.byte	0x8
 6912 011a 500A0000 		.4byte	.LASF25
 6913 011e 02       		.uleb128 0x2
 6914 011f 4D080000 		.4byte	.LASF26
 6915 0123 05       		.byte	0x5
 6916 0124 D4       		.byte	0xd4
 6917 0125 9B000000 		.4byte	0x9b
 6918 0129 03       		.uleb128 0x3
 6919 012a 04       		.byte	0x4
 6920 012b 07       		.byte	0x7
 6921 012c 44140000 		.4byte	.LASF27
 6922 0130 06       		.uleb128 0x6
 6923 0131 04       		.byte	0x4
 6924 0132 07       		.uleb128 0x7
 6925 0133 04       		.byte	0x4
 6926 0134 17010000 		.4byte	0x117
 6927 0138 07       		.uleb128 0x7
ARM GAS  C:\Users\ramanatg\AppData\Local\Temp\ccxbhSsV.s 			page 191


 6928 0139 04       		.byte	0x4
 6929 013a 3E010000 		.4byte	0x13e
 6930 013e 08       		.uleb128 0x8
 6931 013f 17010000 		.4byte	0x117
 6932 0143 09       		.uleb128 0x9
 6933 0144 17010000 		.4byte	0x117
 6934 0148 53010000 		.4byte	0x153
 6935 014c 0A       		.uleb128 0xa
 6936 014d 29010000 		.4byte	0x129
 6937 0151 07       		.byte	0x7
 6938 0152 00       		.byte	0
 6939 0153 0B       		.uleb128 0xb
 6940 0154 01       		.byte	0x1
 6941 0155 06       		.byte	0x6
 6942 0156 4D01     		.2byte	0x14d
 6943 0158 36030000 		.4byte	0x336
 6944 015c 0C       		.uleb128 0xc
 6945 015d 05130000 		.4byte	.LASF28
 6946 0161 00       		.sleb128 0
 6947 0162 0C       		.uleb128 0xc
 6948 0163 CC0A0000 		.4byte	.LASF29
 6949 0167 01       		.sleb128 1
 6950 0168 0C       		.uleb128 0xc
 6951 0169 BC100000 		.4byte	.LASF30
 6952 016d 02       		.sleb128 2
 6953 016e 0C       		.uleb128 0xc
 6954 016f C8010000 		.4byte	.LASF31
 6955 0173 03       		.sleb128 3
 6956 0174 0C       		.uleb128 0xc
 6957 0175 3B0A0000 		.4byte	.LASF32
 6958 0179 04       		.sleb128 4
 6959 017a 0C       		.uleb128 0xc
 6960 017b 4B050000 		.4byte	.LASF33
 6961 017f 05       		.sleb128 5
 6962 0180 0C       		.uleb128 0xc
 6963 0181 58150000 		.4byte	.LASF34
 6964 0185 06       		.sleb128 6
 6965 0186 0C       		.uleb128 0xc
 6966 0187 60190000 		.4byte	.LASF35
 6967 018b 20       		.sleb128 32
 6968 018c 0C       		.uleb128 0xc
 6969 018d 8E000000 		.4byte	.LASF36
 6970 0191 21       		.sleb128 33
 6971 0192 0C       		.uleb128 0xc
 6972 0193 D6020000 		.4byte	.LASF37
 6973 0197 22       		.sleb128 34
 6974 0198 0C       		.uleb128 0xc
 6975 0199 BD140000 		.4byte	.LASF38
 6976 019d 23       		.sleb128 35
 6977 019e 0C       		.uleb128 0xc
 6978 019f 5F080000 		.4byte	.LASF39
 6979 01a3 24       		.sleb128 36
 6980 01a4 0C       		.uleb128 0xc
 6981 01a5 3E150000 		.4byte	.LASF40
 6982 01a9 25       		.sleb128 37
 6983 01aa 0C       		.uleb128 0xc
 6984 01ab 7D0D0000 		.4byte	.LASF41
ARM GAS  C:\Users\ramanatg\AppData\Local\Temp\ccxbhSsV.s 			page 192


 6985 01af 26       		.sleb128 38
 6986 01b0 0C       		.uleb128 0xc
 6987 01b1 E6160000 		.4byte	.LASF42
 6988 01b5 27       		.sleb128 39
 6989 01b6 0C       		.uleb128 0xc
 6990 01b7 D5130000 		.4byte	.LASF43
 6991 01bb 28       		.sleb128 40
 6992 01bc 0C       		.uleb128 0xc
 6993 01bd E0100000 		.4byte	.LASF44
 6994 01c1 29       		.sleb128 41
 6995 01c2 0C       		.uleb128 0xc
 6996 01c3 DF030000 		.4byte	.LASF45
 6997 01c7 2A       		.sleb128 42
 6998 01c8 0C       		.uleb128 0xc
 6999 01c9 84190000 		.4byte	.LASF46
 7000 01cd 2B       		.sleb128 43
 7001 01ce 0C       		.uleb128 0xc
 7002 01cf 99140000 		.4byte	.LASF47
 7003 01d3 2C       		.sleb128 44
 7004 01d4 0C       		.uleb128 0xc
 7005 01d5 760C0000 		.4byte	.LASF48
 7006 01d9 2D       		.sleb128 45
 7007 01da 0C       		.uleb128 0xc
 7008 01db 95150000 		.4byte	.LASF49
 7009 01df 2E       		.sleb128 46
 7010 01e0 0C       		.uleb128 0xc
 7011 01e1 57130000 		.4byte	.LASF50
 7012 01e5 2F       		.sleb128 47
 7013 01e6 0C       		.uleb128 0xc
 7014 01e7 CF110000 		.4byte	.LASF51
 7015 01eb 30       		.sleb128 48
 7016 01ec 0C       		.uleb128 0xc
 7017 01ed A20B0000 		.4byte	.LASF52
 7018 01f1 31       		.sleb128 49
 7019 01f2 0C       		.uleb128 0xc
 7020 01f3 36130000 		.4byte	.LASF53
 7021 01f7 32       		.sleb128 50
 7022 01f8 0C       		.uleb128 0xc
 7023 01f9 590F0000 		.4byte	.LASF54
 7024 01fd 33       		.sleb128 51
 7025 01fe 0C       		.uleb128 0xc
 7026 01ff 6C170000 		.4byte	.LASF55
 7027 0203 34       		.sleb128 52
 7028 0204 0C       		.uleb128 0xc
 7029 0205 00010000 		.4byte	.LASF56
 7030 0209 35       		.sleb128 53
 7031 020a 0C       		.uleb128 0xc
 7032 020b 4B060000 		.4byte	.LASF57
 7033 020f 36       		.sleb128 54
 7034 0210 0C       		.uleb128 0xc
 7035 0211 66160000 		.4byte	.LASF58
 7036 0215 37       		.sleb128 55
 7037 0216 0C       		.uleb128 0xc
 7038 0217 540C0000 		.4byte	.LASF59
 7039 021b C000     		.sleb128 64
 7040 021d 0C       		.uleb128 0xc
 7041 021e F0110000 		.4byte	.LASF60
ARM GAS  C:\Users\ramanatg\AppData\Local\Temp\ccxbhSsV.s 			page 193


 7042 0222 C100     		.sleb128 65
 7043 0224 0C       		.uleb128 0xc
 7044 0225 E2000000 		.4byte	.LASF61
 7045 0229 C200     		.sleb128 66
 7046 022b 0C       		.uleb128 0xc
 7047 022c 57010000 		.4byte	.LASF62
 7048 0230 C300     		.sleb128 67
 7049 0232 0C       		.uleb128 0xc
 7050 0233 C5080000 		.4byte	.LASF63
 7051 0237 C400     		.sleb128 68
 7052 0239 0C       		.uleb128 0xc
 7053 023a 80130000 		.4byte	.LASF64
 7054 023e C500     		.sleb128 69
 7055 0240 0C       		.uleb128 0xc
 7056 0241 41180000 		.4byte	.LASF65
 7057 0245 C600     		.sleb128 70
 7058 0247 0C       		.uleb128 0xc
 7059 0248 F8060000 		.4byte	.LASF66
 7060 024c C700     		.sleb128 71
 7061 024e 0C       		.uleb128 0xc
 7062 024f 46070000 		.4byte	.LASF67
 7063 0253 C800     		.sleb128 72
 7064 0255 0C       		.uleb128 0xc
 7065 0256 E4150000 		.4byte	.LASF68
 7066 025a C900     		.sleb128 73
 7067 025c 0C       		.uleb128 0xc
 7068 025d 36090000 		.4byte	.LASF69
 7069 0261 CA00     		.sleb128 74
 7070 0263 0C       		.uleb128 0xc
 7071 0264 42120000 		.4byte	.LASF70
 7072 0268 CB00     		.sleb128 75
 7073 026a 0C       		.uleb128 0xc
 7074 026b E4050000 		.4byte	.LASF71
 7075 026f CC00     		.sleb128 76
 7076 0271 0C       		.uleb128 0xc
 7077 0272 00050000 		.4byte	.LASF72
 7078 0276 CD00     		.sleb128 77
 7079 0278 0C       		.uleb128 0xc
 7080 0279 32020000 		.4byte	.LASF73
 7081 027d CE00     		.sleb128 78
 7082 027f 0C       		.uleb128 0xc
 7083 0280 39170000 		.4byte	.LASF74
 7084 0284 CF00     		.sleb128 79
 7085 0286 0C       		.uleb128 0xc
 7086 0287 8E070000 		.4byte	.LASF75
 7087 028b D000     		.sleb128 80
 7088 028d 0C       		.uleb128 0xc
 7089 028e AD070000 		.4byte	.LASF76
 7090 0292 D100     		.sleb128 81
 7091 0294 0C       		.uleb128 0xc
 7092 0295 85030000 		.4byte	.LASF77
 7093 0299 D200     		.sleb128 82
 7094 029b 0C       		.uleb128 0xc
 7095 029c C10F0000 		.4byte	.LASF78
 7096 02a0 D300     		.sleb128 83
 7097 02a2 0C       		.uleb128 0xc
 7098 02a3 DD180000 		.4byte	.LASF79
ARM GAS  C:\Users\ramanatg\AppData\Local\Temp\ccxbhSsV.s 			page 194


 7099 02a7 D400     		.sleb128 84
 7100 02a9 0C       		.uleb128 0xc
 7101 02aa 90010000 		.4byte	.LASF80
 7102 02ae D500     		.sleb128 85
 7103 02b0 0C       		.uleb128 0xc
 7104 02b1 26000000 		.4byte	.LASF81
 7105 02b5 D600     		.sleb128 86
 7106 02b7 0C       		.uleb128 0xc
 7107 02b8 79050000 		.4byte	.LASF82
 7108 02bc D700     		.sleb128 87
 7109 02be 0C       		.uleb128 0xc
 7110 02bf 0A0F0000 		.4byte	.LASF83
 7111 02c3 D800     		.sleb128 88
 7112 02c5 0C       		.uleb128 0xc
 7113 02c6 150B0000 		.4byte	.LASF84
 7114 02ca F000     		.sleb128 112
 7115 02cc 0C       		.uleb128 0xc
 7116 02cd 54090000 		.4byte	.LASF85
 7117 02d1 F100     		.sleb128 113
 7118 02d3 0C       		.uleb128 0xc
 7119 02d4 71150000 		.4byte	.LASF86
 7120 02d8 F200     		.sleb128 114
 7121 02da 0C       		.uleb128 0xc
 7122 02db 26140000 		.4byte	.LASF87
 7123 02df F300     		.sleb128 115
 7124 02e1 0C       		.uleb128 0xc
 7125 02e2 8A090000 		.4byte	.LASF88
 7126 02e6 F400     		.sleb128 116
 7127 02e8 0C       		.uleb128 0xc
 7128 02e9 B2120000 		.4byte	.LASF89
 7129 02ed F500     		.sleb128 117
 7130 02ef 0C       		.uleb128 0xc
 7131 02f0 B4160000 		.4byte	.LASF90
 7132 02f4 F600     		.sleb128 118
 7133 02f6 0C       		.uleb128 0xc
 7134 02f7 FD0D0000 		.4byte	.LASF91
 7135 02fb F700     		.sleb128 119
 7136 02fd 0C       		.uleb128 0xc
 7137 02fe 1A030000 		.4byte	.LASF92
 7138 0302 F800     		.sleb128 120
 7139 0304 0C       		.uleb128 0xc
 7140 0305 00020000 		.4byte	.LASF93
 7141 0309 F900     		.sleb128 121
 7142 030b 0C       		.uleb128 0xc
 7143 030c A2110000 		.4byte	.LASF94
 7144 0310 FA00     		.sleb128 122
 7145 0312 0C       		.uleb128 0xc
 7146 0313 84170000 		.4byte	.LASF95
 7147 0317 FA01     		.sleb128 250
 7148 0319 0C       		.uleb128 0xc
 7149 031a E1010000 		.4byte	.LASF96
 7150 031e FB01     		.sleb128 251
 7151 0320 0C       		.uleb128 0xc
 7152 0321 B90E0000 		.4byte	.LASF97
 7153 0325 FC01     		.sleb128 252
 7154 0327 0C       		.uleb128 0xc
 7155 0328 FA080000 		.4byte	.LASF98
ARM GAS  C:\Users\ramanatg\AppData\Local\Temp\ccxbhSsV.s 			page 195


 7156 032c FD01     		.sleb128 253
 7157 032e 0C       		.uleb128 0xc
 7158 032f 0B120000 		.4byte	.LASF99
 7159 0333 FF01     		.sleb128 255
 7160 0335 00       		.byte	0
 7161 0336 07       		.uleb128 0x7
 7162 0337 04       		.byte	0x4
 7163 0338 D9000000 		.4byte	0xd9
 7164 033c 0D       		.uleb128 0xd
 7165 033d 01       		.byte	0x1
 7166 033e 07       		.byte	0x7
 7167 033f A5       		.byte	0xa5
 7168 0340 44040000 		.4byte	0x444
 7169 0344 0C       		.uleb128 0xc
 7170 0345 3C040000 		.4byte	.LASF100
 7171 0349 00       		.sleb128 0
 7172 034a 0C       		.uleb128 0xc
 7173 034b EC0E0000 		.4byte	.LASF101
 7174 034f 01       		.sleb128 1
 7175 0350 0C       		.uleb128 0xc
 7176 0351 E20F0000 		.4byte	.LASF102
 7177 0355 02       		.sleb128 2
 7178 0356 0C       		.uleb128 0xc
 7179 0357 360F0000 		.4byte	.LASF103
 7180 035b 03       		.sleb128 3
 7181 035c 0C       		.uleb128 0xc
 7182 035d FD150000 		.4byte	.LASF104
 7183 0361 04       		.sleb128 4
 7184 0362 0C       		.uleb128 0xc
 7185 0363 B7000000 		.4byte	.LASF105
 7186 0367 05       		.sleb128 5
 7187 0368 0C       		.uleb128 0xc
 7188 0369 29190000 		.4byte	.LASF106
 7189 036d 06       		.sleb128 6
 7190 036e 0C       		.uleb128 0xc
 7191 036f 00000000 		.4byte	.LASF107
 7192 0373 07       		.sleb128 7
 7193 0374 0C       		.uleb128 0xc
 7194 0375 550A0000 		.4byte	.LASF108
 7195 0379 08       		.sleb128 8
 7196 037a 0C       		.uleb128 0xc
 7197 037b BB090000 		.4byte	.LASF109
 7198 037f 09       		.sleb128 9
 7199 0380 0C       		.uleb128 0xc
 7200 0381 A2170000 		.4byte	.LASF110
 7201 0385 0A       		.sleb128 10
 7202 0386 0C       		.uleb128 0xc
 7203 0387 B1190000 		.4byte	.LASF111
 7204 038b 0B       		.sleb128 11
 7205 038c 0C       		.uleb128 0xc
 7206 038d 19120000 		.4byte	.LASF112
 7207 0391 0C       		.sleb128 12
 7208 0392 0C       		.uleb128 0xc
 7209 0393 B5060000 		.4byte	.LASF113
 7210 0397 0D       		.sleb128 13
 7211 0398 0C       		.uleb128 0xc
 7212 0399 DA060000 		.4byte	.LASF114
ARM GAS  C:\Users\ramanatg\AppData\Local\Temp\ccxbhSsV.s 			page 196


 7213 039d 0E       		.sleb128 14
 7214 039e 0C       		.uleb128 0xc
 7215 039f 240D0000 		.4byte	.LASF115
 7216 03a3 0F       		.sleb128 15
 7217 03a4 0C       		.uleb128 0xc
 7218 03a5 930E0000 		.4byte	.LASF116
 7219 03a9 10       		.sleb128 16
 7220 03aa 0C       		.uleb128 0xc
 7221 03ab 580D0000 		.4byte	.LASF117
 7222 03af 11       		.sleb128 17
 7223 03b0 0C       		.uleb128 0xc
 7224 03b1 05170000 		.4byte	.LASF118
 7225 03b5 8001     		.sleb128 128
 7226 03b7 0C       		.uleb128 0xc
 7227 03b8 050A0000 		.4byte	.LASF119
 7228 03bc 8001     		.sleb128 128
 7229 03be 0C       		.uleb128 0xc
 7230 03bf 1D010000 		.4byte	.LASF120
 7231 03c3 8001     		.sleb128 128
 7232 03c5 0C       		.uleb128 0xc
 7233 03c6 14060000 		.4byte	.LASF121
 7234 03ca 8001     		.sleb128 128
 7235 03cc 0C       		.uleb128 0xc
 7236 03cd FA020000 		.4byte	.LASF122
 7237 03d1 8001     		.sleb128 128
 7238 03d3 0C       		.uleb128 0xc
 7239 03d4 F4170000 		.4byte	.LASF123
 7240 03d8 8001     		.sleb128 128
 7241 03da 0C       		.uleb128 0xc
 7242 03db A8040000 		.4byte	.LASF124
 7243 03df 8001     		.sleb128 128
 7244 03e1 0C       		.uleb128 0xc
 7245 03e2 97120000 		.4byte	.LASF125
 7246 03e6 8001     		.sleb128 128
 7247 03e8 0C       		.uleb128 0xc
 7248 03e9 1A050000 		.4byte	.LASF126
 7249 03ed 8101     		.sleb128 129
 7250 03ef 0C       		.uleb128 0xc
 7251 03f0 58110000 		.4byte	.LASF127
 7252 03f4 8101     		.sleb128 129
 7253 03f6 0C       		.uleb128 0xc
 7254 03f7 E20D0000 		.4byte	.LASF128
 7255 03fb 8101     		.sleb128 129
 7256 03fd 0C       		.uleb128 0xc
 7257 03fe 84040000 		.4byte	.LASF129
 7258 0402 8101     		.sleb128 129
 7259 0404 0C       		.uleb128 0xc
 7260 0405 B7180000 		.4byte	.LASF130
 7261 0409 8201     		.sleb128 130
 7262 040b 0C       		.uleb128 0xc
 7263 040c 79110000 		.4byte	.LASF131
 7264 0410 A001     		.sleb128 160
 7265 0412 0C       		.uleb128 0xc
 7266 0413 D10B0000 		.4byte	.LASF132
 7267 0417 A001     		.sleb128 160
 7268 0419 0C       		.uleb128 0xc
 7269 041a 530B0000 		.4byte	.LASF133
ARM GAS  C:\Users\ramanatg\AppData\Local\Temp\ccxbhSsV.s 			page 197


 7270 041e A101     		.sleb128 161
 7271 0420 0C       		.uleb128 0xc
 7272 0421 340E0000 		.4byte	.LASF134
 7273 0425 A201     		.sleb128 162
 7274 0427 0C       		.uleb128 0xc
 7275 0428 F7130000 		.4byte	.LASF135
 7276 042c A301     		.sleb128 163
 7277 042e 0C       		.uleb128 0xc
 7278 042f D3120000 		.4byte	.LASF136
 7279 0433 FD01     		.sleb128 253
 7280 0435 0C       		.uleb128 0xc
 7281 0436 58030000 		.4byte	.LASF137
 7282 043a FE01     		.sleb128 254
 7283 043c 0C       		.uleb128 0xc
 7284 043d 28110000 		.4byte	.LASF138
 7285 0441 FF01     		.sleb128 255
 7286 0443 00       		.byte	0
 7287 0444 05       		.uleb128 0x5
 7288 0445 5E000000 		.4byte	.LASF139
 7289 0449 07       		.byte	0x7
 7290 044a 5F01     		.2byte	0x15f
 7291 044c 3C030000 		.4byte	0x33c
 7292 0450 05       		.uleb128 0x5
 7293 0451 EB0A0000 		.4byte	.LASF140
 7294 0455 07       		.byte	0x7
 7295 0456 8901     		.2byte	0x189
 7296 0458 E5000000 		.4byte	0xe5
 7297 045c 0E       		.uleb128 0xe
 7298 045d 02       		.byte	0x2
 7299 045e 07       		.byte	0x7
 7300 045f 9301     		.2byte	0x193
 7301 0461 80040000 		.4byte	0x480
 7302 0465 0F       		.uleb128 0xf
 7303 0466 DC170000 		.4byte	.LASF141
 7304 046a 07       		.byte	0x7
 7305 046b 9A01     		.2byte	0x19a
 7306 046d D9000000 		.4byte	0xd9
 7307 0471 00       		.byte	0
 7308 0472 0F       		.uleb128 0xf
 7309 0473 CB0E0000 		.4byte	.LASF142
 7310 0477 07       		.byte	0x7
 7311 0478 A001     		.2byte	0x1a0
 7312 047a D9000000 		.4byte	0xd9
 7313 047e 01       		.byte	0x1
 7314 047f 00       		.byte	0
 7315 0480 05       		.uleb128 0x5
 7316 0481 7C010000 		.4byte	.LASF143
 7317 0485 07       		.byte	0x7
 7318 0486 A201     		.2byte	0x1a2
 7319 0488 5C040000 		.4byte	0x45c
 7320 048c 0E       		.uleb128 0xe
 7321 048d 08       		.byte	0x8
 7322 048e 07       		.byte	0x7
 7323 048f BE01     		.2byte	0x1be
 7324 0491 BD040000 		.4byte	0x4bd
 7325 0495 10       		.uleb128 0x10
 7326 0496 76616C00 		.ascii	"val\000"
ARM GAS  C:\Users\ramanatg\AppData\Local\Temp\ccxbhSsV.s 			page 198


 7327 049a 07       		.byte	0x7
 7328 049b C101     		.2byte	0x1c1
 7329 049d 36030000 		.4byte	0x336
 7330 04a1 00       		.byte	0
 7331 04a2 10       		.uleb128 0x10
 7332 04a3 6C656E00 		.ascii	"len\000"
 7333 04a7 07       		.byte	0x7
 7334 04a8 C401     		.2byte	0x1c4
 7335 04aa E5000000 		.4byte	0xe5
 7336 04ae 04       		.byte	0x4
 7337 04af 0F       		.uleb128 0xf
 7338 04b0 B3130000 		.4byte	.LASF144
 7339 04b4 07       		.byte	0x7
 7340 04b5 CB01     		.2byte	0x1cb
 7341 04b7 E5000000 		.4byte	0xe5
 7342 04bb 06       		.byte	0x6
 7343 04bc 00       		.byte	0
 7344 04bd 05       		.uleb128 0x5
 7345 04be B90A0000 		.4byte	.LASF145
 7346 04c2 07       		.byte	0x7
 7347 04c3 CD01     		.2byte	0x1cd
 7348 04c5 8C040000 		.4byte	0x48c
 7349 04c9 0E       		.uleb128 0xe
 7350 04ca 0C       		.byte	0xc
 7351 04cb 07       		.byte	0x7
 7352 04cc D001     		.2byte	0x1d0
 7353 04ce ED040000 		.4byte	0x4ed
 7354 04d2 0F       		.uleb128 0xf
 7355 04d3 6D070000 		.4byte	.LASF146
 7356 04d7 07       		.byte	0x7
 7357 04d8 D301     		.2byte	0x1d3
 7358 04da BD040000 		.4byte	0x4bd
 7359 04de 00       		.byte	0
 7360 04df 0F       		.uleb128 0xf
 7361 04e0 12090000 		.4byte	.LASF147
 7362 04e4 07       		.byte	0x7
 7363 04e5 D601     		.2byte	0x1d6
 7364 04e7 50040000 		.4byte	0x450
 7365 04eb 08       		.byte	0x8
 7366 04ec 00       		.byte	0
 7367 04ed 05       		.uleb128 0x5
 7368 04ee F8140000 		.4byte	.LASF148
 7369 04f2 07       		.byte	0x7
 7370 04f3 D801     		.2byte	0x1d8
 7371 04f5 C9040000 		.4byte	0x4c9
 7372 04f9 11       		.uleb128 0x11
 7373 04fa 08       		.byte	0x8
 7374 04fb 08       		.byte	0x8
 7375 04fc C8       		.byte	0xc8
 7376 04fd 1A050000 		.4byte	0x51a
 7377 0501 12       		.uleb128 0x12
 7378 0502 460B0000 		.4byte	.LASF149
 7379 0506 08       		.byte	0x8
 7380 0507 CB       		.byte	0xcb
 7381 0508 E5000000 		.4byte	0xe5
 7382 050c 00       		.byte	0
 7383 050d 12       		.uleb128 0x12
ARM GAS  C:\Users\ramanatg\AppData\Local\Temp\ccxbhSsV.s 			page 199


 7384 050e 9B020000 		.4byte	.LASF150
 7385 0512 08       		.byte	0x8
 7386 0513 D0       		.byte	0xd0
 7387 0514 30010000 		.4byte	0x130
 7388 0518 04       		.byte	0x4
 7389 0519 00       		.byte	0
 7390 051a 02       		.uleb128 0x2
 7391 051b 79120000 		.4byte	.LASF151
 7392 051f 08       		.byte	0x8
 7393 0520 D2       		.byte	0xd2
 7394 0521 F9040000 		.4byte	0x4f9
 7395 0525 07       		.uleb128 0x7
 7396 0526 04       		.byte	0x4
 7397 0527 2B050000 		.4byte	0x52b
 7398 052b 13       		.uleb128 0x13
 7399 052c 0D       		.uleb128 0xd
 7400 052d 01       		.byte	0x1
 7401 052e 09       		.byte	0x9
 7402 052f 7F       		.byte	0x7f
 7403 0530 B9050000 		.4byte	0x5b9
 7404 0534 0C       		.uleb128 0xc
 7405 0535 E70C0000 		.4byte	.LASF152
 7406 0539 00       		.sleb128 0
 7407 053a 0C       		.uleb128 0xc
 7408 053b D10E0000 		.4byte	.LASF153
 7409 053f 01       		.sleb128 1
 7410 0540 0C       		.uleb128 0xc
 7411 0541 87140000 		.4byte	.LASF154
 7412 0545 02       		.sleb128 2
 7413 0546 0C       		.uleb128 0xc
 7414 0547 1C0E0000 		.4byte	.LASF155
 7415 054b 03       		.sleb128 3
 7416 054c 0C       		.uleb128 0xc
 7417 054d 8B180000 		.4byte	.LASF156
 7418 0551 04       		.sleb128 4
 7419 0552 0C       		.uleb128 0xc
 7420 0553 7B080000 		.4byte	.LASF157
 7421 0557 05       		.sleb128 5
 7422 0558 0C       		.uleb128 0xc
 7423 0559 0A110000 		.4byte	.LASF158
 7424 055d 06       		.sleb128 6
 7425 055e 0C       		.uleb128 0xc
 7426 055f 3A160000 		.4byte	.LASF159
 7427 0563 07       		.sleb128 7
 7428 0564 0C       		.uleb128 0xc
 7429 0565 EF040000 		.4byte	.LASF160
 7430 0569 08       		.sleb128 8
 7431 056a 0C       		.uleb128 0xc
 7432 056b AE050000 		.4byte	.LASF161
 7433 056f 09       		.sleb128 9
 7434 0570 0C       		.uleb128 0xc
 7435 0571 920B0000 		.4byte	.LASF162
 7436 0575 0A       		.sleb128 10
 7437 0576 0C       		.uleb128 0xc
 7438 0577 5A020000 		.4byte	.LASF163
 7439 057b 0B       		.sleb128 11
 7440 057c 0C       		.uleb128 0xc
ARM GAS  C:\Users\ramanatg\AppData\Local\Temp\ccxbhSsV.s 			page 200


 7441 057d 4E190000 		.4byte	.LASF164
 7442 0581 0C       		.sleb128 12
 7443 0582 0C       		.uleb128 0xc
 7444 0583 78020000 		.4byte	.LASF165
 7445 0587 0D       		.sleb128 13
 7446 0588 0C       		.uleb128 0xc
 7447 0589 D10D0000 		.4byte	.LASF166
 7448 058d 0E       		.sleb128 14
 7449 058e 0C       		.uleb128 0xc
 7450 058f 070D0000 		.4byte	.LASF167
 7451 0593 0F       		.sleb128 15
 7452 0594 0C       		.uleb128 0xc
 7453 0595 58170000 		.4byte	.LASF168
 7454 0599 10       		.sleb128 16
 7455 059a 0C       		.uleb128 0xc
 7456 059b 6C060000 		.4byte	.LASF169
 7457 059f 11       		.sleb128 17
 7458 05a0 0C       		.uleb128 0xc
 7459 05a1 EA090000 		.4byte	.LASF170
 7460 05a5 12       		.sleb128 18
 7461 05a6 0C       		.uleb128 0xc
 7462 05a7 60040000 		.4byte	.LASF171
 7463 05ab 13       		.sleb128 19
 7464 05ac 0C       		.uleb128 0xc
 7465 05ad AF080000 		.4byte	.LASF172
 7466 05b1 14       		.sleb128 20
 7467 05b2 0C       		.uleb128 0xc
 7468 05b3 16070000 		.4byte	.LASF173
 7469 05b7 15       		.sleb128 21
 7470 05b8 00       		.byte	0
 7471 05b9 02       		.uleb128 0x2
 7472 05ba B0090000 		.4byte	.LASF174
 7473 05be 09       		.byte	0x9
 7474 05bf 9D       		.byte	0x9d
 7475 05c0 2C050000 		.4byte	0x52c
 7476 05c4 11       		.uleb128 0x11
 7477 05c5 01       		.byte	0x1
 7478 05c6 09       		.byte	0x9
 7479 05c7 A3       		.byte	0xa3
 7480 05c8 09060000 		.4byte	0x609
 7481 05cc 14       		.uleb128 0x14
 7482 05cd E3140000 		.4byte	.LASF175
 7483 05d1 09       		.byte	0x9
 7484 05d2 A5       		.byte	0xa5
 7485 05d3 AD000000 		.4byte	0xad
 7486 05d7 01       		.byte	0x1
 7487 05d8 01       		.byte	0x1
 7488 05d9 07       		.byte	0x7
 7489 05da 00       		.byte	0
 7490 05db 14       		.uleb128 0x14
 7491 05dc 4B030000 		.4byte	.LASF176
 7492 05e0 09       		.byte	0x9
 7493 05e1 A6       		.byte	0xa6
 7494 05e2 AD000000 		.4byte	0xad
 7495 05e6 01       		.byte	0x1
 7496 05e7 01       		.byte	0x1
 7497 05e8 06       		.byte	0x6
ARM GAS  C:\Users\ramanatg\AppData\Local\Temp\ccxbhSsV.s 			page 201


 7498 05e9 00       		.byte	0
 7499 05ea 14       		.uleb128 0x14
 7500 05eb D3190000 		.4byte	.LASF177
 7501 05ef 09       		.byte	0x9
 7502 05f0 A7       		.byte	0xa7
 7503 05f1 AD000000 		.4byte	0xad
 7504 05f5 01       		.byte	0x1
 7505 05f6 01       		.byte	0x1
 7506 05f7 05       		.byte	0x5
 7507 05f8 00       		.byte	0
 7508 05f9 14       		.uleb128 0x14
 7509 05fa 82180000 		.4byte	.LASF178
 7510 05fe 09       		.byte	0x9
 7511 05ff A8       		.byte	0xa8
 7512 0600 AD000000 		.4byte	0xad
 7513 0604 01       		.byte	0x1
 7514 0605 05       		.byte	0x5
 7515 0606 00       		.byte	0
 7516 0607 00       		.byte	0
 7517 0608 00       		.byte	0
 7518 0609 02       		.uleb128 0x2
 7519 060a 8D080000 		.4byte	.LASF179
 7520 060e 09       		.byte	0x9
 7521 060f A9       		.byte	0xa9
 7522 0610 C4050000 		.4byte	0x5c4
 7523 0614 11       		.uleb128 0x11
 7524 0615 80       		.byte	0x80
 7525 0616 09       		.byte	0x9
 7526 0617 AB       		.byte	0xab
 7527 0618 55070000 		.4byte	0x755
 7528 061c 12       		.uleb128 0x12
 7529 061d 23020000 		.4byte	.LASF180
 7530 0621 09       		.byte	0x9
 7531 0622 AF       		.byte	0xaf
 7532 0623 C3000000 		.4byte	0xc3
 7533 0627 00       		.byte	0
 7534 0628 12       		.uleb128 0x12
 7535 0629 27090000 		.4byte	.LASF181
 7536 062d 09       		.byte	0x9
 7537 062e B1       		.byte	0xb1
 7538 062f 55070000 		.4byte	0x755
 7539 0633 04       		.byte	0x4
 7540 0634 12       		.uleb128 0x12
 7541 0635 2E160000 		.4byte	.LASF182
 7542 0639 09       		.byte	0x9
 7543 063a B2       		.byte	0xb2
 7544 063b B8000000 		.4byte	0xb8
 7545 063f 14       		.byte	0x14
 7546 0640 12       		.uleb128 0x12
 7547 0641 BA0D0000 		.4byte	.LASF183
 7548 0645 09       		.byte	0x9
 7549 0646 B3       		.byte	0xb3
 7550 0647 B8000000 		.4byte	0xb8
 7551 064b 16       		.byte	0x16
 7552 064c 12       		.uleb128 0x12
 7553 064d 62180000 		.4byte	.LASF184
 7554 0651 09       		.byte	0x9
ARM GAS  C:\Users\ramanatg\AppData\Local\Temp\ccxbhSsV.s 			page 202


 7555 0652 B4       		.byte	0xb4
 7556 0653 B8000000 		.4byte	0xb8
 7557 0657 18       		.byte	0x18
 7558 0658 12       		.uleb128 0x12
 7559 0659 2E0E0000 		.4byte	.LASF185
 7560 065d 09       		.byte	0x9
 7561 065e B5       		.byte	0xb5
 7562 065f B8000000 		.4byte	0xb8
 7563 0663 1A       		.byte	0x1a
 7564 0664 12       		.uleb128 0x12
 7565 0665 E0190000 		.4byte	.LASF186
 7566 0669 09       		.byte	0x9
 7567 066a B7       		.byte	0xb7
 7568 066b A2000000 		.4byte	0xa2
 7569 066f 1C       		.byte	0x1c
 7570 0670 12       		.uleb128 0x12
 7571 0671 3B0C0000 		.4byte	.LASF187
 7572 0675 09       		.byte	0x9
 7573 0676 B8       		.byte	0xb8
 7574 0677 A2000000 		.4byte	0xa2
 7575 067b 1D       		.byte	0x1d
 7576 067c 12       		.uleb128 0x12
 7577 067d E3090000 		.4byte	.LASF188
 7578 0681 09       		.byte	0x9
 7579 0682 BA       		.byte	0xba
 7580 0683 A2000000 		.4byte	0xa2
 7581 0687 1E       		.byte	0x1e
 7582 0688 12       		.uleb128 0x12
 7583 0689 AA080000 		.4byte	.LASF189
 7584 068d 09       		.byte	0x9
 7585 068e BB       		.byte	0xbb
 7586 068f A2000000 		.4byte	0xa2
 7587 0693 1F       		.byte	0x1f
 7588 0694 15       		.uleb128 0x15
 7589 0695 6E696400 		.ascii	"nid\000"
 7590 0699 09       		.byte	0x9
 7591 069a BD       		.byte	0xbd
 7592 069b 65070000 		.4byte	0x765
 7593 069f 20       		.byte	0x20
 7594 06a0 15       		.uleb128 0x15
 7595 06a1 62696400 		.ascii	"bid\000"
 7596 06a5 09       		.byte	0x9
 7597 06a6 BE       		.byte	0xbe
 7598 06a7 75070000 		.4byte	0x775
 7599 06ab 2A       		.byte	0x2a
 7600 06ac 12       		.uleb128 0x12
 7601 06ad 26150000 		.4byte	.LASF190
 7602 06b1 09       		.byte	0x9
 7603 06b2 C0       		.byte	0xc0
 7604 06b3 85070000 		.4byte	0x785
 7605 06b7 30       		.byte	0x30
 7606 06b8 12       		.uleb128 0x12
 7607 06b9 B6020000 		.4byte	.LASF191
 7608 06bd 09       		.byte	0x9
 7609 06be C2       		.byte	0xc2
 7610 06bf 09060000 		.4byte	0x609
 7611 06c3 34       		.byte	0x34
ARM GAS  C:\Users\ramanatg\AppData\Local\Temp\ccxbhSsV.s 			page 203


 7612 06c4 12       		.uleb128 0x12
 7613 06c5 1D090000 		.4byte	.LASF192
 7614 06c9 09       		.byte	0x9
 7615 06ca C4       		.byte	0xc4
 7616 06cb AD000000 		.4byte	0xad
 7617 06cf 35       		.byte	0x35
 7618 06d0 12       		.uleb128 0x12
 7619 06d1 020C0000 		.4byte	.LASF193
 7620 06d5 09       		.byte	0x9
 7621 06d6 C5       		.byte	0xc5
 7622 06d7 55070000 		.4byte	0x755
 7623 06db 36       		.byte	0x36
 7624 06dc 12       		.uleb128 0x12
 7625 06dd 54080000 		.4byte	.LASF194
 7626 06e1 09       		.byte	0x9
 7627 06e2 C7       		.byte	0xc7
 7628 06e3 AD000000 		.4byte	0xad
 7629 06e7 46       		.byte	0x46
 7630 06e8 12       		.uleb128 0x12
 7631 06e9 C70C0000 		.4byte	.LASF195
 7632 06ed 09       		.byte	0x9
 7633 06ee C8       		.byte	0xc8
 7634 06ef 95070000 		.4byte	0x795
 7635 06f3 47       		.byte	0x47
 7636 06f4 12       		.uleb128 0x12
 7637 06f5 E3080000 		.4byte	.LASF196
 7638 06f9 09       		.byte	0x9
 7639 06fa C9       		.byte	0xc9
 7640 06fb AD000000 		.4byte	0xad
 7641 06ff 59       		.byte	0x59
 7642 0700 12       		.uleb128 0x12
 7643 0701 8A0F0000 		.4byte	.LASF197
 7644 0705 09       		.byte	0x9
 7645 0706 CB       		.byte	0xcb
 7646 0707 85070000 		.4byte	0x785
 7647 070b 5A       		.byte	0x5a
 7648 070c 12       		.uleb128 0x12
 7649 070d 4D160000 		.4byte	.LASF198
 7650 0711 09       		.byte	0x9
 7651 0712 CC       		.byte	0xcc
 7652 0713 AD000000 		.4byte	0xad
 7653 0717 5E       		.byte	0x5e
 7654 0718 12       		.uleb128 0x12
 7655 0719 B70F0000 		.4byte	.LASF199
 7656 071d 09       		.byte	0x9
 7657 071e CE       		.byte	0xce
 7658 071f B8000000 		.4byte	0xb8
 7659 0723 60       		.byte	0x60
 7660 0724 12       		.uleb128 0x12
 7661 0725 82180000 		.4byte	.LASF178
 7662 0729 09       		.byte	0x9
 7663 072a D4       		.byte	0xd4
 7664 072b A5070000 		.4byte	0x7a5
 7665 072f 64       		.byte	0x64
 7666 0730 12       		.uleb128 0x12
 7667 0731 37070000 		.4byte	.LASF200
 7668 0735 09       		.byte	0x9
ARM GAS  C:\Users\ramanatg\AppData\Local\Temp\ccxbhSsV.s 			page 204


 7669 0736 D6       		.byte	0xd6
 7670 0737 CE000000 		.4byte	0xce
 7671 073b 74       		.byte	0x74
 7672 073c 12       		.uleb128 0x12
 7673 073d A50D0000 		.4byte	.LASF201
 7674 0741 09       		.byte	0x9
 7675 0742 D7       		.byte	0xd7
 7676 0743 CE000000 		.4byte	0xce
 7677 0747 78       		.byte	0x78
 7678 0748 12       		.uleb128 0x12
 7679 0749 4B0D0000 		.4byte	.LASF202
 7680 074d 09       		.byte	0x9
 7681 074e D9       		.byte	0xd9
 7682 074f C3000000 		.4byte	0xc3
 7683 0753 7C       		.byte	0x7c
 7684 0754 00       		.byte	0
 7685 0755 09       		.uleb128 0x9
 7686 0756 AD000000 		.4byte	0xad
 7687 075a 65070000 		.4byte	0x765
 7688 075e 0A       		.uleb128 0xa
 7689 075f 29010000 		.4byte	0x129
 7690 0763 0F       		.byte	0xf
 7691 0764 00       		.byte	0
 7692 0765 09       		.uleb128 0x9
 7693 0766 AD000000 		.4byte	0xad
 7694 076a 75070000 		.4byte	0x775
 7695 076e 0A       		.uleb128 0xa
 7696 076f 29010000 		.4byte	0x129
 7697 0773 09       		.byte	0x9
 7698 0774 00       		.byte	0
 7699 0775 09       		.uleb128 0x9
 7700 0776 AD000000 		.4byte	0xad
 7701 077a 85070000 		.4byte	0x785
 7702 077e 0A       		.uleb128 0xa
 7703 077f 29010000 		.4byte	0x129
 7704 0783 05       		.byte	0x5
 7705 0784 00       		.byte	0
 7706 0785 09       		.uleb128 0x9
 7707 0786 A2000000 		.4byte	0xa2
 7708 078a 95070000 		.4byte	0x795
 7709 078e 0A       		.uleb128 0xa
 7710 078f 29010000 		.4byte	0x129
 7711 0793 03       		.byte	0x3
 7712 0794 00       		.byte	0
 7713 0795 09       		.uleb128 0x9
 7714 0796 AD000000 		.4byte	0xad
 7715 079a A5070000 		.4byte	0x7a5
 7716 079e 0A       		.uleb128 0xa
 7717 079f 29010000 		.4byte	0x129
 7718 07a3 11       		.byte	0x11
 7719 07a4 00       		.byte	0
 7720 07a5 09       		.uleb128 0x9
 7721 07a6 C3000000 		.4byte	0xc3
 7722 07aa B5070000 		.4byte	0x7b5
 7723 07ae 0A       		.uleb128 0xa
 7724 07af 29010000 		.4byte	0x129
 7725 07b3 03       		.byte	0x3
ARM GAS  C:\Users\ramanatg\AppData\Local\Temp\ccxbhSsV.s 			page 205


 7726 07b4 00       		.byte	0
 7727 07b5 02       		.uleb128 0x2
 7728 07b6 1B110000 		.4byte	.LASF203
 7729 07ba 09       		.byte	0x9
 7730 07bb DA       		.byte	0xda
 7731 07bc 14060000 		.4byte	0x614
 7732 07c0 16       		.uleb128 0x16
 7733 07c1 AB180000 		.4byte	.LASF205
 7734 07c5 01       		.byte	0x1
 7735 07c6 260A     		.2byte	0xa26
 7736 07c8 AD000000 		.4byte	0xad
 7737 07cc 01       		.byte	0x1
 7738 07cd DE070000 		.4byte	0x7de
 7739 07d1 17       		.uleb128 0x17
 7740 07d2 E60A0000 		.4byte	.LASF204
 7741 07d6 01       		.byte	0x1
 7742 07d7 260A     		.2byte	0xa26
 7743 07d9 AD000000 		.4byte	0xad
 7744 07dd 00       		.byte	0
 7745 07de 18       		.uleb128 0x18
 7746 07df C5170000 		.4byte	.LASF300
 7747 07e3 01       		.byte	0x1
 7748 07e4 8B       		.byte	0x8b
 7749 07e5 C3000000 		.4byte	0xc3
 7750 07e9 01       		.byte	0x1
 7751 07ea 05080000 		.4byte	0x805
 7752 07ee 19       		.uleb128 0x19
 7753 07ef 73747200 		.ascii	"str\000"
 7754 07f3 01       		.byte	0x1
 7755 07f4 8B       		.byte	0x8b
 7756 07f5 05080000 		.4byte	0x805
 7757 07f9 1A       		.uleb128 0x1a
 7758 07fa 73050000 		.4byte	.LASF209
 7759 07fe 01       		.byte	0x1
 7760 07ff 8D       		.byte	0x8d
 7761 0800 AD000000 		.4byte	0xad
 7762 0804 00       		.byte	0
 7763 0805 07       		.uleb128 0x7
 7764 0806 04       		.byte	0x4
 7765 0807 AD000000 		.4byte	0xad
 7766 080b 16       		.uleb128 0x16
 7767 080c 0D100000 		.4byte	.LASF206
 7768 0810 01       		.byte	0x1
 7769 0811 D309     		.2byte	0x9d3
 7770 0813 B8000000 		.4byte	0xb8
 7771 0817 01       		.byte	0x1
 7772 0818 61080000 		.4byte	0x861
 7773 081c 17       		.uleb128 0x17
 7774 081d A3190000 		.4byte	.LASF207
 7775 0821 01       		.byte	0x1
 7776 0822 D309     		.2byte	0x9d3
 7777 0824 05080000 		.4byte	0x805
 7778 0828 1B       		.uleb128 0x1b
 7779 0829 73726300 		.ascii	"src\000"
 7780 082d 01       		.byte	0x1
 7781 082e D309     		.2byte	0x9d3
 7782 0830 61080000 		.4byte	0x861
ARM GAS  C:\Users\ramanatg\AppData\Local\Temp\ccxbhSsV.s 			page 206


 7783 0834 17       		.uleb128 0x17
 7784 0835 08040000 		.4byte	.LASF208
 7785 0839 01       		.byte	0x1
 7786 083a D309     		.2byte	0x9d3
 7787 083c AD000000 		.4byte	0xad
 7788 0840 1C       		.uleb128 0x1c
 7789 0841 7000     		.ascii	"p\000"
 7790 0843 01       		.byte	0x1
 7791 0844 D509     		.2byte	0x9d5
 7792 0846 61080000 		.4byte	0x861
 7793 084a 1C       		.uleb128 0x1c
 7794 084b 6900     		.ascii	"i\000"
 7795 084d 01       		.byte	0x1
 7796 084e D609     		.2byte	0x9d6
 7797 0850 CE000000 		.4byte	0xce
 7798 0854 1D       		.uleb128 0x1d
 7799 0855 3B0B0000 		.4byte	.LASF210
 7800 0859 01       		.byte	0x1
 7801 085a D709     		.2byte	0x9d7
 7802 085c B8000000 		.4byte	0xb8
 7803 0860 00       		.byte	0
 7804 0861 07       		.uleb128 0x7
 7805 0862 04       		.byte	0x4
 7806 0863 67080000 		.4byte	0x867
 7807 0867 08       		.uleb128 0x8
 7808 0868 AD000000 		.4byte	0xad
 7809 086c 1E       		.uleb128 0x1e
 7810 086d C0070000 		.4byte	0x7c0
 7811 0871 00000000 		.4byte	.LFB64
 7812 0875 2A000000 		.4byte	.LFE64-.LFB64
 7813 0879 01       		.uleb128 0x1
 7814 087a 9C       		.byte	0x9c
 7815 087b 98080000 		.4byte	0x898
 7816 087f 1F       		.uleb128 0x1f
 7817 0880 D1070000 		.4byte	0x7d1
 7818 0884 00000000 		.4byte	.LLST0
 7819 0888 20       		.uleb128 0x20
 7820 0889 00000000 		.4byte	.Ldebug_ranges0+0
 7821 088d 1F       		.uleb128 0x1f
 7822 088e D1070000 		.4byte	0x7d1
 7823 0892 21000000 		.4byte	.LLST1
 7824 0896 00       		.byte	0
 7825 0897 00       		.byte	0
 7826 0898 1E       		.uleb128 0x1e
 7827 0899 DE070000 		.4byte	0x7de
 7828 089d 00000000 		.4byte	.LFB37
 7829 08a1 7C000000 		.4byte	.LFE37-.LFB37
 7830 08a5 01       		.uleb128 0x1
 7831 08a6 9C       		.byte	0x9c
 7832 08a7 41090000 		.4byte	0x941
 7833 08ab 1F       		.uleb128 0x1f
 7834 08ac EE070000 		.4byte	0x7ee
 7835 08b0 4D000000 		.4byte	.LLST2
 7836 08b4 21       		.uleb128 0x21
 7837 08b5 F9070000 		.4byte	0x7f9
 7838 08b9 92000000 		.4byte	.LLST3
 7839 08bd 22       		.uleb128 0x22
ARM GAS  C:\Users\ramanatg\AppData\Local\Temp\ccxbhSsV.s 			page 207


 7840 08be 4E000000 		.4byte	.LBB10
 7841 08c2 10000000 		.4byte	.LBE10-.LBB10
 7842 08c6 F5080000 		.4byte	0x8f5
 7843 08ca 1F       		.uleb128 0x1f
 7844 08cb EE070000 		.4byte	0x7ee
 7845 08cf D3000000 		.4byte	.LLST4
 7846 08d3 23       		.uleb128 0x23
 7847 08d4 4E000000 		.4byte	.LBB11
 7848 08d8 10000000 		.4byte	.LBE11-.LBB11
 7849 08dc 24       		.uleb128 0x24
 7850 08dd F9070000 		.4byte	0x7f9
 7851 08e1 25       		.uleb128 0x25
 7852 08e2 52000000 		.4byte	.LVL15
 7853 08e6 5B370000 		.4byte	0x375b
 7854 08ea 25       		.uleb128 0x25
 7855 08eb 5C000000 		.4byte	.LVL16
 7856 08ef 67370000 		.4byte	0x3767
 7857 08f3 00       		.byte	0
 7858 08f4 00       		.byte	0
 7859 08f5 25       		.uleb128 0x25
 7860 08f6 08000000 		.4byte	.LVL7
 7861 08fa 78370000 		.4byte	0x3778
 7862 08fe 26       		.uleb128 0x26
 7863 08ff 12000000 		.4byte	.LVL8
 7864 0903 84370000 		.4byte	0x3784
 7865 0907 12090000 		.4byte	0x912
 7866 090b 27       		.uleb128 0x27
 7867 090c 01       		.uleb128 0x1
 7868 090d 50       		.byte	0x50
 7869 090e 02       		.uleb128 0x2
 7870 090f 74       		.byte	0x74
 7871 0910 00       		.sleb128 0
 7872 0911 00       		.byte	0
 7873 0912 25       		.uleb128 0x25
 7874 0913 24000000 		.4byte	.LVL10
 7875 0917 99370000 		.4byte	0x3799
 7876 091b 25       		.uleb128 0x25
 7877 091c 3E000000 		.4byte	.LVL13
 7878 0920 78370000 		.4byte	0x3778
 7879 0924 25       		.uleb128 0x25
 7880 0925 4E000000 		.4byte	.LVL14
 7881 0929 A5370000 		.4byte	0x37a5
 7882 092d 28       		.uleb128 0x28
 7883 092e 6C000000 		.4byte	.LVL20
 7884 0932 A5370000 		.4byte	0x37a5
 7885 0936 27       		.uleb128 0x27
 7886 0937 01       		.uleb128 0x1
 7887 0938 50       		.byte	0x50
 7888 0939 05       		.uleb128 0x5
 7889 093a 03       		.byte	0x3
 7890 093b 00000000 		.4byte	.LC44
 7891 093f 00       		.byte	0
 7892 0940 00       		.byte	0
 7893 0941 29       		.uleb128 0x29
 7894 0942 59160000 		.4byte	.LASF266
 7895 0946 01       		.byte	0x1
 7896 0947 C7       		.byte	0xc7
ARM GAS  C:\Users\ramanatg\AppData\Local\Temp\ccxbhSsV.s 			page 208


 7897 0948 C3000000 		.4byte	0xc3
 7898 094c 00000000 		.4byte	.LFB38
 7899 0950 34000000 		.4byte	.LFE38-.LFB38
 7900 0954 01       		.uleb128 0x1
 7901 0955 9C       		.byte	0x9c
 7902 0956 A5090000 		.4byte	0x9a5
 7903 095a 2A       		.uleb128 0x2a
 7904 095b 75010000 		.4byte	.LASF321
 7905 095f 01       		.byte	0x1
 7906 0960 C7       		.byte	0xc7
 7907 0961 05080000 		.4byte	0x805
 7908 0965 E9000000 		.4byte	.LLST5
 7909 0969 25       		.uleb128 0x25
 7910 096a 08000000 		.4byte	.LVL22
 7911 096e C2370000 		.4byte	0x37c2
 7912 0972 26       		.uleb128 0x26
 7913 0973 0E000000 		.4byte	.LVL23
 7914 0977 A5370000 		.4byte	0x37a5
 7915 097b 89090000 		.4byte	0x989
 7916 097f 27       		.uleb128 0x27
 7917 0980 01       		.uleb128 0x1
 7918 0981 50       		.byte	0x50
 7919 0982 05       		.uleb128 0x5
 7920 0983 03       		.byte	0x3
 7921 0984 28000000 		.4byte	.LC47
 7922 0988 00       		.byte	0
 7923 0989 28       		.uleb128 0x28
 7924 098a 20000000 		.4byte	.LVL24
 7925 098e C9370000 		.4byte	0x37c9
 7926 0992 27       		.uleb128 0x27
 7927 0993 01       		.uleb128 0x1
 7928 0994 52       		.byte	0x52
 7929 0995 02       		.uleb128 0x2
 7930 0996 08       		.byte	0x8
 7931 0997 36       		.byte	0x36
 7932 0998 27       		.uleb128 0x27
 7933 0999 01       		.uleb128 0x1
 7934 099a 51       		.byte	0x51
 7935 099b 01       		.uleb128 0x1
 7936 099c 30       		.byte	0x30
 7937 099d 27       		.uleb128 0x27
 7938 099e 01       		.uleb128 0x1
 7939 099f 50       		.byte	0x50
 7940 09a0 02       		.uleb128 0x2
 7941 09a1 74       		.byte	0x74
 7942 09a2 00       		.sleb128 0
 7943 09a3 00       		.byte	0
 7944 09a4 00       		.byte	0
 7945 09a5 16       		.uleb128 0x16
 7946 09a6 9D180000 		.4byte	.LASF211
 7947 09aa 01       		.byte	0x1
 7948 09ab F702     		.2byte	0x2f7
 7949 09ad B8000000 		.4byte	0xb8
 7950 09b1 01       		.byte	0x1
 7951 09b2 5F0A0000 		.4byte	0xa5f
 7952 09b6 1D       		.uleb128 0x1d
 7953 09b7 89070000 		.4byte	.LASF212
ARM GAS  C:\Users\ramanatg\AppData\Local\Temp\ccxbhSsV.s 			page 209


 7954 09bb 01       		.byte	0x1
 7955 09bc F902     		.2byte	0x2f9
 7956 09be 6F0A0000 		.4byte	0xa6f
 7957 09c2 1D       		.uleb128 0x1d
 7958 09c3 31040000 		.4byte	.LASF213
 7959 09c7 01       		.byte	0x1
 7960 09c8 FB02     		.2byte	0x2fb
 7961 09ca 740A0000 		.4byte	0xa74
 7962 09ce 1D       		.uleb128 0x1d
 7963 09cf DC0C0000 		.4byte	.LASF214
 7964 09d3 01       		.byte	0x1
 7965 09d4 FC02     		.2byte	0x2fc
 7966 09d6 840A0000 		.4byte	0xa84
 7967 09da 1C       		.uleb128 0x1c
 7968 09db 6900     		.ascii	"i\000"
 7969 09dd 01       		.byte	0x1
 7970 09de FE02     		.2byte	0x2fe
 7971 09e0 94000000 		.4byte	0x94
 7972 09e4 1D       		.uleb128 0x1d
 7973 09e5 A6030000 		.4byte	.LASF215
 7974 09e9 01       		.byte	0x1
 7975 09ea FF02     		.2byte	0x2ff
 7976 09ec AD000000 		.4byte	0xad
 7977 09f0 2B       		.uleb128 0x2b
 7978 09f1 500A0000 		.4byte	0xa50
 7979 09f5 1D       		.uleb128 0x1d
 7980 09f6 17150000 		.4byte	.LASF216
 7981 09fa 01       		.byte	0x1
 7982 09fb 0903     		.2byte	0x309
 7983 09fd AD000000 		.4byte	0xad
 7984 0a01 1D       		.uleb128 0x1d
 7985 0a02 470C0000 		.4byte	.LASF217
 7986 0a06 01       		.byte	0x1
 7987 0a07 0A03     		.2byte	0x30a
 7988 0a09 95070000 		.4byte	0x795
 7989 0a0d 1D       		.uleb128 0x1d
 7990 0a0e A7130000 		.4byte	.LASF218
 7991 0a12 01       		.byte	0x1
 7992 0a13 0B03     		.2byte	0x30b
 7993 0a15 05080000 		.4byte	0x805
 7994 0a19 1C       		.uleb128 0x1c
 7995 0a1a 7000     		.ascii	"p\000"
 7996 0a1c 01       		.byte	0x1
 7997 0a1d 0C03     		.2byte	0x30c
 7998 0a1f 05080000 		.4byte	0x805
 7999 0a23 1D       		.uleb128 0x1d
 8000 0a24 74000000 		.4byte	.LASF219
 8001 0a28 01       		.byte	0x1
 8002 0a29 A603     		.2byte	0x3a6
 8003 0a2b ED040000 		.4byte	0x4ed
 8004 0a2f 2B       		.uleb128 0x2b
 8005 0a30 410A0000 		.4byte	0xa41
 8006 0a34 1D       		.uleb128 0x1d
 8007 0a35 3B0B0000 		.4byte	.LASF210
 8008 0a39 01       		.byte	0x1
 8009 0a3a 1903     		.2byte	0x319
 8010 0a3c B8000000 		.4byte	0xb8
ARM GAS  C:\Users\ramanatg\AppData\Local\Temp\ccxbhSsV.s 			page 210


 8011 0a40 00       		.byte	0
 8012 0a41 2C       		.uleb128 0x2c
 8013 0a42 1C       		.uleb128 0x1c
 8014 0a43 6C656E00 		.ascii	"len\000"
 8015 0a47 01       		.byte	0x1
 8016 0a48 4803     		.2byte	0x348
 8017 0a4a B8000000 		.4byte	0xb8
 8018 0a4e 00       		.byte	0
 8019 0a4f 00       		.byte	0
 8020 0a50 2C       		.uleb128 0x2c
 8021 0a51 1C       		.uleb128 0x1c
 8022 0a52 73747200 		.ascii	"str\000"
 8023 0a56 01       		.byte	0x1
 8024 0a57 CB03     		.2byte	0x3cb
 8025 0a59 940A0000 		.4byte	0xa94
 8026 0a5d 00       		.byte	0
 8027 0a5e 00       		.byte	0
 8028 0a5f 09       		.uleb128 0x9
 8029 0a60 AD000000 		.4byte	0xad
 8030 0a64 6F0A0000 		.4byte	0xa6f
 8031 0a68 0A       		.uleb128 0xa
 8032 0a69 29010000 		.4byte	0x129
 8033 0a6d 03       		.byte	0x3
 8034 0a6e 00       		.byte	0
 8035 0a6f 08       		.uleb128 0x8
 8036 0a70 5F0A0000 		.4byte	0xa5f
 8037 0a74 09       		.uleb128 0x9
 8038 0a75 38010000 		.4byte	0x138
 8039 0a79 840A0000 		.4byte	0xa84
 8040 0a7d 0A       		.uleb128 0xa
 8041 0a7e 29010000 		.4byte	0x129
 8042 0a82 03       		.byte	0x3
 8043 0a83 00       		.byte	0
 8044 0a84 09       		.uleb128 0x9
 8045 0a85 38010000 		.4byte	0x138
 8046 0a89 940A0000 		.4byte	0xa94
 8047 0a8d 0A       		.uleb128 0xa
 8048 0a8e 29010000 		.4byte	0x129
 8049 0a92 0D       		.byte	0xd
 8050 0a93 00       		.byte	0
 8051 0a94 09       		.uleb128 0x9
 8052 0a95 17010000 		.4byte	0x117
 8053 0a99 A40A0000 		.4byte	0xaa4
 8054 0a9d 0A       		.uleb128 0xa
 8055 0a9e 29010000 		.4byte	0x129
 8056 0aa2 02       		.byte	0x2
 8057 0aa3 00       		.byte	0
 8058 0aa4 16       		.uleb128 0x16
 8059 0aa5 DC150000 		.4byte	.LASF220
 8060 0aa9 01       		.byte	0x1
 8061 0aaa 030A     		.2byte	0xa03
 8062 0aac B8000000 		.4byte	0xb8
 8063 0ab0 01       		.byte	0x1
 8064 0ab1 D80A0000 		.4byte	0xad8
 8065 0ab5 1B       		.uleb128 0x1b
 8066 0ab6 7000     		.ascii	"p\000"
 8067 0ab8 01       		.byte	0x1
ARM GAS  C:\Users\ramanatg\AppData\Local\Temp\ccxbhSsV.s 			page 211


 8068 0ab9 030A     		.2byte	0xa03
 8069 0abb 61080000 		.4byte	0x861
 8070 0abf 1D       		.uleb128 0x1d
 8071 0ac0 07060000 		.4byte	.LASF221
 8072 0ac4 01       		.byte	0x1
 8073 0ac5 050A     		.2byte	0xa05
 8074 0ac7 AD000000 		.4byte	0xad
 8075 0acb 1D       		.uleb128 0x1d
 8076 0acc 81000000 		.4byte	.LASF222
 8077 0ad0 01       		.byte	0x1
 8078 0ad1 060A     		.2byte	0xa06
 8079 0ad3 AD000000 		.4byte	0xad
 8080 0ad7 00       		.byte	0
 8081 0ad8 16       		.uleb128 0x16
 8082 0ad9 A9020000 		.4byte	.LASF223
 8083 0add 01       		.byte	0x1
 8084 0ade 0602     		.2byte	0x206
 8085 0ae0 B8000000 		.4byte	0xb8
 8086 0ae4 01       		.byte	0x1
 8087 0ae5 220B0000 		.4byte	0xb22
 8088 0ae9 1C       		.uleb128 0x1c
 8089 0aea 6900     		.ascii	"i\000"
 8090 0aec 01       		.byte	0x1
 8091 0aed 0802     		.2byte	0x208
 8092 0aef B8000000 		.4byte	0xb8
 8093 0af3 1C       		.uleb128 0x1c
 8094 0af4 6A00     		.ascii	"j\000"
 8095 0af6 01       		.byte	0x1
 8096 0af7 0802     		.2byte	0x208
 8097 0af9 B8000000 		.4byte	0xb8
 8098 0afd 1D       		.uleb128 0x1d
 8099 0afe 6E0C0000 		.4byte	.LASF224
 8100 0b02 01       		.byte	0x1
 8101 0b03 0902     		.2byte	0x209
 8102 0b05 220B0000 		.4byte	0xb22
 8103 0b09 1D       		.uleb128 0x1d
 8104 0b0a 34160000 		.4byte	.LASF225
 8105 0b0e 01       		.byte	0x1
 8106 0b0f 0A02     		.2byte	0x20a
 8107 0b11 55070000 		.4byte	0x755
 8108 0b15 1D       		.uleb128 0x1d
 8109 0b16 7D0B0000 		.4byte	.LASF226
 8110 0b1a 01       		.byte	0x1
 8111 0b1b 0B02     		.2byte	0x20b
 8112 0b1d 05080000 		.4byte	0x805
 8113 0b21 00       		.byte	0
 8114 0b22 09       		.uleb128 0x9
 8115 0b23 AD000000 		.4byte	0xad
 8116 0b27 320B0000 		.4byte	0xb32
 8117 0b2b 0A       		.uleb128 0xa
 8118 0b2c 29010000 		.4byte	0x129
 8119 0b30 27       		.byte	0x27
 8120 0b31 00       		.byte	0
 8121 0b32 16       		.uleb128 0x16
 8122 0b33 3D030000 		.4byte	.LASF227
 8123 0b37 01       		.byte	0x1
 8124 0b38 6902     		.2byte	0x269
ARM GAS  C:\Users\ramanatg\AppData\Local\Temp\ccxbhSsV.s 			page 212


 8125 0b3a B8000000 		.4byte	0xb8
 8126 0b3e 01       		.byte	0x1
 8127 0b3f 7E0B0000 		.4byte	0xb7e
 8128 0b43 1D       		.uleb128 0x1d
 8129 0b44 73050000 		.4byte	.LASF209
 8130 0b48 01       		.byte	0x1
 8131 0b49 6B02     		.2byte	0x26b
 8132 0b4b 94000000 		.4byte	0x94
 8133 0b4f 1C       		.uleb128 0x1c
 8134 0b50 7000     		.ascii	"p\000"
 8135 0b52 01       		.byte	0x1
 8136 0b53 6C02     		.2byte	0x26c
 8137 0b55 05080000 		.4byte	0x805
 8138 0b59 1D       		.uleb128 0x1d
 8139 0b5a 8B0E0000 		.4byte	.LASF228
 8140 0b5e 01       		.byte	0x1
 8141 0b5f 6D02     		.2byte	0x26d
 8142 0b61 65070000 		.4byte	0x765
 8143 0b65 1C       		.uleb128 0x1c
 8144 0b66 6C656E00 		.ascii	"len\000"
 8145 0b6a 01       		.byte	0x1
 8146 0b6b 6E02     		.2byte	0x26e
 8147 0b6d B8000000 		.4byte	0xb8
 8148 0b71 1C       		.uleb128 0x1c
 8149 0b72 73747200 		.ascii	"str\000"
 8150 0b76 01       		.byte	0x1
 8151 0b77 6F02     		.2byte	0x26f
 8152 0b79 7E0B0000 		.4byte	0xb7e
 8153 0b7d 00       		.byte	0
 8154 0b7e 09       		.uleb128 0x9
 8155 0b7f AD000000 		.4byte	0xad
 8156 0b83 8E0B0000 		.4byte	0xb8e
 8157 0b87 0A       		.uleb128 0xa
 8158 0b88 29010000 		.4byte	0x129
 8159 0b8c 14       		.byte	0x14
 8160 0b8d 00       		.byte	0
 8161 0b8e 16       		.uleb128 0x16
 8162 0b8f 61120000 		.4byte	.LASF229
 8163 0b93 01       		.byte	0x1
 8164 0b94 AE02     		.2byte	0x2ae
 8165 0b96 B8000000 		.4byte	0xb8
 8166 0b9a 01       		.byte	0x1
 8167 0b9b DA0B0000 		.4byte	0xbda
 8168 0b9f 1D       		.uleb128 0x1d
 8169 0ba0 73050000 		.4byte	.LASF209
 8170 0ba4 01       		.byte	0x1
 8171 0ba5 B002     		.2byte	0x2b0
 8172 0ba7 94000000 		.4byte	0x94
 8173 0bab 1C       		.uleb128 0x1c
 8174 0bac 7000     		.ascii	"p\000"
 8175 0bae 01       		.byte	0x1
 8176 0baf B102     		.2byte	0x2b1
 8177 0bb1 05080000 		.4byte	0x805
 8178 0bb5 1D       		.uleb128 0x1d
 8179 0bb6 8D150000 		.4byte	.LASF230
 8180 0bba 01       		.byte	0x1
 8181 0bbb B202     		.2byte	0x2b2
ARM GAS  C:\Users\ramanatg\AppData\Local\Temp\ccxbhSsV.s 			page 213


 8182 0bbd 75070000 		.4byte	0x775
 8183 0bc1 1C       		.uleb128 0x1c
 8184 0bc2 6C656E00 		.ascii	"len\000"
 8185 0bc6 01       		.byte	0x1
 8186 0bc7 B302     		.2byte	0x2b3
 8187 0bc9 B8000000 		.4byte	0xb8
 8188 0bcd 1C       		.uleb128 0x1c
 8189 0bce 73747200 		.ascii	"str\000"
 8190 0bd2 01       		.byte	0x1
 8191 0bd3 B402     		.2byte	0x2b4
 8192 0bd5 DA0B0000 		.4byte	0xbda
 8193 0bd9 00       		.byte	0
 8194 0bda 09       		.uleb128 0x9
 8195 0bdb AD000000 		.4byte	0xad
 8196 0bdf EA0B0000 		.4byte	0xbea
 8197 0be3 0A       		.uleb128 0xa
 8198 0be4 29010000 		.4byte	0x129
 8199 0be8 0C       		.byte	0xc
 8200 0be9 00       		.byte	0
 8201 0bea 16       		.uleb128 0x16
 8202 0beb A6160000 		.4byte	.LASF231
 8203 0bef 01       		.byte	0x1
 8204 0bf0 EC03     		.2byte	0x3ec
 8205 0bf2 B8000000 		.4byte	0xb8
 8206 0bf6 01       		.byte	0x1
 8207 0bf7 340C0000 		.4byte	0xc34
 8208 0bfb 1C       		.uleb128 0x1c
 8209 0bfc 6900     		.ascii	"i\000"
 8210 0bfe 01       		.byte	0x1
 8211 0bff EE03     		.2byte	0x3ee
 8212 0c01 B8000000 		.4byte	0xb8
 8213 0c05 1D       		.uleb128 0x1d
 8214 0c06 BE050000 		.4byte	.LASF232
 8215 0c0a 01       		.byte	0x1
 8216 0c0b EF03     		.2byte	0x3ef
 8217 0c0d B8000000 		.4byte	0xb8
 8218 0c11 1C       		.uleb128 0x1c
 8219 0c12 73747200 		.ascii	"str\000"
 8220 0c16 01       		.byte	0x1
 8221 0c17 F003     		.2byte	0x3f0
 8222 0c19 340C0000 		.4byte	0xc34
 8223 0c1d 1C       		.uleb128 0x1c
 8224 0c1e 6D00     		.ascii	"m\000"
 8225 0c20 01       		.byte	0x1
 8226 0c21 F103     		.2byte	0x3f1
 8227 0c23 5F0A0000 		.4byte	0xa5f
 8228 0c27 1D       		.uleb128 0x1d
 8229 0c28 2E160000 		.4byte	.LASF182
 8230 0c2c 01       		.byte	0x1
 8231 0c2d F203     		.2byte	0x3f2
 8232 0c2f B8000000 		.4byte	0xb8
 8233 0c33 00       		.byte	0
 8234 0c34 09       		.uleb128 0x9
 8235 0c35 17010000 		.4byte	0x117
 8236 0c39 440C0000 		.4byte	0xc44
 8237 0c3d 0A       		.uleb128 0xa
 8238 0c3e 29010000 		.4byte	0x129
ARM GAS  C:\Users\ramanatg\AppData\Local\Temp\ccxbhSsV.s 			page 214


 8239 0c42 03       		.byte	0x3
 8240 0c43 00       		.byte	0
 8241 0c44 16       		.uleb128 0x16
 8242 0c45 74180000 		.4byte	.LASF233
 8243 0c49 01       		.byte	0x1
 8244 0c4a 3604     		.2byte	0x436
 8245 0c4c B8000000 		.4byte	0xb8
 8246 0c50 01       		.byte	0x1
 8247 0c51 8E0C0000 		.4byte	0xc8e
 8248 0c55 1C       		.uleb128 0x1c
 8249 0c56 6900     		.ascii	"i\000"
 8250 0c58 01       		.byte	0x1
 8251 0c59 3804     		.2byte	0x438
 8252 0c5b B8000000 		.4byte	0xb8
 8253 0c5f 1D       		.uleb128 0x1d
 8254 0c60 BE050000 		.4byte	.LASF232
 8255 0c64 01       		.byte	0x1
 8256 0c65 3904     		.2byte	0x439
 8257 0c67 B8000000 		.4byte	0xb8
 8258 0c6b 1C       		.uleb128 0x1c
 8259 0c6c 73747200 		.ascii	"str\000"
 8260 0c70 01       		.byte	0x1
 8261 0c71 3A04     		.2byte	0x43a
 8262 0c73 340C0000 		.4byte	0xc34
 8263 0c77 1C       		.uleb128 0x1c
 8264 0c78 6D00     		.ascii	"m\000"
 8265 0c7a 01       		.byte	0x1
 8266 0c7b 3B04     		.2byte	0x43b
 8267 0c7d 5F0A0000 		.4byte	0xa5f
 8268 0c81 1D       		.uleb128 0x1d
 8269 0c82 BA0D0000 		.4byte	.LASF183
 8270 0c86 01       		.byte	0x1
 8271 0c87 3C04     		.2byte	0x43c
 8272 0c89 B8000000 		.4byte	0xb8
 8273 0c8d 00       		.byte	0
 8274 0c8e 16       		.uleb128 0x16
 8275 0c8f BD130000 		.4byte	.LASF234
 8276 0c93 01       		.byte	0x1
 8277 0c94 D804     		.2byte	0x4d8
 8278 0c96 B8000000 		.4byte	0xb8
 8279 0c9a 01       		.byte	0x1
 8280 0c9b DA0C0000 		.4byte	0xcda
 8281 0c9f 1C       		.uleb128 0x1c
 8282 0ca0 6900     		.ascii	"i\000"
 8283 0ca2 01       		.byte	0x1
 8284 0ca3 DA04     		.2byte	0x4da
 8285 0ca5 B8000000 		.4byte	0xb8
 8286 0ca9 1D       		.uleb128 0x1d
 8287 0caa BE050000 		.4byte	.LASF232
 8288 0cae 01       		.byte	0x1
 8289 0caf DB04     		.2byte	0x4db
 8290 0cb1 B8000000 		.4byte	0xb8
 8291 0cb5 1C       		.uleb128 0x1c
 8292 0cb6 73747200 		.ascii	"str\000"
 8293 0cba 01       		.byte	0x1
 8294 0cbb DC04     		.2byte	0x4dc
 8295 0cbd DA0C0000 		.4byte	0xcda
ARM GAS  C:\Users\ramanatg\AppData\Local\Temp\ccxbhSsV.s 			page 215


 8296 0cc1 1D       		.uleb128 0x1d
 8297 0cc2 FD100000 		.4byte	.LASF235
 8298 0cc6 01       		.byte	0x1
 8299 0cc7 DD04     		.2byte	0x4dd
 8300 0cc9 CE000000 		.4byte	0xce
 8301 0ccd 1C       		.uleb128 0x1c
 8302 0cce 6C656E00 		.ascii	"len\000"
 8303 0cd2 01       		.byte	0x1
 8304 0cd3 DE04     		.2byte	0x4de
 8305 0cd5 B8000000 		.4byte	0xb8
 8306 0cd9 00       		.byte	0
 8307 0cda 09       		.uleb128 0x9
 8308 0cdb 17010000 		.4byte	0x117
 8309 0cdf EA0C0000 		.4byte	0xcea
 8310 0ce3 0A       		.uleb128 0xa
 8311 0ce4 29010000 		.4byte	0x129
 8312 0ce8 05       		.byte	0x5
 8313 0ce9 00       		.byte	0
 8314 0cea 16       		.uleb128 0x16
 8315 0ceb 07190000 		.4byte	.LASF236
 8316 0cef 01       		.byte	0x1
 8317 0cf0 2005     		.2byte	0x520
 8318 0cf2 B8000000 		.4byte	0xb8
 8319 0cf6 01       		.byte	0x1
 8320 0cf7 2A0D0000 		.4byte	0xd2a
 8321 0cfb 1D       		.uleb128 0x1d
 8322 0cfc 41080000 		.4byte	.LASF237
 8323 0d00 01       		.byte	0x1
 8324 0d01 2205     		.2byte	0x522
 8325 0d03 CE000000 		.4byte	0xce
 8326 0d07 1C       		.uleb128 0x1c
 8327 0d08 7000     		.ascii	"p\000"
 8328 0d0a 01       		.byte	0x1
 8329 0d0b 2305     		.2byte	0x523
 8330 0d0d 05080000 		.4byte	0x805
 8331 0d11 1D       		.uleb128 0x1d
 8332 0d12 74000000 		.4byte	.LASF219
 8333 0d16 01       		.byte	0x1
 8334 0d17 2405     		.2byte	0x524
 8335 0d19 ED040000 		.4byte	0x4ed
 8336 0d1d 1C       		.uleb128 0x1c
 8337 0d1e 73747200 		.ascii	"str\000"
 8338 0d22 01       		.byte	0x1
 8339 0d23 2505     		.2byte	0x525
 8340 0d25 DA0C0000 		.4byte	0xcda
 8341 0d29 00       		.byte	0
 8342 0d2a 16       		.uleb128 0x16
 8343 0d2b 2D0C0000 		.4byte	.LASF238
 8344 0d2f 01       		.byte	0x1
 8345 0d30 B405     		.2byte	0x5b4
 8346 0d32 B8000000 		.4byte	0xb8
 8347 0d36 01       		.byte	0x1
 8348 0d37 760D0000 		.4byte	0xd76
 8349 0d3b 1C       		.uleb128 0x1c
 8350 0d3c 6900     		.ascii	"i\000"
 8351 0d3e 01       		.byte	0x1
 8352 0d3f B605     		.2byte	0x5b6
ARM GAS  C:\Users\ramanatg\AppData\Local\Temp\ccxbhSsV.s 			page 216


 8353 0d41 B8000000 		.4byte	0xb8
 8354 0d45 1D       		.uleb128 0x1d
 8355 0d46 BE050000 		.4byte	.LASF232
 8356 0d4a 01       		.byte	0x1
 8357 0d4b B705     		.2byte	0x5b7
 8358 0d4d B8000000 		.4byte	0xb8
 8359 0d51 1C       		.uleb128 0x1c
 8360 0d52 73747200 		.ascii	"str\000"
 8361 0d56 01       		.byte	0x1
 8362 0d57 B805     		.2byte	0x5b8
 8363 0d59 340C0000 		.4byte	0xc34
 8364 0d5d 1D       		.uleb128 0x1d
 8365 0d5e E0190000 		.4byte	.LASF186
 8366 0d62 01       		.byte	0x1
 8367 0d63 B905     		.2byte	0x5b9
 8368 0d65 C3000000 		.4byte	0xc3
 8369 0d69 1C       		.uleb128 0x1c
 8370 0d6a 6C656E00 		.ascii	"len\000"
 8371 0d6e 01       		.byte	0x1
 8372 0d6f BA05     		.2byte	0x5ba
 8373 0d71 B8000000 		.4byte	0xb8
 8374 0d75 00       		.byte	0
 8375 0d76 16       		.uleb128 0x16
 8376 0d77 7A090000 		.4byte	.LASF239
 8377 0d7b 01       		.byte	0x1
 8378 0d7c 1A06     		.2byte	0x61a
 8379 0d7e B8000000 		.4byte	0xb8
 8380 0d82 01       		.byte	0x1
 8381 0d83 E20D0000 		.4byte	0xde2
 8382 0d87 1C       		.uleb128 0x1c
 8383 0d88 6900     		.ascii	"i\000"
 8384 0d8a 01       		.byte	0x1
 8385 0d8b 1C06     		.2byte	0x61c
 8386 0d8d AD000000 		.4byte	0xad
 8387 0d91 1C       		.uleb128 0x1c
 8388 0d92 6A00     		.ascii	"j\000"
 8389 0d94 01       		.byte	0x1
 8390 0d95 1D06     		.2byte	0x61d
 8391 0d97 AD000000 		.4byte	0xad
 8392 0d9b 1C       		.uleb128 0x1c
 8393 0d9c 7000     		.ascii	"p\000"
 8394 0d9e 01       		.byte	0x1
 8395 0d9f 1E06     		.2byte	0x61e
 8396 0da1 05080000 		.4byte	0x805
 8397 0da5 1D       		.uleb128 0x1d
 8398 0da6 400C0000 		.4byte	.LASF240
 8399 0daa 01       		.byte	0x1
 8400 0dab 1F06     		.2byte	0x61f
 8401 0dad AD000000 		.4byte	0xad
 8402 0db1 1C       		.uleb128 0x1c
 8403 0db2 73747200 		.ascii	"str\000"
 8404 0db6 01       		.byte	0x1
 8405 0db7 2006     		.2byte	0x620
 8406 0db9 DA0C0000 		.4byte	0xcda
 8407 0dbd 1D       		.uleb128 0x1d
 8408 0dbe 17190000 		.4byte	.LASF241
 8409 0dc2 01       		.byte	0x1
ARM GAS  C:\Users\ramanatg\AppData\Local\Temp\ccxbhSsV.s 			page 217


 8410 0dc3 2106     		.2byte	0x621
 8411 0dc5 85070000 		.4byte	0x785
 8412 0dc9 1D       		.uleb128 0x1d
 8413 0dca C5050000 		.4byte	.LASF242
 8414 0dce 01       		.byte	0x1
 8415 0dcf 2306     		.2byte	0x623
 8416 0dd1 E20D0000 		.4byte	0xde2
 8417 0dd5 1D       		.uleb128 0x1d
 8418 0dd6 A8190000 		.4byte	.LASF243
 8419 0dda 01       		.byte	0x1
 8420 0ddb 2406     		.2byte	0x624
 8421 0ddd 020E0000 		.4byte	0xe02
 8422 0de1 00       		.byte	0
 8423 0de2 09       		.uleb128 0x9
 8424 0de3 38010000 		.4byte	0x138
 8425 0de7 F20D0000 		.4byte	0xdf2
 8426 0deb 0A       		.uleb128 0xa
 8427 0dec 29010000 		.4byte	0x129
 8428 0df0 07       		.byte	0x7
 8429 0df1 00       		.byte	0
 8430 0df2 09       		.uleb128 0x9
 8431 0df3 A2000000 		.4byte	0xa2
 8432 0df7 020E0000 		.4byte	0xe02
 8433 0dfb 0A       		.uleb128 0xa
 8434 0dfc 29010000 		.4byte	0x129
 8435 0e00 07       		.byte	0x7
 8436 0e01 00       		.byte	0
 8437 0e02 08       		.uleb128 0x8
 8438 0e03 F20D0000 		.4byte	0xdf2
 8439 0e07 16       		.uleb128 0x16
 8440 0e08 820B0000 		.4byte	.LASF244
 8441 0e0c 01       		.byte	0x1
 8442 0e0d 7F06     		.2byte	0x67f
 8443 0e0f B8000000 		.4byte	0xb8
 8444 0e13 01       		.byte	0x1
 8445 0e14 690E0000 		.4byte	0xe69
 8446 0e18 1C       		.uleb128 0x1c
 8447 0e19 6900     		.ascii	"i\000"
 8448 0e1b 01       		.byte	0x1
 8449 0e1c 8106     		.2byte	0x681
 8450 0e1e AD000000 		.4byte	0xad
 8451 0e22 1D       		.uleb128 0x1d
 8452 0e23 73050000 		.4byte	.LASF209
 8453 0e27 01       		.byte	0x1
 8454 0e28 8206     		.2byte	0x682
 8455 0e2a AD000000 		.4byte	0xad
 8456 0e2e 1C       		.uleb128 0x1c
 8457 0e2f 7000     		.ascii	"p\000"
 8458 0e31 01       		.byte	0x1
 8459 0e32 8306     		.2byte	0x683
 8460 0e34 05080000 		.4byte	0x805
 8461 0e38 1C       		.uleb128 0x1c
 8462 0e39 72657300 		.ascii	"res\000"
 8463 0e3d 01       		.byte	0x1
 8464 0e3e 8406     		.2byte	0x684
 8465 0e40 C3000000 		.4byte	0xc3
 8466 0e44 1D       		.uleb128 0x1d
ARM GAS  C:\Users\ramanatg\AppData\Local\Temp\ccxbhSsV.s 			page 218


 8467 0e45 74000000 		.4byte	.LASF219
 8468 0e49 01       		.byte	0x1
 8469 0e4a 8506     		.2byte	0x685
 8470 0e4c ED040000 		.4byte	0x4ed
 8471 0e50 1C       		.uleb128 0x1c
 8472 0e51 73747200 		.ascii	"str\000"
 8473 0e55 01       		.byte	0x1
 8474 0e56 8606     		.2byte	0x686
 8475 0e58 DA0C0000 		.4byte	0xcda
 8476 0e5c 1D       		.uleb128 0x1d
 8477 0e5d 18160000 		.4byte	.LASF245
 8478 0e61 01       		.byte	0x1
 8479 0e62 8706     		.2byte	0x687
 8480 0e64 85070000 		.4byte	0x785
 8481 0e68 00       		.byte	0
 8482 0e69 16       		.uleb128 0x16
 8483 0e6a 26070000 		.4byte	.LASF246
 8484 0e6e 01       		.byte	0x1
 8485 0e6f FE06     		.2byte	0x6fe
 8486 0e71 B8000000 		.4byte	0xb8
 8487 0e75 01       		.byte	0x1
 8488 0e76 B50E0000 		.4byte	0xeb5
 8489 0e7a 1C       		.uleb128 0x1c
 8490 0e7b 7000     		.ascii	"p\000"
 8491 0e7d 01       		.byte	0x1
 8492 0e7e 0007     		.2byte	0x700
 8493 0e80 05080000 		.4byte	0x805
 8494 0e84 1D       		.uleb128 0x1d
 8495 0e85 FD120000 		.4byte	.LASF247
 8496 0e89 01       		.byte	0x1
 8497 0e8a 0107     		.2byte	0x701
 8498 0e8c AD000000 		.4byte	0xad
 8499 0e90 1D       		.uleb128 0x1d
 8500 0e91 74000000 		.4byte	.LASF219
 8501 0e95 01       		.byte	0x1
 8502 0e96 0207     		.2byte	0x702
 8503 0e98 ED040000 		.4byte	0x4ed
 8504 0e9c 1C       		.uleb128 0x1c
 8505 0e9d 6C656E00 		.ascii	"len\000"
 8506 0ea1 01       		.byte	0x1
 8507 0ea2 0307     		.2byte	0x703
 8508 0ea4 AD000000 		.4byte	0xad
 8509 0ea8 1C       		.uleb128 0x1c
 8510 0ea9 73747200 		.ascii	"str\000"
 8511 0ead 01       		.byte	0x1
 8512 0eae 0407     		.2byte	0x704
 8513 0eb0 740A0000 		.4byte	0xa74
 8514 0eb4 00       		.byte	0
 8515 0eb5 2D       		.uleb128 0x2d
 8516 0eb6 C6020000 		.4byte	.LASF264
 8517 0eba 01       		.byte	0x1
 8518 0ebb 8905     		.2byte	0x589
 8519 0ebd B8000000 		.4byte	0xb8
 8520 0ec1 01       		.byte	0x1
 8521 0ec2 16       		.uleb128 0x16
 8522 0ec3 D7050000 		.4byte	.LASF248
 8523 0ec7 01       		.byte	0x1
ARM GAS  C:\Users\ramanatg\AppData\Local\Temp\ccxbhSsV.s 			page 219


 8524 0ec8 8004     		.2byte	0x480
 8525 0eca B8000000 		.4byte	0xb8
 8526 0ece 01       		.byte	0x1
 8527 0ecf 0E0F0000 		.4byte	0xf0e
 8528 0ed3 1C       		.uleb128 0x1c
 8529 0ed4 6900     		.ascii	"i\000"
 8530 0ed6 01       		.byte	0x1
 8531 0ed7 8204     		.2byte	0x482
 8532 0ed9 B8000000 		.4byte	0xb8
 8533 0edd 1D       		.uleb128 0x1d
 8534 0ede BE050000 		.4byte	.LASF232
 8535 0ee2 01       		.byte	0x1
 8536 0ee3 8304     		.2byte	0x483
 8537 0ee5 B8000000 		.4byte	0xb8
 8538 0ee9 1C       		.uleb128 0x1c
 8539 0eea 73747200 		.ascii	"str\000"
 8540 0eee 01       		.byte	0x1
 8541 0eef 8404     		.2byte	0x484
 8542 0ef1 340C0000 		.4byte	0xc34
 8543 0ef5 1D       		.uleb128 0x1d
 8544 0ef6 3B0C0000 		.4byte	.LASF187
 8545 0efa 01       		.byte	0x1
 8546 0efb 8504     		.2byte	0x485
 8547 0efd C3000000 		.4byte	0xc3
 8548 0f01 1C       		.uleb128 0x1c
 8549 0f02 6C656E00 		.ascii	"len\000"
 8550 0f06 01       		.byte	0x1
 8551 0f07 8604     		.2byte	0x486
 8552 0f09 B8000000 		.4byte	0xb8
 8553 0f0d 00       		.byte	0
 8554 0f0e 16       		.uleb128 0x16
 8555 0f0f ED080000 		.4byte	.LASF249
 8556 0f13 01       		.byte	0x1
 8557 0f14 5507     		.2byte	0x755
 8558 0f16 B8000000 		.4byte	0xb8
 8559 0f1a 01       		.byte	0x1
 8560 0f1b 580F0000 		.4byte	0xf58
 8561 0f1f 1C       		.uleb128 0x1c
 8562 0f20 6900     		.ascii	"i\000"
 8563 0f22 01       		.byte	0x1
 8564 0f23 5707     		.2byte	0x757
 8565 0f25 B8000000 		.4byte	0xb8
 8566 0f29 1D       		.uleb128 0x1d
 8567 0f2a BE050000 		.4byte	.LASF232
 8568 0f2e 01       		.byte	0x1
 8569 0f2f 5807     		.2byte	0x758
 8570 0f31 B8000000 		.4byte	0xb8
 8571 0f35 1C       		.uleb128 0x1c
 8572 0f36 73747200 		.ascii	"str\000"
 8573 0f3a 01       		.byte	0x1
 8574 0f3b 5907     		.2byte	0x759
 8575 0f3d 340C0000 		.4byte	0xc34
 8576 0f41 1C       		.uleb128 0x1c
 8577 0f42 6D00     		.ascii	"m\000"
 8578 0f44 01       		.byte	0x1
 8579 0f45 5A07     		.2byte	0x75a
 8580 0f47 5F0A0000 		.4byte	0xa5f
ARM GAS  C:\Users\ramanatg\AppData\Local\Temp\ccxbhSsV.s 			page 220


 8581 0f4b 1D       		.uleb128 0x1d
 8582 0f4c C60B0000 		.4byte	.LASF250
 8583 0f50 01       		.byte	0x1
 8584 0f51 5B07     		.2byte	0x75b
 8585 0f53 B8000000 		.4byte	0xb8
 8586 0f57 00       		.byte	0
 8587 0f58 16       		.uleb128 0x16
 8588 0f59 A90A0000 		.4byte	.LASF251
 8589 0f5d 01       		.byte	0x1
 8590 0f5e 8909     		.2byte	0x989
 8591 0f60 B8000000 		.4byte	0xb8
 8592 0f64 01       		.byte	0x1
 8593 0f65 760F0000 		.4byte	0xf76
 8594 0f69 1D       		.uleb128 0x1d
 8595 0f6a 50040000 		.4byte	.LASF252
 8596 0f6e 01       		.byte	0x1
 8597 0f6f 8B09     		.2byte	0x98b
 8598 0f71 760F0000 		.4byte	0xf76
 8599 0f75 00       		.byte	0
 8600 0f76 09       		.uleb128 0x9
 8601 0f77 17010000 		.4byte	0x117
 8602 0f7b 860F0000 		.4byte	0xf86
 8603 0f7f 0A       		.uleb128 0xa
 8604 0f80 29010000 		.4byte	0x129
 8605 0f84 7F       		.byte	0x7f
 8606 0f85 00       		.byte	0
 8607 0f86 16       		.uleb128 0x16
 8608 0f87 F80C0000 		.4byte	.LASF253
 8609 0f8b 01       		.byte	0x1
 8610 0f8c A007     		.2byte	0x7a0
 8611 0f8e B8000000 		.4byte	0xb8
 8612 0f92 01       		.byte	0x1
 8613 0f93 D30F0000 		.4byte	0xfd3
 8614 0f97 1C       		.uleb128 0x1c
 8615 0f98 73747200 		.ascii	"str\000"
 8616 0f9c 01       		.byte	0x1
 8617 0f9d A207     		.2byte	0x7a2
 8618 0f9f 32010000 		.4byte	0x132
 8619 0fa3 1C       		.uleb128 0x1c
 8620 0fa4 6C656E00 		.ascii	"len\000"
 8621 0fa8 01       		.byte	0x1
 8622 0fa9 A307     		.2byte	0x7a3
 8623 0fab B8000000 		.4byte	0xb8
 8624 0faf 1C       		.uleb128 0x1c
 8625 0fb0 6F6E00   		.ascii	"on\000"
 8626 0fb3 01       		.byte	0x1
 8627 0fb4 A407     		.2byte	0x7a4
 8628 0fb6 E30F0000 		.4byte	0xfe3
 8629 0fba 1C       		.uleb128 0x1c
 8630 0fbb 6F666600 		.ascii	"off\000"
 8631 0fbf 01       		.byte	0x1
 8632 0fc0 A507     		.2byte	0x7a5
 8633 0fc2 E80F0000 		.4byte	0xfe8
 8634 0fc6 1D       		.uleb128 0x1d
 8635 0fc7 E3090000 		.4byte	.LASF188
 8636 0fcb 01       		.byte	0x1
 8637 0fcc A607     		.2byte	0x7a6
ARM GAS  C:\Users\ramanatg\AppData\Local\Temp\ccxbhSsV.s 			page 221


 8638 0fce AD000000 		.4byte	0xad
 8639 0fd2 00       		.byte	0
 8640 0fd3 09       		.uleb128 0x9
 8641 0fd4 17010000 		.4byte	0x117
 8642 0fd8 E30F0000 		.4byte	0xfe3
 8643 0fdc 0A       		.uleb128 0xa
 8644 0fdd 29010000 		.4byte	0x129
 8645 0fe1 01       		.byte	0x1
 8646 0fe2 00       		.byte	0
 8647 0fe3 08       		.uleb128 0x8
 8648 0fe4 D30F0000 		.4byte	0xfd3
 8649 0fe8 08       		.uleb128 0x8
 8650 0fe9 940A0000 		.4byte	0xa94
 8651 0fed 16       		.uleb128 0x16
 8652 0fee 51000000 		.4byte	.LASF254
 8653 0ff2 01       		.byte	0x1
 8654 0ff3 F607     		.2byte	0x7f6
 8655 0ff5 B8000000 		.4byte	0xb8
 8656 0ff9 01       		.byte	0x1
 8657 0ffa 39100000 		.4byte	0x1039
 8658 0ffe 1C       		.uleb128 0x1c
 8659 0fff 7000     		.ascii	"p\000"
 8660 1001 01       		.byte	0x1
 8661 1002 F807     		.2byte	0x7f8
 8662 1004 05080000 		.4byte	0x805
 8663 1008 1D       		.uleb128 0x1d
 8664 1009 6E020000 		.4byte	.LASF255
 8665 100d 01       		.byte	0x1
 8666 100e F907     		.2byte	0x7f9
 8667 1010 49100000 		.4byte	0x1049
 8668 1014 1D       		.uleb128 0x1d
 8669 1015 070C0000 		.4byte	.LASF256
 8670 1019 01       		.byte	0x1
 8671 101a FA07     		.2byte	0x7fa
 8672 101c 4E100000 		.4byte	0x104e
 8673 1020 1D       		.uleb128 0x1d
 8674 1021 FE090000 		.4byte	.LASF257
 8675 1025 01       		.byte	0x1
 8676 1026 FB07     		.2byte	0x7fb
 8677 1028 53100000 		.4byte	0x1053
 8678 102c 1D       		.uleb128 0x1d
 8679 102d AA080000 		.4byte	.LASF189
 8680 1031 01       		.byte	0x1
 8681 1032 FC07     		.2byte	0x7fc
 8682 1034 A2000000 		.4byte	0xa2
 8683 1038 00       		.byte	0
 8684 1039 09       		.uleb128 0x9
 8685 103a 17010000 		.4byte	0x117
 8686 103e 49100000 		.4byte	0x1049
 8687 1042 0A       		.uleb128 0xa
 8688 1043 29010000 		.4byte	0x129
 8689 1047 0A       		.byte	0xa
 8690 1048 00       		.byte	0
 8691 1049 08       		.uleb128 0x8
 8692 104a 39100000 		.4byte	0x1039
 8693 104e 08       		.uleb128 0x8
 8694 104f 39100000 		.4byte	0x1039
ARM GAS  C:\Users\ramanatg\AppData\Local\Temp\ccxbhSsV.s 			page 222


 8695 1053 08       		.uleb128 0x8
 8696 1054 43010000 		.4byte	0x143
 8697 1058 16       		.uleb128 0x16
 8698 1059 1B040000 		.4byte	.LASF258
 8699 105d 01       		.byte	0x1
 8700 105e 4B08     		.2byte	0x84b
 8701 1060 B8000000 		.4byte	0xb8
 8702 1064 01       		.byte	0x1
 8703 1065 A4100000 		.4byte	0x10a4
 8704 1069 1D       		.uleb128 0x1d
 8705 106a B6020000 		.4byte	.LASF191
 8706 106e 01       		.byte	0x1
 8707 106f 4D08     		.2byte	0x84d
 8708 1071 09060000 		.4byte	0x609
 8709 1075 1C       		.uleb128 0x1c
 8710 1076 7000     		.ascii	"p\000"
 8711 1078 01       		.byte	0x1
 8712 1079 4E08     		.2byte	0x84e
 8713 107b 05080000 		.4byte	0x805
 8714 107f 1C       		.uleb128 0x1c
 8715 1080 75696400 		.ascii	"uid\000"
 8716 1084 01       		.byte	0x1
 8717 1085 4F08     		.2byte	0x84f
 8718 1087 A4100000 		.4byte	0x10a4
 8719 108b 1C       		.uleb128 0x1c
 8720 108c 75726C00 		.ascii	"url\000"
 8721 1090 01       		.byte	0x1
 8722 1091 5008     		.2byte	0x850
 8723 1093 A9100000 		.4byte	0x10a9
 8724 1097 1C       		.uleb128 0x1c
 8725 1098 746C6D00 		.ascii	"tlm\000"
 8726 109c 01       		.byte	0x1
 8727 109d 5108     		.2byte	0x851
 8728 109f AE100000 		.4byte	0x10ae
 8729 10a3 00       		.byte	0
 8730 10a4 08       		.uleb128 0x8
 8731 10a5 340C0000 		.4byte	0xc34
 8732 10a9 08       		.uleb128 0x8
 8733 10aa 340C0000 		.4byte	0xc34
 8734 10ae 08       		.uleb128 0x8
 8735 10af 340C0000 		.4byte	0xc34
 8736 10b3 16       		.uleb128 0x16
 8737 10b4 B6030000 		.4byte	.LASF259
 8738 10b8 01       		.byte	0x1
 8739 10b9 C108     		.2byte	0x8c1
 8740 10bb B8000000 		.4byte	0xb8
 8741 10bf 01       		.byte	0x1
 8742 10c0 15110000 		.4byte	0x1115
 8743 10c4 1D       		.uleb128 0x1d
 8744 10c5 48000000 		.4byte	.LASF260
 8745 10c9 01       		.byte	0x1
 8746 10ca C308     		.2byte	0x8c3
 8747 10cc 55070000 		.4byte	0x755
 8748 10d0 1D       		.uleb128 0x1d
 8749 10d1 6E0C0000 		.4byte	.LASF224
 8750 10d5 01       		.byte	0x1
 8751 10d6 C408     		.2byte	0x8c4
ARM GAS  C:\Users\ramanatg\AppData\Local\Temp\ccxbhSsV.s 			page 223


 8752 10d8 15110000 		.4byte	0x1115
 8753 10dc 1D       		.uleb128 0x1d
 8754 10dd CE100000 		.4byte	.LASF261
 8755 10e1 01       		.byte	0x1
 8756 10e2 C508     		.2byte	0x8c5
 8757 10e4 AD000000 		.4byte	0xad
 8758 10e8 1D       		.uleb128 0x1d
 8759 10e9 7D0B0000 		.4byte	.LASF226
 8760 10ed 01       		.byte	0x1
 8761 10ee C608     		.2byte	0x8c6
 8762 10f0 05080000 		.4byte	0x805
 8763 10f4 1C       		.uleb128 0x1c
 8764 10f5 6900     		.ascii	"i\000"
 8765 10f7 01       		.byte	0x1
 8766 10f8 C708     		.2byte	0x8c7
 8767 10fa AD000000 		.4byte	0xad
 8768 10fe 1C       		.uleb128 0x1c
 8769 10ff 6A00     		.ascii	"j\000"
 8770 1101 01       		.byte	0x1
 8771 1102 C708     		.2byte	0x8c7
 8772 1104 AD000000 		.4byte	0xad
 8773 1108 1D       		.uleb128 0x1d
 8774 1109 74000000 		.4byte	.LASF219
 8775 110d 01       		.byte	0x1
 8776 110e C808     		.2byte	0x8c8
 8777 1110 ED040000 		.4byte	0x4ed
 8778 1114 00       		.byte	0
 8779 1115 09       		.uleb128 0x9
 8780 1116 AD000000 		.4byte	0xad
 8781 111a 25110000 		.4byte	0x1125
 8782 111e 0A       		.uleb128 0xa
 8783 111f 29010000 		.4byte	0x129
 8784 1123 1F       		.byte	0x1f
 8785 1124 00       		.byte	0
 8786 1125 16       		.uleb128 0x16
 8787 1126 E5170000 		.4byte	.LASF262
 8788 112a 01       		.byte	0x1
 8789 112b 2409     		.2byte	0x924
 8790 112d B8000000 		.4byte	0xb8
 8791 1131 01       		.byte	0x1
 8792 1132 87110000 		.4byte	0x1187
 8793 1136 1D       		.uleb128 0x1d
 8794 1137 48000000 		.4byte	.LASF260
 8795 113b 01       		.byte	0x1
 8796 113c 2609     		.2byte	0x926
 8797 113e 55070000 		.4byte	0x755
 8798 1142 1D       		.uleb128 0x1d
 8799 1143 6E0C0000 		.4byte	.LASF224
 8800 1147 01       		.byte	0x1
 8801 1148 2709     		.2byte	0x927
 8802 114a 15110000 		.4byte	0x1115
 8803 114e 1D       		.uleb128 0x1d
 8804 114f 44110000 		.4byte	.LASF263
 8805 1153 01       		.byte	0x1
 8806 1154 2809     		.2byte	0x928
 8807 1156 AD000000 		.4byte	0xad
 8808 115a 1D       		.uleb128 0x1d
ARM GAS  C:\Users\ramanatg\AppData\Local\Temp\ccxbhSsV.s 			page 224


 8809 115b 7D0B0000 		.4byte	.LASF226
 8810 115f 01       		.byte	0x1
 8811 1160 2909     		.2byte	0x929
 8812 1162 05080000 		.4byte	0x805
 8813 1166 1C       		.uleb128 0x1c
 8814 1167 6900     		.ascii	"i\000"
 8815 1169 01       		.byte	0x1
 8816 116a 2A09     		.2byte	0x92a
 8817 116c AD000000 		.4byte	0xad
 8818 1170 1C       		.uleb128 0x1c
 8819 1171 6A00     		.ascii	"j\000"
 8820 1173 01       		.byte	0x1
 8821 1174 2A09     		.2byte	0x92a
 8822 1176 AD000000 		.4byte	0xad
 8823 117a 1D       		.uleb128 0x1d
 8824 117b 74000000 		.4byte	.LASF219
 8825 117f 01       		.byte	0x1
 8826 1180 2B09     		.2byte	0x92b
 8827 1182 ED040000 		.4byte	0x4ed
 8828 1186 00       		.byte	0
 8829 1187 2D       		.uleb128 0x2d
 8830 1188 9C0A0000 		.4byte	.LASF265
 8831 118c 01       		.byte	0x1
 8832 118d AE09     		.2byte	0x9ae
 8833 118f B8000000 		.4byte	0xb8
 8834 1193 01       		.byte	0x1
 8835 1194 29       		.uleb128 0x29
 8836 1195 81060000 		.4byte	.LASF267
 8837 1199 01       		.byte	0x1
 8838 119a F1       		.byte	0xf1
 8839 119b C3000000 		.4byte	0xc3
 8840 119f 00000000 		.4byte	.LFB39
 8841 11a3 501B0000 		.4byte	.LFE39-.LFB39
 8842 11a7 01       		.uleb128 0x1
 8843 11a8 9C       		.byte	0x9c
 8844 11a9 A9340000 		.4byte	0x34a9
 8845 11ad 2E       		.uleb128 0x2e
 8846 11ae BE050000 		.4byte	.LASF232
 8847 11b2 01       		.byte	0x1
 8848 11b3 F3       		.byte	0xf3
 8849 11b4 B8000000 		.4byte	0xb8
 8850 11b8 20010000 		.4byte	.LLST6
 8851 11bc 2E       		.uleb128 0x2e
 8852 11bd A2050000 		.4byte	.LASF268
 8853 11c1 01       		.byte	0x1
 8854 11c2 F4       		.byte	0xf4
 8855 11c3 AD000000 		.4byte	0xad
 8856 11c7 21020000 		.4byte	.LLST7
 8857 11cb 2F       		.uleb128 0x2f
 8858 11cc 4B010000 		.4byte	.LASF269
 8859 11d0 01       		.byte	0x1
 8860 11d1 F5       		.byte	0xf5
 8861 11d2 A9340000 		.4byte	0x34a9
 8862 11d6 03       		.uleb128 0x3
 8863 11d7 91       		.byte	0x91
 8864 11d8 9C7E     		.sleb128 -228
 8865 11da 30       		.uleb128 0x30
ARM GAS  C:\Users\ramanatg\AppData\Local\Temp\ccxbhSsV.s 			page 225


 8866 11db DE070000 		.4byte	0x7de
 8867 11df 12000000 		.4byte	.LBB130
 8868 11e3 18000000 		.4byte	.Ldebug_ranges0+0x18
 8869 11e7 01       		.byte	0x1
 8870 11e8 F8       		.byte	0xf8
 8871 11e9 8C120000 		.4byte	0x128c
 8872 11ed 1F       		.uleb128 0x1f
 8873 11ee EE070000 		.4byte	0x7ee
 8874 11f2 34020000 		.4byte	.LLST8
 8875 11f6 20       		.uleb128 0x20
 8876 11f7 18000000 		.4byte	.Ldebug_ranges0+0x18
 8877 11fb 21       		.uleb128 0x21
 8878 11fc F9070000 		.4byte	0x7f9
 8879 1200 47020000 		.4byte	.LLST9
 8880 1204 22       		.uleb128 0x22
 8881 1205 68000000 		.4byte	.LBB132
 8882 1209 10000000 		.4byte	.LBE132-.LBB132
 8883 120d 3F120000 		.4byte	0x123f
 8884 1211 31       		.uleb128 0x31
 8885 1212 EE070000 		.4byte	0x7ee
 8886 1216 23       		.uleb128 0x23
 8887 1217 68000000 		.4byte	.LBB133
 8888 121b 10000000 		.4byte	.LBE133-.LBB133
 8889 121f 24       		.uleb128 0x24
 8890 1220 F9070000 		.4byte	0x7f9
 8891 1224 25       		.uleb128 0x25
 8892 1225 6C000000 		.4byte	.LVL39
 8893 1229 5B370000 		.4byte	0x375b
 8894 122d 28       		.uleb128 0x28
 8895 122e 78000000 		.4byte	.LVL40
 8896 1232 67370000 		.4byte	0x3767
 8897 1236 27       		.uleb128 0x27
 8898 1237 01       		.uleb128 0x1
 8899 1238 50       		.byte	0x50
 8900 1239 02       		.uleb128 0x2
 8901 123a 76       		.byte	0x76
 8902 123b 01       		.sleb128 1
 8903 123c 00       		.byte	0
 8904 123d 00       		.byte	0
 8905 123e 00       		.byte	0
 8906 123f 25       		.uleb128 0x25
 8907 1240 16000000 		.4byte	.LVL29
 8908 1244 78370000 		.4byte	0x3778
 8909 1248 26       		.uleb128 0x26
 8910 1249 20000000 		.4byte	.LVL30
 8911 124d 84370000 		.4byte	0x3784
 8912 1251 5C120000 		.4byte	0x125c
 8913 1255 27       		.uleb128 0x27
 8914 1256 01       		.uleb128 0x1
 8915 1257 50       		.byte	0x50
 8916 1258 02       		.uleb128 0x2
 8917 1259 75       		.byte	0x75
 8918 125a 00       		.sleb128 0
 8919 125b 00       		.byte	0
 8920 125c 25       		.uleb128 0x25
 8921 125d 30000000 		.4byte	.LVL32
 8922 1261 99370000 		.4byte	0x3799
ARM GAS  C:\Users\ramanatg\AppData\Local\Temp\ccxbhSsV.s 			page 226


 8923 1265 25       		.uleb128 0x25
 8924 1266 4A000000 		.4byte	.LVL35
 8925 126a 78370000 		.4byte	0x3778
 8926 126e 25       		.uleb128 0x25
 8927 126f 68000000 		.4byte	.LVL38
 8928 1273 A5370000 		.4byte	0x37a5
 8929 1277 28       		.uleb128 0x28
 8930 1278 C8020000 		.4byte	.LVL96
 8931 127c A5370000 		.4byte	0x37a5
 8932 1280 27       		.uleb128 0x27
 8933 1281 01       		.uleb128 0x1
 8934 1282 50       		.byte	0x50
 8935 1283 05       		.uleb128 0x5
 8936 1284 03       		.byte	0x3
 8937 1285 00000000 		.4byte	.LC44
 8938 1289 00       		.byte	0
 8939 128a 00       		.byte	0
 8940 128b 00       		.byte	0
 8941 128c 32       		.uleb128 0x32
 8942 128d A5090000 		.4byte	0x9a5
 8943 1291 CA020000 		.4byte	.LBB138
 8944 1295 38000000 		.4byte	.Ldebug_ranges0+0x38
 8945 1299 01       		.byte	0x1
 8946 129a 0D01     		.2byte	0x10d
 8947 129c FE150000 		.4byte	0x15fe
 8948 12a0 20       		.uleb128 0x20
 8949 12a1 38000000 		.4byte	.Ldebug_ranges0+0x38
 8950 12a5 33       		.uleb128 0x33
 8951 12a6 B6090000 		.4byte	0x9b6
 8952 12aa 03       		.uleb128 0x3
 8953 12ab 91       		.byte	0x91
 8954 12ac 987E     		.sleb128 -232
 8955 12ae 33       		.uleb128 0x33
 8956 12af C2090000 		.4byte	0x9c2
 8957 12b3 03       		.uleb128 0x3
 8958 12b4 91       		.byte	0x91
 8959 12b5 B47E     		.sleb128 -204
 8960 12b7 33       		.uleb128 0x33
 8961 12b8 CE090000 		.4byte	0x9ce
 8962 12bc 03       		.uleb128 0x3
 8963 12bd 91       		.byte	0x91
 8964 12be D87E     		.sleb128 -168
 8965 12c0 21       		.uleb128 0x21
 8966 12c1 DA090000 		.4byte	0x9da
 8967 12c5 92020000 		.4byte	.LLST10
 8968 12c9 21       		.uleb128 0x21
 8969 12ca E4090000 		.4byte	0x9e4
 8970 12ce 49030000 		.4byte	.LLST11
 8971 12d2 34       		.uleb128 0x34
 8972 12d3 78000000 		.4byte	.Ldebug_ranges0+0x78
 8973 12d7 32150000 		.4byte	0x1532
 8974 12db 33       		.uleb128 0x33
 8975 12dc F5090000 		.4byte	0x9f5
 8976 12e0 03       		.uleb128 0x3
 8977 12e1 91       		.byte	0x91
 8978 12e2 977E     		.sleb128 -233
 8979 12e4 33       		.uleb128 0x33
ARM GAS  C:\Users\ramanatg\AppData\Local\Temp\ccxbhSsV.s 			page 227


 8980 12e5 010A0000 		.4byte	0xa01
 8981 12e9 03       		.uleb128 0x3
 8982 12ea 91       		.byte	0x91
 8983 12eb C47E     		.sleb128 -188
 8984 12ed 21       		.uleb128 0x21
 8985 12ee 0D0A0000 		.4byte	0xa0d
 8986 12f2 A3030000 		.4byte	.LLST12
 8987 12f6 21       		.uleb128 0x21
 8988 12f7 190A0000 		.4byte	0xa19
 8989 12fb 00040000 		.4byte	.LLST13
 8990 12ff 33       		.uleb128 0x33
 8991 1300 230A0000 		.4byte	0xa23
 8992 1304 03       		.uleb128 0x3
 8993 1305 91       		.byte	0x91
 8994 1306 A87E     		.sleb128 -216
 8995 1308 34       		.uleb128 0x34
 8996 1309 C0000000 		.4byte	.Ldebug_ranges0+0xc0
 8997 130d 37140000 		.4byte	0x1437
 8998 1311 21       		.uleb128 0x21
 8999 1312 420A0000 		.4byte	0xa42
 9000 1316 B1040000 		.4byte	.LLST14
 9001 131a 26       		.uleb128 0x26
 9002 131b 16070000 		.4byte	.LVL204
 9003 131f E6370000 		.4byte	0x37e6
 9004 1323 34130000 		.4byte	0x1334
 9005 1327 27       		.uleb128 0x27
 9006 1328 01       		.uleb128 0x1
 9007 1329 52       		.byte	0x52
 9008 132a 01       		.uleb128 0x1
 9009 132b 34       		.byte	0x34
 9010 132c 27       		.uleb128 0x27
 9011 132d 01       		.uleb128 0x1
 9012 132e 51       		.byte	0x51
 9013 132f 03       		.uleb128 0x3
 9014 1330 91       		.byte	0x91
 9015 1331 987E     		.sleb128 -232
 9016 1333 00       		.byte	0
 9017 1334 26       		.uleb128 0x26
 9018 1335 2E070000 		.4byte	.LVL206
 9019 1339 84370000 		.4byte	0x3784
 9020 133d 48130000 		.4byte	0x1348
 9021 1341 27       		.uleb128 0x27
 9022 1342 01       		.uleb128 0x1
 9023 1343 50       		.byte	0x50
 9024 1344 02       		.uleb128 0x2
 9025 1345 7A       		.byte	0x7a
 9026 1346 00       		.sleb128 0
 9027 1347 00       		.byte	0
 9028 1348 26       		.uleb128 0x26
 9029 1349 3C070000 		.4byte	.LVL208
 9030 134d E6370000 		.4byte	0x37e6
 9031 1351 68130000 		.4byte	0x1368
 9032 1355 27       		.uleb128 0x27
 9033 1356 01       		.uleb128 0x1
 9034 1357 52       		.byte	0x52
 9035 1358 02       		.uleb128 0x2
 9036 1359 78       		.byte	0x78
ARM GAS  C:\Users\ramanatg\AppData\Local\Temp\ccxbhSsV.s 			page 228


 9037 135a 00       		.sleb128 0
 9038 135b 27       		.uleb128 0x27
 9039 135c 01       		.uleb128 0x1
 9040 135d 51       		.byte	0x51
 9041 135e 02       		.uleb128 0x2
 9042 135f 7A       		.byte	0x7a
 9043 1360 00       		.sleb128 0
 9044 1361 27       		.uleb128 0x27
 9045 1362 01       		.uleb128 0x1
 9046 1363 50       		.byte	0x50
 9047 1364 02       		.uleb128 0x2
 9048 1365 77       		.byte	0x77
 9049 1366 00       		.sleb128 0
 9050 1367 00       		.byte	0
 9051 1368 26       		.uleb128 0x26
 9052 1369 4C070000 		.4byte	.LVL210
 9053 136d 84370000 		.4byte	0x3784
 9054 1371 7C130000 		.4byte	0x137c
 9055 1375 27       		.uleb128 0x27
 9056 1376 01       		.uleb128 0x1
 9057 1377 50       		.byte	0x50
 9058 1378 02       		.uleb128 0x2
 9059 1379 7A       		.byte	0x7a
 9060 137a 00       		.sleb128 0
 9061 137b 00       		.byte	0
 9062 137c 26       		.uleb128 0x26
 9063 137d 5A070000 		.4byte	.LVL212
 9064 1381 E6370000 		.4byte	0x37e6
 9065 1385 9C130000 		.4byte	0x139c
 9066 1389 27       		.uleb128 0x27
 9067 138a 01       		.uleb128 0x1
 9068 138b 52       		.byte	0x52
 9069 138c 02       		.uleb128 0x2
 9070 138d 78       		.byte	0x78
 9071 138e 00       		.sleb128 0
 9072 138f 27       		.uleb128 0x27
 9073 1390 01       		.uleb128 0x1
 9074 1391 51       		.byte	0x51
 9075 1392 02       		.uleb128 0x2
 9076 1393 7A       		.byte	0x7a
 9077 1394 00       		.sleb128 0
 9078 1395 27       		.uleb128 0x27
 9079 1396 01       		.uleb128 0x1
 9080 1397 50       		.byte	0x50
 9081 1398 02       		.uleb128 0x2
 9082 1399 77       		.byte	0x77
 9083 139a 00       		.sleb128 0
 9084 139b 00       		.byte	0
 9085 139c 26       		.uleb128 0x26
 9086 139d 6A070000 		.4byte	.LVL214
 9087 13a1 84370000 		.4byte	0x3784
 9088 13a5 B0130000 		.4byte	0x13b0
 9089 13a9 27       		.uleb128 0x27
 9090 13aa 01       		.uleb128 0x1
 9091 13ab 50       		.byte	0x50
 9092 13ac 02       		.uleb128 0x2
 9093 13ad 7A       		.byte	0x7a
ARM GAS  C:\Users\ramanatg\AppData\Local\Temp\ccxbhSsV.s 			page 229


 9094 13ae 00       		.sleb128 0
 9095 13af 00       		.byte	0
 9096 13b0 26       		.uleb128 0x26
 9097 13b1 78070000 		.4byte	.LVL216
 9098 13b5 E6370000 		.4byte	0x37e6
 9099 13b9 D0130000 		.4byte	0x13d0
 9100 13bd 27       		.uleb128 0x27
 9101 13be 01       		.uleb128 0x1
 9102 13bf 52       		.byte	0x52
 9103 13c0 02       		.uleb128 0x2
 9104 13c1 78       		.byte	0x78
 9105 13c2 00       		.sleb128 0
 9106 13c3 27       		.uleb128 0x27
 9107 13c4 01       		.uleb128 0x1
 9108 13c5 51       		.byte	0x51
 9109 13c6 02       		.uleb128 0x2
 9110 13c7 7A       		.byte	0x7a
 9111 13c8 00       		.sleb128 0
 9112 13c9 27       		.uleb128 0x27
 9113 13ca 01       		.uleb128 0x1
 9114 13cb 50       		.byte	0x50
 9115 13cc 02       		.uleb128 0x2
 9116 13cd 77       		.byte	0x77
 9117 13ce 00       		.sleb128 0
 9118 13cf 00       		.byte	0
 9119 13d0 26       		.uleb128 0x26
 9120 13d1 88070000 		.4byte	.LVL218
 9121 13d5 84370000 		.4byte	0x3784
 9122 13d9 E4130000 		.4byte	0x13e4
 9123 13dd 27       		.uleb128 0x27
 9124 13de 01       		.uleb128 0x1
 9125 13df 50       		.byte	0x50
 9126 13e0 02       		.uleb128 0x2
 9127 13e1 7A       		.byte	0x7a
 9128 13e2 00       		.sleb128 0
 9129 13e3 00       		.byte	0
 9130 13e4 26       		.uleb128 0x26
 9131 13e5 96070000 		.4byte	.LVL220
 9132 13e9 E6370000 		.4byte	0x37e6
 9133 13ed 04140000 		.4byte	0x1404
 9134 13f1 27       		.uleb128 0x27
 9135 13f2 01       		.uleb128 0x1
 9136 13f3 52       		.byte	0x52
 9137 13f4 02       		.uleb128 0x2
 9138 13f5 78       		.byte	0x78
 9139 13f6 00       		.sleb128 0
 9140 13f7 27       		.uleb128 0x27
 9141 13f8 01       		.uleb128 0x1
 9142 13f9 51       		.byte	0x51
 9143 13fa 02       		.uleb128 0x2
 9144 13fb 7A       		.byte	0x7a
 9145 13fc 00       		.sleb128 0
 9146 13fd 27       		.uleb128 0x27
 9147 13fe 01       		.uleb128 0x1
 9148 13ff 50       		.byte	0x50
 9149 1400 02       		.uleb128 0x2
 9150 1401 77       		.byte	0x77
ARM GAS  C:\Users\ramanatg\AppData\Local\Temp\ccxbhSsV.s 			page 230


 9151 1402 00       		.sleb128 0
 9152 1403 00       		.byte	0
 9153 1404 26       		.uleb128 0x26
 9154 1405 34080000 		.4byte	.LVL229
 9155 1409 84370000 		.4byte	0x3784
 9156 140d 18140000 		.4byte	0x1418
 9157 1411 27       		.uleb128 0x27
 9158 1412 01       		.uleb128 0x1
 9159 1413 50       		.byte	0x50
 9160 1414 02       		.uleb128 0x2
 9161 1415 77       		.byte	0x77
 9162 1416 00       		.sleb128 0
 9163 1417 00       		.byte	0
 9164 1418 28       		.uleb128 0x28
 9165 1419 44080000 		.4byte	.LVL231
 9166 141d E6370000 		.4byte	0x37e6
 9167 1421 27       		.uleb128 0x27
 9168 1422 01       		.uleb128 0x1
 9169 1423 52       		.byte	0x52
 9170 1424 04       		.uleb128 0x4
 9171 1425 91       		.byte	0x91
 9172 1426 8C7E     		.sleb128 -244
 9173 1428 06       		.byte	0x6
 9174 1429 27       		.uleb128 0x27
 9175 142a 01       		.uleb128 0x1
 9176 142b 51       		.byte	0x51
 9177 142c 02       		.uleb128 0x2
 9178 142d 77       		.byte	0x77
 9179 142e 00       		.sleb128 0
 9180 142f 27       		.uleb128 0x27
 9181 1430 01       		.uleb128 0x1
 9182 1431 50       		.byte	0x50
 9183 1432 02       		.uleb128 0x2
 9184 1433 75       		.byte	0x75
 9185 1434 00       		.sleb128 0
 9186 1435 00       		.byte	0
 9187 1436 00       		.byte	0
 9188 1437 34       		.uleb128 0x34
 9189 1438 D8000000 		.4byte	.Ldebug_ranges0+0xd8
 9190 143c C6140000 		.4byte	0x14c6
 9191 1440 24       		.uleb128 0x24
 9192 1441 340A0000 		.4byte	0xa34
 9193 1445 35       		.uleb128 0x35
 9194 1446 A40A0000 		.4byte	0xaa4
 9195 144a B4090000 		.4byte	.LBB143
 9196 144e 00010000 		.4byte	.Ldebug_ranges0+0x100
 9197 1452 01       		.byte	0x1
 9198 1453 2D03     		.2byte	0x32d
 9199 1455 1F       		.uleb128 0x1f
 9200 1456 B50A0000 		.4byte	0xab5
 9201 145a F0040000 		.4byte	.LLST15
 9202 145e 20       		.uleb128 0x20
 9203 145f 00010000 		.4byte	.Ldebug_ranges0+0x100
 9204 1463 24       		.uleb128 0x24
 9205 1464 BF0A0000 		.4byte	0xabf
 9206 1468 24       		.uleb128 0x24
 9207 1469 CB0A0000 		.4byte	0xacb
ARM GAS  C:\Users\ramanatg\AppData\Local\Temp\ccxbhSsV.s 			page 231


 9208 146d 32       		.uleb128 0x32
 9209 146e C0070000 		.4byte	0x7c0
 9210 1472 B4090000 		.4byte	.LBB145
 9211 1476 28010000 		.4byte	.Ldebug_ranges0+0x128
 9212 147a 01       		.byte	0x1
 9213 147b 080A     		.2byte	0xa08
 9214 147d 9A140000 		.4byte	0x149a
 9215 1481 1F       		.uleb128 0x1f
 9216 1482 D1070000 		.4byte	0x7d1
 9217 1486 2C050000 		.4byte	.LLST16
 9218 148a 20       		.uleb128 0x20
 9219 148b 50010000 		.4byte	.Ldebug_ranges0+0x150
 9220 148f 1F       		.uleb128 0x1f
 9221 1490 D1070000 		.4byte	0x7d1
 9222 1494 55050000 		.4byte	.LLST17
 9223 1498 00       		.byte	0
 9224 1499 00       		.byte	0
 9225 149a 35       		.uleb128 0x35
 9226 149b C0070000 		.4byte	0x7c0
 9227 149f D2090000 		.4byte	.LBB156
 9228 14a3 70010000 		.4byte	.Ldebug_ranges0+0x170
 9229 14a7 01       		.byte	0x1
 9230 14a8 090A     		.2byte	0xa09
 9231 14aa 1F       		.uleb128 0x1f
 9232 14ab D1070000 		.4byte	0x7d1
 9233 14af 73050000 		.4byte	.LLST18
 9234 14b3 20       		.uleb128 0x20
 9235 14b4 98010000 		.4byte	.Ldebug_ranges0+0x198
 9236 14b8 1F       		.uleb128 0x1f
 9237 14b9 D1070000 		.4byte	0x7d1
 9238 14bd A7050000 		.4byte	.LLST19
 9239 14c1 00       		.byte	0
 9240 14c2 00       		.byte	0
 9241 14c3 00       		.byte	0
 9242 14c4 00       		.byte	0
 9243 14c5 00       		.byte	0
 9244 14c6 26       		.uleb128 0x26
 9245 14c7 C20A0000 		.4byte	.LVL304
 9246 14cb 05380000 		.4byte	0x3805
 9247 14cf E1140000 		.4byte	0x14e1
 9248 14d3 27       		.uleb128 0x27
 9249 14d4 01       		.uleb128 0x1
 9250 14d5 51       		.byte	0x51
 9251 14d6 04       		.uleb128 0x4
 9252 14d7 91       		.byte	0x91
 9253 14d8 887E     		.sleb128 -248
 9254 14da 06       		.byte	0x6
 9255 14db 27       		.uleb128 0x27
 9256 14dc 01       		.uleb128 0x1
 9257 14dd 50       		.byte	0x50
 9258 14de 01       		.uleb128 0x1
 9259 14df 3F       		.byte	0x3f
 9260 14e0 00       		.byte	0
 9261 14e1 26       		.uleb128 0x26
 9262 14e2 CA0A0000 		.4byte	.LVL305
 9263 14e6 05380000 		.4byte	0x3805
 9264 14ea FA140000 		.4byte	0x14fa
ARM GAS  C:\Users\ramanatg\AppData\Local\Temp\ccxbhSsV.s 			page 232


 9265 14ee 27       		.uleb128 0x27
 9266 14ef 01       		.uleb128 0x1
 9267 14f0 51       		.byte	0x51
 9268 14f1 02       		.uleb128 0x2
 9269 14f2 7A       		.byte	0x7a
 9270 14f3 00       		.sleb128 0
 9271 14f4 27       		.uleb128 0x27
 9272 14f5 01       		.uleb128 0x1
 9273 14f6 50       		.byte	0x50
 9274 14f7 01       		.uleb128 0x1
 9275 14f8 40       		.byte	0x40
 9276 14f9 00       		.byte	0
 9277 14fa 26       		.uleb128 0x26
 9278 14fb EC0A0000 		.4byte	.LVL306
 9279 14ff 1F380000 		.4byte	0x381f
 9280 1503 1E150000 		.4byte	0x151e
 9281 1507 27       		.uleb128 0x27
 9282 1508 01       		.uleb128 0x1
 9283 1509 53       		.byte	0x53
 9284 150a 01       		.uleb128 0x1
 9285 150b 30       		.byte	0x30
 9286 150c 27       		.uleb128 0x27
 9287 150d 01       		.uleb128 0x1
 9288 150e 52       		.byte	0x52
 9289 150f 01       		.uleb128 0x1
 9290 1510 30       		.byte	0x30
 9291 1511 27       		.uleb128 0x27
 9292 1512 01       		.uleb128 0x1
 9293 1513 51       		.byte	0x51
 9294 1514 01       		.uleb128 0x1
 9295 1515 30       		.byte	0x30
 9296 1516 27       		.uleb128 0x27
 9297 1517 01       		.uleb128 0x1
 9298 1518 50       		.byte	0x50
 9299 1519 03       		.uleb128 0x3
 9300 151a 91       		.byte	0x91
 9301 151b A87E     		.sleb128 -216
 9302 151d 00       		.byte	0
 9303 151e 28       		.uleb128 0x28
 9304 151f F20A0000 		.4byte	.LVL307
 9305 1523 A5370000 		.4byte	0x37a5
 9306 1527 27       		.uleb128 0x27
 9307 1528 01       		.uleb128 0x1
 9308 1529 50       		.byte	0x50
 9309 152a 05       		.uleb128 0x5
 9310 152b 03       		.byte	0x3
 9311 152c 54000000 		.4byte	.LC61
 9312 1530 00       		.byte	0
 9313 1531 00       		.byte	0
 9314 1532 22       		.uleb128 0x22
 9315 1533 F80A0000 		.4byte	.LBB187
 9316 1537 32000000 		.4byte	.LBE187-.LBB187
 9317 153b 73150000 		.4byte	0x1573
 9318 153f 33       		.uleb128 0x33
 9319 1540 510A0000 		.4byte	0xa51
 9320 1544 03       		.uleb128 0x3
 9321 1545 91       		.byte	0x91
ARM GAS  C:\Users\ramanatg\AppData\Local\Temp\ccxbhSsV.s 			page 233


 9322 1546 C47E     		.sleb128 -188
 9323 1548 26       		.uleb128 0x26
 9324 1549 160B0000 		.4byte	.LVL310
 9325 154d 50380000 		.4byte	0x3850
 9326 1551 62150000 		.4byte	0x1562
 9327 1555 27       		.uleb128 0x27
 9328 1556 01       		.uleb128 0x1
 9329 1557 51       		.byte	0x51
 9330 1558 02       		.uleb128 0x2
 9331 1559 75       		.byte	0x75
 9332 155a 00       		.sleb128 0
 9333 155b 27       		.uleb128 0x27
 9334 155c 01       		.uleb128 0x1
 9335 155d 50       		.byte	0x50
 9336 155e 02       		.uleb128 0x2
 9337 155f 7A       		.byte	0x7a
 9338 1560 00       		.sleb128 0
 9339 1561 00       		.byte	0
 9340 1562 28       		.uleb128 0x28
 9341 1563 1C0B0000 		.4byte	.LVL311
 9342 1567 A5370000 		.4byte	0x37a5
 9343 156b 27       		.uleb128 0x27
 9344 156c 01       		.uleb128 0x1
 9345 156d 50       		.byte	0x50
 9346 156e 02       		.uleb128 0x2
 9347 156f 7A       		.byte	0x7a
 9348 1570 00       		.sleb128 0
 9349 1571 00       		.byte	0
 9350 1572 00       		.byte	0
 9351 1573 26       		.uleb128 0x26
 9352 1574 D6020000 		.4byte	.LVL98
 9353 1578 6B380000 		.4byte	0x386b
 9354 157c 93150000 		.4byte	0x1593
 9355 1580 27       		.uleb128 0x27
 9356 1581 01       		.uleb128 0x1
 9357 1582 52       		.byte	0x52
 9358 1583 01       		.uleb128 0x1
 9359 1584 34       		.byte	0x34
 9360 1585 27       		.uleb128 0x27
 9361 1586 01       		.uleb128 0x1
 9362 1587 51       		.byte	0x51
 9363 1588 02       		.uleb128 0x2
 9364 1589 77       		.byte	0x77
 9365 158a 08       		.sleb128 8
 9366 158b 27       		.uleb128 0x27
 9367 158c 01       		.uleb128 0x1
 9368 158d 50       		.byte	0x50
 9369 158e 03       		.uleb128 0x3
 9370 158f 91       		.byte	0x91
 9371 1590 987E     		.sleb128 -232
 9372 1592 00       		.byte	0
 9373 1593 26       		.uleb128 0x26
 9374 1594 F6020000 		.4byte	.LVL99
 9375 1598 6B380000 		.4byte	0x386b
 9376 159c B3150000 		.4byte	0x15b3
 9377 15a0 27       		.uleb128 0x27
 9378 15a1 01       		.uleb128 0x1
ARM GAS  C:\Users\ramanatg\AppData\Local\Temp\ccxbhSsV.s 			page 234


 9379 15a2 52       		.byte	0x52
 9380 15a3 02       		.uleb128 0x2
 9381 15a4 08       		.byte	0x8
 9382 15a5 38       		.byte	0x38
 9383 15a6 27       		.uleb128 0x27
 9384 15a7 01       		.uleb128 0x1
 9385 15a8 51       		.byte	0x51
 9386 15a9 02       		.uleb128 0x2
 9387 15aa 77       		.byte	0x77
 9388 15ab 1C       		.sleb128 28
 9389 15ac 27       		.uleb128 0x27
 9390 15ad 01       		.uleb128 0x1
 9391 15ae 50       		.byte	0x50
 9392 15af 02       		.uleb128 0x2
 9393 15b0 79       		.byte	0x79
 9394 15b1 00       		.sleb128 0
 9395 15b2 00       		.byte	0
 9396 15b3 26       		.uleb128 0x26
 9397 15b4 66080000 		.4byte	.LVL236
 9398 15b8 A5370000 		.4byte	0x37a5
 9399 15bc CA150000 		.4byte	0x15ca
 9400 15c0 27       		.uleb128 0x27
 9401 15c1 01       		.uleb128 0x1
 9402 15c2 50       		.byte	0x50
 9403 15c3 05       		.uleb128 0x5
 9404 15c4 03       		.byte	0x3
 9405 15c5 38000000 		.4byte	.LC58
 9406 15c9 00       		.byte	0
 9407 15ca 26       		.uleb128 0x26
 9408 15cb 6C080000 		.4byte	.LVL237
 9409 15cf A5370000 		.4byte	0x37a5
 9410 15d3 E1150000 		.4byte	0x15e1
 9411 15d7 27       		.uleb128 0x27
 9412 15d8 01       		.uleb128 0x1
 9413 15d9 50       		.byte	0x50
 9414 15da 05       		.uleb128 0x5
 9415 15db 03       		.byte	0x3
 9416 15dc 78000000 		.4byte	.LC65
 9417 15e0 00       		.byte	0
 9418 15e1 25       		.uleb128 0x25
 9419 15e2 7C080000 		.4byte	.LVL238
 9420 15e6 A5370000 		.4byte	0x37a5
 9421 15ea 25       		.uleb128 0x25
 9422 15eb 92080000 		.4byte	.LVL240
 9423 15ef A5370000 		.4byte	0x37a5
 9424 15f3 25       		.uleb128 0x25
 9425 15f4 A8080000 		.4byte	.LVL243
 9426 15f8 88380000 		.4byte	0x3888
 9427 15fc 00       		.byte	0
 9428 15fd 00       		.byte	0
 9429 15fe 32       		.uleb128 0x32
 9430 15ff D80A0000 		.4byte	0xad8
 9431 1603 2A030000 		.4byte	.LBB195
 9432 1607 B0010000 		.4byte	.Ldebug_ranges0+0x1b0
 9433 160b 01       		.byte	0x1
 9434 160c 1201     		.2byte	0x112
 9435 160e 85170000 		.4byte	0x1785
ARM GAS  C:\Users\ramanatg\AppData\Local\Temp\ccxbhSsV.s 			page 235


 9436 1612 20       		.uleb128 0x20
 9437 1613 B0010000 		.4byte	.Ldebug_ranges0+0x1b0
 9438 1617 21       		.uleb128 0x21
 9439 1618 E90A0000 		.4byte	0xae9
 9440 161c BA050000 		.4byte	.LLST20
 9441 1620 21       		.uleb128 0x21
 9442 1621 F30A0000 		.4byte	0xaf3
 9443 1625 20060000 		.4byte	.LLST21
 9444 1629 33       		.uleb128 0x33
 9445 162a FD0A0000 		.4byte	0xafd
 9446 162e 03       		.uleb128 0x3
 9447 162f 91       		.byte	0x91
 9448 1630 D87E     		.sleb128 -168
 9449 1632 33       		.uleb128 0x33
 9450 1633 090B0000 		.4byte	0xb09
 9451 1637 03       		.uleb128 0x3
 9452 1638 91       		.byte	0x91
 9453 1639 C47E     		.sleb128 -188
 9454 163b 21       		.uleb128 0x21
 9455 163c 150B0000 		.4byte	0xb15
 9456 1640 8D060000 		.4byte	.LLST22
 9457 1644 32       		.uleb128 0x32
 9458 1645 0B080000 		.4byte	0x80b
 9459 1649 2C090000 		.4byte	.LBB197
 9460 164d D8010000 		.4byte	.Ldebug_ranges0+0x1d8
 9461 1651 01       		.byte	0x1
 9462 1652 3502     		.2byte	0x235
 9463 1654 0B170000 		.4byte	0x170b
 9464 1658 31       		.uleb128 0x31
 9465 1659 34080000 		.4byte	0x834
 9466 165d 36       		.uleb128 0x36
 9467 165e 28080000 		.4byte	0x828
 9468 1662 01       		.uleb128 0x1
 9469 1663 56       		.byte	0x56
 9470 1664 31       		.uleb128 0x31
 9471 1665 1C080000 		.4byte	0x81c
 9472 1669 20       		.uleb128 0x20
 9473 166a D8010000 		.4byte	.Ldebug_ranges0+0x1d8
 9474 166e 21       		.uleb128 0x21
 9475 166f 40080000 		.4byte	0x840
 9476 1673 EB060000 		.4byte	.LLST23
 9477 1677 21       		.uleb128 0x21
 9478 1678 4A080000 		.4byte	0x84a
 9479 167c FE060000 		.4byte	.LLST24
 9480 1680 24       		.uleb128 0x24
 9481 1681 54080000 		.4byte	0x854
 9482 1685 35       		.uleb128 0x35
 9483 1686 A40A0000 		.4byte	0xaa4
 9484 168a 2C090000 		.4byte	.LBB199
 9485 168e 00020000 		.4byte	.Ldebug_ranges0+0x200
 9486 1692 01       		.byte	0x1
 9487 1693 E309     		.2byte	0x9e3
 9488 1695 1F       		.uleb128 0x1f
 9489 1696 B50A0000 		.4byte	0xab5
 9490 169a 11070000 		.4byte	.LLST25
 9491 169e 20       		.uleb128 0x20
 9492 169f 00020000 		.4byte	.Ldebug_ranges0+0x200
ARM GAS  C:\Users\ramanatg\AppData\Local\Temp\ccxbhSsV.s 			page 236


 9493 16a3 24       		.uleb128 0x24
 9494 16a4 BF0A0000 		.4byte	0xabf
 9495 16a8 24       		.uleb128 0x24
 9496 16a9 CB0A0000 		.4byte	0xacb
 9497 16ad 32       		.uleb128 0x32
 9498 16ae C0070000 		.4byte	0x7c0
 9499 16b2 2C090000 		.4byte	.LBB201
 9500 16b6 30020000 		.4byte	.Ldebug_ranges0+0x230
 9501 16ba 01       		.byte	0x1
 9502 16bb 080A     		.2byte	0xa08
 9503 16bd DA160000 		.4byte	0x16da
 9504 16c1 1F       		.uleb128 0x1f
 9505 16c2 D1070000 		.4byte	0x7d1
 9506 16c6 40070000 		.4byte	.LLST26
 9507 16ca 20       		.uleb128 0x20
 9508 16cb 68020000 		.4byte	.Ldebug_ranges0+0x268
 9509 16cf 1F       		.uleb128 0x1f
 9510 16d0 D1070000 		.4byte	0x7d1
 9511 16d4 B6070000 		.4byte	.LLST27
 9512 16d8 00       		.byte	0
 9513 16d9 00       		.byte	0
 9514 16da 35       		.uleb128 0x35
 9515 16db C0070000 		.4byte	0x7c0
 9516 16df D40B0000 		.4byte	.LBB220
 9517 16e3 98020000 		.4byte	.Ldebug_ranges0+0x298
 9518 16e7 01       		.byte	0x1
 9519 16e8 090A     		.2byte	0xa09
 9520 16ea 1F       		.uleb128 0x1f
 9521 16eb D1070000 		.4byte	0x7d1
 9522 16ef FC070000 		.4byte	.LLST28
 9523 16f3 23       		.uleb128 0x23
 9524 16f4 E80B0000 		.4byte	.LBB222
 9525 16f8 0E000000 		.4byte	.LBE222-.LBB222
 9526 16fc 1F       		.uleb128 0x1f
 9527 16fd D1070000 		.4byte	0x7d1
 9528 1701 28080000 		.4byte	.LLST29
 9529 1705 00       		.byte	0
 9530 1706 00       		.byte	0
 9531 1707 00       		.byte	0
 9532 1708 00       		.byte	0
 9533 1709 00       		.byte	0
 9534 170a 00       		.byte	0
 9535 170b 26       		.uleb128 0x26
 9536 170c 3A030000 		.4byte	.LVL103
 9537 1710 84370000 		.4byte	0x3784
 9538 1714 1F170000 		.4byte	0x171f
 9539 1718 27       		.uleb128 0x27
 9540 1719 01       		.uleb128 0x1
 9541 171a 50       		.byte	0x50
 9542 171b 02       		.uleb128 0x2
 9543 171c 75       		.byte	0x75
 9544 171d 04       		.sleb128 4
 9545 171e 00       		.byte	0
 9546 171f 26       		.uleb128 0x26
 9547 1720 28090000 		.4byte	.LVL259
 9548 1724 A5370000 		.4byte	0x37a5
 9549 1728 36170000 		.4byte	0x1736
ARM GAS  C:\Users\ramanatg\AppData\Local\Temp\ccxbhSsV.s 			page 237


 9550 172c 27       		.uleb128 0x27
 9551 172d 01       		.uleb128 0x1
 9552 172e 50       		.byte	0x50
 9553 172f 05       		.uleb128 0x5
 9554 1730 03       		.byte	0x3
 9555 1731 88000000 		.4byte	.LC69
 9556 1735 00       		.byte	0
 9557 1736 26       		.uleb128 0x26
 9558 1737 6A090000 		.4byte	.LVL263
 9559 173b 50380000 		.4byte	0x3850
 9560 173f 56170000 		.4byte	0x1756
 9561 1743 27       		.uleb128 0x27
 9562 1744 01       		.uleb128 0x1
 9563 1745 51       		.byte	0x51
 9564 1746 02       		.uleb128 0x2
 9565 1747 78       		.byte	0x78
 9566 1748 00       		.sleb128 0
 9567 1749 27       		.uleb128 0x27
 9568 174a 01       		.uleb128 0x1
 9569 174b 50       		.byte	0x50
 9570 174c 08       		.uleb128 0x8
 9571 174d 79       		.byte	0x79
 9572 174e 00       		.sleb128 0
 9573 174f 75       		.byte	0x75
 9574 1750 00       		.sleb128 0
 9575 1751 22       		.byte	0x22
 9576 1752 76       		.byte	0x76
 9577 1753 00       		.sleb128 0
 9578 1754 22       		.byte	0x22
 9579 1755 00       		.byte	0
 9580 1756 26       		.uleb128 0x26
 9581 1757 120C0000 		.4byte	.LVL349
 9582 175b 05380000 		.4byte	0x3805
 9583 175f 70170000 		.4byte	0x1770
 9584 1763 27       		.uleb128 0x27
 9585 1764 01       		.uleb128 0x1
 9586 1765 51       		.byte	0x51
 9587 1766 03       		.uleb128 0x3
 9588 1767 91       		.byte	0x91
 9589 1768 C47E     		.sleb128 -188
 9590 176a 27       		.uleb128 0x27
 9591 176b 01       		.uleb128 0x1
 9592 176c 50       		.byte	0x50
 9593 176d 01       		.uleb128 0x1
 9594 176e 30       		.byte	0x30
 9595 176f 00       		.byte	0
 9596 1770 28       		.uleb128 0x28
 9597 1771 180C0000 		.4byte	.LVL350
 9598 1775 A5370000 		.4byte	0x37a5
 9599 1779 27       		.uleb128 0x27
 9600 177a 01       		.uleb128 0x1
 9601 177b 50       		.byte	0x50
 9602 177c 05       		.uleb128 0x5
 9603 177d 03       		.byte	0x3
 9604 177e 94000000 		.4byte	.LC71
 9605 1782 00       		.byte	0
 9606 1783 00       		.byte	0
ARM GAS  C:\Users\ramanatg\AppData\Local\Temp\ccxbhSsV.s 			page 238


 9607 1784 00       		.byte	0
 9608 1785 32       		.uleb128 0x32
 9609 1786 320B0000 		.4byte	0xb32
 9610 178a D4030000 		.4byte	.LBB248
 9611 178e B8020000 		.4byte	.Ldebug_ranges0+0x2b8
 9612 1792 01       		.byte	0x1
 9613 1793 1701     		.2byte	0x117
 9614 1795 0C190000 		.4byte	0x190c
 9615 1799 20       		.uleb128 0x20
 9616 179a B8020000 		.4byte	.Ldebug_ranges0+0x2b8
 9617 179e 21       		.uleb128 0x21
 9618 179f 430B0000 		.4byte	0xb43
 9619 17a3 49080000 		.4byte	.LLST30
 9620 17a7 21       		.uleb128 0x21
 9621 17a8 4F0B0000 		.4byte	0xb4f
 9622 17ac 7F080000 		.4byte	.LLST31
 9623 17b0 33       		.uleb128 0x33
 9624 17b1 590B0000 		.4byte	0xb59
 9625 17b5 03       		.uleb128 0x3
 9626 17b6 91       		.byte	0x91
 9627 17b7 C47E     		.sleb128 -188
 9628 17b9 21       		.uleb128 0x21
 9629 17ba 650B0000 		.4byte	0xb65
 9630 17be C6080000 		.4byte	.LLST32
 9631 17c2 33       		.uleb128 0x33
 9632 17c3 710B0000 		.4byte	0xb71
 9633 17c7 03       		.uleb128 0x3
 9634 17c8 91       		.byte	0x91
 9635 17c9 D87E     		.sleb128 -168
 9636 17cb 32       		.uleb128 0x32
 9637 17cc 0B080000 		.4byte	0x80b
 9638 17d0 F8030000 		.4byte	.LBB250
 9639 17d4 E0020000 		.4byte	.Ldebug_ranges0+0x2e0
 9640 17d8 01       		.byte	0x1
 9641 17d9 8102     		.2byte	0x281
 9642 17db 98180000 		.4byte	0x1898
 9643 17df 1F       		.uleb128 0x1f
 9644 17e0 34080000 		.4byte	0x834
 9645 17e4 E4080000 		.4byte	.LLST33
 9646 17e8 1F       		.uleb128 0x1f
 9647 17e9 28080000 		.4byte	0x828
 9648 17ed 10090000 		.4byte	.LLST34
 9649 17f1 1F       		.uleb128 0x1f
 9650 17f2 1C080000 		.4byte	0x81c
 9651 17f6 4A090000 		.4byte	.LLST35
 9652 17fa 20       		.uleb128 0x20
 9653 17fb E0020000 		.4byte	.Ldebug_ranges0+0x2e0
 9654 17ff 21       		.uleb128 0x21
 9655 1800 40080000 		.4byte	0x840
 9656 1804 95090000 		.4byte	.LLST36
 9657 1808 21       		.uleb128 0x21
 9658 1809 4A080000 		.4byte	0x84a
 9659 180d D6090000 		.4byte	.LLST37
 9660 1811 24       		.uleb128 0x24
 9661 1812 54080000 		.4byte	0x854
 9662 1816 35       		.uleb128 0x35
 9663 1817 A40A0000 		.4byte	0xaa4
ARM GAS  C:\Users\ramanatg\AppData\Local\Temp\ccxbhSsV.s 			page 239


 9664 181b F8030000 		.4byte	.LBB252
 9665 181f 08030000 		.4byte	.Ldebug_ranges0+0x308
 9666 1823 01       		.byte	0x1
 9667 1824 E309     		.2byte	0x9e3
 9668 1826 1F       		.uleb128 0x1f
 9669 1827 B50A0000 		.4byte	0xab5
 9670 182b FF090000 		.4byte	.LLST38
 9671 182f 20       		.uleb128 0x20
 9672 1830 08030000 		.4byte	.Ldebug_ranges0+0x308
 9673 1834 24       		.uleb128 0x24
 9674 1835 BF0A0000 		.4byte	0xabf
 9675 1839 24       		.uleb128 0x24
 9676 183a CB0A0000 		.4byte	0xacb
 9677 183e 32       		.uleb128 0x32
 9678 183f C0070000 		.4byte	0x7c0
 9679 1843 FA030000 		.4byte	.LBB254
 9680 1847 38030000 		.4byte	.Ldebug_ranges0+0x338
 9681 184b 01       		.byte	0x1
 9682 184c 080A     		.2byte	0xa08
 9683 184e 6B180000 		.4byte	0x186b
 9684 1852 1F       		.uleb128 0x1f
 9685 1853 D1070000 		.4byte	0x7d1
 9686 1857 3B0A0000 		.4byte	.LLST39
 9687 185b 20       		.uleb128 0x20
 9688 185c 68030000 		.4byte	.Ldebug_ranges0+0x368
 9689 1860 1F       		.uleb128 0x1f
 9690 1861 D1070000 		.4byte	0x7d1
 9691 1865 BD0A0000 		.4byte	.LLST40
 9692 1869 00       		.byte	0
 9693 186a 00       		.byte	0
 9694 186b 35       		.uleb128 0x35
 9695 186c C0070000 		.4byte	0x7c0
 9696 1870 18040000 		.4byte	.LBB268
 9697 1874 90030000 		.4byte	.Ldebug_ranges0+0x390
 9698 1878 01       		.byte	0x1
 9699 1879 090A     		.2byte	0xa09
 9700 187b 1F       		.uleb128 0x1f
 9701 187c D1070000 		.4byte	0x7d1
 9702 1880 030B0000 		.4byte	.LLST41
 9703 1884 20       		.uleb128 0x20
 9704 1885 C0030000 		.4byte	.Ldebug_ranges0+0x3c0
 9705 1889 1F       		.uleb128 0x1f
 9706 188a D1070000 		.4byte	0x7d1
 9707 188e 450B0000 		.4byte	.LLST42
 9708 1892 00       		.byte	0
 9709 1893 00       		.byte	0
 9710 1894 00       		.byte	0
 9711 1895 00       		.byte	0
 9712 1896 00       		.byte	0
 9713 1897 00       		.byte	0
 9714 1898 26       		.uleb128 0x26
 9715 1899 DC030000 		.4byte	.LVL107
 9716 189d 84370000 		.4byte	0x3784
 9717 18a1 AC180000 		.4byte	0x18ac
 9718 18a5 27       		.uleb128 0x27
 9719 18a6 01       		.uleb128 0x1
 9720 18a7 50       		.byte	0x50
ARM GAS  C:\Users\ramanatg\AppData\Local\Temp\ccxbhSsV.s 			page 240


 9721 18a8 02       		.uleb128 0x2
 9722 18a9 75       		.byte	0x75
 9723 18aa 05       		.sleb128 5
 9724 18ab 00       		.byte	0
 9725 18ac 26       		.uleb128 0x26
 9726 18ad 64040000 		.4byte	.LVL128
 9727 18b1 05380000 		.4byte	0x3805
 9728 18b5 C6180000 		.4byte	0x18c6
 9729 18b9 27       		.uleb128 0x27
 9730 18ba 01       		.uleb128 0x1
 9731 18bb 51       		.byte	0x51
 9732 18bc 03       		.uleb128 0x3
 9733 18bd 91       		.byte	0x91
 9734 18be C47E     		.sleb128 -188
 9735 18c0 27       		.uleb128 0x27
 9736 18c1 01       		.uleb128 0x1
 9737 18c2 50       		.byte	0x50
 9738 18c3 01       		.uleb128 0x1
 9739 18c4 39       		.byte	0x39
 9740 18c5 00       		.byte	0
 9741 18c6 26       		.uleb128 0x26
 9742 18c7 6A040000 		.4byte	.LVL129
 9743 18cb A5370000 		.4byte	0x37a5
 9744 18cf DD180000 		.4byte	0x18dd
 9745 18d3 27       		.uleb128 0x27
 9746 18d4 01       		.uleb128 0x1
 9747 18d5 50       		.byte	0x50
 9748 18d6 05       		.uleb128 0x5
 9749 18d7 03       		.byte	0x3
 9750 18d8 BC000000 		.4byte	.LC75
 9751 18dc 00       		.byte	0
 9752 18dd 26       		.uleb128 0x26
 9753 18de 84040000 		.4byte	.LVL132
 9754 18e2 50380000 		.4byte	0x3850
 9755 18e6 F7180000 		.4byte	0x18f7
 9756 18ea 27       		.uleb128 0x27
 9757 18eb 01       		.uleb128 0x1
 9758 18ec 51       		.byte	0x51
 9759 18ed 02       		.uleb128 0x2
 9760 18ee 75       		.byte	0x75
 9761 18ef 00       		.sleb128 0
 9762 18f0 27       		.uleb128 0x27
 9763 18f1 01       		.uleb128 0x1
 9764 18f2 50       		.byte	0x50
 9765 18f3 02       		.uleb128 0x2
 9766 18f4 77       		.byte	0x77
 9767 18f5 00       		.sleb128 0
 9768 18f6 00       		.byte	0
 9769 18f7 28       		.uleb128 0x28
 9770 18f8 A4040000 		.4byte	.LVL137
 9771 18fc A5370000 		.4byte	0x37a5
 9772 1900 27       		.uleb128 0x27
 9773 1901 01       		.uleb128 0x1
 9774 1902 50       		.byte	0x50
 9775 1903 05       		.uleb128 0x5
 9776 1904 03       		.byte	0x3
 9777 1905 A4000000 		.4byte	.LC73
ARM GAS  C:\Users\ramanatg\AppData\Local\Temp\ccxbhSsV.s 			page 241


 9778 1909 00       		.byte	0
 9779 190a 00       		.byte	0
 9780 190b 00       		.byte	0
 9781 190c 32       		.uleb128 0x32
 9782 190d 8E0B0000 		.4byte	0xb8e
 9783 1911 36040000 		.4byte	.LBB303
 9784 1915 D8030000 		.4byte	.Ldebug_ranges0+0x3d8
 9785 1919 01       		.byte	0x1
 9786 191a 1C01     		.2byte	0x11c
 9787 191c 971A0000 		.4byte	0x1a97
 9788 1920 20       		.uleb128 0x20
 9789 1921 D8030000 		.4byte	.Ldebug_ranges0+0x3d8
 9790 1925 21       		.uleb128 0x21
 9791 1926 9F0B0000 		.4byte	0xb9f
 9792 192a 710B0000 		.4byte	.LLST43
 9793 192e 21       		.uleb128 0x21
 9794 192f AB0B0000 		.4byte	0xbab
 9795 1933 A70B0000 		.4byte	.LLST44
 9796 1937 33       		.uleb128 0x33
 9797 1938 B50B0000 		.4byte	0xbb5
 9798 193c 03       		.uleb128 0x3
 9799 193d 91       		.byte	0x91
 9800 193e C47E     		.sleb128 -188
 9801 1940 21       		.uleb128 0x21
 9802 1941 C10B0000 		.4byte	0xbc1
 9803 1945 FB0B0000 		.4byte	.LLST45
 9804 1949 33       		.uleb128 0x33
 9805 194a CD0B0000 		.4byte	0xbcd
 9806 194e 03       		.uleb128 0x3
 9807 194f 91       		.byte	0x91
 9808 1950 D87E     		.sleb128 -168
 9809 1952 32       		.uleb128 0x32
 9810 1953 0B080000 		.4byte	0x80b
 9811 1957 CC040000 		.4byte	.LBB305
 9812 195b 10040000 		.4byte	.Ldebug_ranges0+0x410
 9813 195f 01       		.byte	0x1
 9814 1960 C602     		.2byte	0x2c6
 9815 1962 231A0000 		.4byte	0x1a23
 9816 1966 1F       		.uleb128 0x1f
 9817 1967 34080000 		.4byte	0x834
 9818 196b 190C0000 		.4byte	.LLST46
 9819 196f 1F       		.uleb128 0x1f
 9820 1970 28080000 		.4byte	0x828
 9821 1974 510C0000 		.4byte	.LLST47
 9822 1978 1F       		.uleb128 0x1f
 9823 1979 1C080000 		.4byte	0x81c
 9824 197d 980C0000 		.4byte	.LLST48
 9825 1981 20       		.uleb128 0x20
 9826 1982 10040000 		.4byte	.Ldebug_ranges0+0x410
 9827 1986 21       		.uleb128 0x21
 9828 1987 40080000 		.4byte	0x840
 9829 198b F10C0000 		.4byte	.LLST49
 9830 198f 21       		.uleb128 0x21
 9831 1990 4A080000 		.4byte	0x84a
 9832 1994 3D0D0000 		.4byte	.LLST50
 9833 1998 24       		.uleb128 0x24
 9834 1999 54080000 		.4byte	0x854
ARM GAS  C:\Users\ramanatg\AppData\Local\Temp\ccxbhSsV.s 			page 242


 9835 199d 35       		.uleb128 0x35
 9836 199e A40A0000 		.4byte	0xaa4
 9837 19a2 D6040000 		.4byte	.LBB307
 9838 19a6 40040000 		.4byte	.Ldebug_ranges0+0x440
 9839 19aa 01       		.byte	0x1
 9840 19ab E309     		.2byte	0x9e3
 9841 19ad 1F       		.uleb128 0x1f
 9842 19ae B50A0000 		.4byte	0xab5
 9843 19b2 710D0000 		.4byte	.LLST51
 9844 19b6 20       		.uleb128 0x20
 9845 19b7 40040000 		.4byte	.Ldebug_ranges0+0x440
 9846 19bb 24       		.uleb128 0x24
 9847 19bc BF0A0000 		.4byte	0xabf
 9848 19c0 24       		.uleb128 0x24
 9849 19c1 CB0A0000 		.4byte	0xacb
 9850 19c5 32       		.uleb128 0x32
 9851 19c6 C0070000 		.4byte	0x7c0
 9852 19ca D8040000 		.4byte	.LBB309
 9853 19ce 78040000 		.4byte	.Ldebug_ranges0+0x478
 9854 19d2 01       		.byte	0x1
 9855 19d3 080A     		.2byte	0xa08
 9856 19d5 F2190000 		.4byte	0x19f2
 9857 19d9 1F       		.uleb128 0x1f
 9858 19da D1070000 		.4byte	0x7d1
 9859 19de BA0D0000 		.4byte	.LLST52
 9860 19e2 20       		.uleb128 0x20
 9861 19e3 A8040000 		.4byte	.Ldebug_ranges0+0x4a8
 9862 19e7 1F       		.uleb128 0x1f
 9863 19e8 D1070000 		.4byte	0x7d1
 9864 19ec 3C0E0000 		.4byte	.LLST53
 9865 19f0 00       		.byte	0
 9866 19f1 00       		.byte	0
 9867 19f2 35       		.uleb128 0x35
 9868 19f3 C0070000 		.4byte	0x7c0
 9869 19f7 FC040000 		.4byte	.LBB323
 9870 19fb D0040000 		.4byte	.Ldebug_ranges0+0x4d0
 9871 19ff 01       		.byte	0x1
 9872 1a00 090A     		.2byte	0xa09
 9873 1a02 1F       		.uleb128 0x1f
 9874 1a03 D1070000 		.4byte	0x7d1
 9875 1a07 820E0000 		.4byte	.LLST54
 9876 1a0b 23       		.uleb128 0x23
 9877 1a0c 12050000 		.4byte	.LBB325
 9878 1a10 0C000000 		.4byte	.LBE325-.LBB325
 9879 1a14 1F       		.uleb128 0x1f
 9880 1a15 D1070000 		.4byte	0x7d1
 9881 1a19 B90E0000 		.4byte	.LLST55
 9882 1a1d 00       		.byte	0
 9883 1a1e 00       		.byte	0
 9884 1a1f 00       		.byte	0
 9885 1a20 00       		.byte	0
 9886 1a21 00       		.byte	0
 9887 1a22 00       		.byte	0
 9888 1a23 26       		.uleb128 0x26
 9889 1a24 AE040000 		.4byte	.LVL138
 9890 1a28 84370000 		.4byte	0x3784
 9891 1a2c 371A0000 		.4byte	0x1a37
ARM GAS  C:\Users\ramanatg\AppData\Local\Temp\ccxbhSsV.s 			page 243


 9892 1a30 27       		.uleb128 0x27
 9893 1a31 01       		.uleb128 0x1
 9894 1a32 50       		.byte	0x50
 9895 1a33 02       		.uleb128 0x2
 9896 1a34 75       		.byte	0x75
 9897 1a35 05       		.sleb128 5
 9898 1a36 00       		.byte	0
 9899 1a37 26       		.uleb128 0x26
 9900 1a38 3A050000 		.4byte	.LVL156
 9901 1a3c 05380000 		.4byte	0x3805
 9902 1a40 511A0000 		.4byte	0x1a51
 9903 1a44 27       		.uleb128 0x27
 9904 1a45 01       		.uleb128 0x1
 9905 1a46 51       		.byte	0x51
 9906 1a47 03       		.uleb128 0x3
 9907 1a48 91       		.byte	0x91
 9908 1a49 C47E     		.sleb128 -188
 9909 1a4b 27       		.uleb128 0x27
 9910 1a4c 01       		.uleb128 0x1
 9911 1a4d 50       		.byte	0x50
 9912 1a4e 01       		.uleb128 0x1
 9913 1a4f 3A       		.byte	0x3a
 9914 1a50 00       		.byte	0
 9915 1a51 26       		.uleb128 0x26
 9916 1a52 40050000 		.4byte	.LVL157
 9917 1a56 A5370000 		.4byte	0x37a5
 9918 1a5a 681A0000 		.4byte	0x1a68
 9919 1a5e 27       		.uleb128 0x27
 9920 1a5f 01       		.uleb128 0x1
 9921 1a60 50       		.byte	0x50
 9922 1a61 05       		.uleb128 0x5
 9923 1a62 03       		.byte	0x3
 9924 1a63 F0000000 		.4byte	.LC79
 9925 1a67 00       		.byte	0
 9926 1a68 26       		.uleb128 0x26
 9927 1a69 280E0000 		.4byte	.LVL392
 9928 1a6d A5370000 		.4byte	0x37a5
 9929 1a71 7F1A0000 		.4byte	0x1a7f
 9930 1a75 27       		.uleb128 0x27
 9931 1a76 01       		.uleb128 0x1
 9932 1a77 50       		.byte	0x50
 9933 1a78 05       		.uleb128 0x5
 9934 1a79 03       		.byte	0x3
 9935 1a7a D8000000 		.4byte	.LC77
 9936 1a7e 00       		.byte	0
 9937 1a7f 28       		.uleb128 0x28
 9938 1a80 420E0000 		.4byte	.LVL395
 9939 1a84 50380000 		.4byte	0x3850
 9940 1a88 27       		.uleb128 0x27
 9941 1a89 01       		.uleb128 0x1
 9942 1a8a 51       		.byte	0x51
 9943 1a8b 02       		.uleb128 0x2
 9944 1a8c 75       		.byte	0x75
 9945 1a8d 00       		.sleb128 0
 9946 1a8e 27       		.uleb128 0x27
 9947 1a8f 01       		.uleb128 0x1
 9948 1a90 50       		.byte	0x50
ARM GAS  C:\Users\ramanatg\AppData\Local\Temp\ccxbhSsV.s 			page 244


 9949 1a91 02       		.uleb128 0x2
 9950 1a92 77       		.byte	0x77
 9951 1a93 00       		.sleb128 0
 9952 1a94 00       		.byte	0
 9953 1a95 00       		.byte	0
 9954 1a96 00       		.byte	0
 9955 1a97 32       		.uleb128 0x32
 9956 1a98 8E0C0000 		.4byte	0xc8e
 9957 1a9c 8A040000 		.4byte	.LBB361
 9958 1aa0 F8040000 		.4byte	.Ldebug_ranges0+0x4f8
 9959 1aa4 01       		.byte	0x1
 9960 1aa5 2B01     		.2byte	0x12b
 9961 1aa7 681B0000 		.4byte	0x1b68
 9962 1aab 20       		.uleb128 0x20
 9963 1aac F8040000 		.4byte	.Ldebug_ranges0+0x4f8
 9964 1ab0 21       		.uleb128 0x21
 9965 1ab1 9F0C0000 		.4byte	0xc9f
 9966 1ab5 DA0E0000 		.4byte	.LLST56
 9967 1ab9 21       		.uleb128 0x21
 9968 1aba A90C0000 		.4byte	0xca9
 9969 1abe 040F0000 		.4byte	.LLST57
 9970 1ac2 33       		.uleb128 0x33
 9971 1ac3 B50C0000 		.4byte	0xcb5
 9972 1ac7 03       		.uleb128 0x3
 9973 1ac8 91       		.byte	0x91
 9974 1ac9 D87E     		.sleb128 -168
 9975 1acb 33       		.uleb128 0x33
 9976 1acc C10C0000 		.4byte	0xcc1
 9977 1ad0 03       		.uleb128 0x3
 9978 1ad1 91       		.byte	0x91
 9979 1ad2 C47E     		.sleb128 -188
 9980 1ad4 21       		.uleb128 0x21
 9981 1ad5 CD0C0000 		.4byte	0xccd
 9982 1ad9 240F0000 		.4byte	.LLST58
 9983 1add 26       		.uleb128 0x26
 9984 1ade 38100000 		.4byte	.LVL436
 9985 1ae2 84370000 		.4byte	0x3784
 9986 1ae6 F11A0000 		.4byte	0x1af1
 9987 1aea 27       		.uleb128 0x27
 9988 1aeb 01       		.uleb128 0x1
 9989 1aec 50       		.byte	0x50
 9990 1aed 02       		.uleb128 0x2
 9991 1aee 75       		.byte	0x75
 9992 1aef 05       		.sleb128 5
 9993 1af0 00       		.byte	0
 9994 1af1 26       		.uleb128 0x26
 9995 1af2 96100000 		.4byte	.LVL447
 9996 1af6 9A380000 		.4byte	0x389a
 9997 1afa 051B0000 		.4byte	0x1b05
 9998 1afe 27       		.uleb128 0x27
 9999 1aff 01       		.uleb128 0x1
 10000 1b00 50       		.byte	0x50
 10001 1b01 02       		.uleb128 0x2
 10002 1b02 79       		.byte	0x79
 10003 1b03 00       		.sleb128 0
 10004 1b04 00       		.byte	0
 10005 1b05 26       		.uleb128 0x26
ARM GAS  C:\Users\ramanatg\AppData\Local\Temp\ccxbhSsV.s 			page 245


 10006 1b06 C0100000 		.4byte	.LVL452
 10007 1b0a A5370000 		.4byte	0x37a5
 10008 1b0e 1C1B0000 		.4byte	0x1b1c
 10009 1b12 27       		.uleb128 0x27
 10010 1b13 01       		.uleb128 0x1
 10011 1b14 50       		.byte	0x50
 10012 1b15 05       		.uleb128 0x5
 10013 1b16 03       		.byte	0x3
 10014 1b17 3C010000 		.4byte	.LC89
 10015 1b1b 00       		.byte	0
 10016 1b1c 26       		.uleb128 0x26
 10017 1b1d CC100000 		.4byte	.LVL453
 10018 1b21 50380000 		.4byte	0x3850
 10019 1b25 391B0000 		.4byte	0x1b39
 10020 1b29 27       		.uleb128 0x27
 10021 1b2a 01       		.uleb128 0x1
 10022 1b2b 51       		.byte	0x51
 10023 1b2c 05       		.uleb128 0x5
 10024 1b2d 03       		.byte	0x3
 10025 1b2e 98010000 		.4byte	.LC93
 10026 1b32 27       		.uleb128 0x27
 10027 1b33 01       		.uleb128 0x1
 10028 1b34 50       		.byte	0x50
 10029 1b35 02       		.uleb128 0x2
 10030 1b36 79       		.byte	0x79
 10031 1b37 00       		.sleb128 0
 10032 1b38 00       		.byte	0
 10033 1b39 26       		.uleb128 0x26
 10034 1b3a D8100000 		.4byte	.LVL454
 10035 1b3e 05380000 		.4byte	0x3805
 10036 1b42 531B0000 		.4byte	0x1b53
 10037 1b46 27       		.uleb128 0x27
 10038 1b47 01       		.uleb128 0x1
 10039 1b48 51       		.byte	0x51
 10040 1b49 03       		.uleb128 0x3
 10041 1b4a 91       		.byte	0x91
 10042 1b4b C47E     		.sleb128 -188
 10043 1b4d 27       		.uleb128 0x27
 10044 1b4e 01       		.uleb128 0x1
 10045 1b4f 50       		.byte	0x50
 10046 1b50 01       		.uleb128 0x1
 10047 1b51 33       		.byte	0x33
 10048 1b52 00       		.byte	0
 10049 1b53 28       		.uleb128 0x28
 10050 1b54 DE100000 		.4byte	.LVL455
 10051 1b58 A5370000 		.4byte	0x37a5
 10052 1b5c 27       		.uleb128 0x27
 10053 1b5d 01       		.uleb128 0x1
 10054 1b5e 50       		.byte	0x50
 10055 1b5f 05       		.uleb128 0x5
 10056 1b60 03       		.byte	0x3
 10057 1b61 68010000 		.4byte	.LC91
 10058 1b65 00       		.byte	0
 10059 1b66 00       		.byte	0
 10060 1b67 00       		.byte	0
 10061 1b68 32       		.uleb128 0x32
 10062 1b69 860F0000 		.4byte	0xf86
ARM GAS  C:\Users\ramanatg\AppData\Local\Temp\ccxbhSsV.s 			page 246


 10063 1b6d 8C040000 		.4byte	.LBB365
 10064 1b71 18050000 		.4byte	.Ldebug_ranges0+0x518
 10065 1b75 01       		.byte	0x1
 10066 1b76 A801     		.2byte	0x1a8
 10067 1b78 D21C0000 		.4byte	0x1cd2
 10068 1b7c 20       		.uleb128 0x20
 10069 1b7d 18050000 		.4byte	.Ldebug_ranges0+0x518
 10070 1b81 21       		.uleb128 0x21
 10071 1b82 970F0000 		.4byte	0xf97
 10072 1b86 5A0F0000 		.4byte	.LLST59
 10073 1b8a 21       		.uleb128 0x21
 10074 1b8b A30F0000 		.4byte	0xfa3
 10075 1b8f 780F0000 		.4byte	.LLST60
 10076 1b93 33       		.uleb128 0x33
 10077 1b94 AF0F0000 		.4byte	0xfaf
 10078 1b98 03       		.uleb128 0x3
 10079 1b99 91       		.byte	0x91
 10080 1b9a C47E     		.sleb128 -188
 10081 1b9c 33       		.uleb128 0x33
 10082 1b9d BA0F0000 		.4byte	0xfba
 10083 1ba1 03       		.uleb128 0x3
 10084 1ba2 91       		.byte	0x91
 10085 1ba3 D87E     		.sleb128 -168
 10086 1ba5 33       		.uleb128 0x33
 10087 1ba6 C60F0000 		.4byte	0xfc6
 10088 1baa 03       		.uleb128 0x3
 10089 1bab 91       		.byte	0x91
 10090 1bac B47E     		.sleb128 -204
 10091 1bae 25       		.uleb128 0x25
 10092 1baf 90040000 		.4byte	.LVL133
 10093 1bb3 A5370000 		.4byte	0x37a5
 10094 1bb7 26       		.uleb128 0x26
 10095 1bb8 96040000 		.4byte	.LVL134
 10096 1bbc A5370000 		.4byte	0x37a5
 10097 1bc0 CE1B0000 		.4byte	0x1bce
 10098 1bc4 27       		.uleb128 0x27
 10099 1bc5 01       		.uleb128 0x1
 10100 1bc6 50       		.byte	0x50
 10101 1bc7 05       		.uleb128 0x5
 10102 1bc8 03       		.byte	0x3
 10103 1bc9 74000000 		.4byte	.LC63
 10104 1bcd 00       		.byte	0
 10105 1bce 26       		.uleb128 0x26
 10106 1bcf CE140000 		.4byte	.LVL547
 10107 1bd3 84370000 		.4byte	0x3784
 10108 1bd7 E21B0000 		.4byte	0x1be2
 10109 1bdb 27       		.uleb128 0x27
 10110 1bdc 01       		.uleb128 0x1
 10111 1bdd 50       		.byte	0x50
 10112 1bde 02       		.uleb128 0x2
 10113 1bdf 75       		.byte	0x75
 10114 1be0 06       		.sleb128 6
 10115 1be1 00       		.byte	0
 10116 1be2 26       		.uleb128 0x26
 10117 1be3 E0140000 		.4byte	.LVL549
 10118 1be7 6B380000 		.4byte	0x386b
 10119 1beb 021C0000 		.4byte	0x1c02
ARM GAS  C:\Users\ramanatg\AppData\Local\Temp\ccxbhSsV.s 			page 247


 10120 1bef 27       		.uleb128 0x27
 10121 1bf0 01       		.uleb128 0x1
 10122 1bf1 52       		.byte	0x52
 10123 1bf2 01       		.uleb128 0x1
 10124 1bf3 32       		.byte	0x32
 10125 1bf4 27       		.uleb128 0x27
 10126 1bf5 01       		.uleb128 0x1
 10127 1bf6 51       		.byte	0x51
 10128 1bf7 03       		.uleb128 0x3
 10129 1bf8 77       		.byte	0x77
 10130 1bf9 E400     		.sleb128 100
 10131 1bfb 27       		.uleb128 0x27
 10132 1bfc 01       		.uleb128 0x1
 10133 1bfd 50       		.byte	0x50
 10134 1bfe 02       		.uleb128 0x2
 10135 1bff 7A       		.byte	0x7a
 10136 1c00 00       		.sleb128 0
 10137 1c01 00       		.byte	0
 10138 1c02 26       		.uleb128 0x26
 10139 1c03 EC140000 		.4byte	.LVL550
 10140 1c07 6B380000 		.4byte	0x386b
 10141 1c0b 231C0000 		.4byte	0x1c23
 10142 1c0f 27       		.uleb128 0x27
 10143 1c10 01       		.uleb128 0x1
 10144 1c11 52       		.byte	0x52
 10145 1c12 01       		.uleb128 0x1
 10146 1c13 33       		.byte	0x33
 10147 1c14 27       		.uleb128 0x27
 10148 1c15 01       		.uleb128 0x1
 10149 1c16 51       		.byte	0x51
 10150 1c17 03       		.uleb128 0x3
 10151 1c18 77       		.byte	0x77
 10152 1c19 E800     		.sleb128 104
 10153 1c1b 27       		.uleb128 0x27
 10154 1c1c 01       		.uleb128 0x1
 10155 1c1d 50       		.byte	0x50
 10156 1c1e 03       		.uleb128 0x3
 10157 1c1f 91       		.byte	0x91
 10158 1c20 D87E     		.sleb128 -168
 10159 1c22 00       		.byte	0
 10160 1c23 26       		.uleb128 0x26
 10161 1c24 10150000 		.4byte	.LVL552
 10162 1c28 AF380000 		.4byte	0x38af
 10163 1c2c 371C0000 		.4byte	0x1c37
 10164 1c30 27       		.uleb128 0x27
 10165 1c31 01       		.uleb128 0x1
 10166 1c32 50       		.byte	0x50
 10167 1c33 02       		.uleb128 0x2
 10168 1c34 75       		.byte	0x75
 10169 1c35 00       		.sleb128 0
 10170 1c36 00       		.byte	0
 10171 1c37 26       		.uleb128 0x26
 10172 1c38 1A150000 		.4byte	.LVL553
 10173 1c3c E6370000 		.4byte	0x37e6
 10174 1c40 571C0000 		.4byte	0x1c57
 10175 1c44 27       		.uleb128 0x27
 10176 1c45 01       		.uleb128 0x1
ARM GAS  C:\Users\ramanatg\AppData\Local\Temp\ccxbhSsV.s 			page 248


 10177 1c46 52       		.byte	0x52
 10178 1c47 01       		.uleb128 0x1
 10179 1c48 33       		.byte	0x33
 10180 1c49 27       		.uleb128 0x27
 10181 1c4a 01       		.uleb128 0x1
 10182 1c4b 51       		.byte	0x51
 10183 1c4c 03       		.uleb128 0x3
 10184 1c4d 91       		.byte	0x91
 10185 1c4e D87E     		.sleb128 -168
 10186 1c50 27       		.uleb128 0x27
 10187 1c51 01       		.uleb128 0x1
 10188 1c52 50       		.byte	0x50
 10189 1c53 02       		.uleb128 0x2
 10190 1c54 75       		.byte	0x75
 10191 1c55 00       		.sleb128 0
 10192 1c56 00       		.byte	0
 10193 1c57 26       		.uleb128 0x26
 10194 1c58 2E150000 		.4byte	.LVL554
 10195 1c5c E6370000 		.4byte	0x37e6
 10196 1c60 761C0000 		.4byte	0x1c76
 10197 1c64 27       		.uleb128 0x27
 10198 1c65 01       		.uleb128 0x1
 10199 1c66 52       		.byte	0x52
 10200 1c67 01       		.uleb128 0x1
 10201 1c68 32       		.byte	0x32
 10202 1c69 27       		.uleb128 0x27
 10203 1c6a 01       		.uleb128 0x1
 10204 1c6b 51       		.byte	0x51
 10205 1c6c 02       		.uleb128 0x2
 10206 1c6d 7A       		.byte	0x7a
 10207 1c6e 00       		.sleb128 0
 10208 1c6f 27       		.uleb128 0x27
 10209 1c70 01       		.uleb128 0x1
 10210 1c71 50       		.byte	0x50
 10211 1c72 02       		.uleb128 0x2
 10212 1c73 75       		.byte	0x75
 10213 1c74 00       		.sleb128 0
 10214 1c75 00       		.byte	0
 10215 1c76 26       		.uleb128 0x26
 10216 1c77 48150000 		.4byte	.LVL556
 10217 1c7b 05380000 		.4byte	0x3805
 10218 1c7f 8F1C0000 		.4byte	0x1c8f
 10219 1c83 27       		.uleb128 0x27
 10220 1c84 01       		.uleb128 0x1
 10221 1c85 51       		.byte	0x51
 10222 1c86 02       		.uleb128 0x2
 10223 1c87 76       		.byte	0x76
 10224 1c88 00       		.sleb128 0
 10225 1c89 27       		.uleb128 0x27
 10226 1c8a 01       		.uleb128 0x1
 10227 1c8b 50       		.byte	0x50
 10228 1c8c 01       		.uleb128 0x1
 10229 1c8d 37       		.byte	0x37
 10230 1c8e 00       		.byte	0
 10231 1c8f 26       		.uleb128 0x26
 10232 1c90 4E150000 		.4byte	.LVL557
 10233 1c94 A5370000 		.4byte	0x37a5
ARM GAS  C:\Users\ramanatg\AppData\Local\Temp\ccxbhSsV.s 			page 249


 10234 1c98 A61C0000 		.4byte	0x1ca6
 10235 1c9c 27       		.uleb128 0x27
 10236 1c9d 01       		.uleb128 0x1
 10237 1c9e 50       		.byte	0x50
 10238 1c9f 05       		.uleb128 0x5
 10239 1ca0 03       		.byte	0x3
 10240 1ca1 540A0000 		.4byte	.LC193
 10241 1ca5 00       		.byte	0
 10242 1ca6 26       		.uleb128 0x26
 10243 1ca7 5E150000 		.4byte	.LVL558
 10244 1cab A5370000 		.4byte	0x37a5
 10245 1caf BD1C0000 		.4byte	0x1cbd
 10246 1cb3 27       		.uleb128 0x27
 10247 1cb4 01       		.uleb128 0x1
 10248 1cb5 50       		.byte	0x50
 10249 1cb6 05       		.uleb128 0x5
 10250 1cb7 03       		.byte	0x3
 10251 1cb8 6C0A0000 		.4byte	.LC195
 10252 1cbc 00       		.byte	0
 10253 1cbd 28       		.uleb128 0x28
 10254 1cbe 68150000 		.4byte	.LVL560
 10255 1cc2 A5370000 		.4byte	0x37a5
 10256 1cc6 27       		.uleb128 0x27
 10257 1cc7 01       		.uleb128 0x1
 10258 1cc8 50       		.byte	0x50
 10259 1cc9 05       		.uleb128 0x5
 10260 1cca 03       		.byte	0x3
 10261 1ccb 400A0000 		.4byte	.LC191
 10262 1ccf 00       		.byte	0
 10263 1cd0 00       		.byte	0
 10264 1cd1 00       		.byte	0
 10265 1cd2 32       		.uleb128 0x32
 10266 1cd3 440C0000 		.4byte	0xc44
 10267 1cd7 44050000 		.4byte	.LBB372
 10268 1cdb 40050000 		.4byte	.Ldebug_ranges0+0x540
 10269 1cdf 01       		.byte	0x1
 10270 1ce0 2601     		.2byte	0x126
 10271 1ce2 B41D0000 		.4byte	0x1db4
 10272 1ce6 20       		.uleb128 0x20
 10273 1ce7 40050000 		.4byte	.Ldebug_ranges0+0x540
 10274 1ceb 21       		.uleb128 0x21
 10275 1cec 550C0000 		.4byte	0xc55
 10276 1cf0 A10F0000 		.4byte	.LLST61
 10277 1cf4 21       		.uleb128 0x21
 10278 1cf5 5F0C0000 		.4byte	0xc5f
 10279 1cf9 E50F0000 		.4byte	.LLST62
 10280 1cfd 33       		.uleb128 0x33
 10281 1cfe 6B0C0000 		.4byte	0xc6b
 10282 1d02 03       		.uleb128 0x3
 10283 1d03 91       		.byte	0x91
 10284 1d04 C47E     		.sleb128 -188
 10285 1d06 33       		.uleb128 0x33
 10286 1d07 770C0000 		.4byte	0xc77
 10287 1d0b 03       		.uleb128 0x3
 10288 1d0c 91       		.byte	0x91
 10289 1d0d D87E     		.sleb128 -168
 10290 1d0f 33       		.uleb128 0x33
ARM GAS  C:\Users\ramanatg\AppData\Local\Temp\ccxbhSsV.s 			page 250


 10291 1d10 810C0000 		.4byte	0xc81
 10292 1d14 03       		.uleb128 0x3
 10293 1d15 91       		.byte	0x91
 10294 1d16 B47E     		.sleb128 -204
 10295 1d18 26       		.uleb128 0x26
 10296 1d19 54050000 		.4byte	.LVL159
 10297 1d1d 84370000 		.4byte	0x3784
 10298 1d21 2C1D0000 		.4byte	0x1d2c
 10299 1d25 27       		.uleb128 0x27
 10300 1d26 01       		.uleb128 0x1
 10301 1d27 50       		.byte	0x50
 10302 1d28 02       		.uleb128 0x2
 10303 1d29 75       		.byte	0x75
 10304 1d2a 05       		.sleb128 5
 10305 1d2b 00       		.byte	0
 10306 1d2c 25       		.uleb128 0x25
 10307 1d2d 6A050000 		.4byte	.LVL161
 10308 1d31 C0070000 		.4byte	0x7c0
 10309 1d35 25       		.uleb128 0x25
 10310 1d36 7A050000 		.4byte	.LVL163
 10311 1d3a C0070000 		.4byte	0x7c0
 10312 1d3e 25       		.uleb128 0x25
 10313 1d3f 88050000 		.4byte	.LVL165
 10314 1d43 C0070000 		.4byte	0x7c0
 10315 1d47 25       		.uleb128 0x25
 10316 1d48 96050000 		.4byte	.LVL167
 10317 1d4c C0070000 		.4byte	0x7c0
 10318 1d50 26       		.uleb128 0x26
 10319 1d51 C0050000 		.4byte	.LVL169
 10320 1d55 05380000 		.4byte	0x3805
 10321 1d59 6A1D0000 		.4byte	0x1d6a
 10322 1d5d 27       		.uleb128 0x27
 10323 1d5e 01       		.uleb128 0x1
 10324 1d5f 51       		.byte	0x51
 10325 1d60 03       		.uleb128 0x3
 10326 1d61 91       		.byte	0x91
 10327 1d62 B47E     		.sleb128 -204
 10328 1d64 27       		.uleb128 0x27
 10329 1d65 01       		.uleb128 0x1
 10330 1d66 50       		.byte	0x50
 10331 1d67 01       		.uleb128 0x1
 10332 1d68 32       		.byte	0x32
 10333 1d69 00       		.byte	0
 10334 1d6a 26       		.uleb128 0x26
 10335 1d6b C6050000 		.4byte	.LVL170
 10336 1d6f A5370000 		.4byte	0x37a5
 10337 1d73 811D0000 		.4byte	0x1d81
 10338 1d77 27       		.uleb128 0x27
 10339 1d78 01       		.uleb128 0x1
 10340 1d79 50       		.byte	0x50
 10341 1d7a 05       		.uleb128 0x5
 10342 1d7b 03       		.byte	0x3
 10343 1d7c 2C010000 		.4byte	.LC87
 10344 1d80 00       		.byte	0
 10345 1d81 26       		.uleb128 0x26
 10346 1d82 D2050000 		.4byte	.LVL171
 10347 1d86 50380000 		.4byte	0x3850
ARM GAS  C:\Users\ramanatg\AppData\Local\Temp\ccxbhSsV.s 			page 251


 10348 1d8a 9F1D0000 		.4byte	0x1d9f
 10349 1d8e 27       		.uleb128 0x27
 10350 1d8f 01       		.uleb128 0x1
 10351 1d90 51       		.byte	0x51
 10352 1d91 05       		.uleb128 0x5
 10353 1d92 03       		.byte	0x3
 10354 1d93 18010000 		.4byte	.LC83
 10355 1d97 27       		.uleb128 0x27
 10356 1d98 01       		.uleb128 0x1
 10357 1d99 50       		.byte	0x50
 10358 1d9a 03       		.uleb128 0x3
 10359 1d9b 91       		.byte	0x91
 10360 1d9c C47E     		.sleb128 -188
 10361 1d9e 00       		.byte	0
 10362 1d9f 28       		.uleb128 0x28
 10363 1da0 400B0000 		.4byte	.LVL319
 10364 1da4 A5370000 		.4byte	0x37a5
 10365 1da8 27       		.uleb128 0x27
 10366 1da9 01       		.uleb128 0x1
 10367 1daa 50       		.byte	0x50
 10368 1dab 05       		.uleb128 0x5
 10369 1dac 03       		.byte	0x3
 10370 1dad 20010000 		.4byte	.LC85
 10371 1db1 00       		.byte	0
 10372 1db2 00       		.byte	0
 10373 1db3 00       		.byte	0
 10374 1db4 32       		.uleb128 0x32
 10375 1db5 EA0B0000 		.4byte	0xbea
 10376 1db9 D6050000 		.4byte	.LBB375
 10377 1dbd 58050000 		.4byte	.Ldebug_ranges0+0x558
 10378 1dc1 01       		.byte	0x1
 10379 1dc2 2101     		.2byte	0x121
 10380 1dc4 A01E0000 		.4byte	0x1ea0
 10381 1dc8 20       		.uleb128 0x20
 10382 1dc9 58050000 		.4byte	.Ldebug_ranges0+0x558
 10383 1dcd 21       		.uleb128 0x21
 10384 1dce FB0B0000 		.4byte	0xbfb
 10385 1dd2 05100000 		.4byte	.LLST63
 10386 1dd6 21       		.uleb128 0x21
 10387 1dd7 050C0000 		.4byte	0xc05
 10388 1ddb 79100000 		.4byte	.LLST64
 10389 1ddf 33       		.uleb128 0x33
 10390 1de0 110C0000 		.4byte	0xc11
 10391 1de4 03       		.uleb128 0x3
 10392 1de5 91       		.byte	0x91
 10393 1de6 C47E     		.sleb128 -188
 10394 1de8 33       		.uleb128 0x33
 10395 1de9 1D0C0000 		.4byte	0xc1d
 10396 1ded 03       		.uleb128 0x3
 10397 1dee 91       		.byte	0x91
 10398 1def D87E     		.sleb128 -168
 10399 1df1 33       		.uleb128 0x33
 10400 1df2 270C0000 		.4byte	0xc27
 10401 1df6 03       		.uleb128 0x3
 10402 1df7 91       		.byte	0x91
 10403 1df8 B47E     		.sleb128 -204
 10404 1dfa 32       		.uleb128 0x32
ARM GAS  C:\Users\ramanatg\AppData\Local\Temp\ccxbhSsV.s 			page 252


 10405 1dfb C0070000 		.4byte	0x7c0
 10406 1dff F8050000 		.4byte	.LBB377
 10407 1e03 78050000 		.4byte	.Ldebug_ranges0+0x578
 10408 1e07 01       		.byte	0x1
 10409 1e08 0504     		.2byte	0x405
 10410 1e0a 271E0000 		.4byte	0x1e27
 10411 1e0e 1F       		.uleb128 0x1f
 10412 1e0f D1070000 		.4byte	0x7d1
 10413 1e13 B1100000 		.4byte	.LLST65
 10414 1e17 20       		.uleb128 0x20
 10415 1e18 B8050000 		.4byte	.Ldebug_ranges0+0x5b8
 10416 1e1c 1F       		.uleb128 0x1f
 10417 1e1d D1070000 		.4byte	0x7d1
 10418 1e21 AD110000 		.4byte	.LLST66
 10419 1e25 00       		.byte	0
 10420 1e26 00       		.byte	0
 10421 1e27 26       		.uleb128 0x26
 10422 1e28 E6050000 		.4byte	.LVL173
 10423 1e2c 84370000 		.4byte	0x3784
 10424 1e30 3B1E0000 		.4byte	0x1e3b
 10425 1e34 27       		.uleb128 0x27
 10426 1e35 01       		.uleb128 0x1
 10427 1e36 50       		.byte	0x50
 10428 1e37 02       		.uleb128 0x2
 10429 1e38 75       		.byte	0x75
 10430 1e39 05       		.sleb128 5
 10431 1e3a 00       		.byte	0
 10432 1e3b 26       		.uleb128 0x26
 10433 1e3c C4060000 		.4byte	.LVL195
 10434 1e40 05380000 		.4byte	0x3805
 10435 1e44 561E0000 		.4byte	0x1e56
 10436 1e48 27       		.uleb128 0x27
 10437 1e49 01       		.uleb128 0x1
 10438 1e4a 51       		.byte	0x51
 10439 1e4b 03       		.uleb128 0x3
 10440 1e4c 91       		.byte	0x91
 10441 1e4d B47E     		.sleb128 -204
 10442 1e4f 27       		.uleb128 0x27
 10443 1e50 01       		.uleb128 0x1
 10444 1e51 50       		.byte	0x50
 10445 1e52 02       		.uleb128 0x2
 10446 1e53 78       		.byte	0x78
 10447 1e54 00       		.sleb128 0
 10448 1e55 00       		.byte	0
 10449 1e56 26       		.uleb128 0x26
 10450 1e57 CA060000 		.4byte	.LVL196
 10451 1e5b A5370000 		.4byte	0x37a5
 10452 1e5f 6D1E0000 		.4byte	0x1e6d
 10453 1e63 27       		.uleb128 0x27
 10454 1e64 01       		.uleb128 0x1
 10455 1e65 50       		.byte	0x50
 10456 1e66 05       		.uleb128 0x5
 10457 1e67 03       		.byte	0x3
 10458 1e68 DC0B0000 		.4byte	.LC240
 10459 1e6c 00       		.byte	0
 10460 1e6d 26       		.uleb128 0x26
 10461 1e6e D6060000 		.4byte	.LVL197
ARM GAS  C:\Users\ramanatg\AppData\Local\Temp\ccxbhSsV.s 			page 253


 10462 1e72 50380000 		.4byte	0x3850
 10463 1e76 8B1E0000 		.4byte	0x1e8b
 10464 1e7a 27       		.uleb128 0x27
 10465 1e7b 01       		.uleb128 0x1
 10466 1e7c 51       		.byte	0x51
 10467 1e7d 05       		.uleb128 0x5
 10468 1e7e 03       		.byte	0x3
 10469 1e7f 18010000 		.4byte	.LC83
 10470 1e83 27       		.uleb128 0x27
 10471 1e84 01       		.uleb128 0x1
 10472 1e85 50       		.byte	0x50
 10473 1e86 03       		.uleb128 0x3
 10474 1e87 91       		.byte	0x91
 10475 1e88 C47E     		.sleb128 -188
 10476 1e8a 00       		.byte	0
 10477 1e8b 28       		.uleb128 0x28
 10478 1e8c 4E0B0000 		.4byte	.LVL323
 10479 1e90 A5370000 		.4byte	0x37a5
 10480 1e94 27       		.uleb128 0x27
 10481 1e95 01       		.uleb128 0x1
 10482 1e96 50       		.byte	0x50
 10483 1e97 05       		.uleb128 0x5
 10484 1e98 03       		.byte	0x3
 10485 1e99 0C010000 		.4byte	.LC81
 10486 1e9d 00       		.byte	0
 10487 1e9e 00       		.byte	0
 10488 1e9f 00       		.byte	0
 10489 1ea0 32       		.uleb128 0x32
 10490 1ea1 EA0C0000 		.4byte	0xcea
 10491 1ea5 AA080000 		.4byte	.LBB402
 10492 1ea9 E0050000 		.4byte	.Ldebug_ranges0+0x5e0
 10493 1ead 01       		.byte	0x1
 10494 1eae 3001     		.2byte	0x130
 10495 1eb0 651F0000 		.4byte	0x1f65
 10496 1eb4 20       		.uleb128 0x20
 10497 1eb5 E0050000 		.4byte	.Ldebug_ranges0+0x5e0
 10498 1eb9 33       		.uleb128 0x33
 10499 1eba FB0C0000 		.4byte	0xcfb
 10500 1ebe 03       		.uleb128 0x3
 10501 1ebf 91       		.byte	0x91
 10502 1ec0 B47E     		.sleb128 -204
 10503 1ec2 21       		.uleb128 0x21
 10504 1ec3 070D0000 		.4byte	0xd07
 10505 1ec7 19120000 		.4byte	.LLST67
 10506 1ecb 33       		.uleb128 0x33
 10507 1ecc 110D0000 		.4byte	0xd11
 10508 1ed0 03       		.uleb128 0x3
 10509 1ed1 91       		.byte	0x91
 10510 1ed2 D87E     		.sleb128 -168
 10511 1ed4 33       		.uleb128 0x33
 10512 1ed5 1D0D0000 		.4byte	0xd1d
 10513 1ed9 03       		.uleb128 0x3
 10514 1eda 91       		.byte	0x91
 10515 1edb C47E     		.sleb128 -188
 10516 1edd 26       		.uleb128 0x26
 10517 1ede B0080000 		.4byte	.LVL245
 10518 1ee2 A5370000 		.4byte	0x37a5
ARM GAS  C:\Users\ramanatg\AppData\Local\Temp\ccxbhSsV.s 			page 254


 10519 1ee6 F41E0000 		.4byte	0x1ef4
 10520 1eea 27       		.uleb128 0x27
 10521 1eeb 01       		.uleb128 0x1
 10522 1eec 50       		.byte	0x50
 10523 1eed 05       		.uleb128 0x5
 10524 1eee 03       		.byte	0x3
 10525 1eef A0010000 		.4byte	.LC96
 10526 1ef3 00       		.byte	0
 10527 1ef4 26       		.uleb128 0x26
 10528 1ef5 BE080000 		.4byte	.LVL246
 10529 1ef9 50380000 		.4byte	0x3850
 10530 1efd 121F0000 		.4byte	0x1f12
 10531 1f01 27       		.uleb128 0x27
 10532 1f02 01       		.uleb128 0x1
 10533 1f03 51       		.byte	0x51
 10534 1f04 05       		.uleb128 0x5
 10535 1f05 03       		.byte	0x3
 10536 1f06 FC010000 		.4byte	.LC100
 10537 1f0a 27       		.uleb128 0x27
 10538 1f0b 01       		.uleb128 0x1
 10539 1f0c 50       		.byte	0x50
 10540 1f0d 03       		.uleb128 0x3
 10541 1f0e 91       		.byte	0x91
 10542 1f0f C47E     		.sleb128 -188
 10543 1f11 00       		.byte	0
 10544 1f12 26       		.uleb128 0x26
 10545 1f13 040E0000 		.4byte	.LVL387
 10546 1f17 05380000 		.4byte	0x3805
 10547 1f1b 2C1F0000 		.4byte	0x1f2c
 10548 1f1f 27       		.uleb128 0x27
 10549 1f20 01       		.uleb128 0x1
 10550 1f21 51       		.byte	0x51
 10551 1f22 03       		.uleb128 0x3
 10552 1f23 91       		.byte	0x91
 10553 1f24 B47E     		.sleb128 -204
 10554 1f26 27       		.uleb128 0x27
 10555 1f27 01       		.uleb128 0x1
 10556 1f28 50       		.byte	0x50
 10557 1f29 01       		.uleb128 0x1
 10558 1f2a 44       		.byte	0x44
 10559 1f2b 00       		.byte	0
 10560 1f2c 26       		.uleb128 0x26
 10561 1f2d 1A0E0000 		.4byte	.LVL388
 10562 1f31 1F380000 		.4byte	0x381f
 10563 1f35 501F0000 		.4byte	0x1f50
 10564 1f39 27       		.uleb128 0x27
 10565 1f3a 01       		.uleb128 0x1
 10566 1f3b 53       		.byte	0x53
 10567 1f3c 01       		.uleb128 0x1
 10568 1f3d 30       		.byte	0x30
 10569 1f3e 27       		.uleb128 0x27
 10570 1f3f 01       		.uleb128 0x1
 10571 1f40 52       		.byte	0x52
 10572 1f41 01       		.uleb128 0x1
 10573 1f42 30       		.byte	0x30
 10574 1f43 27       		.uleb128 0x27
 10575 1f44 01       		.uleb128 0x1
ARM GAS  C:\Users\ramanatg\AppData\Local\Temp\ccxbhSsV.s 			page 255


 10576 1f45 51       		.byte	0x51
 10577 1f46 01       		.uleb128 0x1
 10578 1f47 30       		.byte	0x30
 10579 1f48 27       		.uleb128 0x27
 10580 1f49 01       		.uleb128 0x1
 10581 1f4a 50       		.byte	0x50
 10582 1f4b 03       		.uleb128 0x3
 10583 1f4c 91       		.byte	0x91
 10584 1f4d D87E     		.sleb128 -168
 10585 1f4f 00       		.byte	0
 10586 1f50 28       		.uleb128 0x28
 10587 1f51 200E0000 		.4byte	.LVL389
 10588 1f55 A5370000 		.4byte	0x37a5
 10589 1f59 27       		.uleb128 0x27
 10590 1f5a 01       		.uleb128 0x1
 10591 1f5b 50       		.byte	0x50
 10592 1f5c 05       		.uleb128 0x5
 10593 1f5d 03       		.byte	0x3
 10594 1f5e CC010000 		.4byte	.LC98
 10595 1f62 00       		.byte	0
 10596 1f63 00       		.byte	0
 10597 1f64 00       		.byte	0
 10598 1f65 32       		.uleb128 0x32
 10599 1f66 690E0000 		.4byte	0xe69
 10600 1f6a C0080000 		.4byte	.LBB406
 10601 1f6e 00060000 		.4byte	.Ldebug_ranges0+0x600
 10602 1f72 01       		.byte	0x1
 10603 1f73 4401     		.2byte	0x144
 10604 1f75 18210000 		.4byte	0x2118
 10605 1f79 20       		.uleb128 0x20
 10606 1f7a 00060000 		.4byte	.Ldebug_ranges0+0x600
 10607 1f7e 21       		.uleb128 0x21
 10608 1f7f 7A0E0000 		.4byte	0xe7a
 10609 1f83 44120000 		.4byte	.LLST68
 10610 1f87 33       		.uleb128 0x33
 10611 1f88 840E0000 		.4byte	0xe84
 10612 1f8c 03       		.uleb128 0x3
 10613 1f8d 91       		.byte	0x91
 10614 1f8e B47E     		.sleb128 -204
 10615 1f90 33       		.uleb128 0x33
 10616 1f91 900E0000 		.4byte	0xe90
 10617 1f95 03       		.uleb128 0x3
 10618 1f96 91       		.byte	0x91
 10619 1f97 C47E     		.sleb128 -188
 10620 1f99 21       		.uleb128 0x21
 10621 1f9a 9C0E0000 		.4byte	0xe9c
 10622 1f9e 5F120000 		.4byte	.LLST69
 10623 1fa2 33       		.uleb128 0x33
 10624 1fa3 A80E0000 		.4byte	0xea8
 10625 1fa7 03       		.uleb128 0x3
 10626 1fa8 91       		.byte	0x91
 10627 1fa9 D87E     		.sleb128 -168
 10628 1fab 25       		.uleb128 0x25
 10629 1fac C4080000 		.4byte	.LVL247
 10630 1fb0 A5370000 		.4byte	0x37a5
 10631 1fb4 26       		.uleb128 0x26
 10632 1fb5 CA080000 		.4byte	.LVL248
ARM GAS  C:\Users\ramanatg\AppData\Local\Temp\ccxbhSsV.s 			page 256


 10633 1fb9 A5370000 		.4byte	0x37a5
 10634 1fbd CB1F0000 		.4byte	0x1fcb
 10635 1fc1 27       		.uleb128 0x27
 10636 1fc2 01       		.uleb128 0x1
 10637 1fc3 50       		.byte	0x50
 10638 1fc4 05       		.uleb128 0x5
 10639 1fc5 03       		.byte	0x3
 10640 1fc6 74000000 		.4byte	.LC63
 10641 1fca 00       		.byte	0
 10642 1fcb 26       		.uleb128 0x26
 10643 1fcc 9C0E0000 		.4byte	.LVL404
 10644 1fd0 AF380000 		.4byte	0x38af
 10645 1fd4 DF1F0000 		.4byte	0x1fdf
 10646 1fd8 27       		.uleb128 0x27
 10647 1fd9 01       		.uleb128 0x1
 10648 1fda 50       		.byte	0x50
 10649 1fdb 02       		.uleb128 0x2
 10650 1fdc 7B       		.byte	0x7b
 10651 1fdd 00       		.sleb128 0
 10652 1fde 00       		.byte	0
 10653 1fdf 26       		.uleb128 0x26
 10654 1fe0 AE0E0000 		.4byte	.LVL405
 10655 1fe4 84370000 		.4byte	0x3784
 10656 1fe8 F31F0000 		.4byte	0x1ff3
 10657 1fec 27       		.uleb128 0x27
 10658 1fed 01       		.uleb128 0x1
 10659 1fee 50       		.byte	0x50
 10660 1fef 02       		.uleb128 0x2
 10661 1ff0 7A       		.byte	0x7a
 10662 1ff1 00       		.sleb128 0
 10663 1ff2 00       		.byte	0
 10664 1ff3 26       		.uleb128 0x26
 10665 1ff4 C00E0000 		.4byte	.LVL407
 10666 1ff8 E6370000 		.4byte	0x37e6
 10667 1ffc 13200000 		.4byte	0x2013
 10668 2000 27       		.uleb128 0x27
 10669 2001 01       		.uleb128 0x1
 10670 2002 52       		.byte	0x52
 10671 2003 02       		.uleb128 0x2
 10672 2004 77       		.byte	0x77
 10673 2005 00       		.sleb128 0
 10674 2006 27       		.uleb128 0x27
 10675 2007 01       		.uleb128 0x1
 10676 2008 51       		.byte	0x51
 10677 2009 02       		.uleb128 0x2
 10678 200a 7A       		.byte	0x7a
 10679 200b 00       		.sleb128 0
 10680 200c 27       		.uleb128 0x27
 10681 200d 01       		.uleb128 0x1
 10682 200e 50       		.byte	0x50
 10683 200f 02       		.uleb128 0x2
 10684 2010 7B       		.byte	0x7b
 10685 2011 00       		.sleb128 0
 10686 2012 00       		.byte	0
 10687 2013 26       		.uleb128 0x26
 10688 2014 D20E0000 		.4byte	.LVL408
 10689 2018 84370000 		.4byte	0x3784
ARM GAS  C:\Users\ramanatg\AppData\Local\Temp\ccxbhSsV.s 			page 257


 10690 201c 27200000 		.4byte	0x2027
 10691 2020 27       		.uleb128 0x27
 10692 2021 01       		.uleb128 0x1
 10693 2022 50       		.byte	0x50
 10694 2023 02       		.uleb128 0x2
 10695 2024 75       		.byte	0x75
 10696 2025 00       		.sleb128 0
 10697 2026 00       		.byte	0
 10698 2027 26       		.uleb128 0x26
 10699 2028 DE0E0000 		.4byte	.LVL410
 10700 202c E6370000 		.4byte	0x37e6
 10701 2030 47200000 		.4byte	0x2047
 10702 2034 27       		.uleb128 0x27
 10703 2035 01       		.uleb128 0x1
 10704 2036 52       		.byte	0x52
 10705 2037 02       		.uleb128 0x2
 10706 2038 77       		.byte	0x77
 10707 2039 00       		.sleb128 0
 10708 203a 27       		.uleb128 0x27
 10709 203b 01       		.uleb128 0x1
 10710 203c 51       		.byte	0x51
 10711 203d 02       		.uleb128 0x2
 10712 203e 75       		.byte	0x75
 10713 203f 00       		.sleb128 0
 10714 2040 27       		.uleb128 0x27
 10715 2041 01       		.uleb128 0x1
 10716 2042 50       		.byte	0x50
 10717 2043 02       		.uleb128 0x2
 10718 2044 7B       		.byte	0x7b
 10719 2045 00       		.sleb128 0
 10720 2046 00       		.byte	0
 10721 2047 26       		.uleb128 0x26
 10722 2048 F20E0000 		.4byte	.LVL411
 10723 204c 84370000 		.4byte	0x3784
 10724 2050 5B200000 		.4byte	0x205b
 10725 2054 27       		.uleb128 0x27
 10726 2055 01       		.uleb128 0x1
 10727 2056 50       		.byte	0x50
 10728 2057 02       		.uleb128 0x2
 10729 2058 75       		.byte	0x75
 10730 2059 00       		.sleb128 0
 10731 205a 00       		.byte	0
 10732 205b 26       		.uleb128 0x26
 10733 205c FE0E0000 		.4byte	.LVL413
 10734 2060 E6370000 		.4byte	0x37e6
 10735 2064 7B200000 		.4byte	0x207b
 10736 2068 27       		.uleb128 0x27
 10737 2069 01       		.uleb128 0x1
 10738 206a 52       		.byte	0x52
 10739 206b 02       		.uleb128 0x2
 10740 206c 77       		.byte	0x77
 10741 206d 00       		.sleb128 0
 10742 206e 27       		.uleb128 0x27
 10743 206f 01       		.uleb128 0x1
 10744 2070 51       		.byte	0x51
 10745 2071 02       		.uleb128 0x2
 10746 2072 75       		.byte	0x75
ARM GAS  C:\Users\ramanatg\AppData\Local\Temp\ccxbhSsV.s 			page 258


 10747 2073 00       		.sleb128 0
 10748 2074 27       		.uleb128 0x27
 10749 2075 01       		.uleb128 0x1
 10750 2076 50       		.byte	0x50
 10751 2077 02       		.uleb128 0x2
 10752 2078 7B       		.byte	0x7b
 10753 2079 00       		.sleb128 0
 10754 207a 00       		.byte	0
 10755 207b 26       		.uleb128 0x26
 10756 207c 120F0000 		.4byte	.LVL414
 10757 2080 84370000 		.4byte	0x3784
 10758 2084 8F200000 		.4byte	0x208f
 10759 2088 27       		.uleb128 0x27
 10760 2089 01       		.uleb128 0x1
 10761 208a 50       		.byte	0x50
 10762 208b 02       		.uleb128 0x2
 10763 208c 75       		.byte	0x75
 10764 208d 00       		.sleb128 0
 10765 208e 00       		.byte	0
 10766 208f 26       		.uleb128 0x26
 10767 2090 1E0F0000 		.4byte	.LVL416
 10768 2094 E6370000 		.4byte	0x37e6
 10769 2098 AF200000 		.4byte	0x20af
 10770 209c 27       		.uleb128 0x27
 10771 209d 01       		.uleb128 0x1
 10772 209e 52       		.byte	0x52
 10773 209f 02       		.uleb128 0x2
 10774 20a0 77       		.byte	0x77
 10775 20a1 00       		.sleb128 0
 10776 20a2 27       		.uleb128 0x27
 10777 20a3 01       		.uleb128 0x1
 10778 20a4 51       		.byte	0x51
 10779 20a5 02       		.uleb128 0x2
 10780 20a6 75       		.byte	0x75
 10781 20a7 00       		.sleb128 0
 10782 20a8 27       		.uleb128 0x27
 10783 20a9 01       		.uleb128 0x1
 10784 20aa 50       		.byte	0x50
 10785 20ab 02       		.uleb128 0x2
 10786 20ac 7B       		.byte	0x7b
 10787 20ad 00       		.sleb128 0
 10788 20ae 00       		.byte	0
 10789 20af 26       		.uleb128 0x26
 10790 20b0 420F0000 		.4byte	.LVL417
 10791 20b4 05380000 		.4byte	0x3805
 10792 20b8 C8200000 		.4byte	0x20c8
 10793 20bc 27       		.uleb128 0x27
 10794 20bd 01       		.uleb128 0x1
 10795 20be 51       		.byte	0x51
 10796 20bf 02       		.uleb128 0x2
 10797 20c0 76       		.byte	0x76
 10798 20c1 00       		.sleb128 0
 10799 20c2 27       		.uleb128 0x27
 10800 20c3 01       		.uleb128 0x1
 10801 20c4 50       		.byte	0x50
 10802 20c5 01       		.uleb128 0x1
 10803 20c6 43       		.byte	0x43
ARM GAS  C:\Users\ramanatg\AppData\Local\Temp\ccxbhSsV.s 			page 259


 10804 20c7 00       		.byte	0
 10805 20c8 26       		.uleb128 0x26
 10806 20c9 5A0F0000 		.4byte	.LVL418
 10807 20cd 1F380000 		.4byte	0x381f
 10808 20d1 EC200000 		.4byte	0x20ec
 10809 20d5 27       		.uleb128 0x27
 10810 20d6 01       		.uleb128 0x1
 10811 20d7 53       		.byte	0x53
 10812 20d8 01       		.uleb128 0x1
 10813 20d9 30       		.byte	0x30
 10814 20da 27       		.uleb128 0x27
 10815 20db 01       		.uleb128 0x1
 10816 20dc 52       		.byte	0x52
 10817 20dd 01       		.uleb128 0x1
 10818 20de 30       		.byte	0x30
 10819 20df 27       		.uleb128 0x27
 10820 20e0 01       		.uleb128 0x1
 10821 20e1 51       		.byte	0x51
 10822 20e2 01       		.uleb128 0x1
 10823 20e3 30       		.byte	0x30
 10824 20e4 27       		.uleb128 0x27
 10825 20e5 01       		.uleb128 0x1
 10826 20e6 50       		.byte	0x50
 10827 20e7 03       		.uleb128 0x3
 10828 20e8 91       		.byte	0x91
 10829 20e9 C47E     		.sleb128 -188
 10830 20eb 00       		.byte	0
 10831 20ec 26       		.uleb128 0x26
 10832 20ed 600F0000 		.4byte	.LVL419
 10833 20f1 A5370000 		.4byte	0x37a5
 10834 20f5 03210000 		.4byte	0x2103
 10835 20f9 27       		.uleb128 0x27
 10836 20fa 01       		.uleb128 0x1
 10837 20fb 50       		.byte	0x50
 10838 20fc 05       		.uleb128 0x5
 10839 20fd 03       		.byte	0x3
 10840 20fe 34030000 		.4byte	.LC129
 10841 2102 00       		.byte	0
 10842 2103 28       		.uleb128 0x28
 10843 2104 740F0000 		.4byte	.LVL420
 10844 2108 A5370000 		.4byte	0x37a5
 10845 210c 27       		.uleb128 0x27
 10846 210d 01       		.uleb128 0x1
 10847 210e 50       		.byte	0x50
 10848 210f 05       		.uleb128 0x5
 10849 2110 03       		.byte	0x3
 10850 2111 14030000 		.4byte	.LC127
 10851 2115 00       		.byte	0
 10852 2116 00       		.byte	0
 10853 2117 00       		.byte	0
 10854 2118 32       		.uleb128 0x32
 10855 2119 25110000 		.4byte	0x1125
 10856 211d EA090000 		.4byte	.LBB414
 10857 2121 28060000 		.4byte	.Ldebug_ranges0+0x628
 10858 2125 01       		.byte	0x1
 10859 2126 D501     		.2byte	0x1d5
 10860 2128 D2220000 		.4byte	0x22d2
ARM GAS  C:\Users\ramanatg\AppData\Local\Temp\ccxbhSsV.s 			page 260


 10861 212c 20       		.uleb128 0x20
 10862 212d 28060000 		.4byte	.Ldebug_ranges0+0x628
 10863 2131 33       		.uleb128 0x33
 10864 2132 36110000 		.4byte	0x1136
 10865 2136 03       		.uleb128 0x3
 10866 2137 91       		.byte	0x91
 10867 2138 C47E     		.sleb128 -188
 10868 213a 33       		.uleb128 0x33
 10869 213b 42110000 		.4byte	0x1142
 10870 213f 03       		.uleb128 0x3
 10871 2140 91       		.byte	0x91
 10872 2141 D87E     		.sleb128 -168
 10873 2143 33       		.uleb128 0x33
 10874 2144 4E110000 		.4byte	0x114e
 10875 2148 03       		.uleb128 0x3
 10876 2149 91       		.byte	0x91
 10877 214a A87E     		.sleb128 -216
 10878 214c 21       		.uleb128 0x21
 10879 214d 5A110000 		.4byte	0x115a
 10880 2151 93120000 		.4byte	.LLST70
 10881 2155 21       		.uleb128 0x21
 10882 2156 66110000 		.4byte	0x1166
 10883 215a F0120000 		.4byte	.LLST71
 10884 215e 21       		.uleb128 0x21
 10885 215f 70110000 		.4byte	0x1170
 10886 2163 28130000 		.4byte	.LLST72
 10887 2167 33       		.uleb128 0x33
 10888 2168 7A110000 		.4byte	0x117a
 10889 216c 03       		.uleb128 0x3
 10890 216d 91       		.byte	0x91
 10891 216e B47E     		.sleb128 -204
 10892 2170 32       		.uleb128 0x32
 10893 2171 0B080000 		.4byte	0x80b
 10894 2175 90120000 		.4byte	.LBB416
 10895 2179 70060000 		.4byte	.Ldebug_ranges0+0x670
 10896 217d 01       		.byte	0x1
 10897 217e 4E09     		.2byte	0x94e
 10898 2180 37220000 		.4byte	0x2237
 10899 2184 31       		.uleb128 0x31
 10900 2185 34080000 		.4byte	0x834
 10901 2189 36       		.uleb128 0x36
 10902 218a 28080000 		.4byte	0x828
 10903 218e 01       		.uleb128 0x1
 10904 218f 55       		.byte	0x55
 10905 2190 31       		.uleb128 0x31
 10906 2191 1C080000 		.4byte	0x81c
 10907 2195 20       		.uleb128 0x20
 10908 2196 70060000 		.4byte	.Ldebug_ranges0+0x670
 10909 219a 21       		.uleb128 0x21
 10910 219b 40080000 		.4byte	0x840
 10911 219f 67130000 		.4byte	.LLST73
 10912 21a3 21       		.uleb128 0x21
 10913 21a4 4A080000 		.4byte	0x84a
 10914 21a8 90130000 		.4byte	.LLST74
 10915 21ac 24       		.uleb128 0x24
 10916 21ad 54080000 		.4byte	0x854
 10917 21b1 35       		.uleb128 0x35
ARM GAS  C:\Users\ramanatg\AppData\Local\Temp\ccxbhSsV.s 			page 261


 10918 21b2 A40A0000 		.4byte	0xaa4
 10919 21b6 90120000 		.4byte	.LBB418
 10920 21ba 88060000 		.4byte	.Ldebug_ranges0+0x688
 10921 21be 01       		.byte	0x1
 10922 21bf E309     		.2byte	0x9e3
 10923 21c1 1F       		.uleb128 0x1f
 10924 21c2 B50A0000 		.4byte	0xab5
 10925 21c6 AE130000 		.4byte	.LLST75
 10926 21ca 20       		.uleb128 0x20
 10927 21cb 88060000 		.4byte	.Ldebug_ranges0+0x688
 10928 21cf 24       		.uleb128 0x24
 10929 21d0 BF0A0000 		.4byte	0xabf
 10930 21d4 24       		.uleb128 0x24
 10931 21d5 CB0A0000 		.4byte	0xacb
 10932 21d9 32       		.uleb128 0x32
 10933 21da C0070000 		.4byte	0x7c0
 10934 21de 92120000 		.4byte	.LBB420
 10935 21e2 A8060000 		.4byte	.Ldebug_ranges0+0x6a8
 10936 21e6 01       		.byte	0x1
 10937 21e7 080A     		.2byte	0xa08
 10938 21e9 06220000 		.4byte	0x2206
 10939 21ed 1F       		.uleb128 0x1f
 10940 21ee D1070000 		.4byte	0x7d1
 10941 21f2 EA130000 		.4byte	.LLST76
 10942 21f6 20       		.uleb128 0x20
 10943 21f7 D0060000 		.4byte	.Ldebug_ranges0+0x6d0
 10944 21fb 1F       		.uleb128 0x1f
 10945 21fc D1070000 		.4byte	0x7d1
 10946 2200 78140000 		.4byte	.LLST77
 10947 2204 00       		.byte	0
 10948 2205 00       		.byte	0
 10949 2206 35       		.uleb128 0x35
 10950 2207 C0070000 		.4byte	0x7c0
 10951 220b B4120000 		.4byte	.LBB431
 10952 220f F0060000 		.4byte	.Ldebug_ranges0+0x6f0
 10953 2213 01       		.byte	0x1
 10954 2214 090A     		.2byte	0xa09
 10955 2216 1F       		.uleb128 0x1f
 10956 2217 D1070000 		.4byte	0x7d1
 10957 221b BE140000 		.4byte	.LLST78
 10958 221f 23       		.uleb128 0x23
 10959 2220 CC120000 		.4byte	.LBB433
 10960 2224 10000000 		.4byte	.LBE433-.LBB433
 10961 2228 1F       		.uleb128 0x1f
 10962 2229 D1070000 		.4byte	0x7d1
 10963 222d F5140000 		.4byte	.LLST79
 10964 2231 00       		.byte	0
 10965 2232 00       		.byte	0
 10966 2233 00       		.byte	0
 10967 2234 00       		.byte	0
 10968 2235 00       		.byte	0
 10969 2236 00       		.byte	0
 10970 2237 26       		.uleb128 0x26
 10971 2238 D6110000 		.4byte	.LVL473
 10972 223c 84370000 		.4byte	0x3784
 10973 2240 4B220000 		.4byte	0x224b
 10974 2244 27       		.uleb128 0x27
ARM GAS  C:\Users\ramanatg\AppData\Local\Temp\ccxbhSsV.s 			page 262


 10975 2245 01       		.uleb128 0x1
 10976 2246 50       		.byte	0x50
 10977 2247 02       		.uleb128 0x2
 10978 2248 7B       		.byte	0x7b
 10979 2249 08       		.sleb128 8
 10980 224a 00       		.byte	0
 10981 224b 26       		.uleb128 0x26
 10982 224c 08130000 		.4byte	.LVL500
 10983 2250 E6370000 		.4byte	0x37e6
 10984 2254 6E220000 		.4byte	0x226e
 10985 2258 27       		.uleb128 0x27
 10986 2259 01       		.uleb128 0x1
 10987 225a 52       		.byte	0x52
 10988 225b 01       		.uleb128 0x1
 10989 225c 40       		.byte	0x40
 10990 225d 27       		.uleb128 0x27
 10991 225e 01       		.uleb128 0x1
 10992 225f 51       		.byte	0x51
 10993 2260 03       		.uleb128 0x3
 10994 2261 91       		.byte	0x91
 10995 2262 C47E     		.sleb128 -188
 10996 2264 27       		.uleb128 0x27
 10997 2265 01       		.uleb128 0x1
 10998 2266 50       		.byte	0x50
 10999 2267 05       		.uleb128 0x5
 11000 2268 0C       		.byte	0xc
 11001 2269 B6F2FF0F 		.4byte	0xffff2b6
 11002 226d 00       		.byte	0
 11003 226e 26       		.uleb128 0x26
 11004 226f 1A130000 		.4byte	.LVL502
 11005 2273 05380000 		.4byte	0x3805
 11006 2277 82220000 		.4byte	0x2282
 11007 227b 27       		.uleb128 0x27
 11008 227c 01       		.uleb128 0x1
 11009 227d 51       		.byte	0x51
 11010 227e 02       		.uleb128 0x2
 11011 227f 77       		.byte	0x77
 11012 2280 00       		.sleb128 0
 11013 2281 00       		.byte	0
 11014 2282 26       		.uleb128 0x26
 11015 2283 32130000 		.4byte	.LVL503
 11016 2287 1F380000 		.4byte	0x381f
 11017 228b A6220000 		.4byte	0x22a6
 11018 228f 27       		.uleb128 0x27
 11019 2290 01       		.uleb128 0x1
 11020 2291 53       		.byte	0x53
 11021 2292 01       		.uleb128 0x1
 11022 2293 30       		.byte	0x30
 11023 2294 27       		.uleb128 0x27
 11024 2295 01       		.uleb128 0x1
 11025 2296 52       		.byte	0x52
 11026 2297 01       		.uleb128 0x1
 11027 2298 30       		.byte	0x30
 11028 2299 27       		.uleb128 0x27
 11029 229a 01       		.uleb128 0x1
 11030 229b 51       		.byte	0x51
 11031 229c 01       		.uleb128 0x1
ARM GAS  C:\Users\ramanatg\AppData\Local\Temp\ccxbhSsV.s 			page 263


 11032 229d 30       		.byte	0x30
 11033 229e 27       		.uleb128 0x27
 11034 229f 01       		.uleb128 0x1
 11035 22a0 50       		.byte	0x50
 11036 22a1 03       		.uleb128 0x3
 11037 22a2 91       		.byte	0x91
 11038 22a3 B47E     		.sleb128 -204
 11039 22a5 00       		.byte	0
 11040 22a6 26       		.uleb128 0x26
 11041 22a7 38130000 		.4byte	.LVL504
 11042 22ab A5370000 		.4byte	0x37a5
 11043 22af BD220000 		.4byte	0x22bd
 11044 22b3 27       		.uleb128 0x27
 11045 22b4 01       		.uleb128 0x1
 11046 22b5 50       		.byte	0x50
 11047 22b6 05       		.uleb128 0x5
 11048 22b7 03       		.byte	0x3
 11049 22b8 680B0000 		.4byte	.LC232
 11050 22bc 00       		.byte	0
 11051 22bd 28       		.uleb128 0x28
 11052 22be 18140000 		.4byte	.LVL522
 11053 22c2 A5370000 		.4byte	0x37a5
 11054 22c6 27       		.uleb128 0x27
 11055 22c7 01       		.uleb128 0x1
 11056 22c8 50       		.byte	0x50
 11057 22c9 05       		.uleb128 0x5
 11058 22ca 03       		.byte	0x3
 11059 22cb 340B0000 		.4byte	.LC228
 11060 22cf 00       		.byte	0
 11061 22d0 00       		.byte	0
 11062 22d1 00       		.byte	0
 11063 22d2 32       		.uleb128 0x32
 11064 22d3 070E0000 		.4byte	0xe07
 11065 22d7 5C0A0000 		.4byte	.LBB463
 11066 22db 18070000 		.4byte	.Ldebug_ranges0+0x718
 11067 22df 01       		.byte	0x1
 11068 22e0 3F01     		.2byte	0x13f
 11069 22e2 CB230000 		.4byte	0x23cb
 11070 22e6 20       		.uleb128 0x20
 11071 22e7 18070000 		.4byte	.Ldebug_ranges0+0x718
 11072 22eb 21       		.uleb128 0x21
 11073 22ec 180E0000 		.4byte	0xe18
 11074 22f0 16150000 		.4byte	.LLST80
 11075 22f4 21       		.uleb128 0x21
 11076 22f5 220E0000 		.4byte	0xe22
 11077 22f9 70150000 		.4byte	.LLST81
 11078 22fd 21       		.uleb128 0x21
 11079 22fe 2E0E0000 		.4byte	0xe2e
 11080 2302 C7150000 		.4byte	.LLST82
 11081 2306 21       		.uleb128 0x21
 11082 2307 380E0000 		.4byte	0xe38
 11083 230b FD150000 		.4byte	.LLST83
 11084 230f 33       		.uleb128 0x33
 11085 2310 440E0000 		.4byte	0xe44
 11086 2314 03       		.uleb128 0x3
 11087 2315 91       		.byte	0x91
 11088 2316 D87E     		.sleb128 -168
ARM GAS  C:\Users\ramanatg\AppData\Local\Temp\ccxbhSsV.s 			page 264


 11089 2318 33       		.uleb128 0x33
 11090 2319 500E0000 		.4byte	0xe50
 11091 231d 03       		.uleb128 0x3
 11092 231e 91       		.byte	0x91
 11093 231f C47E     		.sleb128 -188
 11094 2321 33       		.uleb128 0x33
 11095 2322 5C0E0000 		.4byte	0xe5c
 11096 2326 03       		.uleb128 0x3
 11097 2327 91       		.byte	0x91
 11098 2328 B47E     		.sleb128 -204
 11099 232a 25       		.uleb128 0x25
 11100 232b BC0F0000 		.4byte	.LVL423
 11101 232f 9A380000 		.4byte	0x389a
 11102 2333 26       		.uleb128 0x26
 11103 2334 F20F0000 		.4byte	.LVL428
 11104 2338 A5370000 		.4byte	0x37a5
 11105 233c 4A230000 		.4byte	0x234a
 11106 2340 27       		.uleb128 0x27
 11107 2341 01       		.uleb128 0x1
 11108 2342 50       		.byte	0x50
 11109 2343 05       		.uleb128 0x5
 11110 2344 03       		.byte	0x3
 11111 2345 B8020000 		.4byte	.LC122
 11112 2349 00       		.byte	0
 11113 234a 26       		.uleb128 0x26
 11114 234b 04100000 		.4byte	.LVL430
 11115 234f 50380000 		.4byte	0x3850
 11116 2353 64230000 		.4byte	0x2364
 11117 2357 27       		.uleb128 0x27
 11118 2358 01       		.uleb128 0x1
 11119 2359 51       		.byte	0x51
 11120 235a 02       		.uleb128 0x2
 11121 235b 76       		.byte	0x76
 11122 235c 00       		.sleb128 0
 11123 235d 27       		.uleb128 0x27
 11124 235e 01       		.uleb128 0x1
 11125 235f 50       		.byte	0x50
 11126 2360 02       		.uleb128 0x2
 11127 2361 7A       		.byte	0x7a
 11128 2362 00       		.sleb128 0
 11129 2363 00       		.byte	0
 11130 2364 26       		.uleb128 0x26
 11131 2365 0C100000 		.4byte	.LVL432
 11132 2369 A5370000 		.4byte	0x37a5
 11133 236d 78230000 		.4byte	0x2378
 11134 2371 27       		.uleb128 0x27
 11135 2372 01       		.uleb128 0x1
 11136 2373 50       		.byte	0x50
 11137 2374 02       		.uleb128 0x2
 11138 2375 7A       		.byte	0x7a
 11139 2376 00       		.sleb128 0
 11140 2377 00       		.byte	0
 11141 2378 26       		.uleb128 0x26
 11142 2379 82190000 		.4byte	.LVL648
 11143 237d 05380000 		.4byte	0x3805
 11144 2381 92230000 		.4byte	0x2392
 11145 2385 27       		.uleb128 0x27
ARM GAS  C:\Users\ramanatg\AppData\Local\Temp\ccxbhSsV.s 			page 265


 11146 2386 01       		.uleb128 0x1
 11147 2387 51       		.byte	0x51
 11148 2388 03       		.uleb128 0x3
 11149 2389 91       		.byte	0x91
 11150 238a B47E     		.sleb128 -204
 11151 238c 27       		.uleb128 0x27
 11152 238d 01       		.uleb128 0x1
 11153 238e 50       		.byte	0x50
 11154 238f 01       		.uleb128 0x1
 11155 2390 42       		.byte	0x42
 11156 2391 00       		.byte	0
 11157 2392 26       		.uleb128 0x26
 11158 2393 9A190000 		.4byte	.LVL649
 11159 2397 1F380000 		.4byte	0x381f
 11160 239b B6230000 		.4byte	0x23b6
 11161 239f 27       		.uleb128 0x27
 11162 23a0 01       		.uleb128 0x1
 11163 23a1 53       		.byte	0x53
 11164 23a2 01       		.uleb128 0x1
 11165 23a3 30       		.byte	0x30
 11166 23a4 27       		.uleb128 0x27
 11167 23a5 01       		.uleb128 0x1
 11168 23a6 52       		.byte	0x52
 11169 23a7 01       		.uleb128 0x1
 11170 23a8 30       		.byte	0x30
 11171 23a9 27       		.uleb128 0x27
 11172 23aa 01       		.uleb128 0x1
 11173 23ab 51       		.byte	0x51
 11174 23ac 01       		.uleb128 0x1
 11175 23ad 30       		.byte	0x30
 11176 23ae 27       		.uleb128 0x27
 11177 23af 01       		.uleb128 0x1
 11178 23b0 50       		.byte	0x50
 11179 23b1 03       		.uleb128 0x3
 11180 23b2 91       		.byte	0x91
 11181 23b3 D87E     		.sleb128 -168
 11182 23b5 00       		.byte	0
 11183 23b6 28       		.uleb128 0x28
 11184 23b7 A0190000 		.4byte	.LVL650
 11185 23bb A5370000 		.4byte	0x37a5
 11186 23bf 27       		.uleb128 0x27
 11187 23c0 01       		.uleb128 0x1
 11188 23c1 50       		.byte	0x50
 11189 23c2 05       		.uleb128 0x5
 11190 23c3 03       		.byte	0x3
 11191 23c4 E4020000 		.4byte	.LC124
 11192 23c8 00       		.byte	0
 11193 23c9 00       		.byte	0
 11194 23ca 00       		.byte	0
 11195 23cb 32       		.uleb128 0x32
 11196 23cc 0E0F0000 		.4byte	0xf0e
 11197 23d0 720C0000 		.4byte	.LBB474
 11198 23d4 38070000 		.4byte	.Ldebug_ranges0+0x738
 11199 23d8 01       		.byte	0x1
 11200 23d9 5301     		.2byte	0x153
 11201 23db AC240000 		.4byte	0x24ac
 11202 23df 20       		.uleb128 0x20
ARM GAS  C:\Users\ramanatg\AppData\Local\Temp\ccxbhSsV.s 			page 266


 11203 23e0 38070000 		.4byte	.Ldebug_ranges0+0x738
 11204 23e4 21       		.uleb128 0x21
 11205 23e5 1F0F0000 		.4byte	0xf1f
 11206 23e9 4B160000 		.4byte	.LLST84
 11207 23ed 21       		.uleb128 0x21
 11208 23ee 290F0000 		.4byte	0xf29
 11209 23f2 8F160000 		.4byte	.LLST85
 11210 23f6 33       		.uleb128 0x33
 11211 23f7 350F0000 		.4byte	0xf35
 11212 23fb 03       		.uleb128 0x3
 11213 23fc 91       		.byte	0x91
 11214 23fd C47E     		.sleb128 -188
 11215 23ff 33       		.uleb128 0x33
 11216 2400 410F0000 		.4byte	0xf41
 11217 2404 03       		.uleb128 0x3
 11218 2405 91       		.byte	0x91
 11219 2406 D87E     		.sleb128 -168
 11220 2408 33       		.uleb128 0x33
 11221 2409 4B0F0000 		.4byte	0xf4b
 11222 240d 03       		.uleb128 0x3
 11223 240e 91       		.byte	0x91
 11224 240f B47E     		.sleb128 -204
 11225 2411 26       		.uleb128 0x26
 11226 2412 880C0000 		.4byte	.LVL362
 11227 2416 84370000 		.4byte	0x3784
 11228 241a 25240000 		.4byte	0x2425
 11229 241e 27       		.uleb128 0x27
 11230 241f 01       		.uleb128 0x1
 11231 2420 50       		.byte	0x50
 11232 2421 02       		.uleb128 0x2
 11233 2422 75       		.byte	0x75
 11234 2423 04       		.sleb128 4
 11235 2424 00       		.byte	0
 11236 2425 25       		.uleb128 0x25
 11237 2426 A20C0000 		.4byte	.LVL364
 11238 242a C0070000 		.4byte	0x7c0
 11239 242e 25       		.uleb128 0x25
 11240 242f B40C0000 		.4byte	.LVL366
 11241 2433 C0070000 		.4byte	0x7c0
 11242 2437 25       		.uleb128 0x25
 11243 2438 C40C0000 		.4byte	.LVL368
 11244 243c C0070000 		.4byte	0x7c0
 11245 2440 25       		.uleb128 0x25
 11246 2441 D40C0000 		.4byte	.LVL370
 11247 2445 C0070000 		.4byte	0x7c0
 11248 2449 26       		.uleb128 0x26
 11249 244a 000D0000 		.4byte	.LVL372
 11250 244e 05380000 		.4byte	0x3805
 11251 2452 62240000 		.4byte	0x2462
 11252 2456 27       		.uleb128 0x27
 11253 2457 01       		.uleb128 0x1
 11254 2458 51       		.byte	0x51
 11255 2459 02       		.uleb128 0x2
 11256 245a 76       		.byte	0x76
 11257 245b 00       		.sleb128 0
 11258 245c 27       		.uleb128 0x27
 11259 245d 01       		.uleb128 0x1
ARM GAS  C:\Users\ramanatg\AppData\Local\Temp\ccxbhSsV.s 			page 267


 11260 245e 50       		.byte	0x50
 11261 245f 01       		.uleb128 0x1
 11262 2460 34       		.byte	0x34
 11263 2461 00       		.byte	0
 11264 2462 26       		.uleb128 0x26
 11265 2463 060D0000 		.4byte	.LVL373
 11266 2467 A5370000 		.4byte	0x37a5
 11267 246b 79240000 		.4byte	0x2479
 11268 246f 27       		.uleb128 0x27
 11269 2470 01       		.uleb128 0x1
 11270 2471 50       		.byte	0x50
 11271 2472 05       		.uleb128 0x5
 11272 2473 03       		.byte	0x3
 11273 2474 AC030000 		.4byte	.LC139
 11274 2478 00       		.byte	0
 11275 2479 26       		.uleb128 0x26
 11276 247a 120D0000 		.4byte	.LVL374
 11277 247e 50380000 		.4byte	0x3850
 11278 2482 97240000 		.4byte	0x2497
 11279 2486 27       		.uleb128 0x27
 11280 2487 01       		.uleb128 0x1
 11281 2488 51       		.byte	0x51
 11282 2489 05       		.uleb128 0x5
 11283 248a 03       		.byte	0x3
 11284 248b 18010000 		.4byte	.LC83
 11285 248f 27       		.uleb128 0x27
 11286 2490 01       		.uleb128 0x1
 11287 2491 50       		.byte	0x50
 11288 2492 03       		.uleb128 0x3
 11289 2493 91       		.byte	0x91
 11290 2494 C47E     		.sleb128 -188
 11291 2496 00       		.byte	0
 11292 2497 28       		.uleb128 0x28
 11293 2498 7E160000 		.4byte	.LVL583
 11294 249c A5370000 		.4byte	0x37a5
 11295 24a0 27       		.uleb128 0x27
 11296 24a1 01       		.uleb128 0x1
 11297 24a2 50       		.byte	0x50
 11298 24a3 05       		.uleb128 0x5
 11299 24a4 03       		.byte	0x3
 11300 24a5 9C030000 		.4byte	.LC137
 11301 24a9 00       		.byte	0
 11302 24aa 00       		.byte	0
 11303 24ab 00       		.byte	0
 11304 24ac 32       		.uleb128 0x32
 11305 24ad 87110000 		.4byte	0x1187
 11306 24b1 0E110000 		.4byte	.LBB488
 11307 24b5 50070000 		.4byte	.Ldebug_ranges0+0x750
 11308 24b9 01       		.byte	0x1
 11309 24ba DA01     		.2byte	0x1da
 11310 24bc E6240000 		.4byte	0x24e6
 11311 24c0 25       		.uleb128 0x25
 11312 24c1 26110000 		.4byte	.LVL460
 11313 24c5 C4380000 		.4byte	0x38c4
 11314 24c9 25       		.uleb128 0x25
 11315 24ca 2A110000 		.4byte	.LVL461
 11316 24ce CF380000 		.4byte	0x38cf
ARM GAS  C:\Users\ramanatg\AppData\Local\Temp\ccxbhSsV.s 			page 268


 11317 24d2 28       		.uleb128 0x28
 11318 24d3 30110000 		.4byte	.LVL462
 11319 24d7 A5370000 		.4byte	0x37a5
 11320 24db 27       		.uleb128 0x27
 11321 24dc 01       		.uleb128 0x1
 11322 24dd 50       		.byte	0x50
 11323 24de 05       		.uleb128 0x5
 11324 24df 03       		.byte	0x3
 11325 24e0 840B0000 		.4byte	.LC234
 11326 24e4 00       		.byte	0
 11327 24e5 00       		.byte	0
 11328 24e6 32       		.uleb128 0x32
 11329 24e7 58100000 		.4byte	0x1058
 11330 24eb 3A110000 		.4byte	.LBB492
 11331 24ef 68070000 		.4byte	.Ldebug_ranges0+0x768
 11332 24f3 01       		.byte	0x1
 11333 24f4 B201     		.2byte	0x1b2
 11334 24f6 E0260000 		.4byte	0x26e0
 11335 24fa 20       		.uleb128 0x20
 11336 24fb 68070000 		.4byte	.Ldebug_ranges0+0x768
 11337 24ff 33       		.uleb128 0x33
 11338 2500 69100000 		.4byte	0x1069
 11339 2504 03       		.uleb128 0x3
 11340 2505 91       		.byte	0x91
 11341 2506 A87E     		.sleb128 -216
 11342 2508 21       		.uleb128 0x21
 11343 2509 75100000 		.4byte	0x1075
 11344 250d AF160000 		.4byte	.LLST86
 11345 2511 33       		.uleb128 0x33
 11346 2512 7F100000 		.4byte	0x107f
 11347 2516 03       		.uleb128 0x3
 11348 2517 91       		.byte	0x91
 11349 2518 B47E     		.sleb128 -204
 11350 251a 33       		.uleb128 0x33
 11351 251b 8B100000 		.4byte	0x108b
 11352 251f 03       		.uleb128 0x3
 11353 2520 91       		.byte	0x91
 11354 2521 C47E     		.sleb128 -188
 11355 2523 33       		.uleb128 0x33
 11356 2524 97100000 		.4byte	0x1097
 11357 2528 03       		.uleb128 0x3
 11358 2529 91       		.byte	0x91
 11359 252a D87E     		.sleb128 -168
 11360 252c 26       		.uleb128 0x26
 11361 252d 48110000 		.4byte	.LVL463
 11362 2531 6B380000 		.4byte	0x386b
 11363 2535 4B250000 		.4byte	0x254b
 11364 2539 27       		.uleb128 0x27
 11365 253a 01       		.uleb128 0x1
 11366 253b 52       		.byte	0x52
 11367 253c 01       		.uleb128 0x1
 11368 253d 34       		.byte	0x34
 11369 253e 27       		.uleb128 0x27
 11370 253f 01       		.uleb128 0x1
 11371 2540 51       		.byte	0x51
 11372 2541 02       		.uleb128 0x2
 11373 2542 77       		.byte	0x77
ARM GAS  C:\Users\ramanatg\AppData\Local\Temp\ccxbhSsV.s 			page 269


 11374 2543 18       		.sleb128 24
 11375 2544 27       		.uleb128 0x27
 11376 2545 01       		.uleb128 0x1
 11377 2546 50       		.byte	0x50
 11378 2547 02       		.uleb128 0x2
 11379 2548 76       		.byte	0x76
 11380 2549 00       		.sleb128 0
 11381 254a 00       		.byte	0
 11382 254b 26       		.uleb128 0x26
 11383 254c 58110000 		.4byte	.LVL464
 11384 2550 6B380000 		.4byte	0x386b
 11385 2554 6A250000 		.4byte	0x256a
 11386 2558 27       		.uleb128 0x27
 11387 2559 01       		.uleb128 0x1
 11388 255a 52       		.byte	0x52
 11389 255b 01       		.uleb128 0x1
 11390 255c 34       		.byte	0x34
 11391 255d 27       		.uleb128 0x27
 11392 255e 01       		.uleb128 0x1
 11393 255f 51       		.byte	0x51
 11394 2560 02       		.uleb128 0x2
 11395 2561 77       		.byte	0x77
 11396 2562 1C       		.sleb128 28
 11397 2563 27       		.uleb128 0x27
 11398 2564 01       		.uleb128 0x1
 11399 2565 50       		.byte	0x50
 11400 2566 02       		.uleb128 0x2
 11401 2567 7A       		.byte	0x7a
 11402 2568 00       		.sleb128 0
 11403 2569 00       		.byte	0
 11404 256a 26       		.uleb128 0x26
 11405 256b 68110000 		.4byte	.LVL465
 11406 256f 6B380000 		.4byte	0x386b
 11407 2573 89250000 		.4byte	0x2589
 11408 2577 27       		.uleb128 0x27
 11409 2578 01       		.uleb128 0x1
 11410 2579 52       		.byte	0x52
 11411 257a 01       		.uleb128 0x1
 11412 257b 34       		.byte	0x34
 11413 257c 27       		.uleb128 0x27
 11414 257d 01       		.uleb128 0x1
 11415 257e 51       		.byte	0x51
 11416 257f 02       		.uleb128 0x2
 11417 2580 77       		.byte	0x77
 11418 2581 20       		.sleb128 32
 11419 2582 27       		.uleb128 0x27
 11420 2583 01       		.uleb128 0x1
 11421 2584 50       		.byte	0x50
 11422 2585 02       		.uleb128 0x2
 11423 2586 79       		.byte	0x79
 11424 2587 00       		.sleb128 0
 11425 2588 00       		.byte	0
 11426 2589 26       		.uleb128 0x26
 11427 258a 7A110000 		.4byte	.LVL466
 11428 258e A5370000 		.4byte	0x37a5
 11429 2592 A0250000 		.4byte	0x25a0
 11430 2596 27       		.uleb128 0x27
ARM GAS  C:\Users\ramanatg\AppData\Local\Temp\ccxbhSsV.s 			page 270


 11431 2597 01       		.uleb128 0x1
 11432 2598 50       		.byte	0x50
 11433 2599 05       		.uleb128 0x5
 11434 259a 03       		.byte	0x3
 11435 259b B00A0000 		.4byte	.LC210
 11436 259f 00       		.byte	0
 11437 25a0 26       		.uleb128 0x26
 11438 25a1 8E110000 		.4byte	.LVL467
 11439 25a5 A5370000 		.4byte	0x37a5
 11440 25a9 B7250000 		.4byte	0x25b7
 11441 25ad 27       		.uleb128 0x27
 11442 25ae 01       		.uleb128 0x1
 11443 25af 50       		.byte	0x50
 11444 25b0 05       		.uleb128 0x5
 11445 25b1 03       		.byte	0x3
 11446 25b2 DC0A0000 		.4byte	.LC214
 11447 25b6 00       		.byte	0
 11448 25b7 26       		.uleb128 0x26
 11449 25b8 A2110000 		.4byte	.LVL468
 11450 25bc A5370000 		.4byte	0x37a5
 11451 25c0 CE250000 		.4byte	0x25ce
 11452 25c4 27       		.uleb128 0x27
 11453 25c5 01       		.uleb128 0x1
 11454 25c6 50       		.byte	0x50
 11455 25c7 05       		.uleb128 0x5
 11456 25c8 03       		.byte	0x3
 11457 25c9 F40A0000 		.4byte	.LC218
 11458 25cd 00       		.byte	0
 11459 25ce 26       		.uleb128 0x26
 11460 25cf B6110000 		.4byte	.LVL469
 11461 25d3 A5370000 		.4byte	0x37a5
 11462 25d7 E5250000 		.4byte	0x25e5
 11463 25db 27       		.uleb128 0x27
 11464 25dc 01       		.uleb128 0x1
 11465 25dd 50       		.byte	0x50
 11466 25de 05       		.uleb128 0x5
 11467 25df 03       		.byte	0x3
 11468 25e0 0C0B0000 		.4byte	.LC222
 11469 25e4 00       		.byte	0
 11470 25e5 26       		.uleb128 0x26
 11471 25e6 BC110000 		.4byte	.LVL470
 11472 25ea A5370000 		.4byte	0x37a5
 11473 25ee FC250000 		.4byte	0x25fc
 11474 25f2 27       		.uleb128 0x27
 11475 25f3 01       		.uleb128 0x1
 11476 25f4 50       		.byte	0x50
 11477 25f5 05       		.uleb128 0x5
 11478 25f6 03       		.byte	0x3
 11479 25f7 74000000 		.4byte	.LC63
 11480 25fb 00       		.byte	0
 11481 25fc 26       		.uleb128 0x26
 11482 25fd AA190000 		.4byte	.LVL652
 11483 2601 A5370000 		.4byte	0x37a5
 11484 2605 13260000 		.4byte	0x2613
 11485 2609 27       		.uleb128 0x27
 11486 260a 01       		.uleb128 0x1
 11487 260b 50       		.byte	0x50
ARM GAS  C:\Users\ramanatg\AppData\Local\Temp\ccxbhSsV.s 			page 271


 11488 260c 05       		.uleb128 0x5
 11489 260d 03       		.byte	0x3
 11490 260e 140B0000 		.4byte	.LC224
 11491 2612 00       		.byte	0
 11492 2613 26       		.uleb128 0x26
 11493 2614 B4190000 		.4byte	.LVL653
 11494 2618 A5370000 		.4byte	0x37a5
 11495 261c 2A260000 		.4byte	0x262a
 11496 2620 27       		.uleb128 0x27
 11497 2621 01       		.uleb128 0x1
 11498 2622 50       		.byte	0x50
 11499 2623 05       		.uleb128 0x5
 11500 2624 03       		.byte	0x3
 11501 2625 000B0000 		.4byte	.LC220
 11502 2629 00       		.byte	0
 11503 262a 26       		.uleb128 0x26
 11504 262b BE190000 		.4byte	.LVL654
 11505 262f A5370000 		.4byte	0x37a5
 11506 2633 41260000 		.4byte	0x2641
 11507 2637 27       		.uleb128 0x27
 11508 2638 01       		.uleb128 0x1
 11509 2639 50       		.byte	0x50
 11510 263a 05       		.uleb128 0x5
 11511 263b 03       		.byte	0x3
 11512 263c E80A0000 		.4byte	.LC216
 11513 2640 00       		.byte	0
 11514 2641 26       		.uleb128 0x26
 11515 2642 CA190000 		.4byte	.LVL656
 11516 2646 AF380000 		.4byte	0x38af
 11517 264a 55260000 		.4byte	0x2655
 11518 264e 27       		.uleb128 0x27
 11519 264f 01       		.uleb128 0x1
 11520 2650 50       		.byte	0x50
 11521 2651 02       		.uleb128 0x2
 11522 2652 75       		.byte	0x75
 11523 2653 00       		.sleb128 0
 11524 2654 00       		.byte	0
 11525 2655 26       		.uleb128 0x26
 11526 2656 F8190000 		.4byte	.LVL658
 11527 265a E6370000 		.4byte	0x37e6
 11528 265e 74260000 		.4byte	0x2674
 11529 2662 27       		.uleb128 0x27
 11530 2663 01       		.uleb128 0x1
 11531 2664 52       		.byte	0x52
 11532 2665 01       		.uleb128 0x1
 11533 2666 34       		.byte	0x34
 11534 2667 27       		.uleb128 0x27
 11535 2668 01       		.uleb128 0x1
 11536 2669 51       		.byte	0x51
 11537 266a 02       		.uleb128 0x2
 11538 266b 78       		.byte	0x78
 11539 266c 00       		.sleb128 0
 11540 266d 27       		.uleb128 0x27
 11541 266e 01       		.uleb128 0x1
 11542 266f 50       		.byte	0x50
 11543 2670 02       		.uleb128 0x2
 11544 2671 76       		.byte	0x76
ARM GAS  C:\Users\ramanatg\AppData\Local\Temp\ccxbhSsV.s 			page 272


 11545 2672 00       		.sleb128 0
 11546 2673 00       		.byte	0
 11547 2674 26       		.uleb128 0x26
 11548 2675 541A0000 		.4byte	.LVL669
 11549 2679 E6370000 		.4byte	0x37e6
 11550 267d 93260000 		.4byte	0x2693
 11551 2681 27       		.uleb128 0x27
 11552 2682 01       		.uleb128 0x1
 11553 2683 52       		.byte	0x52
 11554 2684 01       		.uleb128 0x1
 11555 2685 34       		.byte	0x34
 11556 2686 27       		.uleb128 0x27
 11557 2687 01       		.uleb128 0x1
 11558 2688 51       		.byte	0x51
 11559 2689 02       		.uleb128 0x2
 11560 268a 7A       		.byte	0x7a
 11561 268b 00       		.sleb128 0
 11562 268c 27       		.uleb128 0x27
 11563 268d 01       		.uleb128 0x1
 11564 268e 50       		.byte	0x50
 11565 268f 02       		.uleb128 0x2
 11566 2690 76       		.byte	0x76
 11567 2691 00       		.sleb128 0
 11568 2692 00       		.byte	0
 11569 2693 26       		.uleb128 0x26
 11570 2694 E21A0000 		.4byte	.LVL672
 11571 2698 05380000 		.4byte	0x3805
 11572 269c AC260000 		.4byte	0x26ac
 11573 26a0 27       		.uleb128 0x27
 11574 26a1 01       		.uleb128 0x1
 11575 26a2 51       		.byte	0x51
 11576 26a3 02       		.uleb128 0x2
 11577 26a4 77       		.byte	0x77
 11578 26a5 00       		.sleb128 0
 11579 26a6 27       		.uleb128 0x27
 11580 26a7 01       		.uleb128 0x1
 11581 26a8 50       		.byte	0x50
 11582 26a9 01       		.uleb128 0x1
 11583 26aa 3C       		.byte	0x3c
 11584 26ab 00       		.byte	0
 11585 26ac 26       		.uleb128 0x26
 11586 26ad E81A0000 		.4byte	.LVL673
 11587 26b1 A5370000 		.4byte	0x37a5
 11588 26b5 C3260000 		.4byte	0x26c3
 11589 26b9 27       		.uleb128 0x27
 11590 26ba 01       		.uleb128 0x1
 11591 26bb 50       		.byte	0x50
 11592 26bc 05       		.uleb128 0x5
 11593 26bd 03       		.byte	0x3
 11594 26be C40A0000 		.4byte	.LC212
 11595 26c2 00       		.byte	0
 11596 26c3 28       		.uleb128 0x28
 11597 26c4 FC1A0000 		.4byte	.LVL674
 11598 26c8 E6370000 		.4byte	0x37e6
 11599 26cc 27       		.uleb128 0x27
 11600 26cd 01       		.uleb128 0x1
 11601 26ce 52       		.byte	0x52
ARM GAS  C:\Users\ramanatg\AppData\Local\Temp\ccxbhSsV.s 			page 273


 11602 26cf 01       		.uleb128 0x1
 11603 26d0 34       		.byte	0x34
 11604 26d1 27       		.uleb128 0x27
 11605 26d2 01       		.uleb128 0x1
 11606 26d3 51       		.byte	0x51
 11607 26d4 02       		.uleb128 0x2
 11608 26d5 79       		.byte	0x79
 11609 26d6 00       		.sleb128 0
 11610 26d7 27       		.uleb128 0x27
 11611 26d8 01       		.uleb128 0x1
 11612 26d9 50       		.byte	0x50
 11613 26da 02       		.uleb128 0x2
 11614 26db 76       		.byte	0x76
 11615 26dc 00       		.sleb128 0
 11616 26dd 00       		.byte	0
 11617 26de 00       		.byte	0
 11618 26df 00       		.byte	0
 11619 26e0 32       		.uleb128 0x32
 11620 26e1 B3100000 		.4byte	0x10b3
 11621 26e5 2A120000 		.4byte	.LBB497
 11622 26e9 88070000 		.4byte	.Ldebug_ranges0+0x788
 11623 26ed 01       		.byte	0x1
 11624 26ee D001     		.2byte	0x1d0
 11625 26f0 42280000 		.4byte	0x2842
 11626 26f4 20       		.uleb128 0x20
 11627 26f5 88070000 		.4byte	.Ldebug_ranges0+0x788
 11628 26f9 33       		.uleb128 0x33
 11629 26fa C4100000 		.4byte	0x10c4
 11630 26fe 03       		.uleb128 0x3
 11631 26ff 91       		.byte	0x91
 11632 2700 C47E     		.sleb128 -188
 11633 2702 33       		.uleb128 0x33
 11634 2703 D0100000 		.4byte	0x10d0
 11635 2707 03       		.uleb128 0x3
 11636 2708 91       		.byte	0x91
 11637 2709 D87E     		.sleb128 -168
 11638 270b 33       		.uleb128 0x33
 11639 270c DC100000 		.4byte	0x10dc
 11640 2710 03       		.uleb128 0x3
 11641 2711 91       		.byte	0x91
 11642 2712 A87E     		.sleb128 -216
 11643 2714 21       		.uleb128 0x21
 11644 2715 E8100000 		.4byte	0x10e8
 11645 2719 EE160000 		.4byte	.LLST87
 11646 271d 21       		.uleb128 0x21
 11647 271e F4100000 		.4byte	0x10f4
 11648 2722 31170000 		.4byte	.LLST88
 11649 2726 21       		.uleb128 0x21
 11650 2727 FE100000 		.4byte	0x10fe
 11651 272b 69170000 		.4byte	.LLST89
 11652 272f 33       		.uleb128 0x33
 11653 2730 08110000 		.4byte	0x1108
 11654 2734 03       		.uleb128 0x3
 11655 2735 91       		.byte	0x91
 11656 2736 B47E     		.sleb128 -204
 11657 2738 37       		.uleb128 0x37
 11658 2739 0B080000 		.4byte	0x80b
ARM GAS  C:\Users\ramanatg\AppData\Local\Temp\ccxbhSsV.s 			page 274


 11659 273d 9A130000 		.4byte	.LBB499
 11660 2741 30000000 		.4byte	.LBE499-.LBB499
 11661 2745 01       		.byte	0x1
 11662 2746 EB08     		.2byte	0x8eb
 11663 2748 C3270000 		.4byte	0x27c3
 11664 274c 31       		.uleb128 0x31
 11665 274d 34080000 		.4byte	0x834
 11666 2751 36       		.uleb128 0x36
 11667 2752 28080000 		.4byte	0x828
 11668 2756 01       		.uleb128 0x1
 11669 2757 55       		.byte	0x55
 11670 2758 31       		.uleb128 0x31
 11671 2759 1C080000 		.4byte	0x81c
 11672 275d 23       		.uleb128 0x23
 11673 275e 9A130000 		.4byte	.LBB500
 11674 2762 30000000 		.4byte	.LBE500-.LBB500
 11675 2766 21       		.uleb128 0x21
 11676 2767 40080000 		.4byte	0x840
 11677 276b AA170000 		.4byte	.LLST90
 11678 276f 21       		.uleb128 0x21
 11679 2770 4A080000 		.4byte	0x84a
 11680 2774 BD170000 		.4byte	.LLST91
 11681 2778 24       		.uleb128 0x24
 11682 2779 54080000 		.4byte	0x854
 11683 277d 35       		.uleb128 0x35
 11684 277e A40A0000 		.4byte	0xaa4
 11685 2782 9A130000 		.4byte	.LBB501
 11686 2786 B0070000 		.4byte	.Ldebug_ranges0+0x7b0
 11687 278a 01       		.byte	0x1
 11688 278b E309     		.2byte	0x9e3
 11689 278d 1F       		.uleb128 0x1f
 11690 278e B50A0000 		.4byte	0xab5
 11691 2792 D0170000 		.4byte	.LLST92
 11692 2796 20       		.uleb128 0x20
 11693 2797 B0070000 		.4byte	.Ldebug_ranges0+0x7b0
 11694 279b 21       		.uleb128 0x21
 11695 279c BF0A0000 		.4byte	0xabf
 11696 27a0 F2170000 		.4byte	.LLST93
 11697 27a4 21       		.uleb128 0x21
 11698 27a5 CB0A0000 		.4byte	0xacb
 11699 27a9 05180000 		.4byte	.LLST94
 11700 27ad 25       		.uleb128 0x25
 11701 27ae A0130000 		.4byte	.LVL509
 11702 27b2 C0070000 		.4byte	0x7c0
 11703 27b6 25       		.uleb128 0x25
 11704 27b7 A8130000 		.4byte	.LVL511
 11705 27bb C0070000 		.4byte	0x7c0
 11706 27bf 00       		.byte	0
 11707 27c0 00       		.byte	0
 11708 27c1 00       		.byte	0
 11709 27c2 00       		.byte	0
 11710 27c3 26       		.uleb128 0x26
 11711 27c4 3A120000 		.4byte	.LVL481
 11712 27c8 84370000 		.4byte	0x3784
 11713 27cc D7270000 		.4byte	0x27d7
 11714 27d0 27       		.uleb128 0x27
 11715 27d1 01       		.uleb128 0x1
ARM GAS  C:\Users\ramanatg\AppData\Local\Temp\ccxbhSsV.s 			page 275


 11716 27d2 50       		.byte	0x50
 11717 27d3 02       		.uleb128 0x2
 11718 27d4 7B       		.byte	0x7b
 11719 27d5 06       		.sleb128 6
 11720 27d6 00       		.byte	0
 11721 27d7 26       		.uleb128 0x26
 11722 27d8 E2130000 		.4byte	.LVL516
 11723 27dc 05380000 		.4byte	0x3805
 11724 27e0 F0270000 		.4byte	0x27f0
 11725 27e4 27       		.uleb128 0x27
 11726 27e5 01       		.uleb128 0x1
 11727 27e6 51       		.byte	0x51
 11728 27e7 02       		.uleb128 0x2
 11729 27e8 78       		.byte	0x78
 11730 27e9 00       		.sleb128 0
 11731 27ea 27       		.uleb128 0x27
 11732 27eb 01       		.uleb128 0x1
 11733 27ec 50       		.byte	0x50
 11734 27ed 01       		.uleb128 0x1
 11735 27ee 3D       		.byte	0x3d
 11736 27ef 00       		.byte	0
 11737 27f0 26       		.uleb128 0x26
 11738 27f1 EA130000 		.4byte	.LVL517
 11739 27f5 05380000 		.4byte	0x3805
 11740 27f9 09280000 		.4byte	0x2809
 11741 27fd 27       		.uleb128 0x27
 11742 27fe 01       		.uleb128 0x1
 11743 27ff 51       		.byte	0x51
 11744 2800 02       		.uleb128 0x2
 11745 2801 76       		.byte	0x76
 11746 2802 00       		.sleb128 0
 11747 2803 27       		.uleb128 0x27
 11748 2804 01       		.uleb128 0x1
 11749 2805 50       		.byte	0x50
 11750 2806 01       		.uleb128 0x1
 11751 2807 3E       		.byte	0x3e
 11752 2808 00       		.byte	0
 11753 2809 26       		.uleb128 0x26
 11754 280a 02140000 		.4byte	.LVL518
 11755 280e 1F380000 		.4byte	0x381f
 11756 2812 2D280000 		.4byte	0x282d
 11757 2816 27       		.uleb128 0x27
 11758 2817 01       		.uleb128 0x1
 11759 2818 53       		.byte	0x53
 11760 2819 01       		.uleb128 0x1
 11761 281a 30       		.byte	0x30
 11762 281b 27       		.uleb128 0x27
 11763 281c 01       		.uleb128 0x1
 11764 281d 52       		.byte	0x52
 11765 281e 01       		.uleb128 0x1
 11766 281f 30       		.byte	0x30
 11767 2820 27       		.uleb128 0x27
 11768 2821 01       		.uleb128 0x1
 11769 2822 51       		.byte	0x51
 11770 2823 01       		.uleb128 0x1
 11771 2824 30       		.byte	0x30
 11772 2825 27       		.uleb128 0x27
ARM GAS  C:\Users\ramanatg\AppData\Local\Temp\ccxbhSsV.s 			page 276


 11773 2826 01       		.uleb128 0x1
 11774 2827 50       		.byte	0x50
 11775 2828 03       		.uleb128 0x3
 11776 2829 91       		.byte	0x91
 11777 282a B47E     		.sleb128 -204
 11778 282c 00       		.byte	0
 11779 282d 28       		.uleb128 0x28
 11780 282e 08140000 		.4byte	.LVL519
 11781 2832 A5370000 		.4byte	0x37a5
 11782 2836 27       		.uleb128 0x27
 11783 2837 01       		.uleb128 0x1
 11784 2838 50       		.byte	0x50
 11785 2839 05       		.uleb128 0x5
 11786 283a 03       		.byte	0x3
 11787 283b 4C0B0000 		.4byte	.LC230
 11788 283f 00       		.byte	0
 11789 2840 00       		.byte	0
 11790 2841 00       		.byte	0
 11791 2842 32       		.uleb128 0x32
 11792 2843 ED0F0000 		.4byte	0xfed
 11793 2847 7A140000 		.4byte	.LBB515
 11794 284b C8070000 		.4byte	.Ldebug_ranges0+0x7c8
 11795 284f 01       		.byte	0x1
 11796 2850 AD01     		.2byte	0x1ad
 11797 2852 EB290000 		.4byte	0x29eb
 11798 2856 20       		.uleb128 0x20
 11799 2857 C8070000 		.4byte	.Ldebug_ranges0+0x7c8
 11800 285b 21       		.uleb128 0x21
 11801 285c FE0F0000 		.4byte	0xffe
 11802 2860 18180000 		.4byte	.LLST95
 11803 2864 33       		.uleb128 0x33
 11804 2865 08100000 		.4byte	0x1008
 11805 2869 03       		.uleb128 0x3
 11806 286a 91       		.byte	0x91
 11807 286b C47E     		.sleb128 -188
 11808 286d 33       		.uleb128 0x33
 11809 286e 14100000 		.4byte	0x1014
 11810 2872 03       		.uleb128 0x3
 11811 2873 91       		.byte	0x91
 11812 2874 D87E     		.sleb128 -168
 11813 2876 33       		.uleb128 0x33
 11814 2877 20100000 		.4byte	0x1020
 11815 287b 03       		.uleb128 0x3
 11816 287c 91       		.byte	0x91
 11817 287d B47E     		.sleb128 -204
 11818 287f 33       		.uleb128 0x33
 11819 2880 2C100000 		.4byte	0x102c
 11820 2884 03       		.uleb128 0x3
 11821 2885 91       		.byte	0x91
 11822 2886 A87E     		.sleb128 -216
 11823 2888 26       		.uleb128 0x26
 11824 2889 86140000 		.4byte	.LVL542
 11825 288d 6B380000 		.4byte	0x386b
 11826 2891 A9280000 		.4byte	0x28a9
 11827 2895 27       		.uleb128 0x27
 11828 2896 01       		.uleb128 0x1
 11829 2897 52       		.byte	0x52
ARM GAS  C:\Users\ramanatg\AppData\Local\Temp\ccxbhSsV.s 			page 277


 11830 2898 01       		.uleb128 0x1
 11831 2899 3B       		.byte	0x3b
 11832 289a 27       		.uleb128 0x27
 11833 289b 01       		.uleb128 0x1
 11834 289c 51       		.byte	0x51
 11835 289d 03       		.uleb128 0x3
 11836 289e 77       		.byte	0x77
 11837 289f F000     		.sleb128 112
 11838 28a1 27       		.uleb128 0x27
 11839 28a2 01       		.uleb128 0x1
 11840 28a3 50       		.byte	0x50
 11841 28a4 03       		.uleb128 0x3
 11842 28a5 91       		.byte	0x91
 11843 28a6 C47E     		.sleb128 -188
 11844 28a8 00       		.byte	0
 11845 28a9 26       		.uleb128 0x26
 11846 28aa 92140000 		.4byte	.LVL543
 11847 28ae 6B380000 		.4byte	0x386b
 11848 28b2 CA280000 		.4byte	0x28ca
 11849 28b6 27       		.uleb128 0x27
 11850 28b7 01       		.uleb128 0x1
 11851 28b8 52       		.byte	0x52
 11852 28b9 01       		.uleb128 0x1
 11853 28ba 3B       		.byte	0x3b
 11854 28bb 27       		.uleb128 0x27
 11855 28bc 01       		.uleb128 0x1
 11856 28bd 51       		.byte	0x51
 11857 28be 03       		.uleb128 0x3
 11858 28bf 77       		.byte	0x77
 11859 28c0 FC00     		.sleb128 124
 11860 28c2 27       		.uleb128 0x27
 11861 28c3 01       		.uleb128 0x1
 11862 28c4 50       		.byte	0x50
 11863 28c5 03       		.uleb128 0x3
 11864 28c6 91       		.byte	0x91
 11865 28c7 D87E     		.sleb128 -168
 11866 28c9 00       		.byte	0
 11867 28ca 26       		.uleb128 0x26
 11868 28cb 9E140000 		.4byte	.LVL544
 11869 28cf 6B380000 		.4byte	0x386b
 11870 28d3 ED280000 		.4byte	0x28ed
 11871 28d7 27       		.uleb128 0x27
 11872 28d8 01       		.uleb128 0x1
 11873 28d9 52       		.byte	0x52
 11874 28da 01       		.uleb128 0x1
 11875 28db 38       		.byte	0x38
 11876 28dc 27       		.uleb128 0x27
 11877 28dd 01       		.uleb128 0x1
 11878 28de 51       		.byte	0x51
 11879 28df 05       		.uleb128 0x5
 11880 28e0 03       		.byte	0x3
 11881 28e1 08010000 		.4byte	.LANCHOR3+8
 11882 28e5 27       		.uleb128 0x27
 11883 28e6 01       		.uleb128 0x1
 11884 28e7 50       		.byte	0x50
 11885 28e8 03       		.uleb128 0x3
 11886 28e9 91       		.byte	0x91
ARM GAS  C:\Users\ramanatg\AppData\Local\Temp\ccxbhSsV.s 			page 278


 11887 28ea B47E     		.sleb128 -204
 11888 28ec 00       		.byte	0
 11889 28ed 26       		.uleb128 0x26
 11890 28ee AE140000 		.4byte	.LVL545
 11891 28f2 A5370000 		.4byte	0x37a5
 11892 28f6 04290000 		.4byte	0x2904
 11893 28fa 27       		.uleb128 0x27
 11894 28fb 01       		.uleb128 0x1
 11895 28fc 50       		.byte	0x50
 11896 28fd 05       		.uleb128 0x5
 11897 28fe 03       		.byte	0x3
 11898 28ff 740A0000 		.4byte	.LC200
 11899 2903 00       		.byte	0
 11900 2904 26       		.uleb128 0x26
 11901 2905 C4140000 		.4byte	.LVL546
 11902 2909 A5370000 		.4byte	0x37a5
 11903 290d 1B290000 		.4byte	0x291b
 11904 2911 27       		.uleb128 0x27
 11905 2912 01       		.uleb128 0x1
 11906 2913 50       		.byte	0x50
 11907 2914 05       		.uleb128 0x5
 11908 2915 03       		.byte	0x3
 11909 2916 A80A0000 		.4byte	.LC208
 11910 291a 00       		.byte	0
 11911 291b 26       		.uleb128 0x26
 11912 291c 0C1A0000 		.4byte	.LVL660
 11913 2920 A5370000 		.4byte	0x37a5
 11914 2924 32290000 		.4byte	0x2932
 11915 2928 27       		.uleb128 0x27
 11916 2929 01       		.uleb128 0x1
 11917 292a 50       		.byte	0x50
 11918 292b 05       		.uleb128 0x5
 11919 292c 03       		.byte	0x3
 11920 292d 900A0000 		.4byte	.LC204
 11921 2931 00       		.byte	0
 11922 2932 26       		.uleb128 0x26
 11923 2933 181A0000 		.4byte	.LVL662
 11924 2937 AF380000 		.4byte	0x38af
 11925 293b 46290000 		.4byte	0x2946
 11926 293f 27       		.uleb128 0x27
 11927 2940 01       		.uleb128 0x1
 11928 2941 50       		.byte	0x50
 11929 2942 02       		.uleb128 0x2
 11930 2943 75       		.byte	0x75
 11931 2944 00       		.sleb128 0
 11932 2945 00       		.byte	0
 11933 2946 26       		.uleb128 0x26
 11934 2947 221A0000 		.4byte	.LVL663
 11935 294b E6370000 		.4byte	0x37e6
 11936 294f 66290000 		.4byte	0x2966
 11937 2953 27       		.uleb128 0x27
 11938 2954 01       		.uleb128 0x1
 11939 2955 52       		.byte	0x52
 11940 2956 01       		.uleb128 0x1
 11941 2957 3B       		.byte	0x3b
 11942 2958 27       		.uleb128 0x27
 11943 2959 01       		.uleb128 0x1
ARM GAS  C:\Users\ramanatg\AppData\Local\Temp\ccxbhSsV.s 			page 279


 11944 295a 51       		.byte	0x51
 11945 295b 03       		.uleb128 0x3
 11946 295c 91       		.byte	0x91
 11947 295d C47E     		.sleb128 -188
 11948 295f 27       		.uleb128 0x27
 11949 2960 01       		.uleb128 0x1
 11950 2961 50       		.byte	0x50
 11951 2962 02       		.uleb128 0x2
 11952 2963 75       		.byte	0x75
 11953 2964 00       		.sleb128 0
 11954 2965 00       		.byte	0
 11955 2966 26       		.uleb128 0x26
 11956 2967 321A0000 		.4byte	.LVL664
 11957 296b 05380000 		.4byte	0x3805
 11958 296f 7F290000 		.4byte	0x297f
 11959 2973 27       		.uleb128 0x27
 11960 2974 01       		.uleb128 0x1
 11961 2975 51       		.byte	0x51
 11962 2976 02       		.uleb128 0x2
 11963 2977 77       		.byte	0x77
 11964 2978 00       		.sleb128 0
 11965 2979 27       		.uleb128 0x27
 11966 297a 01       		.uleb128 0x1
 11967 297b 50       		.byte	0x50
 11968 297c 01       		.uleb128 0x1
 11969 297d 38       		.byte	0x38
 11970 297e 00       		.byte	0
 11971 297f 26       		.uleb128 0x26
 11972 2980 381A0000 		.4byte	.LVL665
 11973 2984 A5370000 		.4byte	0x37a5
 11974 2988 96290000 		.4byte	0x2996
 11975 298c 27       		.uleb128 0x27
 11976 298d 01       		.uleb128 0x1
 11977 298e 50       		.byte	0x50
 11978 298f 05       		.uleb128 0x5
 11979 2990 03       		.byte	0x3
 11980 2991 800A0000 		.4byte	.LC202
 11981 2995 00       		.byte	0
 11982 2996 26       		.uleb128 0x26
 11983 2997 401A0000 		.4byte	.LVL667
 11984 299b A5370000 		.4byte	0x37a5
 11985 299f AD290000 		.4byte	0x29ad
 11986 29a3 27       		.uleb128 0x27
 11987 29a4 01       		.uleb128 0x1
 11988 29a5 50       		.byte	0x50
 11989 29a6 05       		.uleb128 0x5
 11990 29a7 03       		.byte	0x3
 11991 29a8 9C0A0000 		.4byte	.LC206
 11992 29ac 00       		.byte	0
 11993 29ad 26       		.uleb128 0x26
 11994 29ae 221B0000 		.4byte	.LVL680
 11995 29b2 E6370000 		.4byte	0x37e6
 11996 29b6 CD290000 		.4byte	0x29cd
 11997 29ba 27       		.uleb128 0x27
 11998 29bb 01       		.uleb128 0x1
 11999 29bc 52       		.byte	0x52
 12000 29bd 01       		.uleb128 0x1
ARM GAS  C:\Users\ramanatg\AppData\Local\Temp\ccxbhSsV.s 			page 280


 12001 29be 3B       		.byte	0x3b
 12002 29bf 27       		.uleb128 0x27
 12003 29c0 01       		.uleb128 0x1
 12004 29c1 51       		.byte	0x51
 12005 29c2 03       		.uleb128 0x3
 12006 29c3 91       		.byte	0x91
 12007 29c4 D87E     		.sleb128 -168
 12008 29c6 27       		.uleb128 0x27
 12009 29c7 01       		.uleb128 0x1
 12010 29c8 50       		.byte	0x50
 12011 29c9 02       		.uleb128 0x2
 12012 29ca 75       		.byte	0x75
 12013 29cb 00       		.sleb128 0
 12014 29cc 00       		.byte	0
 12015 29cd 28       		.uleb128 0x28
 12016 29ce 381B0000 		.4byte	.LVL681
 12017 29d2 E6370000 		.4byte	0x37e6
 12018 29d6 27       		.uleb128 0x27
 12019 29d7 01       		.uleb128 0x1
 12020 29d8 52       		.byte	0x52
 12021 29d9 01       		.uleb128 0x1
 12022 29da 38       		.byte	0x38
 12023 29db 27       		.uleb128 0x27
 12024 29dc 01       		.uleb128 0x1
 12025 29dd 51       		.byte	0x51
 12026 29de 03       		.uleb128 0x3
 12027 29df 91       		.byte	0x91
 12028 29e0 B47E     		.sleb128 -204
 12029 29e2 27       		.uleb128 0x27
 12030 29e3 01       		.uleb128 0x1
 12031 29e4 50       		.byte	0x50
 12032 29e5 02       		.uleb128 0x2
 12033 29e6 75       		.byte	0x75
 12034 29e7 00       		.sleb128 0
 12035 29e8 00       		.byte	0
 12036 29e9 00       		.byte	0
 12037 29ea 00       		.byte	0
 12038 29eb 37       		.uleb128 0x37
 12039 29ec C20E0000 		.4byte	0xec2
 12040 29f0 70150000 		.4byte	.LBB520
 12041 29f4 B4000000 		.4byte	.LBE520-.LBB520
 12042 29f8 01       		.byte	0x1
 12043 29f9 4E01     		.2byte	0x14e
 12044 29fb C02A0000 		.4byte	0x2ac0
 12045 29ff 23       		.uleb128 0x23
 12046 2a00 70150000 		.4byte	.LBB521
 12047 2a04 B4000000 		.4byte	.LBE521-.LBB521
 12048 2a08 21       		.uleb128 0x21
 12049 2a09 D30E0000 		.4byte	0xed3
 12050 2a0d 36180000 		.4byte	.LLST96
 12051 2a11 21       		.uleb128 0x21
 12052 2a12 DD0E0000 		.4byte	0xedd
 12053 2a16 6C180000 		.4byte	.LLST97
 12054 2a1a 33       		.uleb128 0x33
 12055 2a1b E90E0000 		.4byte	0xee9
 12056 2a1f 03       		.uleb128 0x3
 12057 2a20 91       		.byte	0x91
ARM GAS  C:\Users\ramanatg\AppData\Local\Temp\ccxbhSsV.s 			page 281


 12058 2a21 C47E     		.sleb128 -188
 12059 2a23 33       		.uleb128 0x33
 12060 2a24 F50E0000 		.4byte	0xef5
 12061 2a28 03       		.uleb128 0x3
 12062 2a29 91       		.byte	0x91
 12063 2a2a D87E     		.sleb128 -168
 12064 2a2c 21       		.uleb128 0x21
 12065 2a2d 010F0000 		.4byte	0xf01
 12066 2a31 8C180000 		.4byte	.LLST98
 12067 2a35 26       		.uleb128 0x26
 12068 2a36 7C150000 		.4byte	.LVL563
 12069 2a3a 84370000 		.4byte	0x3784
 12070 2a3e 492A0000 		.4byte	0x2a49
 12071 2a42 27       		.uleb128 0x27
 12072 2a43 01       		.uleb128 0x1
 12073 2a44 50       		.byte	0x50
 12074 2a45 02       		.uleb128 0x2
 12075 2a46 75       		.byte	0x75
 12076 2a47 04       		.sleb128 4
 12077 2a48 00       		.byte	0
 12078 2a49 26       		.uleb128 0x26
 12079 2a4a EC150000 		.4byte	.LVL571
 12080 2a4e 9A380000 		.4byte	0x389a
 12081 2a52 5D2A0000 		.4byte	0x2a5d
 12082 2a56 27       		.uleb128 0x27
 12083 2a57 01       		.uleb128 0x1
 12084 2a58 50       		.byte	0x50
 12085 2a59 02       		.uleb128 0x2
 12086 2a5a 7A       		.byte	0x7a
 12087 2a5b 00       		.sleb128 0
 12088 2a5c 00       		.byte	0
 12089 2a5d 26       		.uleb128 0x26
 12090 2a5e FE150000 		.4byte	.LVL572
 12091 2a62 05380000 		.4byte	0x3805
 12092 2a66 772A0000 		.4byte	0x2a77
 12093 2a6a 27       		.uleb128 0x27
 12094 2a6b 01       		.uleb128 0x1
 12095 2a6c 51       		.byte	0x51
 12096 2a6d 03       		.uleb128 0x3
 12097 2a6e 91       		.byte	0x91
 12098 2a6f D87E     		.sleb128 -168
 12099 2a71 27       		.uleb128 0x27
 12100 2a72 01       		.uleb128 0x1
 12101 2a73 50       		.byte	0x50
 12102 2a74 01       		.uleb128 0x1
 12103 2a75 36       		.byte	0x36
 12104 2a76 00       		.byte	0
 12105 2a77 26       		.uleb128 0x26
 12106 2a78 04160000 		.4byte	.LVL573
 12107 2a7c A5370000 		.4byte	0x37a5
 12108 2a80 8E2A0000 		.4byte	0x2a8e
 12109 2a84 27       		.uleb128 0x27
 12110 2a85 01       		.uleb128 0x1
 12111 2a86 50       		.byte	0x50
 12112 2a87 05       		.uleb128 0x5
 12113 2a88 03       		.byte	0x3
 12114 2a89 84030000 		.4byte	.LC135
ARM GAS  C:\Users\ramanatg\AppData\Local\Temp\ccxbhSsV.s 			page 282


 12115 2a8d 00       		.byte	0
 12116 2a8e 26       		.uleb128 0x26
 12117 2a8f 12160000 		.4byte	.LVL575
 12118 2a93 50380000 		.4byte	0x3850
 12119 2a97 AB2A0000 		.4byte	0x2aab
 12120 2a9b 27       		.uleb128 0x27
 12121 2a9c 01       		.uleb128 0x1
 12122 2a9d 51       		.byte	0x51
 12123 2a9e 05       		.uleb128 0x5
 12124 2a9f 03       		.byte	0x3
 12125 2aa0 34020000 		.4byte	.LC106
 12126 2aa4 27       		.uleb128 0x27
 12127 2aa5 01       		.uleb128 0x1
 12128 2aa6 50       		.byte	0x50
 12129 2aa7 02       		.uleb128 0x2
 12130 2aa8 7A       		.byte	0x7a
 12131 2aa9 00       		.sleb128 0
 12132 2aaa 00       		.byte	0
 12133 2aab 28       		.uleb128 0x28
 12134 2aac 1E160000 		.4byte	.LVL577
 12135 2ab0 A5370000 		.4byte	0x37a5
 12136 2ab4 27       		.uleb128 0x27
 12137 2ab5 01       		.uleb128 0x1
 12138 2ab6 50       		.byte	0x50
 12139 2ab7 05       		.uleb128 0x5
 12140 2ab8 03       		.byte	0x3
 12141 2ab9 70030000 		.4byte	.LC133
 12142 2abd 00       		.byte	0
 12143 2abe 00       		.byte	0
 12144 2abf 00       		.byte	0
 12145 2ac0 32       		.uleb128 0x32
 12146 2ac1 B50E0000 		.4byte	0xeb5
 12147 2ac5 24160000 		.4byte	.LBB522
 12148 2ac9 E8070000 		.4byte	.Ldebug_ranges0+0x7e8
 12149 2acd 01       		.byte	0x1
 12150 2ace 4901     		.2byte	0x149
 12151 2ad0 FA2A0000 		.4byte	0x2afa
 12152 2ad4 25       		.uleb128 0x25
 12153 2ad5 86160000 		.4byte	.LVL585
 12154 2ad9 D6380000 		.4byte	0x38d6
 12155 2add 25       		.uleb128 0x25
 12156 2ade 8A160000 		.4byte	.LVL586
 12157 2ae2 CF380000 		.4byte	0x38cf
 12158 2ae6 28       		.uleb128 0x28
 12159 2ae7 90160000 		.4byte	.LVL587
 12160 2aeb A5370000 		.4byte	0x37a5
 12161 2aef 27       		.uleb128 0x27
 12162 2af0 01       		.uleb128 0x1
 12163 2af1 50       		.byte	0x50
 12164 2af2 05       		.uleb128 0x5
 12165 2af3 03       		.byte	0x3
 12166 2af4 58030000 		.4byte	.LC131
 12167 2af8 00       		.byte	0
 12168 2af9 00       		.byte	0
 12169 2afa 37       		.uleb128 0x37
 12170 2afb 580F0000 		.4byte	0xf58
 12171 2aff 42160000 		.4byte	.LBB525
ARM GAS  C:\Users\ramanatg\AppData\Local\Temp\ccxbhSsV.s 			page 283


 12172 2b03 36000000 		.4byte	.LBE525-.LBB525
 12173 2b07 01       		.byte	0x1
 12174 2b08 9501     		.2byte	0x195
 12175 2b0a 772B0000 		.4byte	0x2b77
 12176 2b0e 23       		.uleb128 0x23
 12177 2b0f 42160000 		.4byte	.LBB526
 12178 2b13 36000000 		.4byte	.LBE526-.LBB526
 12179 2b17 33       		.uleb128 0x33
 12180 2b18 690F0000 		.4byte	0xf69
 12181 2b1c 03       		.uleb128 0x3
 12182 2b1d 91       		.byte	0x91
 12183 2b1e D87E     		.sleb128 -168
 12184 2b20 26       		.uleb128 0x26
 12185 2b21 4C160000 		.4byte	.LVL579
 12186 2b25 C9370000 		.4byte	0x37c9
 12187 2b29 402B0000 		.4byte	0x2b40
 12188 2b2d 27       		.uleb128 0x27
 12189 2b2e 01       		.uleb128 0x1
 12190 2b2f 52       		.byte	0x52
 12191 2b30 02       		.uleb128 0x2
 12192 2b31 08       		.byte	0x8
 12193 2b32 80       		.byte	0x80
 12194 2b33 27       		.uleb128 0x27
 12195 2b34 01       		.uleb128 0x1
 12196 2b35 51       		.byte	0x51
 12197 2b36 01       		.uleb128 0x1
 12198 2b37 30       		.byte	0x30
 12199 2b38 27       		.uleb128 0x27
 12200 2b39 01       		.uleb128 0x1
 12201 2b3a 50       		.byte	0x50
 12202 2b3b 03       		.uleb128 0x3
 12203 2b3c 91       		.byte	0x91
 12204 2b3d D87E     		.sleb128 -168
 12205 2b3f 00       		.byte	0
 12206 2b40 26       		.uleb128 0x26
 12207 2b41 68160000 		.4byte	.LVL580
 12208 2b45 50380000 		.4byte	0x3850
 12209 2b49 642B0000 		.4byte	0x2b64
 12210 2b4d 27       		.uleb128 0x27
 12211 2b4e 01       		.uleb128 0x1
 12212 2b4f 52       		.byte	0x52
 12213 2b50 02       		.uleb128 0x2
 12214 2b51 78       		.byte	0x78
 12215 2b52 00       		.sleb128 0
 12216 2b53 27       		.uleb128 0x27
 12217 2b54 01       		.uleb128 0x1
 12218 2b55 51       		.byte	0x51
 12219 2b56 05       		.uleb128 0x5
 12220 2b57 03       		.byte	0x3
 12221 2b58 080A0000 		.4byte	.LC189
 12222 2b5c 27       		.uleb128 0x27
 12223 2b5d 01       		.uleb128 0x1
 12224 2b5e 50       		.byte	0x50
 12225 2b5f 03       		.uleb128 0x3
 12226 2b60 91       		.byte	0x91
 12227 2b61 D87E     		.sleb128 -168
 12228 2b63 00       		.byte	0
ARM GAS  C:\Users\ramanatg\AppData\Local\Temp\ccxbhSsV.s 			page 284


 12229 2b64 28       		.uleb128 0x28
 12230 2b65 6E160000 		.4byte	.LVL581
 12231 2b69 A5370000 		.4byte	0x37a5
 12232 2b6d 27       		.uleb128 0x27
 12233 2b6e 01       		.uleb128 0x1
 12234 2b6f 50       		.byte	0x50
 12235 2b70 03       		.uleb128 0x3
 12236 2b71 91       		.byte	0x91
 12237 2b72 D87E     		.sleb128 -168
 12238 2b74 00       		.byte	0
 12239 2b75 00       		.byte	0
 12240 2b76 00       		.byte	0
 12241 2b77 32       		.uleb128 0x32
 12242 2b78 760D0000 		.4byte	0xd76
 12243 2b7c E0160000 		.4byte	.LBB529
 12244 2b80 00080000 		.4byte	.Ldebug_ranges0+0x800
 12245 2b84 01       		.byte	0x1
 12246 2b85 3A01     		.2byte	0x13a
 12247 2b87 752D0000 		.4byte	0x2d75
 12248 2b8b 20       		.uleb128 0x20
 12249 2b8c 00080000 		.4byte	.Ldebug_ranges0+0x800
 12250 2b90 21       		.uleb128 0x21
 12251 2b91 870D0000 		.4byte	0xd87
 12252 2b95 AA180000 		.4byte	.LLST99
 12253 2b99 21       		.uleb128 0x21
 12254 2b9a 910D0000 		.4byte	0xd91
 12255 2b9e F9180000 		.4byte	.LLST100
 12256 2ba2 21       		.uleb128 0x21
 12257 2ba3 9B0D0000 		.4byte	0xd9b
 12258 2ba7 B5190000 		.4byte	.LLST101
 12259 2bab 21       		.uleb128 0x21
 12260 2bac A50D0000 		.4byte	0xda5
 12261 2bb0 DE190000 		.4byte	.LLST102
 12262 2bb4 33       		.uleb128 0x33
 12263 2bb5 B10D0000 		.4byte	0xdb1
 12264 2bb9 03       		.uleb128 0x3
 12265 2bba 91       		.byte	0x91
 12266 2bbb C47E     		.sleb128 -188
 12267 2bbd 33       		.uleb128 0x33
 12268 2bbe BD0D0000 		.4byte	0xdbd
 12269 2bc2 03       		.uleb128 0x3
 12270 2bc3 91       		.byte	0x91
 12271 2bc4 B47E     		.sleb128 -204
 12272 2bc6 21       		.uleb128 0x21
 12273 2bc7 C90D0000 		.4byte	0xdc9
 12274 2bcb 3A1A0000 		.4byte	.LLST103
 12275 2bcf 33       		.uleb128 0x33
 12276 2bd0 D50D0000 		.4byte	0xdd5
 12277 2bd4 03       		.uleb128 0x3
 12278 2bd5 91       		.byte	0x91
 12279 2bd6 D87E     		.sleb128 -168
 12280 2bd8 26       		.uleb128 0x26
 12281 2bd9 00170000 		.4byte	.LVL589
 12282 2bdd 6B380000 		.4byte	0x386b
 12283 2be1 F72B0000 		.4byte	0x2bf7
 12284 2be5 27       		.uleb128 0x27
 12285 2be6 01       		.uleb128 0x1
ARM GAS  C:\Users\ramanatg\AppData\Local\Temp\ccxbhSsV.s 			page 285


 12286 2be7 52       		.byte	0x52
 12287 2be8 01       		.uleb128 0x1
 12288 2be9 38       		.byte	0x38
 12289 2bea 27       		.uleb128 0x27
 12290 2beb 01       		.uleb128 0x1
 12291 2bec 51       		.byte	0x51
 12292 2bed 02       		.uleb128 0x2
 12293 2bee 77       		.byte	0x77
 12294 2bef 18       		.sleb128 24
 12295 2bf0 27       		.uleb128 0x27
 12296 2bf1 01       		.uleb128 0x1
 12297 2bf2 50       		.byte	0x50
 12298 2bf3 02       		.uleb128 0x2
 12299 2bf4 79       		.byte	0x79
 12300 2bf5 00       		.sleb128 0
 12301 2bf6 00       		.byte	0
 12302 2bf7 26       		.uleb128 0x26
 12303 2bf8 22170000 		.4byte	.LVL592
 12304 2bfc E6370000 		.4byte	0x37e6
 12305 2c00 162C0000 		.4byte	0x2c16
 12306 2c04 27       		.uleb128 0x27
 12307 2c05 01       		.uleb128 0x1
 12308 2c06 52       		.byte	0x52
 12309 2c07 01       		.uleb128 0x1
 12310 2c08 34       		.byte	0x34
 12311 2c09 27       		.uleb128 0x27
 12312 2c0a 01       		.uleb128 0x1
 12313 2c0b 51       		.byte	0x51
 12314 2c0c 02       		.uleb128 0x2
 12315 2c0d 75       		.byte	0x75
 12316 2c0e 00       		.sleb128 0
 12317 2c0f 27       		.uleb128 0x27
 12318 2c10 01       		.uleb128 0x1
 12319 2c11 50       		.byte	0x50
 12320 2c12 02       		.uleb128 0x2
 12321 2c13 78       		.byte	0x78
 12322 2c14 00       		.sleb128 0
 12323 2c15 00       		.byte	0
 12324 2c16 26       		.uleb128 0x26
 12325 2c17 32170000 		.4byte	.LVL594
 12326 2c1b E6370000 		.4byte	0x37e6
 12327 2c1f 352C0000 		.4byte	0x2c35
 12328 2c23 27       		.uleb128 0x27
 12329 2c24 01       		.uleb128 0x1
 12330 2c25 52       		.byte	0x52
 12331 2c26 01       		.uleb128 0x1
 12332 2c27 34       		.byte	0x34
 12333 2c28 27       		.uleb128 0x27
 12334 2c29 01       		.uleb128 0x1
 12335 2c2a 51       		.byte	0x51
 12336 2c2b 02       		.uleb128 0x2
 12337 2c2c 75       		.byte	0x75
 12338 2c2d 00       		.sleb128 0
 12339 2c2e 27       		.uleb128 0x27
 12340 2c2f 01       		.uleb128 0x1
 12341 2c30 50       		.byte	0x50
 12342 2c31 02       		.uleb128 0x2
ARM GAS  C:\Users\ramanatg\AppData\Local\Temp\ccxbhSsV.s 			page 286


 12343 2c32 77       		.byte	0x77
 12344 2c33 00       		.sleb128 0
 12345 2c34 00       		.byte	0
 12346 2c35 26       		.uleb128 0x26
 12347 2c36 42170000 		.4byte	.LVL596
 12348 2c3a E6370000 		.4byte	0x37e6
 12349 2c3e 572C0000 		.4byte	0x2c57
 12350 2c42 27       		.uleb128 0x27
 12351 2c43 01       		.uleb128 0x1
 12352 2c44 52       		.byte	0x52
 12353 2c45 01       		.uleb128 0x1
 12354 2c46 33       		.byte	0x33
 12355 2c47 27       		.uleb128 0x27
 12356 2c48 01       		.uleb128 0x1
 12357 2c49 51       		.byte	0x51
 12358 2c4a 02       		.uleb128 0x2
 12359 2c4b 75       		.byte	0x75
 12360 2c4c 00       		.sleb128 0
 12361 2c4d 27       		.uleb128 0x27
 12362 2c4e 01       		.uleb128 0x1
 12363 2c4f 50       		.byte	0x50
 12364 2c50 05       		.uleb128 0x5
 12365 2c51 03       		.byte	0x3
 12366 2c52 70020000 		.4byte	.LC23
 12367 2c56 00       		.byte	0
 12368 2c57 26       		.uleb128 0x26
 12369 2c58 52170000 		.4byte	.LVL598
 12370 2c5c E6370000 		.4byte	0x37e6
 12371 2c60 792C0000 		.4byte	0x2c79
 12372 2c64 27       		.uleb128 0x27
 12373 2c65 01       		.uleb128 0x1
 12374 2c66 52       		.byte	0x52
 12375 2c67 01       		.uleb128 0x1
 12376 2c68 33       		.byte	0x33
 12377 2c69 27       		.uleb128 0x27
 12378 2c6a 01       		.uleb128 0x1
 12379 2c6b 51       		.byte	0x51
 12380 2c6c 02       		.uleb128 0x2
 12381 2c6d 75       		.byte	0x75
 12382 2c6e 00       		.sleb128 0
 12383 2c6f 27       		.uleb128 0x27
 12384 2c70 01       		.uleb128 0x1
 12385 2c71 50       		.byte	0x50
 12386 2c72 05       		.uleb128 0x5
 12387 2c73 03       		.byte	0x3
 12388 2c74 74020000 		.4byte	.LC24
 12389 2c78 00       		.byte	0
 12390 2c79 26       		.uleb128 0x26
 12391 2c7a 62170000 		.4byte	.LVL600
 12392 2c7e E6370000 		.4byte	0x37e6
 12393 2c82 9B2C0000 		.4byte	0x2c9b
 12394 2c86 27       		.uleb128 0x27
 12395 2c87 01       		.uleb128 0x1
 12396 2c88 52       		.byte	0x52
 12397 2c89 01       		.uleb128 0x1
 12398 2c8a 33       		.byte	0x33
 12399 2c8b 27       		.uleb128 0x27
ARM GAS  C:\Users\ramanatg\AppData\Local\Temp\ccxbhSsV.s 			page 287


 12400 2c8c 01       		.uleb128 0x1
 12401 2c8d 51       		.byte	0x51
 12402 2c8e 02       		.uleb128 0x2
 12403 2c8f 75       		.byte	0x75
 12404 2c90 00       		.sleb128 0
 12405 2c91 27       		.uleb128 0x27
 12406 2c92 01       		.uleb128 0x1
 12407 2c93 50       		.byte	0x50
 12408 2c94 05       		.uleb128 0x5
 12409 2c95 03       		.byte	0x3
 12410 2c96 78020000 		.4byte	.LC25
 12411 2c9a 00       		.byte	0
 12412 2c9b 26       		.uleb128 0x26
 12413 2c9c 72170000 		.4byte	.LVL602
 12414 2ca0 E6370000 		.4byte	0x37e6
 12415 2ca4 BD2C0000 		.4byte	0x2cbd
 12416 2ca8 27       		.uleb128 0x27
 12417 2ca9 01       		.uleb128 0x1
 12418 2caa 52       		.byte	0x52
 12419 2cab 01       		.uleb128 0x1
 12420 2cac 33       		.byte	0x33
 12421 2cad 27       		.uleb128 0x27
 12422 2cae 01       		.uleb128 0x1
 12423 2caf 51       		.byte	0x51
 12424 2cb0 02       		.uleb128 0x2
 12425 2cb1 75       		.byte	0x75
 12426 2cb2 00       		.sleb128 0
 12427 2cb3 27       		.uleb128 0x27
 12428 2cb4 01       		.uleb128 0x1
 12429 2cb5 50       		.byte	0x50
 12430 2cb6 05       		.uleb128 0x5
 12431 2cb7 03       		.byte	0x3
 12432 2cb8 7C020000 		.4byte	.LC26
 12433 2cbc 00       		.byte	0
 12434 2cbd 26       		.uleb128 0x26
 12435 2cbe 82170000 		.4byte	.LVL604
 12436 2cc2 E6370000 		.4byte	0x37e6
 12437 2cc6 DF2C0000 		.4byte	0x2cdf
 12438 2cca 27       		.uleb128 0x27
 12439 2ccb 01       		.uleb128 0x1
 12440 2ccc 52       		.byte	0x52
 12441 2ccd 01       		.uleb128 0x1
 12442 2cce 32       		.byte	0x32
 12443 2ccf 27       		.uleb128 0x27
 12444 2cd0 01       		.uleb128 0x1
 12445 2cd1 51       		.byte	0x51
 12446 2cd2 02       		.uleb128 0x2
 12447 2cd3 75       		.byte	0x75
 12448 2cd4 00       		.sleb128 0
 12449 2cd5 27       		.uleb128 0x27
 12450 2cd6 01       		.uleb128 0x1
 12451 2cd7 50       		.byte	0x50
 12452 2cd8 05       		.uleb128 0x5
 12453 2cd9 03       		.byte	0x3
 12454 2cda 80020000 		.4byte	.LC27
 12455 2cde 00       		.byte	0
 12456 2cdf 26       		.uleb128 0x26
ARM GAS  C:\Users\ramanatg\AppData\Local\Temp\ccxbhSsV.s 			page 288


 12457 2ce0 92170000 		.4byte	.LVL606
 12458 2ce4 E6370000 		.4byte	0x37e6
 12459 2ce8 012D0000 		.4byte	0x2d01
 12460 2cec 27       		.uleb128 0x27
 12461 2ced 01       		.uleb128 0x1
 12462 2cee 52       		.byte	0x52
 12463 2cef 01       		.uleb128 0x1
 12464 2cf0 32       		.byte	0x32
 12465 2cf1 27       		.uleb128 0x27
 12466 2cf2 01       		.uleb128 0x1
 12467 2cf3 51       		.byte	0x51
 12468 2cf4 02       		.uleb128 0x2
 12469 2cf5 75       		.byte	0x75
 12470 2cf6 00       		.sleb128 0
 12471 2cf7 27       		.uleb128 0x27
 12472 2cf8 01       		.uleb128 0x1
 12473 2cf9 50       		.byte	0x50
 12474 2cfa 05       		.uleb128 0x5
 12475 2cfb 03       		.byte	0x3
 12476 2cfc 84020000 		.4byte	.LC28
 12477 2d00 00       		.byte	0
 12478 2d01 26       		.uleb128 0x26
 12479 2d02 F8170000 		.4byte	.LVL611
 12480 2d06 05380000 		.4byte	0x3805
 12481 2d0a 1B2D0000 		.4byte	0x2d1b
 12482 2d0e 27       		.uleb128 0x27
 12483 2d0f 01       		.uleb128 0x1
 12484 2d10 51       		.byte	0x51
 12485 2d11 03       		.uleb128 0x3
 12486 2d12 91       		.byte	0x91
 12487 2d13 B47E     		.sleb128 -204
 12488 2d15 27       		.uleb128 0x27
 12489 2d16 01       		.uleb128 0x1
 12490 2d17 50       		.byte	0x50
 12491 2d18 01       		.uleb128 0x1
 12492 2d19 3B       		.byte	0x3b
 12493 2d1a 00       		.byte	0
 12494 2d1b 26       		.uleb128 0x26
 12495 2d1c FE170000 		.4byte	.LVL612
 12496 2d20 A5370000 		.4byte	0x37a5
 12497 2d24 322D0000 		.4byte	0x2d32
 12498 2d28 27       		.uleb128 0x27
 12499 2d29 01       		.uleb128 0x1
 12500 2d2a 50       		.byte	0x50
 12501 2d2b 05       		.uleb128 0x5
 12502 2d2c 03       		.byte	0x3
 12503 2d2d 88020000 		.4byte	.LC118
 12504 2d31 00       		.byte	0
 12505 2d32 26       		.uleb128 0x26
 12506 2d33 10180000 		.4byte	.LVL614
 12507 2d37 50380000 		.4byte	0x3850
 12508 2d3b 4C2D0000 		.4byte	0x2d4c
 12509 2d3f 27       		.uleb128 0x27
 12510 2d40 01       		.uleb128 0x1
 12511 2d41 51       		.byte	0x51
 12512 2d42 02       		.uleb128 0x2
 12513 2d43 76       		.byte	0x76
ARM GAS  C:\Users\ramanatg\AppData\Local\Temp\ccxbhSsV.s 			page 289


 12514 2d44 00       		.sleb128 0
 12515 2d45 27       		.uleb128 0x27
 12516 2d46 01       		.uleb128 0x1
 12517 2d47 50       		.byte	0x50
 12518 2d48 02       		.uleb128 0x2
 12519 2d49 7A       		.byte	0x7a
 12520 2d4a 00       		.sleb128 0
 12521 2d4b 00       		.byte	0
 12522 2d4c 26       		.uleb128 0x26
 12523 2d4d 18180000 		.4byte	.LVL616
 12524 2d51 A5370000 		.4byte	0x37a5
 12525 2d55 602D0000 		.4byte	0x2d60
 12526 2d59 27       		.uleb128 0x27
 12527 2d5a 01       		.uleb128 0x1
 12528 2d5b 50       		.byte	0x50
 12529 2d5c 02       		.uleb128 0x2
 12530 2d5d 7A       		.byte	0x7a
 12531 2d5e 00       		.sleb128 0
 12532 2d5f 00       		.byte	0
 12533 2d60 28       		.uleb128 0x28
 12534 2d61 1A190000 		.4byte	.LVL643
 12535 2d65 A5370000 		.4byte	0x37a5
 12536 2d69 27       		.uleb128 0x27
 12537 2d6a 01       		.uleb128 0x1
 12538 2d6b 50       		.byte	0x50
 12539 2d6c 05       		.uleb128 0x5
 12540 2d6d 03       		.byte	0x3
 12541 2d6e 38020000 		.4byte	.LC108
 12542 2d72 00       		.byte	0
 12543 2d73 00       		.byte	0
 12544 2d74 00       		.byte	0
 12545 2d75 37       		.uleb128 0x37
 12546 2d76 2A0D0000 		.4byte	0xd2a
 12547 2d7a 20180000 		.4byte	.LBB532
 12548 2d7e C8000000 		.4byte	.LBE532-.LBB532
 12549 2d82 01       		.byte	0x1
 12550 2d83 3501     		.2byte	0x135
 12551 2d85 2D2E0000 		.4byte	0x2e2d
 12552 2d89 23       		.uleb128 0x23
 12553 2d8a 20180000 		.4byte	.LBB533
 12554 2d8e C8000000 		.4byte	.LBE533-.LBB533
 12555 2d92 21       		.uleb128 0x21
 12556 2d93 3B0D0000 		.4byte	0xd3b
 12557 2d97 201B0000 		.4byte	.LLST104
 12558 2d9b 21       		.uleb128 0x21
 12559 2d9c 450D0000 		.4byte	0xd45
 12560 2da0 551B0000 		.4byte	.LLST105
 12561 2da4 33       		.uleb128 0x33
 12562 2da5 510D0000 		.4byte	0xd51
 12563 2da9 03       		.uleb128 0x3
 12564 2daa 91       		.byte	0x91
 12565 2dab C47E     		.sleb128 -188
 12566 2dad 33       		.uleb128 0x33
 12567 2dae 5D0D0000 		.4byte	0xd5d
 12568 2db2 03       		.uleb128 0x3
 12569 2db3 91       		.byte	0x91
 12570 2db4 D87E     		.sleb128 -168
ARM GAS  C:\Users\ramanatg\AppData\Local\Temp\ccxbhSsV.s 			page 290


 12571 2db6 21       		.uleb128 0x21
 12572 2db7 690D0000 		.4byte	0xd69
 12573 2dbb 751B0000 		.4byte	.LLST106
 12574 2dbf 26       		.uleb128 0x26
 12575 2dc0 2C180000 		.4byte	.LVL618
 12576 2dc4 84370000 		.4byte	0x3784
 12577 2dc8 D32D0000 		.4byte	0x2dd3
 12578 2dcc 27       		.uleb128 0x27
 12579 2dcd 01       		.uleb128 0x1
 12580 2dce 50       		.byte	0x50
 12581 2dcf 02       		.uleb128 0x2
 12582 2dd0 75       		.byte	0x75
 12583 2dd1 05       		.sleb128 5
 12584 2dd2 00       		.byte	0
 12585 2dd3 26       		.uleb128 0x26
 12586 2dd4 64180000 		.4byte	.LVL622
 12587 2dd8 9A380000 		.4byte	0x389a
 12588 2ddc E72D0000 		.4byte	0x2de7
 12589 2de0 27       		.uleb128 0x27
 12590 2de1 01       		.uleb128 0x1
 12591 2de2 50       		.byte	0x50
 12592 2de3 02       		.uleb128 0x2
 12593 2de4 7A       		.byte	0x7a
 12594 2de5 00       		.sleb128 0
 12595 2de6 00       		.byte	0
 12596 2de7 26       		.uleb128 0x26
 12597 2de8 8A180000 		.4byte	.LVL623
 12598 2dec 05380000 		.4byte	0x3805
 12599 2df0 012E0000 		.4byte	0x2e01
 12600 2df4 27       		.uleb128 0x27
 12601 2df5 01       		.uleb128 0x1
 12602 2df6 51       		.byte	0x51
 12603 2df7 03       		.uleb128 0x3
 12604 2df8 91       		.byte	0x91
 12605 2df9 D87E     		.sleb128 -168
 12606 2dfb 27       		.uleb128 0x27
 12607 2dfc 01       		.uleb128 0x1
 12608 2dfd 50       		.byte	0x50
 12609 2dfe 01       		.uleb128 0x1
 12610 2dff 35       		.byte	0x35
 12611 2e00 00       		.byte	0
 12612 2e01 26       		.uleb128 0x26
 12613 2e02 90180000 		.4byte	.LVL624
 12614 2e06 A5370000 		.4byte	0x37a5
 12615 2e0a 182E0000 		.4byte	0x2e18
 12616 2e0e 27       		.uleb128 0x27
 12617 2e0f 01       		.uleb128 0x1
 12618 2e10 50       		.byte	0x50
 12619 2e11 05       		.uleb128 0x5
 12620 2e12 03       		.byte	0x3
 12621 2e13 18020000 		.4byte	.LC104
 12622 2e17 00       		.byte	0
 12623 2e18 28       		.uleb128 0x28
 12624 2e19 E2180000 		.4byte	.LVL633
 12625 2e1d A5370000 		.4byte	0x37a5
 12626 2e21 27       		.uleb128 0x27
 12627 2e22 01       		.uleb128 0x1
ARM GAS  C:\Users\ramanatg\AppData\Local\Temp\ccxbhSsV.s 			page 291


 12628 2e23 50       		.byte	0x50
 12629 2e24 05       		.uleb128 0x5
 12630 2e25 03       		.byte	0x3
 12631 2e26 00020000 		.4byte	.LC102
 12632 2e2a 00       		.byte	0
 12633 2e2b 00       		.byte	0
 12634 2e2c 00       		.byte	0
 12635 2e2d 26       		.uleb128 0x26
 12636 2e2e 80000000 		.4byte	.LVL41
 12637 2e32 84370000 		.4byte	0x3784
 12638 2e36 412E0000 		.4byte	0x2e41
 12639 2e3a 27       		.uleb128 0x27
 12640 2e3b 01       		.uleb128 0x1
 12641 2e3c 50       		.byte	0x50
 12642 2e3d 02       		.uleb128 0x2
 12643 2e3e 77       		.byte	0x77
 12644 2e3f 00       		.sleb128 0
 12645 2e40 00       		.byte	0
 12646 2e41 26       		.uleb128 0x26
 12647 2e42 98000000 		.4byte	.LVL44
 12648 2e46 C9370000 		.4byte	0x37c9
 12649 2e4a 602E0000 		.4byte	0x2e60
 12650 2e4e 27       		.uleb128 0x27
 12651 2e4f 01       		.uleb128 0x1
 12652 2e50 52       		.byte	0x52
 12653 2e51 02       		.uleb128 0x2
 12654 2e52 08       		.byte	0x8
 12655 2e53 36       		.byte	0x36
 12656 2e54 27       		.uleb128 0x27
 12657 2e55 01       		.uleb128 0x1
 12658 2e56 51       		.byte	0x51
 12659 2e57 01       		.uleb128 0x1
 12660 2e58 30       		.byte	0x30
 12661 2e59 27       		.uleb128 0x27
 12662 2e5a 01       		.uleb128 0x1
 12663 2e5b 50       		.byte	0x50
 12664 2e5c 02       		.uleb128 0x2
 12665 2e5d 77       		.byte	0x77
 12666 2e5e 00       		.sleb128 0
 12667 2e5f 00       		.byte	0
 12668 2e60 26       		.uleb128 0x26
 12669 2e61 9E000000 		.4byte	.LVL45
 12670 2e65 A5370000 		.4byte	0x37a5
 12671 2e69 772E0000 		.4byte	0x2e77
 12672 2e6d 27       		.uleb128 0x27
 12673 2e6e 01       		.uleb128 0x1
 12674 2e6f 50       		.byte	0x50
 12675 2e70 05       		.uleb128 0x5
 12676 2e71 03       		.byte	0x3
 12677 2e72 A00B0000 		.4byte	.LC236
 12678 2e76 00       		.byte	0
 12679 2e77 26       		.uleb128 0x26
 12680 2e78 BC000000 		.4byte	.LVL48
 12681 2e7c 6B380000 		.4byte	0x386b
 12682 2e80 912E0000 		.4byte	0x2e91
 12683 2e84 27       		.uleb128 0x27
 12684 2e85 01       		.uleb128 0x1
ARM GAS  C:\Users\ramanatg\AppData\Local\Temp\ccxbhSsV.s 			page 292


 12685 2e86 51       		.byte	0x51
 12686 2e87 02       		.uleb128 0x2
 12687 2e88 77       		.byte	0x77
 12688 2e89 00       		.sleb128 0
 12689 2e8a 27       		.uleb128 0x27
 12690 2e8b 01       		.uleb128 0x1
 12691 2e8c 50       		.byte	0x50
 12692 2e8d 02       		.uleb128 0x2
 12693 2e8e 75       		.byte	0x75
 12694 2e8f 00       		.sleb128 0
 12695 2e90 00       		.byte	0
 12696 2e91 26       		.uleb128 0x26
 12697 2e92 C4000000 		.4byte	.LVL49
 12698 2e96 AF380000 		.4byte	0x38af
 12699 2e9a A52E0000 		.4byte	0x2ea5
 12700 2e9e 27       		.uleb128 0x27
 12701 2e9f 01       		.uleb128 0x1
 12702 2ea0 50       		.byte	0x50
 12703 2ea1 02       		.uleb128 0x2
 12704 2ea2 75       		.byte	0x75
 12705 2ea3 00       		.sleb128 0
 12706 2ea4 00       		.byte	0
 12707 2ea5 26       		.uleb128 0x26
 12708 2ea6 D0000000 		.4byte	.LVL50
 12709 2eaa E6370000 		.4byte	0x37e6
 12710 2eae C42E0000 		.4byte	0x2ec4
 12711 2eb2 27       		.uleb128 0x27
 12712 2eb3 01       		.uleb128 0x1
 12713 2eb4 52       		.byte	0x52
 12714 2eb5 01       		.uleb128 0x1
 12715 2eb6 35       		.byte	0x35
 12716 2eb7 27       		.uleb128 0x27
 12717 2eb8 01       		.uleb128 0x1
 12718 2eb9 51       		.byte	0x51
 12719 2eba 02       		.uleb128 0x2
 12720 2ebb 75       		.byte	0x75
 12721 2ebc 00       		.sleb128 0
 12722 2ebd 27       		.uleb128 0x27
 12723 2ebe 01       		.uleb128 0x1
 12724 2ebf 50       		.byte	0x50
 12725 2ec0 02       		.uleb128 0x2
 12726 2ec1 77       		.byte	0x77
 12727 2ec2 00       		.sleb128 0
 12728 2ec3 00       		.byte	0
 12729 2ec4 26       		.uleb128 0x26
 12730 2ec5 E4000000 		.4byte	.LVL51
 12731 2ec9 E6370000 		.4byte	0x37e6
 12732 2ecd E42E0000 		.4byte	0x2ee4
 12733 2ed1 27       		.uleb128 0x27
 12734 2ed2 01       		.uleb128 0x1
 12735 2ed3 52       		.byte	0x52
 12736 2ed4 01       		.uleb128 0x1
 12737 2ed5 34       		.byte	0x34
 12738 2ed6 27       		.uleb128 0x27
 12739 2ed7 01       		.uleb128 0x1
 12740 2ed8 51       		.byte	0x51
 12741 2ed9 02       		.uleb128 0x2
ARM GAS  C:\Users\ramanatg\AppData\Local\Temp\ccxbhSsV.s 			page 293


 12742 2eda 75       		.byte	0x75
 12743 2edb 00       		.sleb128 0
 12744 2edc 27       		.uleb128 0x27
 12745 2edd 01       		.uleb128 0x1
 12746 2ede 50       		.byte	0x50
 12747 2edf 03       		.uleb128 0x3
 12748 2ee0 77       		.byte	0x77
 12749 2ee1 D400     		.sleb128 84
 12750 2ee3 00       		.byte	0
 12751 2ee4 26       		.uleb128 0x26
 12752 2ee5 F6000000 		.4byte	.LVL52
 12753 2ee9 E6370000 		.4byte	0x37e6
 12754 2eed 042F0000 		.4byte	0x2f04
 12755 2ef1 27       		.uleb128 0x27
 12756 2ef2 01       		.uleb128 0x1
 12757 2ef3 52       		.byte	0x52
 12758 2ef4 01       		.uleb128 0x1
 12759 2ef5 35       		.byte	0x35
 12760 2ef6 27       		.uleb128 0x27
 12761 2ef7 01       		.uleb128 0x1
 12762 2ef8 51       		.byte	0x51
 12763 2ef9 02       		.uleb128 0x2
 12764 2efa 75       		.byte	0x75
 12765 2efb 00       		.sleb128 0
 12766 2efc 27       		.uleb128 0x27
 12767 2efd 01       		.uleb128 0x1
 12768 2efe 50       		.byte	0x50
 12769 2eff 03       		.uleb128 0x3
 12770 2f00 77       		.byte	0x77
 12771 2f01 D800     		.sleb128 88
 12772 2f03 00       		.byte	0
 12773 2f04 26       		.uleb128 0x26
 12774 2f05 08010000 		.4byte	.LVL53
 12775 2f09 E6370000 		.4byte	0x37e6
 12776 2f0d 242F0000 		.4byte	0x2f24
 12777 2f11 27       		.uleb128 0x27
 12778 2f12 01       		.uleb128 0x1
 12779 2f13 52       		.byte	0x52
 12780 2f14 01       		.uleb128 0x1
 12781 2f15 35       		.byte	0x35
 12782 2f16 27       		.uleb128 0x27
 12783 2f17 01       		.uleb128 0x1
 12784 2f18 51       		.byte	0x51
 12785 2f19 02       		.uleb128 0x2
 12786 2f1a 75       		.byte	0x75
 12787 2f1b 00       		.sleb128 0
 12788 2f1c 27       		.uleb128 0x27
 12789 2f1d 01       		.uleb128 0x1
 12790 2f1e 50       		.byte	0x50
 12791 2f1f 03       		.uleb128 0x3
 12792 2f20 77       		.byte	0x77
 12793 2f21 E000     		.sleb128 96
 12794 2f23 00       		.byte	0
 12795 2f24 26       		.uleb128 0x26
 12796 2f25 1A010000 		.4byte	.LVL54
 12797 2f29 E6370000 		.4byte	0x37e6
 12798 2f2d 442F0000 		.4byte	0x2f44
ARM GAS  C:\Users\ramanatg\AppData\Local\Temp\ccxbhSsV.s 			page 294


 12799 2f31 27       		.uleb128 0x27
 12800 2f32 01       		.uleb128 0x1
 12801 2f33 52       		.byte	0x52
 12802 2f34 01       		.uleb128 0x1
 12803 2f35 35       		.byte	0x35
 12804 2f36 27       		.uleb128 0x27
 12805 2f37 01       		.uleb128 0x1
 12806 2f38 51       		.byte	0x51
 12807 2f39 02       		.uleb128 0x2
 12808 2f3a 75       		.byte	0x75
 12809 2f3b 00       		.sleb128 0
 12810 2f3c 27       		.uleb128 0x27
 12811 2f3d 01       		.uleb128 0x1
 12812 2f3e 50       		.byte	0x50
 12813 2f3f 03       		.uleb128 0x3
 12814 2f40 77       		.byte	0x77
 12815 2f41 E800     		.sleb128 104
 12816 2f43 00       		.byte	0
 12817 2f44 26       		.uleb128 0x26
 12818 2f45 2C010000 		.4byte	.LVL55
 12819 2f49 E6370000 		.4byte	0x37e6
 12820 2f4d 642F0000 		.4byte	0x2f64
 12821 2f51 27       		.uleb128 0x27
 12822 2f52 01       		.uleb128 0x1
 12823 2f53 52       		.byte	0x52
 12824 2f54 01       		.uleb128 0x1
 12825 2f55 35       		.byte	0x35
 12826 2f56 27       		.uleb128 0x27
 12827 2f57 01       		.uleb128 0x1
 12828 2f58 51       		.byte	0x51
 12829 2f59 02       		.uleb128 0x2
 12830 2f5a 75       		.byte	0x75
 12831 2f5b 00       		.sleb128 0
 12832 2f5c 27       		.uleb128 0x27
 12833 2f5d 01       		.uleb128 0x1
 12834 2f5e 50       		.byte	0x50
 12835 2f5f 03       		.uleb128 0x3
 12836 2f60 77       		.byte	0x77
 12837 2f61 F000     		.sleb128 112
 12838 2f63 00       		.byte	0
 12839 2f64 26       		.uleb128 0x26
 12840 2f65 3E010000 		.4byte	.LVL56
 12841 2f69 E6370000 		.4byte	0x37e6
 12842 2f6d 842F0000 		.4byte	0x2f84
 12843 2f71 27       		.uleb128 0x27
 12844 2f72 01       		.uleb128 0x1
 12845 2f73 52       		.byte	0x52
 12846 2f74 01       		.uleb128 0x1
 12847 2f75 35       		.byte	0x35
 12848 2f76 27       		.uleb128 0x27
 12849 2f77 01       		.uleb128 0x1
 12850 2f78 51       		.byte	0x51
 12851 2f79 02       		.uleb128 0x2
 12852 2f7a 75       		.byte	0x75
 12853 2f7b 00       		.sleb128 0
 12854 2f7c 27       		.uleb128 0x27
 12855 2f7d 01       		.uleb128 0x1
ARM GAS  C:\Users\ramanatg\AppData\Local\Temp\ccxbhSsV.s 			page 295


 12856 2f7e 50       		.byte	0x50
 12857 2f7f 03       		.uleb128 0x3
 12858 2f80 77       		.byte	0x77
 12859 2f81 F800     		.sleb128 120
 12860 2f83 00       		.byte	0
 12861 2f84 26       		.uleb128 0x26
 12862 2f85 52010000 		.4byte	.LVL57
 12863 2f89 E6370000 		.4byte	0x37e6
 12864 2f8d A32F0000 		.4byte	0x2fa3
 12865 2f91 27       		.uleb128 0x27
 12866 2f92 01       		.uleb128 0x1
 12867 2f93 52       		.byte	0x52
 12868 2f94 01       		.uleb128 0x1
 12869 2f95 37       		.byte	0x37
 12870 2f96 27       		.uleb128 0x27
 12871 2f97 01       		.uleb128 0x1
 12872 2f98 51       		.byte	0x51
 12873 2f99 02       		.uleb128 0x2
 12874 2f9a 75       		.byte	0x75
 12875 2f9b 00       		.sleb128 0
 12876 2f9c 27       		.uleb128 0x27
 12877 2f9d 01       		.uleb128 0x1
 12878 2f9e 50       		.byte	0x50
 12879 2f9f 02       		.uleb128 0x2
 12880 2fa0 77       		.byte	0x77
 12881 2fa1 00       		.sleb128 0
 12882 2fa2 00       		.byte	0
 12883 2fa3 26       		.uleb128 0x26
 12884 2fa4 66010000 		.4byte	.LVL58
 12885 2fa8 E6370000 		.4byte	0x37e6
 12886 2fac C22F0000 		.4byte	0x2fc2
 12887 2fb0 27       		.uleb128 0x27
 12888 2fb1 01       		.uleb128 0x1
 12889 2fb2 52       		.byte	0x52
 12890 2fb3 01       		.uleb128 0x1
 12891 2fb4 35       		.byte	0x35
 12892 2fb5 27       		.uleb128 0x27
 12893 2fb6 01       		.uleb128 0x1
 12894 2fb7 51       		.byte	0x51
 12895 2fb8 02       		.uleb128 0x2
 12896 2fb9 75       		.byte	0x75
 12897 2fba 00       		.sleb128 0
 12898 2fbb 27       		.uleb128 0x27
 12899 2fbc 01       		.uleb128 0x1
 12900 2fbd 50       		.byte	0x50
 12901 2fbe 02       		.uleb128 0x2
 12902 2fbf 77       		.byte	0x77
 12903 2fc0 08       		.sleb128 8
 12904 2fc1 00       		.byte	0
 12905 2fc2 26       		.uleb128 0x26
 12906 2fc3 7A010000 		.4byte	.LVL59
 12907 2fc7 E6370000 		.4byte	0x37e6
 12908 2fcb E12F0000 		.4byte	0x2fe1
 12909 2fcf 27       		.uleb128 0x27
 12910 2fd0 01       		.uleb128 0x1
 12911 2fd1 52       		.byte	0x52
 12912 2fd2 01       		.uleb128 0x1
ARM GAS  C:\Users\ramanatg\AppData\Local\Temp\ccxbhSsV.s 			page 296


 12913 2fd3 37       		.byte	0x37
 12914 2fd4 27       		.uleb128 0x27
 12915 2fd5 01       		.uleb128 0x1
 12916 2fd6 51       		.byte	0x51
 12917 2fd7 02       		.uleb128 0x2
 12918 2fd8 75       		.byte	0x75
 12919 2fd9 00       		.sleb128 0
 12920 2fda 27       		.uleb128 0x27
 12921 2fdb 01       		.uleb128 0x1
 12922 2fdc 50       		.byte	0x50
 12923 2fdd 02       		.uleb128 0x2
 12924 2fde 77       		.byte	0x77
 12925 2fdf 10       		.sleb128 16
 12926 2fe0 00       		.byte	0
 12927 2fe1 26       		.uleb128 0x26
 12928 2fe2 8E010000 		.4byte	.LVL60
 12929 2fe6 E6370000 		.4byte	0x37e6
 12930 2fea 00300000 		.4byte	0x3000
 12931 2fee 27       		.uleb128 0x27
 12932 2fef 01       		.uleb128 0x1
 12933 2ff0 52       		.byte	0x52
 12934 2ff1 01       		.uleb128 0x1
 12935 2ff2 37       		.byte	0x37
 12936 2ff3 27       		.uleb128 0x27
 12937 2ff4 01       		.uleb128 0x1
 12938 2ff5 51       		.byte	0x51
 12939 2ff6 02       		.uleb128 0x2
 12940 2ff7 75       		.byte	0x75
 12941 2ff8 00       		.sleb128 0
 12942 2ff9 27       		.uleb128 0x27
 12943 2ffa 01       		.uleb128 0x1
 12944 2ffb 50       		.byte	0x50
 12945 2ffc 02       		.uleb128 0x2
 12946 2ffd 77       		.byte	0x77
 12947 2ffe 20       		.sleb128 32
 12948 2fff 00       		.byte	0
 12949 3000 26       		.uleb128 0x26
 12950 3001 A2010000 		.4byte	.LVL61
 12951 3005 E6370000 		.4byte	0x37e6
 12952 3009 1F300000 		.4byte	0x301f
 12953 300d 27       		.uleb128 0x27
 12954 300e 01       		.uleb128 0x1
 12955 300f 52       		.byte	0x52
 12956 3010 01       		.uleb128 0x1
 12957 3011 38       		.byte	0x38
 12958 3012 27       		.uleb128 0x27
 12959 3013 01       		.uleb128 0x1
 12960 3014 51       		.byte	0x51
 12961 3015 02       		.uleb128 0x2
 12962 3016 75       		.byte	0x75
 12963 3017 00       		.sleb128 0
 12964 3018 27       		.uleb128 0x27
 12965 3019 01       		.uleb128 0x1
 12966 301a 50       		.byte	0x50
 12967 301b 02       		.uleb128 0x2
 12968 301c 77       		.byte	0x77
 12969 301d 28       		.sleb128 40
ARM GAS  C:\Users\ramanatg\AppData\Local\Temp\ccxbhSsV.s 			page 297


 12970 301e 00       		.byte	0
 12971 301f 26       		.uleb128 0x26
 12972 3020 B8010000 		.4byte	.LVL62
 12973 3024 E6370000 		.4byte	0x37e6
 12974 3028 3F300000 		.4byte	0x303f
 12975 302c 27       		.uleb128 0x27
 12976 302d 01       		.uleb128 0x1
 12977 302e 52       		.byte	0x52
 12978 302f 01       		.uleb128 0x1
 12979 3030 37       		.byte	0x37
 12980 3031 27       		.uleb128 0x27
 12981 3032 01       		.uleb128 0x1
 12982 3033 51       		.byte	0x51
 12983 3034 02       		.uleb128 0x2
 12984 3035 75       		.byte	0x75
 12985 3036 00       		.sleb128 0
 12986 3037 27       		.uleb128 0x27
 12987 3038 01       		.uleb128 0x1
 12988 3039 50       		.byte	0x50
 12989 303a 03       		.uleb128 0x3
 12990 303b 77       		.byte	0x77
 12991 303c C000     		.sleb128 64
 12992 303e 00       		.byte	0
 12993 303f 26       		.uleb128 0x26
 12994 3040 CC010000 		.4byte	.LVL63
 12995 3044 E6370000 		.4byte	0x37e6
 12996 3048 5F300000 		.4byte	0x305f
 12997 304c 27       		.uleb128 0x27
 12998 304d 01       		.uleb128 0x1
 12999 304e 52       		.byte	0x52
 13000 304f 01       		.uleb128 0x1
 13001 3050 34       		.byte	0x34
 13002 3051 27       		.uleb128 0x27
 13003 3052 01       		.uleb128 0x1
 13004 3053 51       		.byte	0x51
 13005 3054 02       		.uleb128 0x2
 13006 3055 75       		.byte	0x75
 13007 3056 00       		.sleb128 0
 13008 3057 27       		.uleb128 0x27
 13009 3058 01       		.uleb128 0x1
 13010 3059 50       		.byte	0x50
 13011 305a 03       		.uleb128 0x3
 13012 305b 77       		.byte	0x77
 13013 305c C800     		.sleb128 72
 13014 305e 00       		.byte	0
 13015 305f 26       		.uleb128 0x26
 13016 3060 E0010000 		.4byte	.LVL64
 13017 3064 E6370000 		.4byte	0x37e6
 13018 3068 7F300000 		.4byte	0x307f
 13019 306c 27       		.uleb128 0x27
 13020 306d 01       		.uleb128 0x1
 13021 306e 52       		.byte	0x52
 13022 306f 01       		.uleb128 0x1
 13023 3070 34       		.byte	0x34
 13024 3071 27       		.uleb128 0x27
 13025 3072 01       		.uleb128 0x1
 13026 3073 51       		.byte	0x51
ARM GAS  C:\Users\ramanatg\AppData\Local\Temp\ccxbhSsV.s 			page 298


 13027 3074 02       		.uleb128 0x2
 13028 3075 75       		.byte	0x75
 13029 3076 00       		.sleb128 0
 13030 3077 27       		.uleb128 0x27
 13031 3078 01       		.uleb128 0x1
 13032 3079 50       		.byte	0x50
 13033 307a 03       		.uleb128 0x3
 13034 307b 77       		.byte	0x77
 13035 307c CC00     		.sleb128 76
 13036 307e 00       		.byte	0
 13037 307f 26       		.uleb128 0x26
 13038 3080 F4010000 		.4byte	.LVL65
 13039 3084 E6370000 		.4byte	0x37e6
 13040 3088 9F300000 		.4byte	0x309f
 13041 308c 27       		.uleb128 0x27
 13042 308d 01       		.uleb128 0x1
 13043 308e 52       		.byte	0x52
 13044 308f 01       		.uleb128 0x1
 13045 3090 34       		.byte	0x34
 13046 3091 27       		.uleb128 0x27
 13047 3092 01       		.uleb128 0x1
 13048 3093 51       		.byte	0x51
 13049 3094 02       		.uleb128 0x2
 13050 3095 75       		.byte	0x75
 13051 3096 00       		.sleb128 0
 13052 3097 27       		.uleb128 0x27
 13053 3098 01       		.uleb128 0x1
 13054 3099 50       		.byte	0x50
 13055 309a 03       		.uleb128 0x3
 13056 309b 77       		.byte	0x77
 13057 309c D000     		.sleb128 80
 13058 309e 00       		.byte	0
 13059 309f 26       		.uleb128 0x26
 13060 30a0 0C020000 		.4byte	.LVL66
 13061 30a4 A5370000 		.4byte	0x37a5
 13062 30a8 B6300000 		.4byte	0x30b6
 13063 30ac 27       		.uleb128 0x27
 13064 30ad 01       		.uleb128 0x1
 13065 30ae 50       		.byte	0x50
 13066 30af 05       		.uleb128 0x5
 13067 30b0 03       		.byte	0x3
 13068 30b1 C0030000 		.4byte	.LC141
 13069 30b5 00       		.byte	0
 13070 30b6 26       		.uleb128 0x26
 13071 30b7 12020000 		.4byte	.LVL67
 13072 30bb A5370000 		.4byte	0x37a5
 13073 30bf CD300000 		.4byte	0x30cd
 13074 30c3 27       		.uleb128 0x27
 13075 30c4 01       		.uleb128 0x1
 13076 30c5 50       		.byte	0x50
 13077 30c6 05       		.uleb128 0x5
 13078 30c7 03       		.byte	0x3
 13079 30c8 20040000 		.4byte	.LC143
 13080 30cc 00       		.byte	0
 13081 30cd 26       		.uleb128 0x26
 13082 30ce 18020000 		.4byte	.LVL68
 13083 30d2 A5370000 		.4byte	0x37a5
ARM GAS  C:\Users\ramanatg\AppData\Local\Temp\ccxbhSsV.s 			page 299


 13084 30d6 E4300000 		.4byte	0x30e4
 13085 30da 27       		.uleb128 0x27
 13086 30db 01       		.uleb128 0x1
 13087 30dc 50       		.byte	0x50
 13088 30dd 05       		.uleb128 0x5
 13089 30de 03       		.byte	0x3
 13090 30df 64040000 		.4byte	.LC145
 13091 30e3 00       		.byte	0
 13092 30e4 26       		.uleb128 0x26
 13093 30e5 1E020000 		.4byte	.LVL69
 13094 30e9 A5370000 		.4byte	0x37a5
 13095 30ed FB300000 		.4byte	0x30fb
 13096 30f1 27       		.uleb128 0x27
 13097 30f2 01       		.uleb128 0x1
 13098 30f3 50       		.byte	0x50
 13099 30f4 05       		.uleb128 0x5
 13100 30f5 03       		.byte	0x3
 13101 30f6 A8040000 		.4byte	.LC147
 13102 30fa 00       		.byte	0
 13103 30fb 26       		.uleb128 0x26
 13104 30fc 24020000 		.4byte	.LVL70
 13105 3100 A5370000 		.4byte	0x37a5
 13106 3104 12310000 		.4byte	0x3112
 13107 3108 27       		.uleb128 0x27
 13108 3109 01       		.uleb128 0x1
 13109 310a 50       		.byte	0x50
 13110 310b 05       		.uleb128 0x5
 13111 310c 03       		.byte	0x3
 13112 310d E8040000 		.4byte	.LC149
 13113 3111 00       		.byte	0
 13114 3112 26       		.uleb128 0x26
 13115 3113 2A020000 		.4byte	.LVL71
 13116 3117 A5370000 		.4byte	0x37a5
 13117 311b 29310000 		.4byte	0x3129
 13118 311f 27       		.uleb128 0x27
 13119 3120 01       		.uleb128 0x1
 13120 3121 50       		.byte	0x50
 13121 3122 05       		.uleb128 0x5
 13122 3123 03       		.byte	0x3
 13123 3124 24050000 		.4byte	.LC151
 13124 3128 00       		.byte	0
 13125 3129 26       		.uleb128 0x26
 13126 312a 30020000 		.4byte	.LVL72
 13127 312e A5370000 		.4byte	0x37a5
 13128 3132 40310000 		.4byte	0x3140
 13129 3136 27       		.uleb128 0x27
 13130 3137 01       		.uleb128 0x1
 13131 3138 50       		.byte	0x50
 13132 3139 05       		.uleb128 0x5
 13133 313a 03       		.byte	0x3
 13134 313b 64050000 		.4byte	.LC153
 13135 313f 00       		.byte	0
 13136 3140 26       		.uleb128 0x26
 13137 3141 38020000 		.4byte	.LVL73
 13138 3145 A5370000 		.4byte	0x37a5
 13139 3149 54310000 		.4byte	0x3154
 13140 314d 27       		.uleb128 0x27
ARM GAS  C:\Users\ramanatg\AppData\Local\Temp\ccxbhSsV.s 			page 300


 13141 314e 01       		.uleb128 0x1
 13142 314f 50       		.byte	0x50
 13143 3150 02       		.uleb128 0x2
 13144 3151 75       		.byte	0x75
 13145 3152 00       		.sleb128 0
 13146 3153 00       		.byte	0
 13147 3154 26       		.uleb128 0x26
 13148 3155 3E020000 		.4byte	.LVL74
 13149 3159 A5370000 		.4byte	0x37a5
 13150 315d 6B310000 		.4byte	0x316b
 13151 3161 27       		.uleb128 0x27
 13152 3162 01       		.uleb128 0x1
 13153 3163 50       		.byte	0x50
 13154 3164 05       		.uleb128 0x5
 13155 3165 03       		.byte	0x3
 13156 3166 A4050000 		.4byte	.LC155
 13157 316a 00       		.byte	0
 13158 316b 26       		.uleb128 0x26
 13159 316c 44020000 		.4byte	.LVL75
 13160 3170 A5370000 		.4byte	0x37a5
 13161 3174 82310000 		.4byte	0x3182
 13162 3178 27       		.uleb128 0x27
 13163 3179 01       		.uleb128 0x1
 13164 317a 50       		.byte	0x50
 13165 317b 05       		.uleb128 0x5
 13166 317c 03       		.byte	0x3
 13167 317d F0050000 		.4byte	.LC157
 13168 3181 00       		.byte	0
 13169 3182 26       		.uleb128 0x26
 13170 3183 4A020000 		.4byte	.LVL76
 13171 3187 A5370000 		.4byte	0x37a5
 13172 318b 99310000 		.4byte	0x3199
 13173 318f 27       		.uleb128 0x27
 13174 3190 01       		.uleb128 0x1
 13175 3191 50       		.byte	0x50
 13176 3192 05       		.uleb128 0x5
 13177 3193 03       		.byte	0x3
 13178 3194 3C060000 		.4byte	.LC159
 13179 3198 00       		.byte	0
 13180 3199 26       		.uleb128 0x26
 13181 319a 50020000 		.4byte	.LVL77
 13182 319e A5370000 		.4byte	0x37a5
 13183 31a2 B0310000 		.4byte	0x31b0
 13184 31a6 27       		.uleb128 0x27
 13185 31a7 01       		.uleb128 0x1
 13186 31a8 50       		.byte	0x50
 13187 31a9 05       		.uleb128 0x5
 13188 31aa 03       		.byte	0x3
 13189 31ab 8C060000 		.4byte	.LC161
 13190 31af 00       		.byte	0
 13191 31b0 26       		.uleb128 0x26
 13192 31b1 56020000 		.4byte	.LVL78
 13193 31b5 A5370000 		.4byte	0x37a5
 13194 31b9 C7310000 		.4byte	0x31c7
 13195 31bd 27       		.uleb128 0x27
 13196 31be 01       		.uleb128 0x1
 13197 31bf 50       		.byte	0x50
ARM GAS  C:\Users\ramanatg\AppData\Local\Temp\ccxbhSsV.s 			page 301


 13198 31c0 05       		.uleb128 0x5
 13199 31c1 03       		.byte	0x3
 13200 31c2 F0060000 		.4byte	.LC163
 13201 31c6 00       		.byte	0
 13202 31c7 26       		.uleb128 0x26
 13203 31c8 5C020000 		.4byte	.LVL79
 13204 31cc A5370000 		.4byte	0x37a5
 13205 31d0 DE310000 		.4byte	0x31de
 13206 31d4 27       		.uleb128 0x27
 13207 31d5 01       		.uleb128 0x1
 13208 31d6 50       		.byte	0x50
 13209 31d7 05       		.uleb128 0x5
 13210 31d8 03       		.byte	0x3
 13211 31d9 14070000 		.4byte	.LC165
 13212 31dd 00       		.byte	0
 13213 31de 26       		.uleb128 0x26
 13214 31df 62020000 		.4byte	.LVL80
 13215 31e3 A5370000 		.4byte	0x37a5
 13216 31e7 F5310000 		.4byte	0x31f5
 13217 31eb 27       		.uleb128 0x27
 13218 31ec 01       		.uleb128 0x1
 13219 31ed 50       		.byte	0x50
 13220 31ee 05       		.uleb128 0x5
 13221 31ef 03       		.byte	0x3
 13222 31f0 5C070000 		.4byte	.LC167
 13223 31f4 00       		.byte	0
 13224 31f5 26       		.uleb128 0x26
 13225 31f6 68020000 		.4byte	.LVL81
 13226 31fa A5370000 		.4byte	0x37a5
 13227 31fe 0C320000 		.4byte	0x320c
 13228 3202 27       		.uleb128 0x27
 13229 3203 01       		.uleb128 0x1
 13230 3204 50       		.byte	0x50
 13231 3205 05       		.uleb128 0x5
 13232 3206 03       		.byte	0x3
 13233 3207 A8070000 		.4byte	.LC169
 13234 320b 00       		.byte	0
 13235 320c 26       		.uleb128 0x26
 13236 320d 6E020000 		.4byte	.LVL82
 13237 3211 A5370000 		.4byte	0x37a5
 13238 3215 23320000 		.4byte	0x3223
 13239 3219 27       		.uleb128 0x27
 13240 321a 01       		.uleb128 0x1
 13241 321b 50       		.byte	0x50
 13242 321c 05       		.uleb128 0x5
 13243 321d 03       		.byte	0x3
 13244 321e FC070000 		.4byte	.LC171
 13245 3222 00       		.byte	0
 13246 3223 26       		.uleb128 0x26
 13247 3224 74020000 		.4byte	.LVL83
 13248 3228 A5370000 		.4byte	0x37a5
 13249 322c 3A320000 		.4byte	0x323a
 13250 3230 27       		.uleb128 0x27
 13251 3231 01       		.uleb128 0x1
 13252 3232 50       		.byte	0x50
 13253 3233 05       		.uleb128 0x5
 13254 3234 03       		.byte	0x3
ARM GAS  C:\Users\ramanatg\AppData\Local\Temp\ccxbhSsV.s 			page 302


 13255 3235 4C080000 		.4byte	.LC173
 13256 3239 00       		.byte	0
 13257 323a 26       		.uleb128 0x26
 13258 323b 7A020000 		.4byte	.LVL84
 13259 323f A5370000 		.4byte	0x37a5
 13260 3243 51320000 		.4byte	0x3251
 13261 3247 27       		.uleb128 0x27
 13262 3248 01       		.uleb128 0x1
 13263 3249 50       		.byte	0x50
 13264 324a 05       		.uleb128 0x5
 13265 324b 03       		.byte	0x3
 13266 324c AC080000 		.4byte	.LC175
 13267 3250 00       		.byte	0
 13268 3251 26       		.uleb128 0x26
 13269 3252 80020000 		.4byte	.LVL85
 13270 3256 A5370000 		.4byte	0x37a5
 13271 325a 68320000 		.4byte	0x3268
 13272 325e 27       		.uleb128 0x27
 13273 325f 01       		.uleb128 0x1
 13274 3260 50       		.byte	0x50
 13275 3261 05       		.uleb128 0x5
 13276 3262 03       		.byte	0x3
 13277 3263 F4080000 		.4byte	.LC177
 13278 3267 00       		.byte	0
 13279 3268 26       		.uleb128 0x26
 13280 3269 86020000 		.4byte	.LVL86
 13281 326d A5370000 		.4byte	0x37a5
 13282 3271 7C320000 		.4byte	0x327c
 13283 3275 27       		.uleb128 0x27
 13284 3276 01       		.uleb128 0x1
 13285 3277 50       		.byte	0x50
 13286 3278 02       		.uleb128 0x2
 13287 3279 75       		.byte	0x75
 13288 327a 00       		.sleb128 0
 13289 327b 00       		.byte	0
 13290 327c 26       		.uleb128 0x26
 13291 327d 8C020000 		.4byte	.LVL87
 13292 3281 A5370000 		.4byte	0x37a5
 13293 3285 93320000 		.4byte	0x3293
 13294 3289 27       		.uleb128 0x27
 13295 328a 01       		.uleb128 0x1
 13296 328b 50       		.byte	0x50
 13297 328c 05       		.uleb128 0x5
 13298 328d 03       		.byte	0x3
 13299 328e 14090000 		.4byte	.LC179
 13300 3292 00       		.byte	0
 13301 3293 26       		.uleb128 0x26
 13302 3294 92020000 		.4byte	.LVL88
 13303 3298 A5370000 		.4byte	0x37a5
 13304 329c AA320000 		.4byte	0x32aa
 13305 32a0 27       		.uleb128 0x27
 13306 32a1 01       		.uleb128 0x1
 13307 32a2 50       		.byte	0x50
 13308 32a3 05       		.uleb128 0x5
 13309 32a4 03       		.byte	0x3
 13310 32a5 5C090000 		.4byte	.LC181
 13311 32a9 00       		.byte	0
ARM GAS  C:\Users\ramanatg\AppData\Local\Temp\ccxbhSsV.s 			page 303


 13312 32aa 26       		.uleb128 0x26
 13313 32ab 98020000 		.4byte	.LVL89
 13314 32af A5370000 		.4byte	0x37a5
 13315 32b3 C1320000 		.4byte	0x32c1
 13316 32b7 27       		.uleb128 0x27
 13317 32b8 01       		.uleb128 0x1
 13318 32b9 50       		.byte	0x50
 13319 32ba 05       		.uleb128 0x5
 13320 32bb 03       		.byte	0x3
 13321 32bc B0090000 		.4byte	.LC183
 13322 32c0 00       		.byte	0
 13323 32c1 26       		.uleb128 0x26
 13324 32c2 9E020000 		.4byte	.LVL90
 13325 32c6 A5370000 		.4byte	0x37a5
 13326 32ca D8320000 		.4byte	0x32d8
 13327 32ce 27       		.uleb128 0x27
 13328 32cf 01       		.uleb128 0x1
 13329 32d0 50       		.byte	0x50
 13330 32d1 05       		.uleb128 0x5
 13331 32d2 03       		.byte	0x3
 13332 32d3 D0090000 		.4byte	.LC185
 13333 32d7 00       		.byte	0
 13334 32d8 26       		.uleb128 0x26
 13335 32d9 A4020000 		.4byte	.LVL91
 13336 32dd A5370000 		.4byte	0x37a5
 13337 32e1 EF320000 		.4byte	0x32ef
 13338 32e5 27       		.uleb128 0x27
 13339 32e6 01       		.uleb128 0x1
 13340 32e7 50       		.byte	0x50
 13341 32e8 05       		.uleb128 0x5
 13342 32e9 03       		.byte	0x3
 13343 32ea EC090000 		.4byte	.LC187
 13344 32ee 00       		.byte	0
 13345 32ef 26       		.uleb128 0x26
 13346 32f0 B4020000 		.4byte	.LVL93
 13347 32f4 C9370000 		.4byte	0x37c9
 13348 32f8 0E330000 		.4byte	0x330e
 13349 32fc 27       		.uleb128 0x27
 13350 32fd 01       		.uleb128 0x1
 13351 32fe 52       		.byte	0x52
 13352 32ff 02       		.uleb128 0x2
 13353 3300 08       		.byte	0x8
 13354 3301 36       		.byte	0x36
 13355 3302 27       		.uleb128 0x27
 13356 3303 01       		.uleb128 0x1
 13357 3304 51       		.byte	0x51
 13358 3305 01       		.uleb128 0x1
 13359 3306 30       		.byte	0x30
 13360 3307 27       		.uleb128 0x27
 13361 3308 01       		.uleb128 0x1
 13362 3309 50       		.byte	0x50
 13363 330a 02       		.uleb128 0x2
 13364 330b 77       		.byte	0x77
 13365 330c 00       		.sleb128 0
 13366 330d 00       		.byte	0
 13367 330e 26       		.uleb128 0x26
 13368 330f C0020000 		.4byte	.LVL94
ARM GAS  C:\Users\ramanatg\AppData\Local\Temp\ccxbhSsV.s 			page 304


 13369 3313 A5370000 		.4byte	0x37a5
 13370 3317 25330000 		.4byte	0x3325
 13371 331b 27       		.uleb128 0x27
 13372 331c 01       		.uleb128 0x1
 13373 331d 50       		.byte	0x50
 13374 331e 05       		.uleb128 0x5
 13375 331f 03       		.byte	0x3
 13376 3320 BC0B0000 		.4byte	.LC238
 13377 3324 00       		.byte	0
 13378 3325 26       		.uleb128 0x26
 13379 3326 22030000 		.4byte	.LVL101
 13380 332a C9370000 		.4byte	0x37c9
 13381 332e 44330000 		.4byte	0x3344
 13382 3332 27       		.uleb128 0x27
 13383 3333 01       		.uleb128 0x1
 13384 3334 52       		.byte	0x52
 13385 3335 02       		.uleb128 0x2
 13386 3336 08       		.byte	0x8
 13387 3337 36       		.byte	0x36
 13388 3338 27       		.uleb128 0x27
 13389 3339 01       		.uleb128 0x1
 13390 333a 51       		.byte	0x51
 13391 333b 01       		.uleb128 0x1
 13392 333c 30       		.byte	0x30
 13393 333d 27       		.uleb128 0x27
 13394 333e 01       		.uleb128 0x1
 13395 333f 50       		.byte	0x50
 13396 3340 02       		.uleb128 0x2
 13397 3341 7B       		.byte	0x7b
 13398 3342 00       		.sleb128 0
 13399 3343 00       		.byte	0
 13400 3344 26       		.uleb128 0x26
 13401 3345 4E030000 		.4byte	.LVL105
 13402 3349 C9370000 		.4byte	0x37c9
 13403 334d 63330000 		.4byte	0x3363
 13404 3351 27       		.uleb128 0x27
 13405 3352 01       		.uleb128 0x1
 13406 3353 52       		.byte	0x52
 13407 3354 02       		.uleb128 0x2
 13408 3355 08       		.byte	0x8
 13409 3356 36       		.byte	0x36
 13410 3357 27       		.uleb128 0x27
 13411 3358 01       		.uleb128 0x1
 13412 3359 51       		.byte	0x51
 13413 335a 01       		.uleb128 0x1
 13414 335b 30       		.byte	0x30
 13415 335c 27       		.uleb128 0x27
 13416 335d 01       		.uleb128 0x1
 13417 335e 50       		.byte	0x50
 13418 335f 02       		.uleb128 0x2
 13419 3360 75       		.byte	0x75
 13420 3361 00       		.sleb128 0
 13421 3362 00       		.byte	0
 13422 3363 26       		.uleb128 0x26
 13423 3364 440C0000 		.4byte	.LVL359
 13424 3368 E6370000 		.4byte	0x37e6
 13425 336c 83330000 		.4byte	0x3383
ARM GAS  C:\Users\ramanatg\AppData\Local\Temp\ccxbhSsV.s 			page 305


 13426 3370 27       		.uleb128 0x27
 13427 3371 01       		.uleb128 0x1
 13428 3372 52       		.byte	0x52
 13429 3373 01       		.uleb128 0x1
 13430 3374 33       		.byte	0x33
 13431 3375 27       		.uleb128 0x27
 13432 3376 01       		.uleb128 0x1
 13433 3377 51       		.byte	0x51
 13434 3378 02       		.uleb128 0x2
 13435 3379 75       		.byte	0x75
 13436 337a 00       		.sleb128 0
 13437 337b 27       		.uleb128 0x27
 13438 337c 01       		.uleb128 0x1
 13439 337d 50       		.byte	0x50
 13440 337e 03       		.uleb128 0x3
 13441 337f 77       		.byte	0x77
 13442 3380 D400     		.sleb128 84
 13443 3382 00       		.byte	0
 13444 3383 26       		.uleb128 0x26
 13445 3384 580C0000 		.4byte	.LVL360
 13446 3388 E6370000 		.4byte	0x37e6
 13447 338c A3330000 		.4byte	0x33a3
 13448 3390 27       		.uleb128 0x27
 13449 3391 01       		.uleb128 0x1
 13450 3392 52       		.byte	0x52
 13451 3393 01       		.uleb128 0x1
 13452 3394 34       		.byte	0x34
 13453 3395 27       		.uleb128 0x27
 13454 3396 01       		.uleb128 0x1
 13455 3397 51       		.byte	0x51
 13456 3398 02       		.uleb128 0x2
 13457 3399 75       		.byte	0x75
 13458 339a 00       		.sleb128 0
 13459 339b 27       		.uleb128 0x27
 13460 339c 01       		.uleb128 0x1
 13461 339d 50       		.byte	0x50
 13462 339e 03       		.uleb128 0x3
 13463 339f 77       		.byte	0x77
 13464 33a0 D800     		.sleb128 88
 13465 33a2 00       		.byte	0
 13466 33a3 26       		.uleb128 0x26
 13467 33a4 240D0000 		.4byte	.LVL376
 13468 33a8 E6370000 		.4byte	0x37e6
 13469 33ac C3330000 		.4byte	0x33c3
 13470 33b0 27       		.uleb128 0x27
 13471 33b1 01       		.uleb128 0x1
 13472 33b2 52       		.byte	0x52
 13473 33b3 01       		.uleb128 0x1
 13474 33b4 36       		.byte	0x36
 13475 33b5 27       		.uleb128 0x27
 13476 33b6 01       		.uleb128 0x1
 13477 33b7 51       		.byte	0x51
 13478 33b8 02       		.uleb128 0x2
 13479 33b9 75       		.byte	0x75
 13480 33ba 00       		.sleb128 0
 13481 33bb 27       		.uleb128 0x27
 13482 33bc 01       		.uleb128 0x1
ARM GAS  C:\Users\ramanatg\AppData\Local\Temp\ccxbhSsV.s 			page 306


 13483 33bd 50       		.byte	0x50
 13484 33be 03       		.uleb128 0x3
 13485 33bf 77       		.byte	0x77
 13486 33c0 DC00     		.sleb128 92
 13487 33c2 00       		.byte	0
 13488 33c3 26       		.uleb128 0x26
 13489 33c4 360D0000 		.4byte	.LVL377
 13490 33c8 E6370000 		.4byte	0x37e6
 13491 33cc E3330000 		.4byte	0x33e3
 13492 33d0 27       		.uleb128 0x27
 13493 33d1 01       		.uleb128 0x1
 13494 33d2 52       		.byte	0x52
 13495 33d3 01       		.uleb128 0x1
 13496 33d4 34       		.byte	0x34
 13497 33d5 27       		.uleb128 0x27
 13498 33d6 01       		.uleb128 0x1
 13499 33d7 51       		.byte	0x51
 13500 33d8 02       		.uleb128 0x2
 13501 33d9 75       		.byte	0x75
 13502 33da 00       		.sleb128 0
 13503 33db 27       		.uleb128 0x27
 13504 33dc 01       		.uleb128 0x1
 13505 33dd 50       		.byte	0x50
 13506 33de 03       		.uleb128 0x3
 13507 33df 77       		.byte	0x77
 13508 33e0 EC00     		.sleb128 108
 13509 33e2 00       		.byte	0
 13510 33e3 26       		.uleb128 0x26
 13511 33e4 4A0D0000 		.4byte	.LVL378
 13512 33e8 E6370000 		.4byte	0x37e6
 13513 33ec 02340000 		.4byte	0x3402
 13514 33f0 27       		.uleb128 0x27
 13515 33f1 01       		.uleb128 0x1
 13516 33f2 52       		.byte	0x52
 13517 33f3 01       		.uleb128 0x1
 13518 33f4 37       		.byte	0x37
 13519 33f5 27       		.uleb128 0x27
 13520 33f6 01       		.uleb128 0x1
 13521 33f7 51       		.byte	0x51
 13522 33f8 02       		.uleb128 0x2
 13523 33f9 75       		.byte	0x75
 13524 33fa 00       		.sleb128 0
 13525 33fb 27       		.uleb128 0x27
 13526 33fc 01       		.uleb128 0x1
 13527 33fd 50       		.byte	0x50
 13528 33fe 02       		.uleb128 0x2
 13529 33ff 77       		.byte	0x77
 13530 3400 10       		.sleb128 16
 13531 3401 00       		.byte	0
 13532 3402 26       		.uleb128 0x26
 13533 3403 5C0D0000 		.4byte	.LVL379
 13534 3407 E6370000 		.4byte	0x37e6
 13535 340b 21340000 		.4byte	0x3421
 13536 340f 27       		.uleb128 0x27
 13537 3410 01       		.uleb128 0x1
 13538 3411 52       		.byte	0x52
 13539 3412 01       		.uleb128 0x1
ARM GAS  C:\Users\ramanatg\AppData\Local\Temp\ccxbhSsV.s 			page 307


 13540 3413 37       		.byte	0x37
 13541 3414 27       		.uleb128 0x27
 13542 3415 01       		.uleb128 0x1
 13543 3416 51       		.byte	0x51
 13544 3417 02       		.uleb128 0x2
 13545 3418 75       		.byte	0x75
 13546 3419 00       		.sleb128 0
 13547 341a 27       		.uleb128 0x27
 13548 341b 01       		.uleb128 0x1
 13549 341c 50       		.byte	0x50
 13550 341d 02       		.uleb128 0x2
 13551 341e 77       		.byte	0x77
 13552 341f 24       		.sleb128 36
 13553 3420 00       		.byte	0
 13554 3421 26       		.uleb128 0x26
 13555 3422 800D0000 		.4byte	.LVL381
 13556 3426 A5370000 		.4byte	0x37a5
 13557 342a 38340000 		.4byte	0x3438
 13558 342e 27       		.uleb128 0x27
 13559 342f 01       		.uleb128 0x1
 13560 3430 50       		.byte	0x50
 13561 3431 05       		.uleb128 0x5
 13562 3432 03       		.byte	0x3
 13563 3433 1C0B0000 		.4byte	.LC226
 13564 3437 00       		.byte	0
 13565 3438 26       		.uleb128 0x26
 13566 3439 B0100000 		.4byte	.LVL450
 13567 343d A5370000 		.4byte	0x37a5
 13568 3441 4F340000 		.4byte	0x344f
 13569 3445 27       		.uleb128 0x27
 13570 3446 01       		.uleb128 0x1
 13571 3447 50       		.byte	0x50
 13572 3448 05       		.uleb128 0x5
 13573 3449 03       		.byte	0x3
 13574 344a 340B0000 		.4byte	.LC228
 13575 344e 00       		.byte	0
 13576 344f 26       		.uleb128 0x26
 13577 3450 EC100000 		.4byte	.LVL457
 13578 3454 E6370000 		.4byte	0x37e6
 13579 3458 6E340000 		.4byte	0x346e
 13580 345c 27       		.uleb128 0x27
 13581 345d 01       		.uleb128 0x1
 13582 345e 52       		.byte	0x52
 13583 345f 01       		.uleb128 0x1
 13584 3460 36       		.byte	0x36
 13585 3461 27       		.uleb128 0x27
 13586 3462 01       		.uleb128 0x1
 13587 3463 51       		.byte	0x51
 13588 3464 02       		.uleb128 0x2
 13589 3465 75       		.byte	0x75
 13590 3466 00       		.sleb128 0
 13591 3467 27       		.uleb128 0x27
 13592 3468 01       		.uleb128 0x1
 13593 3469 50       		.byte	0x50
 13594 346a 02       		.uleb128 0x2
 13595 346b 77       		.byte	0x77
 13596 346c 2C       		.sleb128 44
ARM GAS  C:\Users\ramanatg\AppData\Local\Temp\ccxbhSsV.s 			page 308


 13597 346d 00       		.byte	0
 13598 346e 26       		.uleb128 0x26
 13599 346f FE100000 		.4byte	.LVL458
 13600 3473 E6370000 		.4byte	0x37e6
 13601 3477 8D340000 		.4byte	0x348d
 13602 347b 27       		.uleb128 0x27
 13603 347c 01       		.uleb128 0x1
 13604 347d 52       		.byte	0x52
 13605 347e 01       		.uleb128 0x1
 13606 347f 38       		.byte	0x38
 13607 3480 27       		.uleb128 0x27
 13608 3481 01       		.uleb128 0x1
 13609 3482 51       		.byte	0x51
 13610 3483 02       		.uleb128 0x2
 13611 3484 75       		.byte	0x75
 13612 3485 00       		.sleb128 0
 13613 3486 27       		.uleb128 0x27
 13614 3487 01       		.uleb128 0x1
 13615 3488 50       		.byte	0x50
 13616 3489 02       		.uleb128 0x2
 13617 348a 77       		.byte	0x77
 13618 348b 34       		.sleb128 52
 13619 348c 00       		.byte	0
 13620 348d 28       		.uleb128 0x28
 13621 348e 0E110000 		.4byte	.LVL459
 13622 3492 E6370000 		.4byte	0x37e6
 13623 3496 27       		.uleb128 0x27
 13624 3497 01       		.uleb128 0x1
 13625 3498 52       		.byte	0x52
 13626 3499 01       		.uleb128 0x1
 13627 349a 34       		.byte	0x34
 13628 349b 27       		.uleb128 0x27
 13629 349c 01       		.uleb128 0x1
 13630 349d 51       		.byte	0x51
 13631 349e 02       		.uleb128 0x2
 13632 349f 75       		.byte	0x75
 13633 34a0 00       		.sleb128 0
 13634 34a1 27       		.uleb128 0x27
 13635 34a2 01       		.uleb128 0x1
 13636 34a3 50       		.byte	0x50
 13637 34a4 02       		.uleb128 0x2
 13638 34a5 77       		.byte	0x77
 13639 34a6 3C       		.sleb128 60
 13640 34a7 00       		.byte	0
 13641 34a8 00       		.byte	0
 13642 34a9 09       		.uleb128 0x9
 13643 34aa AD000000 		.4byte	0xad
 13644 34ae B9340000 		.4byte	0x34b9
 13645 34b2 0A       		.uleb128 0xa
 13646 34b3 29010000 		.4byte	0x129
 13647 34b7 08       		.byte	0x8
 13648 34b8 00       		.byte	0
 13649 34b9 2F       		.uleb128 0x2f
 13650 34ba 38080000 		.4byte	.LASF270
 13651 34be 01       		.byte	0x1
 13652 34bf 51       		.byte	0x51
 13653 34c0 CA340000 		.4byte	0x34ca
ARM GAS  C:\Users\ramanatg\AppData\Local\Temp\ccxbhSsV.s 			page 309


 13654 34c4 05       		.uleb128 0x5
 13655 34c5 03       		.byte	0x3
 13656 34c6 54000000 		.4byte	cmd_UUID
 13657 34ca 08       		.uleb128 0x8
 13658 34cb 5F0A0000 		.4byte	0xa5f
 13659 34cf 09       		.uleb128 0x9
 13660 34d0 AD000000 		.4byte	0xad
 13661 34d4 DF340000 		.4byte	0x34df
 13662 34d8 0A       		.uleb128 0xa
 13663 34d9 29010000 		.4byte	0x129
 13664 34dd 04       		.byte	0x4
 13665 34de 00       		.byte	0
 13666 34df 2F       		.uleb128 0x2f
 13667 34e0 AD0F0000 		.4byte	.LASF271
 13668 34e4 01       		.byte	0x1
 13669 34e5 52       		.byte	0x52
 13670 34e6 F0340000 		.4byte	0x34f0
 13671 34ea 05       		.uleb128 0x5
 13672 34eb 03       		.byte	0x3
 13673 34ec 68000000 		.4byte	cmd_MAJOR
 13674 34f0 08       		.uleb128 0x8
 13675 34f1 CF340000 		.4byte	0x34cf
 13676 34f5 2F       		.uleb128 0x2f
 13677 34f6 C7150000 		.4byte	.LASF272
 13678 34fa 01       		.byte	0x1
 13679 34fb 53       		.byte	0x53
 13680 34fc 06350000 		.4byte	0x3506
 13681 3500 05       		.uleb128 0x5
 13682 3501 03       		.byte	0x3
 13683 3502 70000000 		.4byte	cmd_MINOR
 13684 3506 08       		.uleb128 0x8
 13685 3507 CF340000 		.4byte	0x34cf
 13686 350b 2F       		.uleb128 0x2f
 13687 350c 2C090000 		.4byte	.LASF273
 13688 3510 01       		.byte	0x1
 13689 3511 54       		.byte	0x54
 13690 3512 1C350000 		.4byte	0x351c
 13691 3516 05       		.uleb128 0x5
 13692 3517 03       		.byte	0x3
 13693 3518 88000000 		.4byte	cmd_TXPWR
 13694 351c 08       		.uleb128 0x8
 13695 351d CF340000 		.4byte	0x34cf
 13696 3521 2F       		.uleb128 0x2f
 13697 3522 7F0A0000 		.4byte	.LASF274
 13698 3526 01       		.byte	0x1
 13699 3527 55       		.byte	0x55
 13700 3528 32350000 		.4byte	0x3532
 13701 352c 05       		.uleb128 0x5
 13702 352d 03       		.byte	0x3
 13703 352e C8000000 		.4byte	cmd_RSSI
 13704 3532 08       		.uleb128 0x8
 13705 3533 5F0A0000 		.4byte	0xa5f
 13706 3537 2F       		.uleb128 0x2f
 13707 3538 800F0000 		.4byte	.LASF275
 13708 353c 01       		.byte	0x1
 13709 353d 56       		.byte	0x56
 13710 353e 48350000 		.4byte	0x3548
ARM GAS  C:\Users\ramanatg\AppData\Local\Temp\ccxbhSsV.s 			page 310


 13711 3542 05       		.uleb128 0x5
 13712 3543 03       		.byte	0x3
 13713 3544 78000000 		.4byte	cmd_ITRVL
 13714 3548 08       		.uleb128 0x8
 13715 3549 CF340000 		.4byte	0x34cf
 13716 354d 2F       		.uleb128 0x2f
 13717 354e BE0C0000 		.4byte	.LASF276
 13718 3552 01       		.byte	0x1
 13719 3553 57       		.byte	0x57
 13720 3554 5E350000 		.4byte	0x355e
 13721 3558 05       		.uleb128 0x5
 13722 3559 03       		.byte	0x3
 13723 355a CC000000 		.4byte	cmd_COID
 13724 355e 08       		.uleb128 0x8
 13725 355f 5F0A0000 		.4byte	0xa5f
 13726 3563 2F       		.uleb128 0x2f
 13727 3564 99080000 		.4byte	.LASF277
 13728 3568 01       		.byte	0x1
 13729 3569 59       		.byte	0x59
 13730 356a 74350000 		.4byte	0x3574
 13731 356e 05       		.uleb128 0x5
 13732 356f 03       		.byte	0x3
 13733 3570 58000000 		.4byte	cmd_EDNID
 13734 3574 08       		.uleb128 0x8
 13735 3575 CF340000 		.4byte	0x34cf
 13736 3579 2F       		.uleb128 0x2f
 13737 357a C70D0000 		.4byte	.LASF278
 13738 357e 01       		.byte	0x1
 13739 357f 5A       		.byte	0x5a
 13740 3580 8A350000 		.4byte	0x358a
 13741 3584 05       		.uleb128 0x5
 13742 3585 03       		.byte	0x3
 13743 3586 60000000 		.4byte	cmd_EDBID
 13744 358a 08       		.uleb128 0x8
 13745 358b CF340000 		.4byte	0x34cf
 13746 358f 09       		.uleb128 0x9
 13747 3590 AD000000 		.4byte	0xad
 13748 3594 9F350000 		.4byte	0x359f
 13749 3598 0A       		.uleb128 0xa
 13750 3599 29010000 		.4byte	0x129
 13751 359d 06       		.byte	0x6
 13752 359e 00       		.byte	0
 13753 359f 2F       		.uleb128 0x2f
 13754 35a0 900A0000 		.4byte	.LASF279
 13755 35a4 01       		.byte	0x1
 13756 35a5 5B       		.byte	0x5b
 13757 35a6 B0350000 		.4byte	0x35b0
 13758 35aa 05       		.uleb128 0x5
 13759 35ab 03       		.byte	0x3
 13760 35ac 90000000 		.4byte	cmd_EDTXPWR
 13761 35b0 08       		.uleb128 0x8
 13762 35b1 8F350000 		.4byte	0x358f
 13763 35b5 2F       		.uleb128 0x2f
 13764 35b6 67050000 		.4byte	.LASF280
 13765 35ba 01       		.byte	0x1
 13766 35bb 5C       		.byte	0x5c
 13767 35bc C6350000 		.4byte	0x35c6
ARM GAS  C:\Users\ramanatg\AppData\Local\Temp\ccxbhSsV.s 			page 311


 13768 35c0 05       		.uleb128 0x5
 13769 35c1 03       		.byte	0x3
 13770 35c2 10010000 		.4byte	cmd_EDFRAME
 13771 35c6 08       		.uleb128 0x8
 13772 35c7 8F350000 		.4byte	0x358f
 13773 35cb 2F       		.uleb128 0x2f
 13774 35cc CC070000 		.4byte	.LASF281
 13775 35d0 01       		.byte	0x1
 13776 35d1 5D       		.byte	0x5d
 13777 35d2 DC350000 		.4byte	0x35dc
 13778 35d6 05       		.uleb128 0x5
 13779 35d7 03       		.byte	0x3
 13780 35d8 24010000 		.4byte	cmd_EDSTATE
 13781 35dc 08       		.uleb128 0x8
 13782 35dd 8F350000 		.4byte	0x358f
 13783 35e1 2F       		.uleb128 0x2f
 13784 35e2 AC000000 		.4byte	.LASF282
 13785 35e6 01       		.byte	0x1
 13786 35e7 5E       		.byte	0x5e
 13787 35e8 F2350000 		.4byte	0x35f2
 13788 35ec 05       		.uleb128 0x5
 13789 35ed 03       		.byte	0x3
 13790 35ee 2C010000 		.4byte	cmd_EDLOCK
 13791 35f2 08       		.uleb128 0x8
 13792 35f3 75070000 		.4byte	0x775
 13793 35f7 09       		.uleb128 0x9
 13794 35f8 AD000000 		.4byte	0xad
 13795 35fc 07360000 		.4byte	0x3607
 13796 3600 0A       		.uleb128 0xa
 13797 3601 29010000 		.4byte	0x129
 13798 3605 07       		.byte	0x7
 13799 3606 00       		.byte	0
 13800 3607 2F       		.uleb128 0x2f
 13801 3608 8E020000 		.4byte	.LASF283
 13802 360c 01       		.byte	0x1
 13803 360d 5F       		.byte	0x5f
 13804 360e 18360000 		.4byte	0x3618
 13805 3612 05       		.uleb128 0x5
 13806 3613 03       		.byte	0x3
 13807 3614 34010000 		.4byte	cmd_EDUNLOCK
 13808 3618 08       		.uleb128 0x8
 13809 3619 F7350000 		.4byte	0x35f7
 13810 361d 2F       		.uleb128 0x2f
 13811 361e 6F120000 		.4byte	.LASF284
 13812 3622 01       		.byte	0x1
 13813 3623 60       		.byte	0x60
 13814 3624 2E360000 		.4byte	0x362e
 13815 3628 05       		.uleb128 0x5
 13816 3629 03       		.byte	0x3
 13817 362a 00000000 		.4byte	cmd_EDURI
 13818 362e 08       		.uleb128 0x8
 13819 362f CF340000 		.4byte	0x34cf
 13820 3633 2F       		.uleb128 0x2f
 13821 3634 B20C0000 		.4byte	.LASF285
 13822 3638 01       		.byte	0x1
 13823 3639 61       		.byte	0x61
 13824 363a 44360000 		.4byte	0x3644
ARM GAS  C:\Users\ramanatg\AppData\Local\Temp\ccxbhSsV.s 			page 312


 13825 363e 05       		.uleb128 0x5
 13826 363f 03       		.byte	0x3
 13827 3640 A0000000 		.4byte	cmd_EDADPWR
 13828 3644 08       		.uleb128 0x8
 13829 3645 8F350000 		.4byte	0x358f
 13830 3649 2F       		.uleb128 0x2f
 13831 364a F50B0000 		.4byte	.LASF286
 13832 364e 01       		.byte	0x1
 13833 364f 62       		.byte	0x62
 13834 3650 5A360000 		.4byte	0x365a
 13835 3654 05       		.uleb128 0x5
 13836 3655 03       		.byte	0x3
 13837 3656 A8000000 		.4byte	cmd_EDTXMODE
 13838 365a 08       		.uleb128 0x8
 13839 365b F7350000 		.4byte	0x35f7
 13840 365f 2F       		.uleb128 0x2f
 13841 3660 D00C0000 		.4byte	.LASF287
 13842 3664 01       		.byte	0x1
 13843 3665 63       		.byte	0x63
 13844 3666 70360000 		.4byte	0x3670
 13845 366a 05       		.uleb128 0x5
 13846 366b 03       		.byte	0x3
 13847 366c 80000000 		.4byte	cmd_EDITRVL
 13848 3670 08       		.uleb128 0x8
 13849 3671 8F350000 		.4byte	0x358f
 13850 3675 2F       		.uleb128 0x2f
 13851 3676 0F040000 		.4byte	.LASF288
 13852 367a 01       		.byte	0x1
 13853 367b 64       		.byte	0x64
 13854 367c 86360000 		.4byte	0x3686
 13855 3680 05       		.uleb128 0x5
 13856 3681 03       		.byte	0x3
 13857 3682 C0000000 		.4byte	cmd_EDRESET
 13858 3686 08       		.uleb128 0x8
 13859 3687 8F350000 		.4byte	0x358f
 13860 368b 2F       		.uleb128 0x2f
 13861 368c 9B160000 		.4byte	.LASF289
 13862 3690 01       		.byte	0x1
 13863 3691 66       		.byte	0x66
 13864 3692 9C360000 		.4byte	0x369c
 13865 3696 05       		.uleb128 0x5
 13866 3697 03       		.byte	0x3
 13867 3698 DC000000 		.4byte	cmd_EXSENS
 13868 369c 08       		.uleb128 0x8
 13869 369d 75070000 		.4byte	0x775
 13870 36a1 2F       		.uleb128 0x2f
 13871 36a2 FE180000 		.4byte	.LASF290
 13872 36a6 01       		.byte	0x1
 13873 36a7 67       		.byte	0x67
 13874 36a8 B2360000 		.4byte	0x36b2
 13875 36ac 05       		.uleb128 0x5
 13876 36ad 03       		.byte	0x3
 13877 36ae EC000000 		.4byte	cmd_MODE
 13878 36b2 08       		.uleb128 0x8
 13879 36b3 5F0A0000 		.4byte	0xa5f
 13880 36b7 2F       		.uleb128 0x2f
 13881 36b8 E30E0000 		.4byte	.LASF291
ARM GAS  C:\Users\ramanatg\AppData\Local\Temp\ccxbhSsV.s 			page 313


 13882 36bc 01       		.byte	0x1
 13883 36bd 68       		.byte	0x68
 13884 36be C8360000 		.4byte	0x36c8
 13885 36c2 05       		.uleb128 0x5
 13886 36c3 03       		.byte	0x3
 13887 36c4 3C010000 		.4byte	cmd_INIT
 13888 36c8 08       		.uleb128 0x8
 13889 36c9 5F0A0000 		.4byte	0xa5f
 13890 36cd 2F       		.uleb128 0x2f
 13891 36ce FE050000 		.4byte	.LASF292
 13892 36d2 01       		.byte	0x1
 13893 36d3 69       		.byte	0x69
 13894 36d4 DE360000 		.4byte	0x36de
 13895 36d8 05       		.uleb128 0x5
 13896 36d9 03       		.byte	0x3
 13897 36da D8000000 		.4byte	cmd_EXIT
 13898 36de 08       		.uleb128 0x8
 13899 36df 5F0A0000 		.4byte	0xa5f
 13900 36e3 09       		.uleb128 0x9
 13901 36e4 AD000000 		.4byte	0xad
 13902 36e8 F3360000 		.4byte	0x36f3
 13903 36ec 0A       		.uleb128 0xa
 13904 36ed 29010000 		.4byte	0x129
 13905 36f1 02       		.byte	0x2
 13906 36f2 00       		.byte	0
 13907 36f3 2F       		.uleb128 0x2f
 13908 36f4 A8090000 		.4byte	.LASF293
 13909 36f8 01       		.byte	0x1
 13910 36f9 6A       		.byte	0x6a
 13911 36fa 04370000 		.4byte	0x3704
 13912 36fe 05       		.uleb128 0x5
 13913 36ff 03       		.byte	0x3
 13914 3700 D4000000 		.4byte	cmd_VER
 13915 3704 08       		.uleb128 0x8
 13916 3705 E3360000 		.4byte	0x36e3
 13917 3709 2F       		.uleb128 0x2f
 13918 370a 04100000 		.4byte	.LASF294
 13919 370e 01       		.byte	0x1
 13920 370f 6B       		.byte	0x6b
 13921 3710 1A370000 		.4byte	0x371a
 13922 3714 05       		.uleb128 0x5
 13923 3715 03       		.byte	0x3
 13924 3716 D0000000 		.4byte	cmd_HELP
 13925 371a 08       		.uleb128 0x8
 13926 371b 5F0A0000 		.4byte	0xa5f
 13927 371f 2F       		.uleb128 0x2f
 13928 3720 E4040000 		.4byte	.LASF295
 13929 3724 01       		.byte	0x1
 13930 3725 6E       		.byte	0x6e
 13931 3726 05080000 		.4byte	0x805
 13932 372a 05       		.uleb128 0x5
 13933 372b 03       		.byte	0x3
 13934 372c 00000000 		.4byte	data_array
 13935 3730 09       		.uleb128 0x9
 13936 3731 1A050000 		.4byte	0x51a
 13937 3735 40370000 		.4byte	0x3740
 13938 3739 0A       		.uleb128 0xa
ARM GAS  C:\Users\ramanatg\AppData\Local\Temp\ccxbhSsV.s 			page 314


 13939 373a 29010000 		.4byte	0x129
 13940 373e 17       		.byte	0x17
 13941 373f 00       		.byte	0
 13942 3740 38       		.uleb128 0x38
 13943 3741 9F0C0000 		.4byte	.LASF296
 13944 3745 0A       		.byte	0xa
 13945 3746 EF       		.byte	0xef
 13946 3747 30370000 		.4byte	0x3730
 13947 374b 38       		.uleb128 0x38
 13948 374c 96060000 		.4byte	.LASF297
 13949 3750 09       		.byte	0x9
 13950 3751 F0       		.byte	0xf0
 13951 3752 56370000 		.4byte	0x3756
 13952 3756 08       		.uleb128 0x8
 13953 3757 B5070000 		.4byte	0x7b5
 13954 375b 39       		.uleb128 0x39
 13955 375c 110C0000 		.4byte	.LASF298
 13956 3760 0B       		.byte	0xb
 13957 3761 3C03     		.2byte	0x33c
 13958 3763 F1000000 		.4byte	0xf1
 13959 3767 3A       		.uleb128 0x3a
 13960 3768 1E000000 		.4byte	.LASF303
 13961 376c 0D       		.byte	0xd
 13962 376d D9       		.byte	0xd9
 13963 376e 78370000 		.4byte	0x3778
 13964 3772 3B       		.uleb128 0x3b
 13965 3773 F1000000 		.4byte	0xf1
 13966 3777 00       		.byte	0
 13967 3778 39       		.uleb128 0x39
 13968 3779 C3030000 		.4byte	.LASF299
 13969 377d 0B       		.byte	0xb
 13970 377e 3403     		.2byte	0x334
 13971 3780 F1000000 		.4byte	0xf1
 13972 3784 3C       		.uleb128 0x3c
 13973 3785 A5000000 		.4byte	.LASF301
 13974 3789 0C       		.byte	0xc
 13975 378a 21       		.byte	0x21
 13976 378b 1E010000 		.4byte	0x11e
 13977 378f 99370000 		.4byte	0x3799
 13978 3793 3B       		.uleb128 0x3b
 13979 3794 38010000 		.4byte	0x138
 13980 3798 00       		.byte	0
 13981 3799 39       		.uleb128 0x39
 13982 379a D5160000 		.4byte	.LASF302
 13983 379e 0B       		.byte	0xb
 13984 379f 0703     		.2byte	0x307
 13985 37a1 F1000000 		.4byte	0xf1
 13986 37a5 3D       		.uleb128 0x3d
 13987 37a6 23130000 		.4byte	.LASF304
 13988 37aa 0B       		.byte	0xb
 13989 37ab 2103     		.2byte	0x321
 13990 37ad B7370000 		.4byte	0x37b7
 13991 37b1 3B       		.uleb128 0x3b
 13992 37b2 B7370000 		.4byte	0x37b7
 13993 37b6 00       		.byte	0
 13994 37b7 07       		.uleb128 0x7
 13995 37b8 04       		.byte	0x4
ARM GAS  C:\Users\ramanatg\AppData\Local\Temp\ccxbhSsV.s 			page 315


 13996 37b9 BD370000 		.4byte	0x37bd
 13997 37bd 08       		.uleb128 0x8
 13998 37be 0B010000 		.4byte	0x10b
 13999 37c2 3E       		.uleb128 0x3e
 14000 37c3 CC050000 		.4byte	.LASF315
 14001 37c7 10       		.byte	0x10
 14002 37c8 6E       		.byte	0x6e
 14003 37c9 3F       		.uleb128 0x3f
 14004 37ca 1D0D0000 		.4byte	.LASF305
 14005 37ce 30010000 		.4byte	0x130
 14006 37d2 E6370000 		.4byte	0x37e6
 14007 37d6 3B       		.uleb128 0x3b
 14008 37d7 30010000 		.4byte	0x130
 14009 37db 3B       		.uleb128 0x3b
 14010 37dc 94000000 		.4byte	0x94
 14011 37e0 3B       		.uleb128 0x3b
 14012 37e1 29010000 		.4byte	0x129
 14013 37e5 00       		.byte	0
 14014 37e6 3C       		.uleb128 0x3c
 14015 37e7 1C130000 		.4byte	.LASF306
 14016 37eb 0C       		.byte	0xc
 14017 37ec 16       		.byte	0x16
 14018 37ed 94000000 		.4byte	0x94
 14019 37f1 05380000 		.4byte	0x3805
 14020 37f5 3B       		.uleb128 0x3b
 14021 37f6 25050000 		.4byte	0x525
 14022 37fa 3B       		.uleb128 0x3b
 14023 37fb 25050000 		.4byte	0x525
 14024 37ff 3B       		.uleb128 0x3b
 14025 3800 1E010000 		.4byte	0x11e
 14026 3804 00       		.byte	0
 14027 3805 3C       		.uleb128 0x3c
 14028 3806 73070000 		.4byte	.LASF307
 14029 380a 09       		.byte	0x9
 14030 380b F7       		.byte	0xf7
 14031 380c C3000000 		.4byte	0xc3
 14032 3810 1F380000 		.4byte	0x381f
 14033 3814 3B       		.uleb128 0x3b
 14034 3815 B9050000 		.4byte	0x5b9
 14035 3819 3B       		.uleb128 0x3b
 14036 381a 25050000 		.4byte	0x525
 14037 381e 00       		.byte	0
 14038 381f 40       		.uleb128 0x40
 14039 3820 6C0E0000 		.4byte	.LASF308
 14040 3824 08       		.byte	0x8
 14041 3825 7E01     		.2byte	0x17e
 14042 3827 44040000 		.4byte	0x444
 14043 382b 44380000 		.4byte	0x3844
 14044 382f 3B       		.uleb128 0x3b
 14045 3830 44380000 		.4byte	0x3844
 14046 3834 3B       		.uleb128 0x3b
 14047 3835 E5000000 		.4byte	0xe5
 14048 3839 3B       		.uleb128 0x3b
 14049 383a 4A380000 		.4byte	0x384a
 14050 383e 3B       		.uleb128 0x3b
 14051 383f D9000000 		.4byte	0xd9
 14052 3843 00       		.byte	0
ARM GAS  C:\Users\ramanatg\AppData\Local\Temp\ccxbhSsV.s 			page 316


 14053 3844 07       		.uleb128 0x7
 14054 3845 04       		.byte	0x4
 14055 3846 ED040000 		.4byte	0x4ed
 14056 384a 07       		.uleb128 0x7
 14057 384b 04       		.byte	0x4
 14058 384c 80040000 		.4byte	0x480
 14059 3850 3C       		.uleb128 0x3c
 14060 3851 9C0F0000 		.4byte	.LASF309
 14061 3855 0E       		.byte	0xe
 14062 3856 DE       		.byte	0xde
 14063 3857 94000000 		.4byte	0x94
 14064 385b 6B380000 		.4byte	0x386b
 14065 385f 3B       		.uleb128 0x3b
 14066 3860 32010000 		.4byte	0x132
 14067 3864 3B       		.uleb128 0x3b
 14068 3865 38010000 		.4byte	0x138
 14069 3869 41       		.uleb128 0x41
 14070 386a 00       		.byte	0
 14071 386b 3F       		.uleb128 0x3f
 14072 386c 68180000 		.4byte	.LASF310
 14073 3870 30010000 		.4byte	0x130
 14074 3874 88380000 		.4byte	0x3888
 14075 3878 3B       		.uleb128 0x3b
 14076 3879 30010000 		.4byte	0x130
 14077 387d 3B       		.uleb128 0x3b
 14078 387e 25050000 		.4byte	0x525
 14079 3882 3B       		.uleb128 0x3b
 14080 3883 29010000 		.4byte	0x129
 14081 3887 00       		.byte	0
 14082 3888 3D       		.uleb128 0x3d
 14083 3889 16100000 		.4byte	.LASF311
 14084 388d 0B       		.byte	0xb
 14085 388e 3A03     		.2byte	0x33a
 14086 3890 9A380000 		.4byte	0x389a
 14087 3894 3B       		.uleb128 0x3b
 14088 3895 F1000000 		.4byte	0xf1
 14089 3899 00       		.byte	0
 14090 389a 3C       		.uleb128 0x3c
 14091 389b 6F180000 		.4byte	.LASF312
 14092 389f 0F       		.byte	0xf
 14093 38a0 4A       		.byte	0x4a
 14094 38a1 94000000 		.4byte	0x94
 14095 38a5 AF380000 		.4byte	0x38af
 14096 38a9 3B       		.uleb128 0x3b
 14097 38aa 38010000 		.4byte	0x138
 14098 38ae 00       		.byte	0
 14099 38af 3C       		.uleb128 0x3c
 14100 38b0 A3080000 		.4byte	.LASF313
 14101 38b4 0C       		.byte	0xc
 14102 38b5 8D       		.byte	0x8d
 14103 38b6 32010000 		.4byte	0x132
 14104 38ba C4380000 		.4byte	0x38c4
 14105 38be 3B       		.uleb128 0x3b
 14106 38bf 32010000 		.4byte	0x132
 14107 38c3 00       		.byte	0
 14108 38c4 42       		.uleb128 0x42
 14109 38c5 4D140000 		.4byte	.LASF314
ARM GAS  C:\Users\ramanatg\AppData\Local\Temp\ccxbhSsV.s 			page 317


 14110 38c9 09       		.byte	0x9
 14111 38ca F9       		.byte	0xf9
 14112 38cb C3000000 		.4byte	0xc3
 14113 38cf 3E       		.uleb128 0x3e
 14114 38d0 63140000 		.4byte	.LASF316
 14115 38d4 11       		.byte	0x11
 14116 38d5 8E       		.byte	0x8e
 14117 38d6 42       		.uleb128 0x42
 14118 38d7 B4010000 		.4byte	.LASF317
 14119 38db 09       		.byte	0x9
 14120 38dc FA       		.byte	0xfa
 14121 38dd C3000000 		.4byte	0xc3
 14122 38e1 00       		.byte	0
 14123              		.section	.debug_abbrev,"",%progbits
 14124              	.Ldebug_abbrev0:
 14125 0000 01       		.uleb128 0x1
 14126 0001 11       		.uleb128 0x11
 14127 0002 01       		.byte	0x1
 14128 0003 25       		.uleb128 0x25
 14129 0004 0E       		.uleb128 0xe
 14130 0005 13       		.uleb128 0x13
 14131 0006 0B       		.uleb128 0xb
 14132 0007 03       		.uleb128 0x3
 14133 0008 0E       		.uleb128 0xe
 14134 0009 1B       		.uleb128 0x1b
 14135 000a 0E       		.uleb128 0xe
 14136 000b 55       		.uleb128 0x55
 14137 000c 17       		.uleb128 0x17
 14138 000d 11       		.uleb128 0x11
 14139 000e 01       		.uleb128 0x1
 14140 000f 10       		.uleb128 0x10
 14141 0010 17       		.uleb128 0x17
 14142 0011 00       		.byte	0
 14143 0012 00       		.byte	0
 14144 0013 02       		.uleb128 0x2
 14145 0014 16       		.uleb128 0x16
 14146 0015 00       		.byte	0
 14147 0016 03       		.uleb128 0x3
 14148 0017 0E       		.uleb128 0xe
 14149 0018 3A       		.uleb128 0x3a
 14150 0019 0B       		.uleb128 0xb
 14151 001a 3B       		.uleb128 0x3b
 14152 001b 0B       		.uleb128 0xb
 14153 001c 49       		.uleb128 0x49
 14154 001d 13       		.uleb128 0x13
 14155 001e 00       		.byte	0
 14156 001f 00       		.byte	0
 14157 0020 03       		.uleb128 0x3
 14158 0021 24       		.uleb128 0x24
 14159 0022 00       		.byte	0
 14160 0023 0B       		.uleb128 0xb
 14161 0024 0B       		.uleb128 0xb
 14162 0025 3E       		.uleb128 0x3e
 14163 0026 0B       		.uleb128 0xb
 14164 0027 03       		.uleb128 0x3
 14165 0028 0E       		.uleb128 0xe
 14166 0029 00       		.byte	0
ARM GAS  C:\Users\ramanatg\AppData\Local\Temp\ccxbhSsV.s 			page 318


 14167 002a 00       		.byte	0
 14168 002b 04       		.uleb128 0x4
 14169 002c 24       		.uleb128 0x24
 14170 002d 00       		.byte	0
 14171 002e 0B       		.uleb128 0xb
 14172 002f 0B       		.uleb128 0xb
 14173 0030 3E       		.uleb128 0x3e
 14174 0031 0B       		.uleb128 0xb
 14175 0032 03       		.uleb128 0x3
 14176 0033 08       		.uleb128 0x8
 14177 0034 00       		.byte	0
 14178 0035 00       		.byte	0
 14179 0036 05       		.uleb128 0x5
 14180 0037 16       		.uleb128 0x16
 14181 0038 00       		.byte	0
 14182 0039 03       		.uleb128 0x3
 14183 003a 0E       		.uleb128 0xe
 14184 003b 3A       		.uleb128 0x3a
 14185 003c 0B       		.uleb128 0xb
 14186 003d 3B       		.uleb128 0x3b
 14187 003e 05       		.uleb128 0x5
 14188 003f 49       		.uleb128 0x49
 14189 0040 13       		.uleb128 0x13
 14190 0041 00       		.byte	0
 14191 0042 00       		.byte	0
 14192 0043 06       		.uleb128 0x6
 14193 0044 0F       		.uleb128 0xf
 14194 0045 00       		.byte	0
 14195 0046 0B       		.uleb128 0xb
 14196 0047 0B       		.uleb128 0xb
 14197 0048 00       		.byte	0
 14198 0049 00       		.byte	0
 14199 004a 07       		.uleb128 0x7
 14200 004b 0F       		.uleb128 0xf
 14201 004c 00       		.byte	0
 14202 004d 0B       		.uleb128 0xb
 14203 004e 0B       		.uleb128 0xb
 14204 004f 49       		.uleb128 0x49
 14205 0050 13       		.uleb128 0x13
 14206 0051 00       		.byte	0
 14207 0052 00       		.byte	0
 14208 0053 08       		.uleb128 0x8
 14209 0054 26       		.uleb128 0x26
 14210 0055 00       		.byte	0
 14211 0056 49       		.uleb128 0x49
 14212 0057 13       		.uleb128 0x13
 14213 0058 00       		.byte	0
 14214 0059 00       		.byte	0
 14215 005a 09       		.uleb128 0x9
 14216 005b 01       		.uleb128 0x1
 14217 005c 01       		.byte	0x1
 14218 005d 49       		.uleb128 0x49
 14219 005e 13       		.uleb128 0x13
 14220 005f 01       		.uleb128 0x1
 14221 0060 13       		.uleb128 0x13
 14222 0061 00       		.byte	0
 14223 0062 00       		.byte	0
ARM GAS  C:\Users\ramanatg\AppData\Local\Temp\ccxbhSsV.s 			page 319


 14224 0063 0A       		.uleb128 0xa
 14225 0064 21       		.uleb128 0x21
 14226 0065 00       		.byte	0
 14227 0066 49       		.uleb128 0x49
 14228 0067 13       		.uleb128 0x13
 14229 0068 2F       		.uleb128 0x2f
 14230 0069 0B       		.uleb128 0xb
 14231 006a 00       		.byte	0
 14232 006b 00       		.byte	0
 14233 006c 0B       		.uleb128 0xb
 14234 006d 04       		.uleb128 0x4
 14235 006e 01       		.byte	0x1
 14236 006f 0B       		.uleb128 0xb
 14237 0070 0B       		.uleb128 0xb
 14238 0071 3A       		.uleb128 0x3a
 14239 0072 0B       		.uleb128 0xb
 14240 0073 3B       		.uleb128 0x3b
 14241 0074 05       		.uleb128 0x5
 14242 0075 01       		.uleb128 0x1
 14243 0076 13       		.uleb128 0x13
 14244 0077 00       		.byte	0
 14245 0078 00       		.byte	0
 14246 0079 0C       		.uleb128 0xc
 14247 007a 28       		.uleb128 0x28
 14248 007b 00       		.byte	0
 14249 007c 03       		.uleb128 0x3
 14250 007d 0E       		.uleb128 0xe
 14251 007e 1C       		.uleb128 0x1c
 14252 007f 0D       		.uleb128 0xd
 14253 0080 00       		.byte	0
 14254 0081 00       		.byte	0
 14255 0082 0D       		.uleb128 0xd
 14256 0083 04       		.uleb128 0x4
 14257 0084 01       		.byte	0x1
 14258 0085 0B       		.uleb128 0xb
 14259 0086 0B       		.uleb128 0xb
 14260 0087 3A       		.uleb128 0x3a
 14261 0088 0B       		.uleb128 0xb
 14262 0089 3B       		.uleb128 0x3b
 14263 008a 0B       		.uleb128 0xb
 14264 008b 01       		.uleb128 0x1
 14265 008c 13       		.uleb128 0x13
 14266 008d 00       		.byte	0
 14267 008e 00       		.byte	0
 14268 008f 0E       		.uleb128 0xe
 14269 0090 13       		.uleb128 0x13
 14270 0091 01       		.byte	0x1
 14271 0092 0B       		.uleb128 0xb
 14272 0093 0B       		.uleb128 0xb
 14273 0094 3A       		.uleb128 0x3a
 14274 0095 0B       		.uleb128 0xb
 14275 0096 3B       		.uleb128 0x3b
 14276 0097 05       		.uleb128 0x5
 14277 0098 01       		.uleb128 0x1
 14278 0099 13       		.uleb128 0x13
 14279 009a 00       		.byte	0
 14280 009b 00       		.byte	0
ARM GAS  C:\Users\ramanatg\AppData\Local\Temp\ccxbhSsV.s 			page 320


 14281 009c 0F       		.uleb128 0xf
 14282 009d 0D       		.uleb128 0xd
 14283 009e 00       		.byte	0
 14284 009f 03       		.uleb128 0x3
 14285 00a0 0E       		.uleb128 0xe
 14286 00a1 3A       		.uleb128 0x3a
 14287 00a2 0B       		.uleb128 0xb
 14288 00a3 3B       		.uleb128 0x3b
 14289 00a4 05       		.uleb128 0x5
 14290 00a5 49       		.uleb128 0x49
 14291 00a6 13       		.uleb128 0x13
 14292 00a7 38       		.uleb128 0x38
 14293 00a8 0B       		.uleb128 0xb
 14294 00a9 00       		.byte	0
 14295 00aa 00       		.byte	0
 14296 00ab 10       		.uleb128 0x10
 14297 00ac 0D       		.uleb128 0xd
 14298 00ad 00       		.byte	0
 14299 00ae 03       		.uleb128 0x3
 14300 00af 08       		.uleb128 0x8
 14301 00b0 3A       		.uleb128 0x3a
 14302 00b1 0B       		.uleb128 0xb
 14303 00b2 3B       		.uleb128 0x3b
 14304 00b3 05       		.uleb128 0x5
 14305 00b4 49       		.uleb128 0x49
 14306 00b5 13       		.uleb128 0x13
 14307 00b6 38       		.uleb128 0x38
 14308 00b7 0B       		.uleb128 0xb
 14309 00b8 00       		.byte	0
 14310 00b9 00       		.byte	0
 14311 00ba 11       		.uleb128 0x11
 14312 00bb 13       		.uleb128 0x13
 14313 00bc 01       		.byte	0x1
 14314 00bd 0B       		.uleb128 0xb
 14315 00be 0B       		.uleb128 0xb
 14316 00bf 3A       		.uleb128 0x3a
 14317 00c0 0B       		.uleb128 0xb
 14318 00c1 3B       		.uleb128 0x3b
 14319 00c2 0B       		.uleb128 0xb
 14320 00c3 01       		.uleb128 0x1
 14321 00c4 13       		.uleb128 0x13
 14322 00c5 00       		.byte	0
 14323 00c6 00       		.byte	0
 14324 00c7 12       		.uleb128 0x12
 14325 00c8 0D       		.uleb128 0xd
 14326 00c9 00       		.byte	0
 14327 00ca 03       		.uleb128 0x3
 14328 00cb 0E       		.uleb128 0xe
 14329 00cc 3A       		.uleb128 0x3a
 14330 00cd 0B       		.uleb128 0xb
 14331 00ce 3B       		.uleb128 0x3b
 14332 00cf 0B       		.uleb128 0xb
 14333 00d0 49       		.uleb128 0x49
 14334 00d1 13       		.uleb128 0x13
 14335 00d2 38       		.uleb128 0x38
 14336 00d3 0B       		.uleb128 0xb
 14337 00d4 00       		.byte	0
ARM GAS  C:\Users\ramanatg\AppData\Local\Temp\ccxbhSsV.s 			page 321


 14338 00d5 00       		.byte	0
 14339 00d6 13       		.uleb128 0x13
 14340 00d7 26       		.uleb128 0x26
 14341 00d8 00       		.byte	0
 14342 00d9 00       		.byte	0
 14343 00da 00       		.byte	0
 14344 00db 14       		.uleb128 0x14
 14345 00dc 0D       		.uleb128 0xd
 14346 00dd 00       		.byte	0
 14347 00de 03       		.uleb128 0x3
 14348 00df 0E       		.uleb128 0xe
 14349 00e0 3A       		.uleb128 0x3a
 14350 00e1 0B       		.uleb128 0xb
 14351 00e2 3B       		.uleb128 0x3b
 14352 00e3 0B       		.uleb128 0xb
 14353 00e4 49       		.uleb128 0x49
 14354 00e5 13       		.uleb128 0x13
 14355 00e6 0B       		.uleb128 0xb
 14356 00e7 0B       		.uleb128 0xb
 14357 00e8 0D       		.uleb128 0xd
 14358 00e9 0B       		.uleb128 0xb
 14359 00ea 0C       		.uleb128 0xc
 14360 00eb 0B       		.uleb128 0xb
 14361 00ec 38       		.uleb128 0x38
 14362 00ed 0B       		.uleb128 0xb
 14363 00ee 00       		.byte	0
 14364 00ef 00       		.byte	0
 14365 00f0 15       		.uleb128 0x15
 14366 00f1 0D       		.uleb128 0xd
 14367 00f2 00       		.byte	0
 14368 00f3 03       		.uleb128 0x3
 14369 00f4 08       		.uleb128 0x8
 14370 00f5 3A       		.uleb128 0x3a
 14371 00f6 0B       		.uleb128 0xb
 14372 00f7 3B       		.uleb128 0x3b
 14373 00f8 0B       		.uleb128 0xb
 14374 00f9 49       		.uleb128 0x49
 14375 00fa 13       		.uleb128 0x13
 14376 00fb 38       		.uleb128 0x38
 14377 00fc 0B       		.uleb128 0xb
 14378 00fd 00       		.byte	0
 14379 00fe 00       		.byte	0
 14380 00ff 16       		.uleb128 0x16
 14381 0100 2E       		.uleb128 0x2e
 14382 0101 01       		.byte	0x1
 14383 0102 03       		.uleb128 0x3
 14384 0103 0E       		.uleb128 0xe
 14385 0104 3A       		.uleb128 0x3a
 14386 0105 0B       		.uleb128 0xb
 14387 0106 3B       		.uleb128 0x3b
 14388 0107 05       		.uleb128 0x5
 14389 0108 27       		.uleb128 0x27
 14390 0109 19       		.uleb128 0x19
 14391 010a 49       		.uleb128 0x49
 14392 010b 13       		.uleb128 0x13
 14393 010c 20       		.uleb128 0x20
 14394 010d 0B       		.uleb128 0xb
ARM GAS  C:\Users\ramanatg\AppData\Local\Temp\ccxbhSsV.s 			page 322


 14395 010e 01       		.uleb128 0x1
 14396 010f 13       		.uleb128 0x13
 14397 0110 00       		.byte	0
 14398 0111 00       		.byte	0
 14399 0112 17       		.uleb128 0x17
 14400 0113 05       		.uleb128 0x5
 14401 0114 00       		.byte	0
 14402 0115 03       		.uleb128 0x3
 14403 0116 0E       		.uleb128 0xe
 14404 0117 3A       		.uleb128 0x3a
 14405 0118 0B       		.uleb128 0xb
 14406 0119 3B       		.uleb128 0x3b
 14407 011a 05       		.uleb128 0x5
 14408 011b 49       		.uleb128 0x49
 14409 011c 13       		.uleb128 0x13
 14410 011d 00       		.byte	0
 14411 011e 00       		.byte	0
 14412 011f 18       		.uleb128 0x18
 14413 0120 2E       		.uleb128 0x2e
 14414 0121 01       		.byte	0x1
 14415 0122 3F       		.uleb128 0x3f
 14416 0123 19       		.uleb128 0x19
 14417 0124 03       		.uleb128 0x3
 14418 0125 0E       		.uleb128 0xe
 14419 0126 3A       		.uleb128 0x3a
 14420 0127 0B       		.uleb128 0xb
 14421 0128 3B       		.uleb128 0x3b
 14422 0129 0B       		.uleb128 0xb
 14423 012a 27       		.uleb128 0x27
 14424 012b 19       		.uleb128 0x19
 14425 012c 49       		.uleb128 0x49
 14426 012d 13       		.uleb128 0x13
 14427 012e 20       		.uleb128 0x20
 14428 012f 0B       		.uleb128 0xb
 14429 0130 01       		.uleb128 0x1
 14430 0131 13       		.uleb128 0x13
 14431 0132 00       		.byte	0
 14432 0133 00       		.byte	0
 14433 0134 19       		.uleb128 0x19
 14434 0135 05       		.uleb128 0x5
 14435 0136 00       		.byte	0
 14436 0137 03       		.uleb128 0x3
 14437 0138 08       		.uleb128 0x8
 14438 0139 3A       		.uleb128 0x3a
 14439 013a 0B       		.uleb128 0xb
 14440 013b 3B       		.uleb128 0x3b
 14441 013c 0B       		.uleb128 0xb
 14442 013d 49       		.uleb128 0x49
 14443 013e 13       		.uleb128 0x13
 14444 013f 00       		.byte	0
 14445 0140 00       		.byte	0
 14446 0141 1A       		.uleb128 0x1a
 14447 0142 34       		.uleb128 0x34
 14448 0143 00       		.byte	0
 14449 0144 03       		.uleb128 0x3
 14450 0145 0E       		.uleb128 0xe
 14451 0146 3A       		.uleb128 0x3a
ARM GAS  C:\Users\ramanatg\AppData\Local\Temp\ccxbhSsV.s 			page 323


 14452 0147 0B       		.uleb128 0xb
 14453 0148 3B       		.uleb128 0x3b
 14454 0149 0B       		.uleb128 0xb
 14455 014a 49       		.uleb128 0x49
 14456 014b 13       		.uleb128 0x13
 14457 014c 00       		.byte	0
 14458 014d 00       		.byte	0
 14459 014e 1B       		.uleb128 0x1b
 14460 014f 05       		.uleb128 0x5
 14461 0150 00       		.byte	0
 14462 0151 03       		.uleb128 0x3
 14463 0152 08       		.uleb128 0x8
 14464 0153 3A       		.uleb128 0x3a
 14465 0154 0B       		.uleb128 0xb
 14466 0155 3B       		.uleb128 0x3b
 14467 0156 05       		.uleb128 0x5
 14468 0157 49       		.uleb128 0x49
 14469 0158 13       		.uleb128 0x13
 14470 0159 00       		.byte	0
 14471 015a 00       		.byte	0
 14472 015b 1C       		.uleb128 0x1c
 14473 015c 34       		.uleb128 0x34
 14474 015d 00       		.byte	0
 14475 015e 03       		.uleb128 0x3
 14476 015f 08       		.uleb128 0x8
 14477 0160 3A       		.uleb128 0x3a
 14478 0161 0B       		.uleb128 0xb
 14479 0162 3B       		.uleb128 0x3b
 14480 0163 05       		.uleb128 0x5
 14481 0164 49       		.uleb128 0x49
 14482 0165 13       		.uleb128 0x13
 14483 0166 00       		.byte	0
 14484 0167 00       		.byte	0
 14485 0168 1D       		.uleb128 0x1d
 14486 0169 34       		.uleb128 0x34
 14487 016a 00       		.byte	0
 14488 016b 03       		.uleb128 0x3
 14489 016c 0E       		.uleb128 0xe
 14490 016d 3A       		.uleb128 0x3a
 14491 016e 0B       		.uleb128 0xb
 14492 016f 3B       		.uleb128 0x3b
 14493 0170 05       		.uleb128 0x5
 14494 0171 49       		.uleb128 0x49
 14495 0172 13       		.uleb128 0x13
 14496 0173 00       		.byte	0
 14497 0174 00       		.byte	0
 14498 0175 1E       		.uleb128 0x1e
 14499 0176 2E       		.uleb128 0x2e
 14500 0177 01       		.byte	0x1
 14501 0178 31       		.uleb128 0x31
 14502 0179 13       		.uleb128 0x13
 14503 017a 11       		.uleb128 0x11
 14504 017b 01       		.uleb128 0x1
 14505 017c 12       		.uleb128 0x12
 14506 017d 06       		.uleb128 0x6
 14507 017e 40       		.uleb128 0x40
 14508 017f 18       		.uleb128 0x18
ARM GAS  C:\Users\ramanatg\AppData\Local\Temp\ccxbhSsV.s 			page 324


 14509 0180 9742     		.uleb128 0x2117
 14510 0182 19       		.uleb128 0x19
 14511 0183 01       		.uleb128 0x1
 14512 0184 13       		.uleb128 0x13
 14513 0185 00       		.byte	0
 14514 0186 00       		.byte	0
 14515 0187 1F       		.uleb128 0x1f
 14516 0188 05       		.uleb128 0x5
 14517 0189 00       		.byte	0
 14518 018a 31       		.uleb128 0x31
 14519 018b 13       		.uleb128 0x13
 14520 018c 02       		.uleb128 0x2
 14521 018d 17       		.uleb128 0x17
 14522 018e 00       		.byte	0
 14523 018f 00       		.byte	0
 14524 0190 20       		.uleb128 0x20
 14525 0191 0B       		.uleb128 0xb
 14526 0192 01       		.byte	0x1
 14527 0193 55       		.uleb128 0x55
 14528 0194 17       		.uleb128 0x17
 14529 0195 00       		.byte	0
 14530 0196 00       		.byte	0
 14531 0197 21       		.uleb128 0x21
 14532 0198 34       		.uleb128 0x34
 14533 0199 00       		.byte	0
 14534 019a 31       		.uleb128 0x31
 14535 019b 13       		.uleb128 0x13
 14536 019c 02       		.uleb128 0x2
 14537 019d 17       		.uleb128 0x17
 14538 019e 00       		.byte	0
 14539 019f 00       		.byte	0
 14540 01a0 22       		.uleb128 0x22
 14541 01a1 0B       		.uleb128 0xb
 14542 01a2 01       		.byte	0x1
 14543 01a3 11       		.uleb128 0x11
 14544 01a4 01       		.uleb128 0x1
 14545 01a5 12       		.uleb128 0x12
 14546 01a6 06       		.uleb128 0x6
 14547 01a7 01       		.uleb128 0x1
 14548 01a8 13       		.uleb128 0x13
 14549 01a9 00       		.byte	0
 14550 01aa 00       		.byte	0
 14551 01ab 23       		.uleb128 0x23
 14552 01ac 0B       		.uleb128 0xb
 14553 01ad 01       		.byte	0x1
 14554 01ae 11       		.uleb128 0x11
 14555 01af 01       		.uleb128 0x1
 14556 01b0 12       		.uleb128 0x12
 14557 01b1 06       		.uleb128 0x6
 14558 01b2 00       		.byte	0
 14559 01b3 00       		.byte	0
 14560 01b4 24       		.uleb128 0x24
 14561 01b5 34       		.uleb128 0x34
 14562 01b6 00       		.byte	0
 14563 01b7 31       		.uleb128 0x31
 14564 01b8 13       		.uleb128 0x13
 14565 01b9 00       		.byte	0
ARM GAS  C:\Users\ramanatg\AppData\Local\Temp\ccxbhSsV.s 			page 325


 14566 01ba 00       		.byte	0
 14567 01bb 25       		.uleb128 0x25
 14568 01bc 898201   		.uleb128 0x4109
 14569 01bf 00       		.byte	0
 14570 01c0 11       		.uleb128 0x11
 14571 01c1 01       		.uleb128 0x1
 14572 01c2 31       		.uleb128 0x31
 14573 01c3 13       		.uleb128 0x13
 14574 01c4 00       		.byte	0
 14575 01c5 00       		.byte	0
 14576 01c6 26       		.uleb128 0x26
 14577 01c7 898201   		.uleb128 0x4109
 14578 01ca 01       		.byte	0x1
 14579 01cb 11       		.uleb128 0x11
 14580 01cc 01       		.uleb128 0x1
 14581 01cd 31       		.uleb128 0x31
 14582 01ce 13       		.uleb128 0x13
 14583 01cf 01       		.uleb128 0x1
 14584 01d0 13       		.uleb128 0x13
 14585 01d1 00       		.byte	0
 14586 01d2 00       		.byte	0
 14587 01d3 27       		.uleb128 0x27
 14588 01d4 8A8201   		.uleb128 0x410a
 14589 01d7 00       		.byte	0
 14590 01d8 02       		.uleb128 0x2
 14591 01d9 18       		.uleb128 0x18
 14592 01da 9142     		.uleb128 0x2111
 14593 01dc 18       		.uleb128 0x18
 14594 01dd 00       		.byte	0
 14595 01de 00       		.byte	0
 14596 01df 28       		.uleb128 0x28
 14597 01e0 898201   		.uleb128 0x4109
 14598 01e3 01       		.byte	0x1
 14599 01e4 11       		.uleb128 0x11
 14600 01e5 01       		.uleb128 0x1
 14601 01e6 31       		.uleb128 0x31
 14602 01e7 13       		.uleb128 0x13
 14603 01e8 00       		.byte	0
 14604 01e9 00       		.byte	0
 14605 01ea 29       		.uleb128 0x29
 14606 01eb 2E       		.uleb128 0x2e
 14607 01ec 01       		.byte	0x1
 14608 01ed 3F       		.uleb128 0x3f
 14609 01ee 19       		.uleb128 0x19
 14610 01ef 03       		.uleb128 0x3
 14611 01f0 0E       		.uleb128 0xe
 14612 01f1 3A       		.uleb128 0x3a
 14613 01f2 0B       		.uleb128 0xb
 14614 01f3 3B       		.uleb128 0x3b
 14615 01f4 0B       		.uleb128 0xb
 14616 01f5 27       		.uleb128 0x27
 14617 01f6 19       		.uleb128 0x19
 14618 01f7 49       		.uleb128 0x49
 14619 01f8 13       		.uleb128 0x13
 14620 01f9 11       		.uleb128 0x11
 14621 01fa 01       		.uleb128 0x1
 14622 01fb 12       		.uleb128 0x12
ARM GAS  C:\Users\ramanatg\AppData\Local\Temp\ccxbhSsV.s 			page 326


 14623 01fc 06       		.uleb128 0x6
 14624 01fd 40       		.uleb128 0x40
 14625 01fe 18       		.uleb128 0x18
 14626 01ff 9742     		.uleb128 0x2117
 14627 0201 19       		.uleb128 0x19
 14628 0202 01       		.uleb128 0x1
 14629 0203 13       		.uleb128 0x13
 14630 0204 00       		.byte	0
 14631 0205 00       		.byte	0
 14632 0206 2A       		.uleb128 0x2a
 14633 0207 05       		.uleb128 0x5
 14634 0208 00       		.byte	0
 14635 0209 03       		.uleb128 0x3
 14636 020a 0E       		.uleb128 0xe
 14637 020b 3A       		.uleb128 0x3a
 14638 020c 0B       		.uleb128 0xb
 14639 020d 3B       		.uleb128 0x3b
 14640 020e 0B       		.uleb128 0xb
 14641 020f 49       		.uleb128 0x49
 14642 0210 13       		.uleb128 0x13
 14643 0211 02       		.uleb128 0x2
 14644 0212 17       		.uleb128 0x17
 14645 0213 00       		.byte	0
 14646 0214 00       		.byte	0
 14647 0215 2B       		.uleb128 0x2b
 14648 0216 0B       		.uleb128 0xb
 14649 0217 01       		.byte	0x1
 14650 0218 01       		.uleb128 0x1
 14651 0219 13       		.uleb128 0x13
 14652 021a 00       		.byte	0
 14653 021b 00       		.byte	0
 14654 021c 2C       		.uleb128 0x2c
 14655 021d 0B       		.uleb128 0xb
 14656 021e 01       		.byte	0x1
 14657 021f 00       		.byte	0
 14658 0220 00       		.byte	0
 14659 0221 2D       		.uleb128 0x2d
 14660 0222 2E       		.uleb128 0x2e
 14661 0223 00       		.byte	0
 14662 0224 03       		.uleb128 0x3
 14663 0225 0E       		.uleb128 0xe
 14664 0226 3A       		.uleb128 0x3a
 14665 0227 0B       		.uleb128 0xb
 14666 0228 3B       		.uleb128 0x3b
 14667 0229 05       		.uleb128 0x5
 14668 022a 27       		.uleb128 0x27
 14669 022b 19       		.uleb128 0x19
 14670 022c 49       		.uleb128 0x49
 14671 022d 13       		.uleb128 0x13
 14672 022e 20       		.uleb128 0x20
 14673 022f 0B       		.uleb128 0xb
 14674 0230 00       		.byte	0
 14675 0231 00       		.byte	0
 14676 0232 2E       		.uleb128 0x2e
 14677 0233 34       		.uleb128 0x34
 14678 0234 00       		.byte	0
 14679 0235 03       		.uleb128 0x3
ARM GAS  C:\Users\ramanatg\AppData\Local\Temp\ccxbhSsV.s 			page 327


 14680 0236 0E       		.uleb128 0xe
 14681 0237 3A       		.uleb128 0x3a
 14682 0238 0B       		.uleb128 0xb
 14683 0239 3B       		.uleb128 0x3b
 14684 023a 0B       		.uleb128 0xb
 14685 023b 49       		.uleb128 0x49
 14686 023c 13       		.uleb128 0x13
 14687 023d 02       		.uleb128 0x2
 14688 023e 17       		.uleb128 0x17
 14689 023f 00       		.byte	0
 14690 0240 00       		.byte	0
 14691 0241 2F       		.uleb128 0x2f
 14692 0242 34       		.uleb128 0x34
 14693 0243 00       		.byte	0
 14694 0244 03       		.uleb128 0x3
 14695 0245 0E       		.uleb128 0xe
 14696 0246 3A       		.uleb128 0x3a
 14697 0247 0B       		.uleb128 0xb
 14698 0248 3B       		.uleb128 0x3b
 14699 0249 0B       		.uleb128 0xb
 14700 024a 49       		.uleb128 0x49
 14701 024b 13       		.uleb128 0x13
 14702 024c 02       		.uleb128 0x2
 14703 024d 18       		.uleb128 0x18
 14704 024e 00       		.byte	0
 14705 024f 00       		.byte	0
 14706 0250 30       		.uleb128 0x30
 14707 0251 1D       		.uleb128 0x1d
 14708 0252 01       		.byte	0x1
 14709 0253 31       		.uleb128 0x31
 14710 0254 13       		.uleb128 0x13
 14711 0255 52       		.uleb128 0x52
 14712 0256 01       		.uleb128 0x1
 14713 0257 55       		.uleb128 0x55
 14714 0258 17       		.uleb128 0x17
 14715 0259 58       		.uleb128 0x58
 14716 025a 0B       		.uleb128 0xb
 14717 025b 59       		.uleb128 0x59
 14718 025c 0B       		.uleb128 0xb
 14719 025d 01       		.uleb128 0x1
 14720 025e 13       		.uleb128 0x13
 14721 025f 00       		.byte	0
 14722 0260 00       		.byte	0
 14723 0261 31       		.uleb128 0x31
 14724 0262 05       		.uleb128 0x5
 14725 0263 00       		.byte	0
 14726 0264 31       		.uleb128 0x31
 14727 0265 13       		.uleb128 0x13
 14728 0266 00       		.byte	0
 14729 0267 00       		.byte	0
 14730 0268 32       		.uleb128 0x32
 14731 0269 1D       		.uleb128 0x1d
 14732 026a 01       		.byte	0x1
 14733 026b 31       		.uleb128 0x31
 14734 026c 13       		.uleb128 0x13
 14735 026d 52       		.uleb128 0x52
 14736 026e 01       		.uleb128 0x1
ARM GAS  C:\Users\ramanatg\AppData\Local\Temp\ccxbhSsV.s 			page 328


 14737 026f 55       		.uleb128 0x55
 14738 0270 17       		.uleb128 0x17
 14739 0271 58       		.uleb128 0x58
 14740 0272 0B       		.uleb128 0xb
 14741 0273 59       		.uleb128 0x59
 14742 0274 05       		.uleb128 0x5
 14743 0275 01       		.uleb128 0x1
 14744 0276 13       		.uleb128 0x13
 14745 0277 00       		.byte	0
 14746 0278 00       		.byte	0
 14747 0279 33       		.uleb128 0x33
 14748 027a 34       		.uleb128 0x34
 14749 027b 00       		.byte	0
 14750 027c 31       		.uleb128 0x31
 14751 027d 13       		.uleb128 0x13
 14752 027e 02       		.uleb128 0x2
 14753 027f 18       		.uleb128 0x18
 14754 0280 00       		.byte	0
 14755 0281 00       		.byte	0
 14756 0282 34       		.uleb128 0x34
 14757 0283 0B       		.uleb128 0xb
 14758 0284 01       		.byte	0x1
 14759 0285 55       		.uleb128 0x55
 14760 0286 17       		.uleb128 0x17
 14761 0287 01       		.uleb128 0x1
 14762 0288 13       		.uleb128 0x13
 14763 0289 00       		.byte	0
 14764 028a 00       		.byte	0
 14765 028b 35       		.uleb128 0x35
 14766 028c 1D       		.uleb128 0x1d
 14767 028d 01       		.byte	0x1
 14768 028e 31       		.uleb128 0x31
 14769 028f 13       		.uleb128 0x13
 14770 0290 52       		.uleb128 0x52
 14771 0291 01       		.uleb128 0x1
 14772 0292 55       		.uleb128 0x55
 14773 0293 17       		.uleb128 0x17
 14774 0294 58       		.uleb128 0x58
 14775 0295 0B       		.uleb128 0xb
 14776 0296 59       		.uleb128 0x59
 14777 0297 05       		.uleb128 0x5
 14778 0298 00       		.byte	0
 14779 0299 00       		.byte	0
 14780 029a 36       		.uleb128 0x36
 14781 029b 05       		.uleb128 0x5
 14782 029c 00       		.byte	0
 14783 029d 31       		.uleb128 0x31
 14784 029e 13       		.uleb128 0x13
 14785 029f 02       		.uleb128 0x2
 14786 02a0 18       		.uleb128 0x18
 14787 02a1 00       		.byte	0
 14788 02a2 00       		.byte	0
 14789 02a3 37       		.uleb128 0x37
 14790 02a4 1D       		.uleb128 0x1d
 14791 02a5 01       		.byte	0x1
 14792 02a6 31       		.uleb128 0x31
 14793 02a7 13       		.uleb128 0x13
ARM GAS  C:\Users\ramanatg\AppData\Local\Temp\ccxbhSsV.s 			page 329


 14794 02a8 11       		.uleb128 0x11
 14795 02a9 01       		.uleb128 0x1
 14796 02aa 12       		.uleb128 0x12
 14797 02ab 06       		.uleb128 0x6
 14798 02ac 58       		.uleb128 0x58
 14799 02ad 0B       		.uleb128 0xb
 14800 02ae 59       		.uleb128 0x59
 14801 02af 05       		.uleb128 0x5
 14802 02b0 01       		.uleb128 0x1
 14803 02b1 13       		.uleb128 0x13
 14804 02b2 00       		.byte	0
 14805 02b3 00       		.byte	0
 14806 02b4 38       		.uleb128 0x38
 14807 02b5 34       		.uleb128 0x34
 14808 02b6 00       		.byte	0
 14809 02b7 03       		.uleb128 0x3
 14810 02b8 0E       		.uleb128 0xe
 14811 02b9 3A       		.uleb128 0x3a
 14812 02ba 0B       		.uleb128 0xb
 14813 02bb 3B       		.uleb128 0x3b
 14814 02bc 0B       		.uleb128 0xb
 14815 02bd 49       		.uleb128 0x49
 14816 02be 13       		.uleb128 0x13
 14817 02bf 3F       		.uleb128 0x3f
 14818 02c0 19       		.uleb128 0x19
 14819 02c1 3C       		.uleb128 0x3c
 14820 02c2 19       		.uleb128 0x19
 14821 02c3 00       		.byte	0
 14822 02c4 00       		.byte	0
 14823 02c5 39       		.uleb128 0x39
 14824 02c6 2E       		.uleb128 0x2e
 14825 02c7 00       		.byte	0
 14826 02c8 3F       		.uleb128 0x3f
 14827 02c9 19       		.uleb128 0x19
 14828 02ca 03       		.uleb128 0x3
 14829 02cb 0E       		.uleb128 0xe
 14830 02cc 3A       		.uleb128 0x3a
 14831 02cd 0B       		.uleb128 0xb
 14832 02ce 3B       		.uleb128 0x3b
 14833 02cf 05       		.uleb128 0x5
 14834 02d0 27       		.uleb128 0x27
 14835 02d1 19       		.uleb128 0x19
 14836 02d2 49       		.uleb128 0x49
 14837 02d3 13       		.uleb128 0x13
 14838 02d4 3C       		.uleb128 0x3c
 14839 02d5 19       		.uleb128 0x19
 14840 02d6 00       		.byte	0
 14841 02d7 00       		.byte	0
 14842 02d8 3A       		.uleb128 0x3a
 14843 02d9 2E       		.uleb128 0x2e
 14844 02da 01       		.byte	0x1
 14845 02db 3F       		.uleb128 0x3f
 14846 02dc 19       		.uleb128 0x19
 14847 02dd 03       		.uleb128 0x3
 14848 02de 0E       		.uleb128 0xe
 14849 02df 3A       		.uleb128 0x3a
 14850 02e0 0B       		.uleb128 0xb
ARM GAS  C:\Users\ramanatg\AppData\Local\Temp\ccxbhSsV.s 			page 330


 14851 02e1 3B       		.uleb128 0x3b
 14852 02e2 0B       		.uleb128 0xb
 14853 02e3 27       		.uleb128 0x27
 14854 02e4 19       		.uleb128 0x19
 14855 02e5 3C       		.uleb128 0x3c
 14856 02e6 19       		.uleb128 0x19
 14857 02e7 01       		.uleb128 0x1
 14858 02e8 13       		.uleb128 0x13
 14859 02e9 00       		.byte	0
 14860 02ea 00       		.byte	0
 14861 02eb 3B       		.uleb128 0x3b
 14862 02ec 05       		.uleb128 0x5
 14863 02ed 00       		.byte	0
 14864 02ee 49       		.uleb128 0x49
 14865 02ef 13       		.uleb128 0x13
 14866 02f0 00       		.byte	0
 14867 02f1 00       		.byte	0
 14868 02f2 3C       		.uleb128 0x3c
 14869 02f3 2E       		.uleb128 0x2e
 14870 02f4 01       		.byte	0x1
 14871 02f5 3F       		.uleb128 0x3f
 14872 02f6 19       		.uleb128 0x19
 14873 02f7 03       		.uleb128 0x3
 14874 02f8 0E       		.uleb128 0xe
 14875 02f9 3A       		.uleb128 0x3a
 14876 02fa 0B       		.uleb128 0xb
 14877 02fb 3B       		.uleb128 0x3b
 14878 02fc 0B       		.uleb128 0xb
 14879 02fd 27       		.uleb128 0x27
 14880 02fe 19       		.uleb128 0x19
 14881 02ff 49       		.uleb128 0x49
 14882 0300 13       		.uleb128 0x13
 14883 0301 3C       		.uleb128 0x3c
 14884 0302 19       		.uleb128 0x19
 14885 0303 01       		.uleb128 0x1
 14886 0304 13       		.uleb128 0x13
 14887 0305 00       		.byte	0
 14888 0306 00       		.byte	0
 14889 0307 3D       		.uleb128 0x3d
 14890 0308 2E       		.uleb128 0x2e
 14891 0309 01       		.byte	0x1
 14892 030a 3F       		.uleb128 0x3f
 14893 030b 19       		.uleb128 0x19
 14894 030c 03       		.uleb128 0x3
 14895 030d 0E       		.uleb128 0xe
 14896 030e 3A       		.uleb128 0x3a
 14897 030f 0B       		.uleb128 0xb
 14898 0310 3B       		.uleb128 0x3b
 14899 0311 05       		.uleb128 0x5
 14900 0312 27       		.uleb128 0x27
 14901 0313 19       		.uleb128 0x19
 14902 0314 3C       		.uleb128 0x3c
 14903 0315 19       		.uleb128 0x19
 14904 0316 01       		.uleb128 0x1
 14905 0317 13       		.uleb128 0x13
 14906 0318 00       		.byte	0
 14907 0319 00       		.byte	0
ARM GAS  C:\Users\ramanatg\AppData\Local\Temp\ccxbhSsV.s 			page 331


 14908 031a 3E       		.uleb128 0x3e
 14909 031b 2E       		.uleb128 0x2e
 14910 031c 00       		.byte	0
 14911 031d 3F       		.uleb128 0x3f
 14912 031e 19       		.uleb128 0x19
 14913 031f 03       		.uleb128 0x3
 14914 0320 0E       		.uleb128 0xe
 14915 0321 3A       		.uleb128 0x3a
 14916 0322 0B       		.uleb128 0xb
 14917 0323 3B       		.uleb128 0x3b
 14918 0324 0B       		.uleb128 0xb
 14919 0325 27       		.uleb128 0x27
 14920 0326 19       		.uleb128 0x19
 14921 0327 3C       		.uleb128 0x3c
 14922 0328 19       		.uleb128 0x19
 14923 0329 00       		.byte	0
 14924 032a 00       		.byte	0
 14925 032b 3F       		.uleb128 0x3f
 14926 032c 2E       		.uleb128 0x2e
 14927 032d 01       		.byte	0x1
 14928 032e 3F       		.uleb128 0x3f
 14929 032f 19       		.uleb128 0x19
 14930 0330 03       		.uleb128 0x3
 14931 0331 0E       		.uleb128 0xe
 14932 0332 27       		.uleb128 0x27
 14933 0333 19       		.uleb128 0x19
 14934 0334 49       		.uleb128 0x49
 14935 0335 13       		.uleb128 0x13
 14936 0336 34       		.uleb128 0x34
 14937 0337 19       		.uleb128 0x19
 14938 0338 3C       		.uleb128 0x3c
 14939 0339 19       		.uleb128 0x19
 14940 033a 01       		.uleb128 0x1
 14941 033b 13       		.uleb128 0x13
 14942 033c 00       		.byte	0
 14943 033d 00       		.byte	0
 14944 033e 40       		.uleb128 0x40
 14945 033f 2E       		.uleb128 0x2e
 14946 0340 01       		.byte	0x1
 14947 0341 3F       		.uleb128 0x3f
 14948 0342 19       		.uleb128 0x19
 14949 0343 03       		.uleb128 0x3
 14950 0344 0E       		.uleb128 0xe
 14951 0345 3A       		.uleb128 0x3a
 14952 0346 0B       		.uleb128 0xb
 14953 0347 3B       		.uleb128 0x3b
 14954 0348 05       		.uleb128 0x5
 14955 0349 27       		.uleb128 0x27
 14956 034a 19       		.uleb128 0x19
 14957 034b 49       		.uleb128 0x49
 14958 034c 13       		.uleb128 0x13
 14959 034d 3C       		.uleb128 0x3c
 14960 034e 19       		.uleb128 0x19
 14961 034f 01       		.uleb128 0x1
 14962 0350 13       		.uleb128 0x13
 14963 0351 00       		.byte	0
 14964 0352 00       		.byte	0
ARM GAS  C:\Users\ramanatg\AppData\Local\Temp\ccxbhSsV.s 			page 332


 14965 0353 41       		.uleb128 0x41
 14966 0354 18       		.uleb128 0x18
 14967 0355 00       		.byte	0
 14968 0356 00       		.byte	0
 14969 0357 00       		.byte	0
 14970 0358 42       		.uleb128 0x42
 14971 0359 2E       		.uleb128 0x2e
 14972 035a 00       		.byte	0
 14973 035b 3F       		.uleb128 0x3f
 14974 035c 19       		.uleb128 0x19
 14975 035d 03       		.uleb128 0x3
 14976 035e 0E       		.uleb128 0xe
 14977 035f 3A       		.uleb128 0x3a
 14978 0360 0B       		.uleb128 0xb
 14979 0361 3B       		.uleb128 0x3b
 14980 0362 0B       		.uleb128 0xb
 14981 0363 27       		.uleb128 0x27
 14982 0364 19       		.uleb128 0x19
 14983 0365 49       		.uleb128 0x49
 14984 0366 13       		.uleb128 0x13
 14985 0367 3C       		.uleb128 0x3c
 14986 0368 19       		.uleb128 0x19
 14987 0369 00       		.byte	0
 14988 036a 00       		.byte	0
 14989 036b 00       		.byte	0
 14990              		.section	.debug_loc,"",%progbits
 14991              	.Ldebug_loc0:
 14992              	.LLST0:
 14993 0000 00000000 		.4byte	.LVL0
 14994 0004 08000000 		.4byte	.LVL1
 14995 0008 0100     		.2byte	0x1
 14996 000a 50       		.byte	0x50
 14997 000b 08000000 		.4byte	.LVL1
 14998 000f 2A000000 		.4byte	.LFE64
 14999 0013 0400     		.2byte	0x4
 15000 0015 F3       		.byte	0xf3
 15001 0016 01       		.uleb128 0x1
 15002 0017 50       		.byte	0x50
 15003 0018 9F       		.byte	0x9f
 15004 0019 00000000 		.4byte	0
 15005 001d 00000000 		.4byte	0
 15006              	.LLST1:
 15007 0021 12000000 		.4byte	.LVL2
 15008 0025 1C000000 		.4byte	.LVL3
 15009 0029 0100     		.2byte	0x1
 15010 002b 52       		.byte	0x52
 15011 002c 24000000 		.4byte	.LVL4
 15012 0030 26000000 		.4byte	.LVL5
 15013 0034 0100     		.2byte	0x1
 15014 0036 52       		.byte	0x52
 15015 0037 26000000 		.4byte	.LVL5
 15016 003b 2A000000 		.4byte	.LFE64
 15017 003f 0400     		.2byte	0x4
 15018 0041 72       		.byte	0x72
 15019 0042 D700     		.sleb128 87
 15020 0044 9F       		.byte	0x9f
 15021 0045 00000000 		.4byte	0
ARM GAS  C:\Users\ramanatg\AppData\Local\Temp\ccxbhSsV.s 			page 333


 15022 0049 00000000 		.4byte	0
 15023              	.LLST2:
 15024 004d 00000000 		.4byte	.LVL6
 15025 0051 07000000 		.4byte	.LVL7-1
 15026 0055 0100     		.2byte	0x1
 15027 0057 50       		.byte	0x50
 15028 0058 07000000 		.4byte	.LVL7-1
 15029 005c 14000000 		.4byte	.LVL9
 15030 0060 0100     		.2byte	0x1
 15031 0062 54       		.byte	0x54
 15032 0063 14000000 		.4byte	.LVL9
 15033 0067 60000000 		.4byte	.LVL18
 15034 006b 0400     		.2byte	0x4
 15035 006d F3       		.byte	0xf3
 15036 006e 01       		.uleb128 0x1
 15037 006f 50       		.byte	0x50
 15038 0070 9F       		.byte	0x9f
 15039 0071 60000000 		.4byte	.LVL18
 15040 0075 66000000 		.4byte	.LVL19
 15041 0079 0100     		.2byte	0x1
 15042 007b 54       		.byte	0x54
 15043 007c 66000000 		.4byte	.LVL19
 15044 0080 7C000000 		.4byte	.LFE37
 15045 0084 0400     		.2byte	0x4
 15046 0086 F3       		.byte	0xf3
 15047 0087 01       		.uleb128 0x1
 15048 0088 50       		.byte	0x50
 15049 0089 9F       		.byte	0x9f
 15050 008a 00000000 		.4byte	0
 15051 008e 00000000 		.4byte	0
 15052              	.LLST3:
 15053 0092 00000000 		.4byte	.LVL6
 15054 0096 14000000 		.4byte	.LVL9
 15055 009a 0200     		.2byte	0x2
 15056 009c 30       		.byte	0x30
 15057 009d 9F       		.byte	0x9f
 15058 009e 14000000 		.4byte	.LVL9
 15059 00a2 26000000 		.4byte	.LVL11
 15060 00a6 0100     		.2byte	0x1
 15061 00a8 54       		.byte	0x54
 15062 00a9 2C000000 		.4byte	.LVL12
 15063 00ad 5E000000 		.4byte	.LVL17
 15064 00b1 0100     		.2byte	0x1
 15065 00b3 54       		.byte	0x54
 15066 00b4 60000000 		.4byte	.LVL18
 15067 00b8 66000000 		.4byte	.LVL19
 15068 00bc 0200     		.2byte	0x2
 15069 00be 30       		.byte	0x30
 15070 00bf 9F       		.byte	0x9f
 15071 00c0 66000000 		.4byte	.LVL19
 15072 00c4 7C000000 		.4byte	.LFE37
 15073 00c8 0100     		.2byte	0x1
 15074 00ca 54       		.byte	0x54
 15075 00cb 00000000 		.4byte	0
 15076 00cf 00000000 		.4byte	0
 15077              	.LLST4:
 15078 00d3 4E000000 		.4byte	.LVL14
ARM GAS  C:\Users\ramanatg\AppData\Local\Temp\ccxbhSsV.s 			page 334


 15079 00d7 5E000000 		.4byte	.LVL17
 15080 00db 0400     		.2byte	0x4
 15081 00dd F3       		.byte	0xf3
 15082 00de 01       		.uleb128 0x1
 15083 00df 50       		.byte	0x50
 15084 00e0 9F       		.byte	0x9f
 15085 00e1 00000000 		.4byte	0
 15086 00e5 00000000 		.4byte	0
 15087              	.LLST5:
 15088 00e9 00000000 		.4byte	.LVL21
 15089 00ed 07000000 		.4byte	.LVL22-1
 15090 00f1 0100     		.2byte	0x1
 15091 00f3 50       		.byte	0x50
 15092 00f4 07000000 		.4byte	.LVL22-1
 15093 00f8 22000000 		.4byte	.LVL25
 15094 00fc 0100     		.2byte	0x1
 15095 00fe 54       		.byte	0x54
 15096 00ff 22000000 		.4byte	.LVL25
 15097 0103 24000000 		.4byte	.LVL26
 15098 0107 0400     		.2byte	0x4
 15099 0109 F3       		.byte	0xf3
 15100 010a 01       		.uleb128 0x1
 15101 010b 50       		.byte	0x50
 15102 010c 9F       		.byte	0x9f
 15103 010d 24000000 		.4byte	.LVL26
 15104 0111 34000000 		.4byte	.LFE38
 15105 0115 0100     		.2byte	0x1
 15106 0117 54       		.byte	0x54
 15107 0118 00000000 		.4byte	0
 15108 011c 00000000 		.4byte	0
 15109              	.LLST6:
 15110 0120 00000000 		.4byte	.LVL27
 15111 0124 4E000000 		.4byte	.LVL36
 15112 0128 0200     		.2byte	0x2
 15113 012a 31       		.byte	0x31
 15114 012b 9F       		.byte	0x9f
 15115 012c 60000000 		.4byte	.LVL37
 15116 0130 A4020000 		.4byte	.LVL91
 15117 0134 0200     		.2byte	0x2
 15118 0136 31       		.byte	0x31
 15119 0137 9F       		.byte	0x9f
 15120 0138 A4020000 		.4byte	.LVL91
 15121 013c AA020000 		.4byte	.LVL92
 15122 0140 0200     		.2byte	0x2
 15123 0142 30       		.byte	0x30
 15124 0143 9F       		.byte	0x9f
 15125 0144 AA020000 		.4byte	.LVL92
 15126 0148 C2020000 		.4byte	.LVL95
 15127 014c 0100     		.2byte	0x1
 15128 014e 55       		.byte	0x55
 15129 014f C2020000 		.4byte	.LVL95
 15130 0153 18030000 		.4byte	.LVL100
 15131 0157 0200     		.2byte	0x2
 15132 0159 31       		.byte	0x31
 15133 015a 9F       		.byte	0x9f
 15134 015b 18030000 		.4byte	.LVL100
 15135 015f 2A030000 		.4byte	.LVL102
ARM GAS  C:\Users\ramanatg\AppData\Local\Temp\ccxbhSsV.s 			page 335


 15136 0163 0100     		.2byte	0x1
 15137 0165 55       		.byte	0x55
 15138 0166 2A030000 		.4byte	.LVL102
 15139 016a 44030000 		.4byte	.LVL104
 15140 016e 0200     		.2byte	0x2
 15141 0170 31       		.byte	0x31
 15142 0171 9F       		.byte	0x9f
 15143 0172 44030000 		.4byte	.LVL104
 15144 0176 D4030000 		.4byte	.LVL106
 15145 017a 0100     		.2byte	0x1
 15146 017c 58       		.byte	0x58
 15147 017d D4030000 		.4byte	.LVL106
 15148 0181 EC090000 		.4byte	.LVL279
 15149 0185 0200     		.2byte	0x2
 15150 0187 31       		.byte	0x31
 15151 0188 9F       		.byte	0x9f
 15152 0189 EE090000 		.4byte	.LVL280
 15153 018d 300A0000 		.4byte	.LVL286
 15154 0191 0200     		.2byte	0x2
 15155 0193 31       		.byte	0x31
 15156 0194 9F       		.byte	0x9f
 15157 0195 320A0000 		.4byte	.LVL287
 15158 0199 420A0000 		.4byte	.LVL289
 15159 019d 0200     		.2byte	0x2
 15160 019f 31       		.byte	0x31
 15161 01a0 9F       		.byte	0x9f
 15162 01a1 440A0000 		.4byte	.LVL290
 15163 01a5 6E0D0000 		.4byte	.LVL380
 15164 01a9 0200     		.2byte	0x2
 15165 01ab 31       		.byte	0x31
 15166 01ac 9F       		.byte	0x9f
 15167 01ad 6E0D0000 		.4byte	.LVL380
 15168 01b1 8A0D0000 		.4byte	.LVL382
 15169 01b5 0200     		.2byte	0x2
 15170 01b7 30       		.byte	0x30
 15171 01b8 9F       		.byte	0x9f
 15172 01b9 8A0D0000 		.4byte	.LVL382
 15173 01bd AA100000 		.4byte	.LVL449
 15174 01c1 0200     		.2byte	0x2
 15175 01c3 31       		.byte	0x31
 15176 01c4 9F       		.byte	0x9f
 15177 01c5 AA100000 		.4byte	.LVL449
 15178 01c9 BA100000 		.4byte	.LVL451
 15179 01cd 0200     		.2byte	0x2
 15180 01cf 30       		.byte	0x30
 15181 01d0 9F       		.byte	0x9f
 15182 01d1 BA100000 		.4byte	.LVL451
 15183 01d5 C0110000 		.4byte	.LVL471
 15184 01d9 0200     		.2byte	0x2
 15185 01db 31       		.byte	0x31
 15186 01dc 9F       		.byte	0x9f
 15187 01dd C6110000 		.4byte	.LVL472
 15188 01e1 4C140000 		.4byte	.LVL534
 15189 01e5 0200     		.2byte	0x2
 15190 01e7 31       		.byte	0x31
 15191 01e8 9F       		.byte	0x9f
 15192 01e9 50140000 		.4byte	.LVL535
ARM GAS  C:\Users\ramanatg\AppData\Local\Temp\ccxbhSsV.s 			page 336


 15193 01ed 5A140000 		.4byte	.LVL536
 15194 01f1 0200     		.2byte	0x2
 15195 01f3 31       		.byte	0x31
 15196 01f4 9F       		.byte	0x9f
 15197 01f5 5E140000 		.4byte	.LVL537
 15198 01f9 68140000 		.4byte	.LVL538
 15199 01fd 0200     		.2byte	0x2
 15200 01ff 31       		.byte	0x31
 15201 0200 9F       		.byte	0x9f
 15202 0201 6C140000 		.4byte	.LVL539
 15203 0205 76140000 		.4byte	.LVL540
 15204 0209 0200     		.2byte	0x2
 15205 020b 31       		.byte	0x31
 15206 020c 9F       		.byte	0x9f
 15207 020d 7A140000 		.4byte	.LVL541
 15208 0211 501B0000 		.4byte	.LFE39
 15209 0215 0200     		.2byte	0x2
 15210 0217 31       		.byte	0x31
 15211 0218 9F       		.byte	0x9f
 15212 0219 00000000 		.4byte	0
 15213 021d 00000000 		.4byte	0
 15214              	.LLST7:
 15215 0221 80000000 		.4byte	.LVL41
 15216 0225 84000000 		.4byte	.LVL42
 15217 0229 0100     		.2byte	0x1
 15218 022b 50       		.byte	0x50
 15219 022c 00000000 		.4byte	0
 15220 0230 00000000 		.4byte	0
 15221              	.LLST8:
 15222 0234 12000000 		.4byte	.LVL28
 15223 0238 22000000 		.4byte	.LVL31
 15224 023c 0100     		.2byte	0x1
 15225 023e 55       		.byte	0x55
 15226 023f 00000000 		.4byte	0
 15227 0243 00000000 		.4byte	0
 15228              	.LLST9:
 15229 0247 12000000 		.4byte	.LVL28
 15230 024b 22000000 		.4byte	.LVL31
 15231 024f 0200     		.2byte	0x2
 15232 0251 30       		.byte	0x30
 15233 0252 9F       		.byte	0x9f
 15234 0253 22000000 		.4byte	.LVL31
 15235 0257 32000000 		.4byte	.LVL33
 15236 025b 0100     		.2byte	0x1
 15237 025d 55       		.byte	0x55
 15238 025e 38000000 		.4byte	.LVL34
 15239 0262 4E000000 		.4byte	.LVL36
 15240 0266 0100     		.2byte	0x1
 15241 0268 55       		.byte	0x55
 15242 0269 60000000 		.4byte	.LVL37
 15243 026d 8E000000 		.4byte	.LVL43
 15244 0271 0100     		.2byte	0x1
 15245 0273 55       		.byte	0x55
 15246 0274 A2000000 		.4byte	.LVL46
 15247 0278 AE000000 		.4byte	.LVL47
 15248 027c 0100     		.2byte	0x1
 15249 027e 55       		.byte	0x55
ARM GAS  C:\Users\ramanatg\AppData\Local\Temp\ccxbhSsV.s 			page 337


 15250 027f C2020000 		.4byte	.LVL95
 15251 0283 CA020000 		.4byte	.LVL97
 15252 0287 0100     		.2byte	0x1
 15253 0289 55       		.byte	0x55
 15254 028a 00000000 		.4byte	0
 15255 028e 00000000 		.4byte	0
 15256              	.LLST10:
 15257 0292 E6060000 		.4byte	.LVL200
 15258 0296 EE060000 		.4byte	.LVL201
 15259 029a 0200     		.2byte	0x2
 15260 029c 30       		.byte	0x30
 15261 029d 9F       		.byte	0x9f
 15262 029e EE060000 		.4byte	.LVL201
 15263 02a2 0E070000 		.4byte	.LVL203
 15264 02a6 0100     		.2byte	0x1
 15265 02a8 51       		.byte	0x51
 15266 02a9 2A070000 		.4byte	.LVL205
 15267 02ad 42070000 		.4byte	.LVL209
 15268 02b1 0200     		.2byte	0x2
 15269 02b3 30       		.byte	0x30
 15270 02b4 9F       		.byte	0x9f
 15271 02b5 42070000 		.4byte	.LVL209
 15272 02b9 60070000 		.4byte	.LVL213
 15273 02bd 0200     		.2byte	0x2
 15274 02bf 31       		.byte	0x31
 15275 02c0 9F       		.byte	0x9f
 15276 02c1 60070000 		.4byte	.LVL213
 15277 02c5 7E070000 		.4byte	.LVL217
 15278 02c9 0200     		.2byte	0x2
 15279 02cb 32       		.byte	0x32
 15280 02cc 9F       		.byte	0x9f
 15281 02cd 7E070000 		.4byte	.LVL217
 15282 02d1 9E070000 		.4byte	.LVL221
 15283 02d5 0200     		.2byte	0x2
 15284 02d7 33       		.byte	0x33
 15285 02d8 9F       		.byte	0x9f
 15286 02d9 18080000 		.4byte	.LVL226
 15287 02dd 5C080000 		.4byte	.LVL233
 15288 02e1 0100     		.2byte	0x1
 15289 02e3 58       		.byte	0x58
 15290 02e4 5C080000 		.4byte	.LVL233
 15291 02e8 60080000 		.4byte	.LVL235
 15292 02ec 0100     		.2byte	0x1
 15293 02ee 51       		.byte	0x51
 15294 02ef 7C080000 		.4byte	.LVL238
 15295 02f3 88080000 		.4byte	.LVL239
 15296 02f7 0200     		.2byte	0x2
 15297 02f9 31       		.byte	0x31
 15298 02fa 9F       		.byte	0x9f
 15299 02fb 88080000 		.4byte	.LVL239
 15300 02ff AA080000 		.4byte	.LVL244
 15301 0303 0100     		.2byte	0x1
 15302 0305 56       		.byte	0x56
 15303 0306 F80A0000 		.4byte	.LVL308
 15304 030a 080B0000 		.4byte	.LVL309
 15305 030e 0200     		.2byte	0x2
 15306 0310 30       		.byte	0x30
ARM GAS  C:\Users\ramanatg\AppData\Local\Temp\ccxbhSsV.s 			page 338


 15307 0311 9F       		.byte	0x9f
 15308 0312 080B0000 		.4byte	.LVL309
 15309 0316 280B0000 		.4byte	.LVL313
 15310 031a 0100     		.2byte	0x1
 15311 031c 56       		.byte	0x56
 15312 031d 2E0B0000 		.4byte	.LVL315
 15313 0321 320B0000 		.4byte	.LVL316
 15314 0325 0200     		.2byte	0x2
 15315 0327 32       		.byte	0x32
 15316 0328 9F       		.byte	0x9f
 15317 0329 320B0000 		.4byte	.LVL316
 15318 032d 360B0000 		.4byte	.LVL317
 15319 0331 0200     		.2byte	0x2
 15320 0333 31       		.byte	0x31
 15321 0334 9F       		.byte	0x9f
 15322 0335 360B0000 		.4byte	.LVL317
 15323 0339 3A0B0000 		.4byte	.LVL318
 15324 033d 0200     		.2byte	0x2
 15325 033f 30       		.byte	0x30
 15326 0340 9F       		.byte	0x9f
 15327 0341 00000000 		.4byte	0
 15328 0345 00000000 		.4byte	0
 15329              	.LLST11:
 15330 0349 F6020000 		.4byte	.LVL99
 15331 034d 18030000 		.4byte	.LVL100
 15332 0351 0200     		.2byte	0x2
 15333 0353 31       		.byte	0x31
 15334 0354 9F       		.byte	0x9f
 15335 0355 DA060000 		.4byte	.LVL198
 15336 0359 66080000 		.4byte	.LVL236
 15337 035d 0200     		.2byte	0x2
 15338 035f 31       		.byte	0x31
 15339 0360 9F       		.byte	0x9f
 15340 0361 86090000 		.4byte	.LVL268
 15341 0365 EA090000 		.4byte	.LVL278
 15342 0369 0200     		.2byte	0x2
 15343 036b 30       		.byte	0x30
 15344 036c 9F       		.byte	0x9f
 15345 036d EE090000 		.4byte	.LVL280
 15346 0371 460A0000 		.4byte	.LVL291
 15347 0375 0200     		.2byte	0x2
 15348 0377 30       		.byte	0x30
 15349 0378 9F       		.byte	0x9f
 15350 0379 460A0000 		.4byte	.LVL291
 15351 037d 540A0000 		.4byte	.LVL292
 15352 0381 0100     		.2byte	0x1
 15353 0383 55       		.byte	0x55
 15354 0384 BA0A0000 		.4byte	.LVL303
 15355 0388 080B0000 		.4byte	.LVL309
 15356 038c 0100     		.2byte	0x1
 15357 038e 55       		.byte	0x55
 15358 038f 280B0000 		.4byte	.LVL313
 15359 0393 3A0B0000 		.4byte	.LVL318
 15360 0397 0200     		.2byte	0x2
 15361 0399 31       		.byte	0x31
 15362 039a 9F       		.byte	0x9f
 15363 039b 00000000 		.4byte	0
ARM GAS  C:\Users\ramanatg\AppData\Local\Temp\ccxbhSsV.s 			page 339


 15364 039f 00000000 		.4byte	0
 15365              	.LLST12:
 15366 03a3 DE060000 		.4byte	.LVL199
 15367 03a7 15070000 		.4byte	.LVL204-1
 15368 03ab 0100     		.2byte	0x1
 15369 03ad 50       		.byte	0x50
 15370 03ae 15070000 		.4byte	.LVL204-1
 15371 03b2 A2070000 		.4byte	.LVL222
 15372 03b6 0300     		.2byte	0x3
 15373 03b8 7B       		.byte	0x7b
 15374 03b9 06       		.sleb128 6
 15375 03ba 9F       		.byte	0x9f
 15376 03bb 5C080000 		.4byte	.LVL233
 15377 03bf 60080000 		.4byte	.LVL235
 15378 03c3 0100     		.2byte	0x1
 15379 03c5 50       		.byte	0x50
 15380 03c6 86090000 		.4byte	.LVL268
 15381 03ca B2090000 		.4byte	.LVL270
 15382 03ce 0100     		.2byte	0x1
 15383 03d0 50       		.byte	0x50
 15384 03d1 B2090000 		.4byte	.LVL270
 15385 03d5 EA090000 		.4byte	.LVL278
 15386 03d9 0300     		.2byte	0x3
 15387 03db 7B       		.byte	0x7b
 15388 03dc 06       		.sleb128 6
 15389 03dd 9F       		.byte	0x9f
 15390 03de EE090000 		.4byte	.LVL280
 15391 03e2 460A0000 		.4byte	.LVL291
 15392 03e6 0300     		.2byte	0x3
 15393 03e8 7B       		.byte	0x7b
 15394 03e9 06       		.sleb128 6
 15395 03ea 9F       		.byte	0x9f
 15396 03eb 2E0B0000 		.4byte	.LVL315
 15397 03ef 3A0B0000 		.4byte	.LVL318
 15398 03f3 0300     		.2byte	0x3
 15399 03f5 7B       		.byte	0x7b
 15400 03f6 06       		.sleb128 6
 15401 03f7 9F       		.byte	0x9f
 15402 03f8 00000000 		.4byte	0
 15403 03fc 00000000 		.4byte	0
 15404              	.LLST13:
 15405 0400 E6060000 		.4byte	.LVL200
 15406 0404 EE060000 		.4byte	.LVL201
 15407 0408 0100     		.2byte	0x1
 15408 040a 50       		.byte	0x50
 15409 040b EE060000 		.4byte	.LVL201
 15410 040f 0E070000 		.4byte	.LVL203
 15411 0413 0100     		.2byte	0x1
 15412 0415 52       		.byte	0x52
 15413 0416 2A070000 		.4byte	.LVL205
 15414 041a 2D070000 		.4byte	.LVL206-1
 15415 041e 0100     		.2byte	0x1
 15416 0420 53       		.byte	0x53
 15417 0421 2D070000 		.4byte	.LVL206-1
 15418 0425 B4070000 		.4byte	.LVL223
 15419 0429 0100     		.2byte	0x1
 15420 042b 57       		.byte	0x57
ARM GAS  C:\Users\ramanatg\AppData\Local\Temp\ccxbhSsV.s 			page 340


 15421 042c B4070000 		.4byte	.LVL223
 15422 0430 E4070000 		.4byte	.LVL224
 15423 0434 0100     		.2byte	0x1
 15424 0436 53       		.byte	0x53
 15425 0437 E4070000 		.4byte	.LVL224
 15426 043b F0070000 		.4byte	.LVL225
 15427 043f 0300     		.2byte	0x3
 15428 0441 75       		.byte	0x75
 15429 0442 01       		.sleb128 1
 15430 0443 9F       		.byte	0x9f
 15431 0444 F0070000 		.4byte	.LVL225
 15432 0448 5C080000 		.4byte	.LVL233
 15433 044c 0100     		.2byte	0x1
 15434 044e 55       		.byte	0x55
 15435 044f 5C080000 		.4byte	.LVL233
 15436 0453 60080000 		.4byte	.LVL235
 15437 0457 0100     		.2byte	0x1
 15438 0459 52       		.byte	0x52
 15439 045a 86090000 		.4byte	.LVL268
 15440 045e A4090000 		.4byte	.LVL269
 15441 0462 0300     		.2byte	0x3
 15442 0464 70       		.byte	0x70
 15443 0465 01       		.sleb128 1
 15444 0466 9F       		.byte	0x9f
 15445 0467 A4090000 		.4byte	.LVL269
 15446 046b EA090000 		.4byte	.LVL278
 15447 046f 0100     		.2byte	0x1
 15448 0471 55       		.byte	0x55
 15449 0472 EE090000 		.4byte	.LVL280
 15450 0476 300A0000 		.4byte	.LVL286
 15451 047a 0100     		.2byte	0x1
 15452 047c 55       		.byte	0x55
 15453 047d 320A0000 		.4byte	.LVL287
 15454 0481 420A0000 		.4byte	.LVL289
 15455 0485 0100     		.2byte	0x1
 15456 0487 55       		.byte	0x55
 15457 0488 440A0000 		.4byte	.LVL290
 15458 048c 460A0000 		.4byte	.LVL291
 15459 0490 0100     		.2byte	0x1
 15460 0492 55       		.byte	0x55
 15461 0493 280B0000 		.4byte	.LVL313
 15462 0497 2C0B0000 		.4byte	.LVL314
 15463 049b 0100     		.2byte	0x1
 15464 049d 55       		.byte	0x55
 15465 049e 2E0B0000 		.4byte	.LVL315
 15466 04a2 3A0B0000 		.4byte	.LVL318
 15467 04a6 0100     		.2byte	0x1
 15468 04a8 57       		.byte	0x57
 15469 04a9 00000000 		.4byte	0
 15470 04ad 00000000 		.4byte	0
 15471              	.LLST14:
 15472 04b1 2E070000 		.4byte	.LVL206
 15473 04b5 30070000 		.4byte	.LVL207
 15474 04b9 0100     		.2byte	0x1
 15475 04bb 50       		.byte	0x50
 15476 04bc 4C070000 		.4byte	.LVL210
 15477 04c0 4E070000 		.4byte	.LVL211
ARM GAS  C:\Users\ramanatg\AppData\Local\Temp\ccxbhSsV.s 			page 341


 15478 04c4 0100     		.2byte	0x1
 15479 04c6 50       		.byte	0x50
 15480 04c7 6A070000 		.4byte	.LVL214
 15481 04cb 6C070000 		.4byte	.LVL215
 15482 04cf 0100     		.2byte	0x1
 15483 04d1 50       		.byte	0x50
 15484 04d2 88070000 		.4byte	.LVL218
 15485 04d6 8A070000 		.4byte	.LVL219
 15486 04da 0100     		.2byte	0x1
 15487 04dc 50       		.byte	0x50
 15488 04dd 34080000 		.4byte	.LVL229
 15489 04e1 36080000 		.4byte	.LVL230
 15490 04e5 0100     		.2byte	0x1
 15491 04e7 50       		.byte	0x50
 15492 04e8 00000000 		.4byte	0
 15493 04ec 00000000 		.4byte	0
 15494              	.LLST15:
 15495 04f0 B4090000 		.4byte	.LVL271
 15496 04f4 EA090000 		.4byte	.LVL278
 15497 04f8 0300     		.2byte	0x3
 15498 04fa 75       		.byte	0x75
 15499 04fb 01       		.sleb128 1
 15500 04fc 9F       		.byte	0x9f
 15501 04fd EE090000 		.4byte	.LVL280
 15502 0501 220A0000 		.4byte	.LVL285
 15503 0505 0300     		.2byte	0x3
 15504 0507 75       		.byte	0x75
 15505 0508 01       		.sleb128 1
 15506 0509 9F       		.byte	0x9f
 15507 050a 220A0000 		.4byte	.LVL285
 15508 050e 300A0000 		.4byte	.LVL286
 15509 0512 0300     		.2byte	0x3
 15510 0514 75       		.byte	0x75
 15511 0515 7F       		.sleb128 -1
 15512 0516 9F       		.byte	0x9f
 15513 0517 320A0000 		.4byte	.LVL287
 15514 051b 420A0000 		.4byte	.LVL289
 15515 051f 0300     		.2byte	0x3
 15516 0521 75       		.byte	0x75
 15517 0522 01       		.sleb128 1
 15518 0523 9F       		.byte	0x9f
 15519 0524 00000000 		.4byte	0
 15520 0528 00000000 		.4byte	0
 15521              	.LLST16:
 15522 052c B4090000 		.4byte	.LVL271
 15523 0530 D0090000 		.4byte	.LVL273
 15524 0534 0100     		.2byte	0x1
 15525 0536 53       		.byte	0x53
 15526 0537 EE090000 		.4byte	.LVL280
 15527 053b F0090000 		.4byte	.LVL281
 15528 053f 0100     		.2byte	0x1
 15529 0541 53       		.byte	0x53
 15530 0542 320A0000 		.4byte	.LVL287
 15531 0546 340A0000 		.4byte	.LVL288
 15532 054a 0100     		.2byte	0x1
 15533 054c 53       		.byte	0x53
 15534 054d 00000000 		.4byte	0
ARM GAS  C:\Users\ramanatg\AppData\Local\Temp\ccxbhSsV.s 			page 342


 15535 0551 00000000 		.4byte	0
 15536              	.LLST17:
 15537 0555 C6090000 		.4byte	.LVL272
 15538 0559 D0090000 		.4byte	.LVL273
 15539 055d 0100     		.2byte	0x1
 15540 055f 53       		.byte	0x53
 15541 0560 EE090000 		.4byte	.LVL280
 15542 0564 F0090000 		.4byte	.LVL281
 15543 0568 0100     		.2byte	0x1
 15544 056a 53       		.byte	0x53
 15545 056b 00000000 		.4byte	0
 15546 056f 00000000 		.4byte	0
 15547              	.LLST18:
 15548 0573 D2090000 		.4byte	.LVL274
 15549 0577 D4090000 		.4byte	.LVL275
 15550 057b 0100     		.2byte	0x1
 15551 057d 53       		.byte	0x53
 15552 057e D4090000 		.4byte	.LVL275
 15553 0582 DA090000 		.4byte	.LVL276
 15554 0586 0100     		.2byte	0x1
 15555 0588 58       		.byte	0x58
 15556 0589 F6090000 		.4byte	.LVL282
 15557 058d F8090000 		.4byte	.LVL283
 15558 0591 0100     		.2byte	0x1
 15559 0593 53       		.byte	0x53
 15560 0594 F8090000 		.4byte	.LVL283
 15561 0598 FE090000 		.4byte	.LVL284
 15562 059c 0100     		.2byte	0x1
 15563 059e 58       		.byte	0x58
 15564 059f 00000000 		.4byte	0
 15565 05a3 00000000 		.4byte	0
 15566              	.LLST19:
 15567 05a7 E2090000 		.4byte	.LVL277
 15568 05ab EA090000 		.4byte	.LVL278
 15569 05af 0100     		.2byte	0x1
 15570 05b1 58       		.byte	0x58
 15571 05b2 00000000 		.4byte	0
 15572 05b6 00000000 		.4byte	0
 15573              	.LLST20:
 15574 05ba D8080000 		.4byte	.LVL250
 15575 05be E0080000 		.4byte	.LVL252
 15576 05c2 0200     		.2byte	0x2
 15577 05c4 30       		.byte	0x30
 15578 05c5 9F       		.byte	0x9f
 15579 05c6 E0080000 		.4byte	.LVL252
 15580 05ca FC080000 		.4byte	.LVL254
 15581 05ce 0300     		.2byte	0x3
 15582 05d0 78       		.byte	0x78
 15583 05d1 7F       		.sleb128 -1
 15584 05d2 9F       		.byte	0x9f
 15585 05d3 FC080000 		.4byte	.LVL254
 15586 05d7 02090000 		.4byte	.LVL255
 15587 05db 0100     		.2byte	0x1
 15588 05dd 58       		.byte	0x58
 15589 05de 10090000 		.4byte	.LVL256
 15590 05e2 16090000 		.4byte	.LVL257
 15591 05e6 0300     		.2byte	0x3
ARM GAS  C:\Users\ramanatg\AppData\Local\Temp\ccxbhSsV.s 			page 343


 15592 05e8 78       		.byte	0x78
 15593 05e9 7F       		.sleb128 -1
 15594 05ea 9F       		.byte	0x9f
 15595 05eb 2C090000 		.4byte	.LVL260
 15596 05ef 44090000 		.4byte	.LVL261
 15597 05f3 0200     		.2byte	0x2
 15598 05f5 30       		.byte	0x30
 15599 05f6 9F       		.byte	0x9f
 15600 05f7 44090000 		.4byte	.LVL261
 15601 05fb 66090000 		.4byte	.LVL262
 15602 05ff 0100     		.2byte	0x1
 15603 0601 57       		.byte	0x57
 15604 0602 B00B0000 		.4byte	.LVL337
 15605 0606 380C0000 		.4byte	.LVL358
 15606 060a 0100     		.2byte	0x1
 15607 060c 58       		.byte	0x58
 15608 060d 4C0E0000 		.4byte	.LVL396
 15609 0611 5A0E0000 		.4byte	.LVL399
 15610 0615 0100     		.2byte	0x1
 15611 0617 57       		.byte	0x57
 15612 0618 00000000 		.4byte	0
 15613 061c 00000000 		.4byte	0
 15614              	.LLST21:
 15615 0620 D8080000 		.4byte	.LVL250
 15616 0624 E0080000 		.4byte	.LVL252
 15617 0628 0200     		.2byte	0x2
 15618 062a 30       		.byte	0x30
 15619 062b 9F       		.byte	0x9f
 15620 062c E0080000 		.4byte	.LVL252
 15621 0630 FA080000 		.4byte	.LVL253
 15622 0634 0100     		.2byte	0x1
 15623 0636 53       		.byte	0x53
 15624 0637 FC080000 		.4byte	.LVL254
 15625 063b 02090000 		.4byte	.LVL255
 15626 063f 0100     		.2byte	0x1
 15627 0641 50       		.byte	0x50
 15628 0642 10090000 		.4byte	.LVL256
 15629 0646 22090000 		.4byte	.LVL258
 15630 064a 0100     		.2byte	0x1
 15631 064c 53       		.byte	0x53
 15632 064d 2C090000 		.4byte	.LVL260
 15633 0651 44090000 		.4byte	.LVL261
 15634 0655 0200     		.2byte	0x2
 15635 0657 30       		.byte	0x30
 15636 0658 9F       		.byte	0x9f
 15637 0659 44090000 		.4byte	.LVL261
 15638 065d 72090000 		.4byte	.LVL264
 15639 0661 0100     		.2byte	0x1
 15640 0663 56       		.byte	0x56
 15641 0664 B00B0000 		.4byte	.LVL337
 15642 0668 B60B0000 		.4byte	.LVL338
 15643 066c 0100     		.2byte	0x1
 15644 066e 50       		.byte	0x50
 15645 066f 4C0E0000 		.4byte	.LVL396
 15646 0673 540E0000 		.4byte	.LVL397
 15647 0677 0100     		.2byte	0x1
 15648 0679 56       		.byte	0x56
ARM GAS  C:\Users\ramanatg\AppData\Local\Temp\ccxbhSsV.s 			page 344


 15649 067a 580E0000 		.4byte	.LVL398
 15650 067e 5A0E0000 		.4byte	.LVL399
 15651 0682 0100     		.2byte	0x1
 15652 0684 56       		.byte	0x56
 15653 0685 00000000 		.4byte	0
 15654 0689 00000000 		.4byte	0
 15655              	.LLST22:
 15656 068d 2A030000 		.4byte	.LVL102
 15657 0691 44030000 		.4byte	.LVL104
 15658 0695 0200     		.2byte	0x2
 15659 0697 30       		.byte	0x30
 15660 0698 9F       		.byte	0x9f
 15661 0699 D2080000 		.4byte	.LVL249
 15662 069d D8080000 		.4byte	.LVL250
 15663 06a1 0200     		.2byte	0x2
 15664 06a3 30       		.byte	0x30
 15665 06a4 9F       		.byte	0x9f
 15666 06a5 D8080000 		.4byte	.LVL250
 15667 06a9 DA080000 		.4byte	.LVL251
 15668 06ad 0300     		.2byte	0x3
 15669 06af 75       		.byte	0x75
 15670 06b0 05       		.sleb128 5
 15671 06b1 9F       		.byte	0x9f
 15672 06b2 DA080000 		.4byte	.LVL251
 15673 06b6 E0080000 		.4byte	.LVL252
 15674 06ba 0100     		.2byte	0x1
 15675 06bc 51       		.byte	0x51
 15676 06bd E0080000 		.4byte	.LVL252
 15677 06c1 22090000 		.4byte	.LVL258
 15678 06c5 0300     		.2byte	0x3
 15679 06c7 75       		.byte	0x75
 15680 06c8 05       		.sleb128 5
 15681 06c9 9F       		.byte	0x9f
 15682 06ca 22090000 		.4byte	.LVL258
 15683 06ce 2C090000 		.4byte	.LVL260
 15684 06d2 0200     		.2byte	0x2
 15685 06d4 30       		.byte	0x30
 15686 06d5 9F       		.byte	0x9f
 15687 06d6 B00B0000 		.4byte	.LVL337
 15688 06da 380C0000 		.4byte	.LVL358
 15689 06de 0300     		.2byte	0x3
 15690 06e0 75       		.byte	0x75
 15691 06e1 05       		.sleb128 5
 15692 06e2 9F       		.byte	0x9f
 15693 06e3 00000000 		.4byte	0
 15694 06e7 00000000 		.4byte	0
 15695              	.LLST23:
 15696 06eb B60B0000 		.4byte	.LVL338
 15697 06ef 380C0000 		.4byte	.LVL358
 15698 06f3 0100     		.2byte	0x1
 15699 06f5 56       		.byte	0x56
 15700 06f6 00000000 		.4byte	0
 15701 06fa 00000000 		.4byte	0
 15702              	.LLST24:
 15703 06fe B60B0000 		.4byte	.LVL338
 15704 0702 380C0000 		.4byte	.LVL358
 15705 0706 0100     		.2byte	0x1
ARM GAS  C:\Users\ramanatg\AppData\Local\Temp\ccxbhSsV.s 			page 345


 15706 0708 57       		.byte	0x57
 15707 0709 00000000 		.4byte	0
 15708 070d 00000000 		.4byte	0
 15709              	.LLST25:
 15710 0711 B60B0000 		.4byte	.LVL338
 15711 0715 080C0000 		.4byte	.LVL348
 15712 0719 0300     		.2byte	0x3
 15713 071b 76       		.byte	0x76
 15714 071c 01       		.sleb128 1
 15715 071d 9F       		.byte	0x9f
 15716 071e 080C0000 		.4byte	.LVL348
 15717 0722 1A0C0000 		.4byte	.LVL351
 15718 0726 0300     		.2byte	0x3
 15719 0728 76       		.byte	0x76
 15720 0729 7F       		.sleb128 -1
 15721 072a 9F       		.byte	0x9f
 15722 072b 1A0C0000 		.4byte	.LVL351
 15723 072f 380C0000 		.4byte	.LVL358
 15724 0733 0300     		.2byte	0x3
 15725 0735 76       		.byte	0x76
 15726 0736 01       		.sleb128 1
 15727 0737 9F       		.byte	0x9f
 15728 0738 00000000 		.4byte	0
 15729 073c 00000000 		.4byte	0
 15730              	.LLST26:
 15731 0740 B80B0000 		.4byte	.LVL339
 15732 0744 D40B0000 		.4byte	.LVL341
 15733 0748 0100     		.2byte	0x1
 15734 074a 53       		.byte	0x53
 15735 074b D40B0000 		.4byte	.LVL341
 15736 074f D60B0000 		.4byte	.LVL342
 15737 0753 0400     		.2byte	0x4
 15738 0755 72       		.byte	0x72
 15739 0756 E100     		.sleb128 97
 15740 0758 9F       		.byte	0x9f
 15741 0759 D60B0000 		.4byte	.LVL342
 15742 075d 080C0000 		.4byte	.LVL348
 15743 0761 0200     		.2byte	0x2
 15744 0763 76       		.byte	0x76
 15745 0764 00       		.sleb128 0
 15746 0765 080C0000 		.4byte	.LVL348
 15747 0769 110C0000 		.4byte	.LVL349-1
 15748 076d 0200     		.2byte	0x2
 15749 076f 76       		.byte	0x76
 15750 0770 7E       		.sleb128 -2
 15751 0771 1A0C0000 		.4byte	.LVL351
 15752 0775 1C0C0000 		.4byte	.LVL352
 15753 0779 0100     		.2byte	0x1
 15754 077b 53       		.byte	0x53
 15755 077c 1C0C0000 		.4byte	.LVL352
 15756 0780 1E0C0000 		.4byte	.LVL353
 15757 0784 0400     		.2byte	0x4
 15758 0786 73       		.byte	0x73
 15759 0787 D700     		.sleb128 87
 15760 0789 9F       		.byte	0x9f
 15761 078a 1E0C0000 		.4byte	.LVL353
 15762 078e 320C0000 		.4byte	.LVL356
ARM GAS  C:\Users\ramanatg\AppData\Local\Temp\ccxbhSsV.s 			page 346


 15763 0792 0200     		.2byte	0x2
 15764 0794 76       		.byte	0x76
 15765 0795 00       		.sleb128 0
 15766 0796 320C0000 		.4byte	.LVL356
 15767 079a 340C0000 		.4byte	.LVL357
 15768 079e 0100     		.2byte	0x1
 15769 07a0 53       		.byte	0x53
 15770 07a1 340C0000 		.4byte	.LVL357
 15771 07a5 380C0000 		.4byte	.LVL358
 15772 07a9 0300     		.2byte	0x3
 15773 07ab 73       		.byte	0x73
 15774 07ac 37       		.sleb128 55
 15775 07ad 9F       		.byte	0x9f
 15776 07ae 00000000 		.4byte	0
 15777 07b2 00000000 		.4byte	0
 15778              	.LLST27:
 15779 07b6 CA0B0000 		.4byte	.LVL340
 15780 07ba D40B0000 		.4byte	.LVL341
 15781 07be 0100     		.2byte	0x1
 15782 07c0 53       		.byte	0x53
 15783 07c1 D40B0000 		.4byte	.LVL341
 15784 07c5 D60B0000 		.4byte	.LVL342
 15785 07c9 0400     		.2byte	0x4
 15786 07cb 72       		.byte	0x72
 15787 07cc E100     		.sleb128 97
 15788 07ce 9F       		.byte	0x9f
 15789 07cf D60B0000 		.4byte	.LVL342
 15790 07d3 E00B0000 		.4byte	.LVL343
 15791 07d7 0200     		.2byte	0x2
 15792 07d9 76       		.byte	0x76
 15793 07da 00       		.sleb128 0
 15794 07db 1A0C0000 		.4byte	.LVL351
 15795 07df 1C0C0000 		.4byte	.LVL352
 15796 07e3 0100     		.2byte	0x1
 15797 07e5 53       		.byte	0x53
 15798 07e6 1C0C0000 		.4byte	.LVL352
 15799 07ea 1E0C0000 		.4byte	.LVL353
 15800 07ee 0400     		.2byte	0x4
 15801 07f0 73       		.byte	0x73
 15802 07f1 D700     		.sleb128 87
 15803 07f3 9F       		.byte	0x9f
 15804 07f4 00000000 		.4byte	0
 15805 07f8 00000000 		.4byte	0
 15806              	.LLST28:
 15807 07fc D40B0000 		.4byte	.LVL341
 15808 0800 F40B0000 		.4byte	.LVL345
 15809 0804 0100     		.2byte	0x1
 15810 0806 53       		.byte	0x53
 15811 0807 F40B0000 		.4byte	.LVL345
 15812 080b F60B0000 		.4byte	.LVL346
 15813 080f 0400     		.2byte	0x4
 15814 0811 73       		.byte	0x73
 15815 0812 D700     		.sleb128 87
 15816 0814 9F       		.byte	0x9f
 15817 0815 200C0000 		.4byte	.LVL354
 15818 0819 2E0C0000 		.4byte	.LVL355
 15819 081d 0100     		.2byte	0x1
ARM GAS  C:\Users\ramanatg\AppData\Local\Temp\ccxbhSsV.s 			page 347


 15820 081f 53       		.byte	0x53
 15821 0820 00000000 		.4byte	0
 15822 0824 00000000 		.4byte	0
 15823              	.LLST29:
 15824 0828 E80B0000 		.4byte	.LVL344
 15825 082c F40B0000 		.4byte	.LVL345
 15826 0830 0100     		.2byte	0x1
 15827 0832 53       		.byte	0x53
 15828 0833 F40B0000 		.4byte	.LVL345
 15829 0837 F60B0000 		.4byte	.LVL346
 15830 083b 0400     		.2byte	0x4
 15831 083d 73       		.byte	0x73
 15832 083e D700     		.sleb128 87
 15833 0840 9F       		.byte	0x9f
 15834 0841 00000000 		.4byte	0
 15835 0845 00000000 		.4byte	0
 15836              	.LLST30:
 15837 0849 6A040000 		.4byte	.LVL129
 15838 084d 78040000 		.4byte	.LVL130
 15839 0851 0200     		.2byte	0x2
 15840 0853 30       		.byte	0x30
 15841 0854 9F       		.byte	0x9f
 15842 0855 78040000 		.4byte	.LVL130
 15843 0859 80040000 		.4byte	.LVL131
 15844 085d 0700     		.2byte	0x7
 15845 085f 76       		.byte	0x76
 15846 0860 E09A8080 		.sleb128 -268432032
 15846      7F
 15847 0865 9F       		.byte	0x9f
 15848 0866 80040000 		.4byte	.LVL131
 15849 086a 84040000 		.4byte	.LVL132
 15850 086e 0700     		.2byte	0x7
 15851 0870 76       		.byte	0x76
 15852 0871 DF9A8080 		.sleb128 -268432033
 15852      7F
 15853 0876 9F       		.byte	0x9f
 15854 0877 00000000 		.4byte	0
 15855 087b 00000000 		.4byte	0
 15856              	.LLST31:
 15857 087f EA030000 		.4byte	.LVL109
 15858 0883 F6030000 		.4byte	.LVL110
 15859 0887 0300     		.2byte	0x3
 15860 0889 75       		.byte	0x75
 15861 088a 06       		.sleb128 6
 15862 088b 9F       		.byte	0x9f
 15863 088c F6030000 		.4byte	.LVL110
 15864 0890 F8030000 		.4byte	.LVL111
 15865 0894 0100     		.2byte	0x1
 15866 0896 56       		.byte	0x56
 15867 0897 F8030000 		.4byte	.LVL111
 15868 089b 36040000 		.4byte	.LVL118
 15869 089f 0300     		.2byte	0x3
 15870 08a1 75       		.byte	0x75
 15871 08a2 06       		.sleb128 6
 15872 08a3 9F       		.byte	0x9f
 15873 08a4 3C040000 		.4byte	.LVL119
 15874 08a8 6A040000 		.4byte	.LVL129
ARM GAS  C:\Users\ramanatg\AppData\Local\Temp\ccxbhSsV.s 			page 348


 15875 08ac 0300     		.2byte	0x3
 15876 08ae 75       		.byte	0x75
 15877 08af 06       		.sleb128 6
 15878 08b0 9F       		.byte	0x9f
 15879 08b1 560B0000 		.4byte	.LVL326
 15880 08b5 6E0B0000 		.4byte	.LVL333
 15881 08b9 0300     		.2byte	0x3
 15882 08bb 75       		.byte	0x75
 15883 08bc 06       		.sleb128 6
 15884 08bd 9F       		.byte	0x9f
 15885 08be 00000000 		.4byte	0
 15886 08c2 00000000 		.4byte	0
 15887              	.LLST32:
 15888 08c6 DE030000 		.4byte	.LVL108
 15889 08ca F8030000 		.4byte	.LVL111
 15890 08ce 0100     		.2byte	0x1
 15891 08d0 50       		.byte	0x50
 15892 08d1 9E040000 		.4byte	.LVL135
 15893 08d5 A0040000 		.4byte	.LVL136
 15894 08d9 0100     		.2byte	0x1
 15895 08db 50       		.byte	0x50
 15896 08dc 00000000 		.4byte	0
 15897 08e0 00000000 		.4byte	0
 15898              	.LLST33:
 15899 08e4 F6030000 		.4byte	.LVL110
 15900 08e8 36040000 		.4byte	.LVL118
 15901 08ec 0200     		.2byte	0x2
 15902 08ee 3A       		.byte	0x3a
 15903 08ef 9F       		.byte	0x9f
 15904 08f0 3C040000 		.4byte	.LVL119
 15905 08f4 6A040000 		.4byte	.LVL129
 15906 08f8 0200     		.2byte	0x2
 15907 08fa 3A       		.byte	0x3a
 15908 08fb 9F       		.byte	0x9f
 15909 08fc 560B0000 		.4byte	.LVL326
 15910 0900 6E0B0000 		.4byte	.LVL333
 15911 0904 0200     		.2byte	0x2
 15912 0906 3A       		.byte	0x3a
 15913 0907 9F       		.byte	0x9f
 15914 0908 00000000 		.4byte	0
 15915 090c 00000000 		.4byte	0
 15916              	.LLST34:
 15917 0910 F6030000 		.4byte	.LVL110
 15918 0914 F8030000 		.4byte	.LVL111
 15919 0918 0100     		.2byte	0x1
 15920 091a 56       		.byte	0x56
 15921 091b F8030000 		.4byte	.LVL111
 15922 091f 36040000 		.4byte	.LVL118
 15923 0923 0300     		.2byte	0x3
 15924 0925 75       		.byte	0x75
 15925 0926 06       		.sleb128 6
 15926 0927 9F       		.byte	0x9f
 15927 0928 3C040000 		.4byte	.LVL119
 15928 092c 6A040000 		.4byte	.LVL129
 15929 0930 0300     		.2byte	0x3
 15930 0932 75       		.byte	0x75
 15931 0933 06       		.sleb128 6
ARM GAS  C:\Users\ramanatg\AppData\Local\Temp\ccxbhSsV.s 			page 349


 15932 0934 9F       		.byte	0x9f
 15933 0935 560B0000 		.4byte	.LVL326
 15934 0939 6E0B0000 		.4byte	.LVL333
 15935 093d 0300     		.2byte	0x3
 15936 093f 75       		.byte	0x75
 15937 0940 06       		.sleb128 6
 15938 0941 9F       		.byte	0x9f
 15939 0942 00000000 		.4byte	0
 15940 0946 00000000 		.4byte	0
 15941              	.LLST35:
 15942 094a F6030000 		.4byte	.LVL110
 15943 094e 36040000 		.4byte	.LVL118
 15944 0952 0400     		.2byte	0x4
 15945 0954 91       		.byte	0x91
 15946 0955 C47E     		.sleb128 -188
 15947 0957 9F       		.byte	0x9f
 15948 0958 3C040000 		.4byte	.LVL119
 15949 095c 50040000 		.4byte	.LVL124
 15950 0960 0400     		.2byte	0x4
 15951 0962 91       		.byte	0x91
 15952 0963 C47E     		.sleb128 -188
 15953 0965 9F       		.byte	0x9f
 15954 0966 50040000 		.4byte	.LVL124
 15955 096a 63040000 		.4byte	.LVL128-1
 15956 096e 0100     		.2byte	0x1
 15957 0970 53       		.byte	0x53
 15958 0971 63040000 		.4byte	.LVL128-1
 15959 0975 6A040000 		.4byte	.LVL129
 15960 0979 0400     		.2byte	0x4
 15961 097b 91       		.byte	0x91
 15962 097c C47E     		.sleb128 -188
 15963 097e 9F       		.byte	0x9f
 15964 097f 560B0000 		.4byte	.LVL326
 15965 0983 6E0B0000 		.4byte	.LVL333
 15966 0987 0400     		.2byte	0x4
 15967 0989 91       		.byte	0x91
 15968 098a C47E     		.sleb128 -188
 15969 098c 9F       		.byte	0x9f
 15970 098d 00000000 		.4byte	0
 15971 0991 00000000 		.4byte	0
 15972              	.LLST36:
 15973 0995 F8030000 		.4byte	.LVL111
 15974 0999 36040000 		.4byte	.LVL118
 15975 099d 0100     		.2byte	0x1
 15976 099f 56       		.byte	0x56
 15977 09a0 3C040000 		.4byte	.LVL119
 15978 09a4 54040000 		.4byte	.LVL125
 15979 09a8 0100     		.2byte	0x1
 15980 09aa 56       		.byte	0x56
 15981 09ab 54040000 		.4byte	.LVL125
 15982 09af 58040000 		.4byte	.LVL127
 15983 09b3 0300     		.2byte	0x3
 15984 09b5 76       		.byte	0x76
 15985 09b6 7E       		.sleb128 -2
 15986 09b7 9F       		.byte	0x9f
 15987 09b8 58040000 		.4byte	.LVL127
 15988 09bc 6A040000 		.4byte	.LVL129
ARM GAS  C:\Users\ramanatg\AppData\Local\Temp\ccxbhSsV.s 			page 350


 15989 09c0 0100     		.2byte	0x1
 15990 09c2 56       		.byte	0x56
 15991 09c3 560B0000 		.4byte	.LVL326
 15992 09c7 6E0B0000 		.4byte	.LVL333
 15993 09cb 0100     		.2byte	0x1
 15994 09cd 56       		.byte	0x56
 15995 09ce 00000000 		.4byte	0
 15996 09d2 00000000 		.4byte	0
 15997              	.LLST37:
 15998 09d6 F8030000 		.4byte	.LVL111
 15999 09da 36040000 		.4byte	.LVL118
 16000 09de 0100     		.2byte	0x1
 16001 09e0 57       		.byte	0x57
 16002 09e1 3C040000 		.4byte	.LVL119
 16003 09e5 6A040000 		.4byte	.LVL129
 16004 09e9 0100     		.2byte	0x1
 16005 09eb 57       		.byte	0x57
 16006 09ec 560B0000 		.4byte	.LVL326
 16007 09f0 6E0B0000 		.4byte	.LVL333
 16008 09f4 0100     		.2byte	0x1
 16009 09f6 57       		.byte	0x57
 16010 09f7 00000000 		.4byte	0
 16011 09fb 00000000 		.4byte	0
 16012              	.LLST38:
 16013 09ff F8030000 		.4byte	.LVL111
 16014 0a03 36040000 		.4byte	.LVL118
 16015 0a07 0300     		.2byte	0x3
 16016 0a09 76       		.byte	0x76
 16017 0a0a 01       		.sleb128 1
 16018 0a0b 9F       		.byte	0x9f
 16019 0a0c 3C040000 		.4byte	.LVL119
 16020 0a10 54040000 		.4byte	.LVL125
 16021 0a14 0300     		.2byte	0x3
 16022 0a16 76       		.byte	0x76
 16023 0a17 01       		.sleb128 1
 16024 0a18 9F       		.byte	0x9f
 16025 0a19 54040000 		.4byte	.LVL125
 16026 0a1d 6A040000 		.4byte	.LVL129
 16027 0a21 0300     		.2byte	0x3
 16028 0a23 76       		.byte	0x76
 16029 0a24 7F       		.sleb128 -1
 16030 0a25 9F       		.byte	0x9f
 16031 0a26 560B0000 		.4byte	.LVL326
 16032 0a2a 6E0B0000 		.4byte	.LVL333
 16033 0a2e 0300     		.2byte	0x3
 16034 0a30 76       		.byte	0x76
 16035 0a31 01       		.sleb128 1
 16036 0a32 9F       		.byte	0x9f
 16037 0a33 00000000 		.4byte	0
 16038 0a37 00000000 		.4byte	0
 16039              	.LLST39:
 16040 0a3b FA030000 		.4byte	.LVL112
 16041 0a3f 18040000 		.4byte	.LVL114
 16042 0a43 0100     		.2byte	0x1
 16043 0a45 53       		.byte	0x53
 16044 0a46 18040000 		.4byte	.LVL114
 16045 0a4a 1A040000 		.4byte	.LVL115
ARM GAS  C:\Users\ramanatg\AppData\Local\Temp\ccxbhSsV.s 			page 351


 16046 0a4e 0400     		.2byte	0x4
 16047 0a50 72       		.byte	0x72
 16048 0a51 E100     		.sleb128 97
 16049 0a53 9F       		.byte	0x9f
 16050 0a54 1A040000 		.4byte	.LVL115
 16051 0a58 36040000 		.4byte	.LVL118
 16052 0a5c 0200     		.2byte	0x2
 16053 0a5e 76       		.byte	0x76
 16054 0a5f 00       		.sleb128 0
 16055 0a60 3C040000 		.4byte	.LVL119
 16056 0a64 3E040000 		.4byte	.LVL120
 16057 0a68 0100     		.2byte	0x1
 16058 0a6a 53       		.byte	0x53
 16059 0a6b 3E040000 		.4byte	.LVL120
 16060 0a6f 40040000 		.4byte	.LVL121
 16061 0a73 0400     		.2byte	0x4
 16062 0a75 73       		.byte	0x73
 16063 0a76 D700     		.sleb128 87
 16064 0a78 9F       		.byte	0x9f
 16065 0a79 40040000 		.4byte	.LVL121
 16066 0a7d 54040000 		.4byte	.LVL125
 16067 0a81 0200     		.2byte	0x2
 16068 0a83 76       		.byte	0x76
 16069 0a84 00       		.sleb128 0
 16070 0a85 54040000 		.4byte	.LVL125
 16071 0a89 56040000 		.4byte	.LVL126
 16072 0a8d 0200     		.2byte	0x2
 16073 0a8f 76       		.byte	0x76
 16074 0a90 7E       		.sleb128 -2
 16075 0a91 560B0000 		.4byte	.LVL326
 16076 0a95 580B0000 		.4byte	.LVL327
 16077 0a99 0100     		.2byte	0x1
 16078 0a9b 53       		.byte	0x53
 16079 0a9c 580B0000 		.4byte	.LVL327
 16080 0aa0 5C0B0000 		.4byte	.LVL328
 16081 0aa4 0300     		.2byte	0x3
 16082 0aa6 73       		.byte	0x73
 16083 0aa7 37       		.sleb128 55
 16084 0aa8 9F       		.byte	0x9f
 16085 0aa9 5C0B0000 		.4byte	.LVL328
 16086 0aad 6E0B0000 		.4byte	.LVL333
 16087 0ab1 0200     		.2byte	0x2
 16088 0ab3 76       		.byte	0x76
 16089 0ab4 00       		.sleb128 0
 16090 0ab5 00000000 		.4byte	0
 16091 0ab9 00000000 		.4byte	0
 16092              	.LLST40:
 16093 0abd 0E040000 		.4byte	.LVL113
 16094 0ac1 18040000 		.4byte	.LVL114
 16095 0ac5 0100     		.2byte	0x1
 16096 0ac7 53       		.byte	0x53
 16097 0ac8 18040000 		.4byte	.LVL114
 16098 0acc 1A040000 		.4byte	.LVL115
 16099 0ad0 0400     		.2byte	0x4
 16100 0ad2 72       		.byte	0x72
 16101 0ad3 E100     		.sleb128 97
 16102 0ad5 9F       		.byte	0x9f
ARM GAS  C:\Users\ramanatg\AppData\Local\Temp\ccxbhSsV.s 			page 352


 16103 0ad6 1A040000 		.4byte	.LVL115
 16104 0ada 22040000 		.4byte	.LVL116
 16105 0ade 0200     		.2byte	0x2
 16106 0ae0 76       		.byte	0x76
 16107 0ae1 00       		.sleb128 0
 16108 0ae2 3C040000 		.4byte	.LVL119
 16109 0ae6 3E040000 		.4byte	.LVL120
 16110 0aea 0100     		.2byte	0x1
 16111 0aec 53       		.byte	0x53
 16112 0aed 3E040000 		.4byte	.LVL120
 16113 0af1 40040000 		.4byte	.LVL121
 16114 0af5 0400     		.2byte	0x4
 16115 0af7 73       		.byte	0x73
 16116 0af8 D700     		.sleb128 87
 16117 0afa 9F       		.byte	0x9f
 16118 0afb 00000000 		.4byte	0
 16119 0aff 00000000 		.4byte	0
 16120              	.LLST41:
 16121 0b03 18040000 		.4byte	.LVL114
 16122 0b07 36040000 		.4byte	.LVL118
 16123 0b0b 0100     		.2byte	0x1
 16124 0b0d 53       		.byte	0x53
 16125 0b0e 42040000 		.4byte	.LVL122
 16126 0b12 4C040000 		.4byte	.LVL123
 16127 0b16 0100     		.2byte	0x1
 16128 0b18 53       		.byte	0x53
 16129 0b19 5C0B0000 		.4byte	.LVL328
 16130 0b1d 5E0B0000 		.4byte	.LVL329
 16131 0b21 0100     		.2byte	0x1
 16132 0b23 53       		.byte	0x53
 16133 0b24 5E0B0000 		.4byte	.LVL329
 16134 0b28 600B0000 		.4byte	.LVL330
 16135 0b2c 0400     		.2byte	0x4
 16136 0b2e 73       		.byte	0x73
 16137 0b2f D700     		.sleb128 87
 16138 0b31 9F       		.byte	0x9f
 16139 0b32 680B0000 		.4byte	.LVL331
 16140 0b36 6A0B0000 		.4byte	.LVL332
 16141 0b3a 0100     		.2byte	0x1
 16142 0b3c 53       		.byte	0x53
 16143 0b3d 00000000 		.4byte	0
 16144 0b41 00000000 		.4byte	0
 16145              	.LLST42:
 16146 0b45 2C040000 		.4byte	.LVL117
 16147 0b49 36040000 		.4byte	.LVL118
 16148 0b4d 0100     		.2byte	0x1
 16149 0b4f 53       		.byte	0x53
 16150 0b50 5C0B0000 		.4byte	.LVL328
 16151 0b54 5E0B0000 		.4byte	.LVL329
 16152 0b58 0100     		.2byte	0x1
 16153 0b5a 53       		.byte	0x53
 16154 0b5b 5E0B0000 		.4byte	.LVL329
 16155 0b5f 600B0000 		.4byte	.LVL330
 16156 0b63 0400     		.2byte	0x4
 16157 0b65 73       		.byte	0x73
 16158 0b66 D700     		.sleb128 87
 16159 0b68 9F       		.byte	0x9f
ARM GAS  C:\Users\ramanatg\AppData\Local\Temp\ccxbhSsV.s 			page 353


 16160 0b69 00000000 		.4byte	0
 16161 0b6d 00000000 		.4byte	0
 16162              	.LLST43:
 16163 0b71 280E0000 		.4byte	.LVL392
 16164 0b75 360E0000 		.4byte	.LVL393
 16165 0b79 0200     		.2byte	0x2
 16166 0b7b 30       		.byte	0x30
 16167 0b7c 9F       		.byte	0x9f
 16168 0b7d 360E0000 		.4byte	.LVL393
 16169 0b81 3E0E0000 		.4byte	.LVL394
 16170 0b85 0700     		.2byte	0x7
 16171 0b87 76       		.byte	0x76
 16172 0b88 D69A8080 		.sleb128 -268432042
 16172      7F
 16173 0b8d 9F       		.byte	0x9f
 16174 0b8e 3E0E0000 		.4byte	.LVL394
 16175 0b92 420E0000 		.4byte	.LVL395
 16176 0b96 0700     		.2byte	0x7
 16177 0b98 76       		.byte	0x76
 16178 0b99 D59A8080 		.sleb128 -268432043
 16178      7F
 16179 0b9e 9F       		.byte	0x9f
 16180 0b9f 00000000 		.4byte	0
 16181 0ba3 00000000 		.4byte	0
 16182              	.LLST44:
 16183 0ba7 C2040000 		.4byte	.LVL140
 16184 0bab C6040000 		.4byte	.LVL141
 16185 0baf 0300     		.2byte	0x3
 16186 0bb1 75       		.byte	0x75
 16187 0bb2 05       		.sleb128 5
 16188 0bb3 9F       		.byte	0x9f
 16189 0bb4 C6040000 		.4byte	.LVL141
 16190 0bb8 D6040000 		.4byte	.LVL143
 16191 0bbc 0100     		.2byte	0x1
 16192 0bbe 56       		.byte	0x56
 16193 0bbf D6040000 		.4byte	.LVL143
 16194 0bc3 44050000 		.4byte	.LVL158
 16195 0bc7 0300     		.2byte	0x3
 16196 0bc9 75       		.byte	0x75
 16197 0bca 06       		.sleb128 6
 16198 0bcb 9F       		.byte	0x9f
 16199 0bcc 72090000 		.4byte	.LVL264
 16200 0bd0 86090000 		.4byte	.LVL268
 16201 0bd4 0300     		.2byte	0x3
 16202 0bd6 75       		.byte	0x75
 16203 0bd7 06       		.sleb128 6
 16204 0bd8 9F       		.byte	0x9f
 16205 0bd9 5A0E0000 		.4byte	.LVL399
 16206 0bdd 600E0000 		.4byte	.LVL401
 16207 0be1 0300     		.2byte	0x3
 16208 0be3 75       		.byte	0x75
 16209 0be4 06       		.sleb128 6
 16210 0be5 9F       		.byte	0x9f
 16211 0be6 12100000 		.4byte	.LVL433
 16212 0bea 1A100000 		.4byte	.LVL435
 16213 0bee 0300     		.2byte	0x3
 16214 0bf0 75       		.byte	0x75
ARM GAS  C:\Users\ramanatg\AppData\Local\Temp\ccxbhSsV.s 			page 354


 16215 0bf1 06       		.sleb128 6
 16216 0bf2 9F       		.byte	0x9f
 16217 0bf3 00000000 		.4byte	0
 16218 0bf7 00000000 		.4byte	0
 16219              	.LLST45:
 16220 0bfb B0040000 		.4byte	.LVL139
 16221 0bff D6040000 		.4byte	.LVL143
 16222 0c03 0100     		.2byte	0x1
 16223 0c05 50       		.byte	0x50
 16224 0c06 220E0000 		.4byte	.LVL390
 16225 0c0a 240E0000 		.4byte	.LVL391
 16226 0c0e 0100     		.2byte	0x1
 16227 0c10 50       		.byte	0x50
 16228 0c11 00000000 		.4byte	0
 16229 0c15 00000000 		.4byte	0
 16230              	.LLST46:
 16231 0c19 CC040000 		.4byte	.LVL142
 16232 0c1d 44050000 		.4byte	.LVL158
 16233 0c21 0200     		.2byte	0x2
 16234 0c23 36       		.byte	0x36
 16235 0c24 9F       		.byte	0x9f
 16236 0c25 72090000 		.4byte	.LVL264
 16237 0c29 86090000 		.4byte	.LVL268
 16238 0c2d 0200     		.2byte	0x2
 16239 0c2f 36       		.byte	0x36
 16240 0c30 9F       		.byte	0x9f
 16241 0c31 5A0E0000 		.4byte	.LVL399
 16242 0c35 600E0000 		.4byte	.LVL401
 16243 0c39 0200     		.2byte	0x2
 16244 0c3b 36       		.byte	0x36
 16245 0c3c 9F       		.byte	0x9f
 16246 0c3d 12100000 		.4byte	.LVL433
 16247 0c41 1A100000 		.4byte	.LVL435
 16248 0c45 0200     		.2byte	0x2
 16249 0c47 36       		.byte	0x36
 16250 0c48 9F       		.byte	0x9f
 16251 0c49 00000000 		.4byte	0
 16252 0c4d 00000000 		.4byte	0
 16253              	.LLST47:
 16254 0c51 CC040000 		.4byte	.LVL142
 16255 0c55 D6040000 		.4byte	.LVL143
 16256 0c59 0100     		.2byte	0x1
 16257 0c5b 56       		.byte	0x56
 16258 0c5c D6040000 		.4byte	.LVL143
 16259 0c60 44050000 		.4byte	.LVL158
 16260 0c64 0300     		.2byte	0x3
 16261 0c66 75       		.byte	0x75
 16262 0c67 06       		.sleb128 6
 16263 0c68 9F       		.byte	0x9f
 16264 0c69 72090000 		.4byte	.LVL264
 16265 0c6d 86090000 		.4byte	.LVL268
 16266 0c71 0300     		.2byte	0x3
 16267 0c73 75       		.byte	0x75
 16268 0c74 06       		.sleb128 6
 16269 0c75 9F       		.byte	0x9f
 16270 0c76 5A0E0000 		.4byte	.LVL399
 16271 0c7a 600E0000 		.4byte	.LVL401
ARM GAS  C:\Users\ramanatg\AppData\Local\Temp\ccxbhSsV.s 			page 355


 16272 0c7e 0300     		.2byte	0x3
 16273 0c80 75       		.byte	0x75
 16274 0c81 06       		.sleb128 6
 16275 0c82 9F       		.byte	0x9f
 16276 0c83 12100000 		.4byte	.LVL433
 16277 0c87 1A100000 		.4byte	.LVL435
 16278 0c8b 0300     		.2byte	0x3
 16279 0c8d 75       		.byte	0x75
 16280 0c8e 06       		.sleb128 6
 16281 0c8f 9F       		.byte	0x9f
 16282 0c90 00000000 		.4byte	0
 16283 0c94 00000000 		.4byte	0
 16284              	.LLST48:
 16285 0c98 CC040000 		.4byte	.LVL142
 16286 0c9c 26050000 		.4byte	.LVL152
 16287 0ca0 0400     		.2byte	0x4
 16288 0ca2 91       		.byte	0x91
 16289 0ca3 C47E     		.sleb128 -188
 16290 0ca5 9F       		.byte	0x9f
 16291 0ca6 26050000 		.4byte	.LVL152
 16292 0caa 39050000 		.4byte	.LVL156-1
 16293 0cae 0100     		.2byte	0x1
 16294 0cb0 53       		.byte	0x53
 16295 0cb1 39050000 		.4byte	.LVL156-1
 16296 0cb5 44050000 		.4byte	.LVL158
 16297 0cb9 0400     		.2byte	0x4
 16298 0cbb 91       		.byte	0x91
 16299 0cbc C47E     		.sleb128 -188
 16300 0cbe 9F       		.byte	0x9f
 16301 0cbf 72090000 		.4byte	.LVL264
 16302 0cc3 86090000 		.4byte	.LVL268
 16303 0cc7 0400     		.2byte	0x4
 16304 0cc9 91       		.byte	0x91
 16305 0cca C47E     		.sleb128 -188
 16306 0ccc 9F       		.byte	0x9f
 16307 0ccd 5A0E0000 		.4byte	.LVL399
 16308 0cd1 600E0000 		.4byte	.LVL401
 16309 0cd5 0400     		.2byte	0x4
 16310 0cd7 91       		.byte	0x91
 16311 0cd8 C47E     		.sleb128 -188
 16312 0cda 9F       		.byte	0x9f
 16313 0cdb 12100000 		.4byte	.LVL433
 16314 0cdf 1A100000 		.4byte	.LVL435
 16315 0ce3 0400     		.2byte	0x4
 16316 0ce5 91       		.byte	0x91
 16317 0ce6 C47E     		.sleb128 -188
 16318 0ce8 9F       		.byte	0x9f
 16319 0ce9 00000000 		.4byte	0
 16320 0ced 00000000 		.4byte	0
 16321              	.LLST49:
 16322 0cf1 D6040000 		.4byte	.LVL143
 16323 0cf5 2A050000 		.4byte	.LVL153
 16324 0cf9 0100     		.2byte	0x1
 16325 0cfb 56       		.byte	0x56
 16326 0cfc 2A050000 		.4byte	.LVL153
 16327 0d00 2E050000 		.4byte	.LVL155
 16328 0d04 0300     		.2byte	0x3
ARM GAS  C:\Users\ramanatg\AppData\Local\Temp\ccxbhSsV.s 			page 356


 16329 0d06 76       		.byte	0x76
 16330 0d07 7E       		.sleb128 -2
 16331 0d08 9F       		.byte	0x9f
 16332 0d09 2E050000 		.4byte	.LVL155
 16333 0d0d 44050000 		.4byte	.LVL158
 16334 0d11 0100     		.2byte	0x1
 16335 0d13 56       		.byte	0x56
 16336 0d14 72090000 		.4byte	.LVL264
 16337 0d18 86090000 		.4byte	.LVL268
 16338 0d1c 0100     		.2byte	0x1
 16339 0d1e 56       		.byte	0x56
 16340 0d1f 5A0E0000 		.4byte	.LVL399
 16341 0d23 600E0000 		.4byte	.LVL401
 16342 0d27 0100     		.2byte	0x1
 16343 0d29 56       		.byte	0x56
 16344 0d2a 12100000 		.4byte	.LVL433
 16345 0d2e 1A100000 		.4byte	.LVL435
 16346 0d32 0100     		.2byte	0x1
 16347 0d34 56       		.byte	0x56
 16348 0d35 00000000 		.4byte	0
 16349 0d39 00000000 		.4byte	0
 16350              	.LLST50:
 16351 0d3d D6040000 		.4byte	.LVL143
 16352 0d41 44050000 		.4byte	.LVL158
 16353 0d45 0100     		.2byte	0x1
 16354 0d47 57       		.byte	0x57
 16355 0d48 72090000 		.4byte	.LVL264
 16356 0d4c 86090000 		.4byte	.LVL268
 16357 0d50 0100     		.2byte	0x1
 16358 0d52 57       		.byte	0x57
 16359 0d53 5A0E0000 		.4byte	.LVL399
 16360 0d57 600E0000 		.4byte	.LVL401
 16361 0d5b 0100     		.2byte	0x1
 16362 0d5d 57       		.byte	0x57
 16363 0d5e 12100000 		.4byte	.LVL433
 16364 0d62 1A100000 		.4byte	.LVL435
 16365 0d66 0100     		.2byte	0x1
 16366 0d68 57       		.byte	0x57
 16367 0d69 00000000 		.4byte	0
 16368 0d6d 00000000 		.4byte	0
 16369              	.LLST51:
 16370 0d71 D6040000 		.4byte	.LVL143
 16371 0d75 2A050000 		.4byte	.LVL153
 16372 0d79 0300     		.2byte	0x3
 16373 0d7b 76       		.byte	0x76
 16374 0d7c 01       		.sleb128 1
 16375 0d7d 9F       		.byte	0x9f
 16376 0d7e 2A050000 		.4byte	.LVL153
 16377 0d82 44050000 		.4byte	.LVL158
 16378 0d86 0300     		.2byte	0x3
 16379 0d88 76       		.byte	0x76
 16380 0d89 7F       		.sleb128 -1
 16381 0d8a 9F       		.byte	0x9f
 16382 0d8b 72090000 		.4byte	.LVL264
 16383 0d8f 86090000 		.4byte	.LVL268
 16384 0d93 0300     		.2byte	0x3
 16385 0d95 76       		.byte	0x76
ARM GAS  C:\Users\ramanatg\AppData\Local\Temp\ccxbhSsV.s 			page 357


 16386 0d96 01       		.sleb128 1
 16387 0d97 9F       		.byte	0x9f
 16388 0d98 5A0E0000 		.4byte	.LVL399
 16389 0d9c 600E0000 		.4byte	.LVL401
 16390 0da0 0300     		.2byte	0x3
 16391 0da2 76       		.byte	0x76
 16392 0da3 01       		.sleb128 1
 16393 0da4 9F       		.byte	0x9f
 16394 0da5 12100000 		.4byte	.LVL433
 16395 0da9 1A100000 		.4byte	.LVL435
 16396 0dad 0300     		.2byte	0x3
 16397 0daf 76       		.byte	0x76
 16398 0db0 01       		.sleb128 1
 16399 0db1 9F       		.byte	0x9f
 16400 0db2 00000000 		.4byte	0
 16401 0db6 00000000 		.4byte	0
 16402              	.LLST52:
 16403 0dba D8040000 		.4byte	.LVL144
 16404 0dbe FC040000 		.4byte	.LVL146
 16405 0dc2 0100     		.2byte	0x1
 16406 0dc4 53       		.byte	0x53
 16407 0dc5 FC040000 		.4byte	.LVL146
 16408 0dc9 FE040000 		.4byte	.LVL147
 16409 0dcd 0400     		.2byte	0x4
 16410 0dcf 72       		.byte	0x72
 16411 0dd0 E100     		.sleb128 97
 16412 0dd2 9F       		.byte	0x9f
 16413 0dd3 FE040000 		.4byte	.LVL147
 16414 0dd7 2A050000 		.4byte	.LVL153
 16415 0ddb 0200     		.2byte	0x2
 16416 0ddd 76       		.byte	0x76
 16417 0dde 00       		.sleb128 0
 16418 0ddf 2A050000 		.4byte	.LVL153
 16419 0de3 2C050000 		.4byte	.LVL154
 16420 0de7 0200     		.2byte	0x2
 16421 0de9 76       		.byte	0x76
 16422 0dea 7E       		.sleb128 -2
 16423 0deb 72090000 		.4byte	.LVL264
 16424 0def 74090000 		.4byte	.LVL265
 16425 0df3 0100     		.2byte	0x1
 16426 0df5 53       		.byte	0x53
 16427 0df6 74090000 		.4byte	.LVL265
 16428 0dfa 76090000 		.4byte	.LVL266
 16429 0dfe 0400     		.2byte	0x4
 16430 0e00 73       		.byte	0x73
 16431 0e01 D700     		.sleb128 87
 16432 0e03 9F       		.byte	0x9f
 16433 0e04 76090000 		.4byte	.LVL266
 16434 0e08 86090000 		.4byte	.LVL268
 16435 0e0c 0200     		.2byte	0x2
 16436 0e0e 76       		.byte	0x76
 16437 0e0f 00       		.sleb128 0
 16438 0e10 5A0E0000 		.4byte	.LVL399
 16439 0e14 5C0E0000 		.4byte	.LVL400
 16440 0e18 0100     		.2byte	0x1
 16441 0e1a 53       		.byte	0x53
 16442 0e1b 5C0E0000 		.4byte	.LVL400
ARM GAS  C:\Users\ramanatg\AppData\Local\Temp\ccxbhSsV.s 			page 358


 16443 0e1f 600E0000 		.4byte	.LVL401
 16444 0e23 0300     		.2byte	0x3
 16445 0e25 73       		.byte	0x73
 16446 0e26 37       		.sleb128 55
 16447 0e27 9F       		.byte	0x9f
 16448 0e28 12100000 		.4byte	.LVL433
 16449 0e2c 1A100000 		.4byte	.LVL435
 16450 0e30 0200     		.2byte	0x2
 16451 0e32 76       		.byte	0x76
 16452 0e33 00       		.sleb128 0
 16453 0e34 00000000 		.4byte	0
 16454 0e38 00000000 		.4byte	0
 16455              	.LLST53:
 16456 0e3c F0040000 		.4byte	.LVL145
 16457 0e40 FC040000 		.4byte	.LVL146
 16458 0e44 0100     		.2byte	0x1
 16459 0e46 53       		.byte	0x53
 16460 0e47 FC040000 		.4byte	.LVL146
 16461 0e4b FE040000 		.4byte	.LVL147
 16462 0e4f 0400     		.2byte	0x4
 16463 0e51 72       		.byte	0x72
 16464 0e52 E100     		.sleb128 97
 16465 0e54 9F       		.byte	0x9f
 16466 0e55 FE040000 		.4byte	.LVL147
 16467 0e59 06050000 		.4byte	.LVL148
 16468 0e5d 0200     		.2byte	0x2
 16469 0e5f 76       		.byte	0x76
 16470 0e60 00       		.sleb128 0
 16471 0e61 72090000 		.4byte	.LVL264
 16472 0e65 74090000 		.4byte	.LVL265
 16473 0e69 0100     		.2byte	0x1
 16474 0e6b 53       		.byte	0x53
 16475 0e6c 74090000 		.4byte	.LVL265
 16476 0e70 76090000 		.4byte	.LVL266
 16477 0e74 0400     		.2byte	0x4
 16478 0e76 73       		.byte	0x73
 16479 0e77 D700     		.sleb128 87
 16480 0e79 9F       		.byte	0x9f
 16481 0e7a 00000000 		.4byte	0
 16482 0e7e 00000000 		.4byte	0
 16483              	.LLST54:
 16484 0e82 FC040000 		.4byte	.LVL146
 16485 0e86 1C050000 		.4byte	.LVL150
 16486 0e8a 0100     		.2byte	0x1
 16487 0e8c 53       		.byte	0x53
 16488 0e8d 1C050000 		.4byte	.LVL150
 16489 0e91 1E050000 		.4byte	.LVL151
 16490 0e95 0400     		.2byte	0x4
 16491 0e97 73       		.byte	0x73
 16492 0e98 D700     		.sleb128 87
 16493 0e9a 9F       		.byte	0x9f
 16494 0e9b 78090000 		.4byte	.LVL267
 16495 0e9f 86090000 		.4byte	.LVL268
 16496 0ea3 0100     		.2byte	0x1
 16497 0ea5 53       		.byte	0x53
 16498 0ea6 12100000 		.4byte	.LVL433
 16499 0eaa 14100000 		.4byte	.LVL434
ARM GAS  C:\Users\ramanatg\AppData\Local\Temp\ccxbhSsV.s 			page 359


 16500 0eae 0100     		.2byte	0x1
 16501 0eb0 53       		.byte	0x53
 16502 0eb1 00000000 		.4byte	0
 16503 0eb5 00000000 		.4byte	0
 16504              	.LLST55:
 16505 0eb9 12050000 		.4byte	.LVL149
 16506 0ebd 1C050000 		.4byte	.LVL150
 16507 0ec1 0100     		.2byte	0x1
 16508 0ec3 53       		.byte	0x53
 16509 0ec4 1C050000 		.4byte	.LVL150
 16510 0ec8 1E050000 		.4byte	.LVL151
 16511 0ecc 0400     		.2byte	0x4
 16512 0ece 73       		.byte	0x73
 16513 0ecf D700     		.sleb128 87
 16514 0ed1 9F       		.byte	0x9f
 16515 0ed2 00000000 		.4byte	0
 16516 0ed6 00000000 		.4byte	0
 16517              	.LLST56:
 16518 0eda 56100000 		.4byte	.LVL440
 16519 0ede 76100000 		.4byte	.LVL442
 16520 0ee2 0200     		.2byte	0x2
 16521 0ee4 30       		.byte	0x30
 16522 0ee5 9F       		.byte	0x9f
 16523 0ee6 76100000 		.4byte	.LVL442
 16524 0eea 88100000 		.4byte	.LVL444
 16525 0eee 0100     		.2byte	0x1
 16526 0ef0 52       		.byte	0x52
 16527 0ef1 8A100000 		.4byte	.LVL445
 16528 0ef5 90100000 		.4byte	.LVL446
 16529 0ef9 0100     		.2byte	0x1
 16530 0efb 52       		.byte	0x52
 16531 0efc 00000000 		.4byte	0
 16532 0f00 00000000 		.4byte	0
 16533              	.LLST57:
 16534 0f04 1A100000 		.4byte	.LVL435
 16535 0f08 A0100000 		.4byte	.LVL448
 16536 0f0c 0200     		.2byte	0x2
 16537 0f0e 30       		.byte	0x30
 16538 0f0f 9F       		.byte	0x9f
 16539 0f10 BA100000 		.4byte	.LVL451
 16540 0f14 E0100000 		.4byte	.LVL456
 16541 0f18 0200     		.2byte	0x2
 16542 0f1a 30       		.byte	0x30
 16543 0f1b 9F       		.byte	0x9f
 16544 0f1c 00000000 		.4byte	0
 16545 0f20 00000000 		.4byte	0
 16546              	.LLST58:
 16547 0f24 3A100000 		.4byte	.LVL437
 16548 0f28 42100000 		.4byte	.LVL438
 16549 0f2c 0100     		.2byte	0x1
 16550 0f2e 53       		.byte	0x53
 16551 0f2f 42100000 		.4byte	.LVL438
 16552 0f33 4E100000 		.4byte	.LVL439
 16553 0f37 0300     		.2byte	0x3
 16554 0f39 73       		.byte	0x73
 16555 0f3a 04       		.sleb128 4
 16556 0f3b 9F       		.byte	0x9f
ARM GAS  C:\Users\ramanatg\AppData\Local\Temp\ccxbhSsV.s 			page 360


 16557 0f3c 4E100000 		.4byte	.LVL439
 16558 0f40 74100000 		.4byte	.LVL441
 16559 0f44 0100     		.2byte	0x1
 16560 0f46 50       		.byte	0x50
 16561 0f47 BA100000 		.4byte	.LVL451
 16562 0f4b BF100000 		.4byte	.LVL452-1
 16563 0f4f 0100     		.2byte	0x1
 16564 0f51 53       		.byte	0x53
 16565 0f52 00000000 		.4byte	0
 16566 0f56 00000000 		.4byte	0
 16567              	.LLST59:
 16568 0f5a 0A150000 		.4byte	.LVL551
 16569 0f5e 4E150000 		.4byte	.LVL557
 16570 0f62 0100     		.2byte	0x1
 16571 0f64 55       		.byte	0x55
 16572 0f65 121B0000 		.4byte	.LVL677
 16573 0f69 181B0000 		.4byte	.LVL679
 16574 0f6d 0100     		.2byte	0x1
 16575 0f6f 55       		.byte	0x55
 16576 0f70 00000000 		.4byte	0
 16577 0f74 00000000 		.4byte	0
 16578              	.LLST60:
 16579 0f78 D4140000 		.4byte	.LVL548
 16580 0f7c 3E150000 		.4byte	.LVL555
 16581 0f80 0100     		.2byte	0x1
 16582 0f82 56       		.byte	0x56
 16583 0f83 62150000 		.4byte	.LVL559
 16584 0f87 6A150000 		.4byte	.LVL561
 16585 0f8b 0100     		.2byte	0x1
 16586 0f8d 56       		.byte	0x56
 16587 0f8e 121B0000 		.4byte	.LVL677
 16588 0f92 141B0000 		.4byte	.LVL678
 16589 0f96 0100     		.2byte	0x1
 16590 0f98 56       		.byte	0x56
 16591 0f99 00000000 		.4byte	0
 16592 0f9d 00000000 		.4byte	0
 16593              	.LLST61:
 16594 0fa1 64050000 		.4byte	.LVL160
 16595 0fa5 74050000 		.4byte	.LVL162
 16596 0fa9 0200     		.2byte	0x2
 16597 0fab 30       		.byte	0x30
 16598 0fac 9F       		.byte	0x9f
 16599 0fad 74050000 		.4byte	.LVL162
 16600 0fb1 82050000 		.4byte	.LVL164
 16601 0fb5 0200     		.2byte	0x2
 16602 0fb7 31       		.byte	0x31
 16603 0fb8 9F       		.byte	0x9f
 16604 0fb9 82050000 		.4byte	.LVL164
 16605 0fbd 90050000 		.4byte	.LVL166
 16606 0fc1 0200     		.2byte	0x2
 16607 0fc3 32       		.byte	0x32
 16608 0fc4 9F       		.byte	0x9f
 16609 0fc5 90050000 		.4byte	.LVL166
 16610 0fc9 9E050000 		.4byte	.LVL168
 16611 0fcd 0200     		.2byte	0x2
 16612 0fcf 33       		.byte	0x33
 16613 0fd0 9F       		.byte	0x9f
ARM GAS  C:\Users\ramanatg\AppData\Local\Temp\ccxbhSsV.s 			page 361


 16614 0fd1 9E050000 		.4byte	.LVL168
 16615 0fd5 C6050000 		.4byte	.LVL170
 16616 0fd9 0200     		.2byte	0x2
 16617 0fdb 34       		.byte	0x34
 16618 0fdc 9F       		.byte	0x9f
 16619 0fdd 00000000 		.4byte	0
 16620 0fe1 00000000 		.4byte	0
 16621              	.LLST62:
 16622 0fe5 44050000 		.4byte	.LVL158
 16623 0fe9 D6050000 		.4byte	.LVL172
 16624 0fed 0200     		.2byte	0x2
 16625 0fef 30       		.byte	0x30
 16626 0ff0 9F       		.byte	0x9f
 16627 0ff1 3A0B0000 		.4byte	.LVL318
 16628 0ff5 420B0000 		.4byte	.LVL320
 16629 0ff9 0200     		.2byte	0x2
 16630 0ffb 30       		.byte	0x30
 16631 0ffc 9F       		.byte	0x9f
 16632 0ffd 00000000 		.4byte	0
 16633 1001 00000000 		.4byte	0
 16634              	.LLST63:
 16635 1005 F6050000 		.4byte	.LVL174
 16636 1009 1C060000 		.4byte	.LVL179
 16637 100d 0200     		.2byte	0x2
 16638 100f 30       		.byte	0x30
 16639 1010 9F       		.byte	0x9f
 16640 1011 1C060000 		.4byte	.LVL179
 16641 1015 4A060000 		.4byte	.LVL184
 16642 1019 0200     		.2byte	0x2
 16643 101b 31       		.byte	0x31
 16644 101c 9F       		.byte	0x9f
 16645 101d 4A060000 		.4byte	.LVL184
 16646 1021 76060000 		.4byte	.LVL189
 16647 1025 0200     		.2byte	0x2
 16648 1027 32       		.byte	0x32
 16649 1028 9F       		.byte	0x9f
 16650 1029 76060000 		.4byte	.LVL189
 16651 102d A0060000 		.4byte	.LVL194
 16652 1031 0200     		.2byte	0x2
 16653 1033 33       		.byte	0x33
 16654 1034 9F       		.byte	0x9f
 16655 1035 A0060000 		.4byte	.LVL194
 16656 1039 CA060000 		.4byte	.LVL196
 16657 103d 0200     		.2byte	0x2
 16658 103f 34       		.byte	0x34
 16659 1040 9F       		.byte	0x9f
 16660 1041 420B0000 		.4byte	.LVL320
 16661 1045 480B0000 		.4byte	.LVL322
 16662 1049 0200     		.2byte	0x2
 16663 104b 30       		.byte	0x30
 16664 104c 9F       		.byte	0x9f
 16665 104d 500B0000 		.4byte	.LVL324
 16666 1051 560B0000 		.4byte	.LVL326
 16667 1055 0200     		.2byte	0x2
 16668 1057 31       		.byte	0x31
 16669 1058 9F       		.byte	0x9f
 16670 1059 6E0B0000 		.4byte	.LVL333
ARM GAS  C:\Users\ramanatg\AppData\Local\Temp\ccxbhSsV.s 			page 362


 16671 105d 740B0000 		.4byte	.LVL335
 16672 1061 0200     		.2byte	0x2
 16673 1063 32       		.byte	0x32
 16674 1064 9F       		.byte	0x9f
 16675 1065 740B0000 		.4byte	.LVL335
 16676 1069 B00B0000 		.4byte	.LVL337
 16677 106d 0200     		.2byte	0x2
 16678 106f 33       		.byte	0x33
 16679 1070 9F       		.byte	0x9f
 16680 1071 00000000 		.4byte	0
 16681 1075 00000000 		.4byte	0
 16682              	.LLST64:
 16683 1079 D6050000 		.4byte	.LVL172
 16684 107d A0060000 		.4byte	.LVL194
 16685 1081 0200     		.2byte	0x2
 16686 1083 30       		.byte	0x30
 16687 1084 9F       		.byte	0x9f
 16688 1085 CA060000 		.4byte	.LVL196
 16689 1089 DA060000 		.4byte	.LVL198
 16690 108d 0200     		.2byte	0x2
 16691 108f 30       		.byte	0x30
 16692 1090 9F       		.byte	0x9f
 16693 1091 420B0000 		.4byte	.LVL320
 16694 1095 560B0000 		.4byte	.LVL326
 16695 1099 0200     		.2byte	0x2
 16696 109b 30       		.byte	0x30
 16697 109c 9F       		.byte	0x9f
 16698 109d 6E0B0000 		.4byte	.LVL333
 16699 10a1 B00B0000 		.4byte	.LVL337
 16700 10a5 0200     		.2byte	0x2
 16701 10a7 30       		.byte	0x30
 16702 10a8 9F       		.byte	0x9f
 16703 10a9 00000000 		.4byte	0
 16704 10ad 00000000 		.4byte	0
 16705              	.LLST65:
 16706 10b1 F8050000 		.4byte	.LVL175
 16707 10b5 16060000 		.4byte	.LVL177
 16708 10b9 0100     		.2byte	0x1
 16709 10bb 53       		.byte	0x53
 16710 10bc 16060000 		.4byte	.LVL177
 16711 10c0 18060000 		.4byte	.LVL178
 16712 10c4 0400     		.2byte	0x4
 16713 10c6 73       		.byte	0x73
 16714 10c7 D700     		.sleb128 87
 16715 10c9 9F       		.byte	0x9f
 16716 10ca 18060000 		.4byte	.LVL178
 16717 10ce 1C060000 		.4byte	.LVL179
 16718 10d2 0200     		.2byte	0x2
 16719 10d4 75       		.byte	0x75
 16720 10d5 06       		.sleb128 6
 16721 10d6 20060000 		.4byte	.LVL180
 16722 10da 44060000 		.4byte	.LVL182
 16723 10de 0100     		.2byte	0x1
 16724 10e0 53       		.byte	0x53
 16725 10e1 44060000 		.4byte	.LVL182
 16726 10e5 46060000 		.4byte	.LVL183
 16727 10e9 0400     		.2byte	0x4
ARM GAS  C:\Users\ramanatg\AppData\Local\Temp\ccxbhSsV.s 			page 363


 16728 10eb 73       		.byte	0x73
 16729 10ec D700     		.sleb128 87
 16730 10ee 9F       		.byte	0x9f
 16731 10ef 46060000 		.4byte	.LVL183
 16732 10f3 4A060000 		.4byte	.LVL184
 16733 10f7 0200     		.2byte	0x2
 16734 10f9 75       		.byte	0x75
 16735 10fa 07       		.sleb128 7
 16736 10fb 4C060000 		.4byte	.LVL185
 16737 10ff 70060000 		.4byte	.LVL187
 16738 1103 0100     		.2byte	0x1
 16739 1105 53       		.byte	0x53
 16740 1106 70060000 		.4byte	.LVL187
 16741 110a 72060000 		.4byte	.LVL188
 16742 110e 0400     		.2byte	0x4
 16743 1110 73       		.byte	0x73
 16744 1111 D700     		.sleb128 87
 16745 1113 9F       		.byte	0x9f
 16746 1114 72060000 		.4byte	.LVL188
 16747 1118 76060000 		.4byte	.LVL189
 16748 111c 0200     		.2byte	0x2
 16749 111e 75       		.byte	0x75
 16750 111f 08       		.sleb128 8
 16751 1120 78060000 		.4byte	.LVL190
 16752 1124 9A060000 		.4byte	.LVL192
 16753 1128 0100     		.2byte	0x1
 16754 112a 52       		.byte	0x52
 16755 112b 9A060000 		.4byte	.LVL192
 16756 112f 9C060000 		.4byte	.LVL193
 16757 1133 0400     		.2byte	0x4
 16758 1135 72       		.byte	0x72
 16759 1136 D700     		.sleb128 87
 16760 1138 9F       		.byte	0x9f
 16761 1139 9C060000 		.4byte	.LVL193
 16762 113d A0060000 		.4byte	.LVL194
 16763 1141 0200     		.2byte	0x2
 16764 1143 75       		.byte	0x75
 16765 1144 09       		.sleb128 9
 16766 1145 420B0000 		.4byte	.LVL320
 16767 1149 440B0000 		.4byte	.LVL321
 16768 114d 0100     		.2byte	0x1
 16769 114f 53       		.byte	0x53
 16770 1150 440B0000 		.4byte	.LVL321
 16771 1154 480B0000 		.4byte	.LVL322
 16772 1158 0300     		.2byte	0x3
 16773 115a 73       		.byte	0x73
 16774 115b 37       		.sleb128 55
 16775 115c 9F       		.byte	0x9f
 16776 115d 500B0000 		.4byte	.LVL324
 16777 1161 520B0000 		.4byte	.LVL325
 16778 1165 0100     		.2byte	0x1
 16779 1167 53       		.byte	0x53
 16780 1168 520B0000 		.4byte	.LVL325
 16781 116c 560B0000 		.4byte	.LVL326
 16782 1170 0300     		.2byte	0x3
 16783 1172 73       		.byte	0x73
 16784 1173 37       		.sleb128 55
ARM GAS  C:\Users\ramanatg\AppData\Local\Temp\ccxbhSsV.s 			page 364


 16785 1174 9F       		.byte	0x9f
 16786 1175 6E0B0000 		.4byte	.LVL333
 16787 1179 700B0000 		.4byte	.LVL334
 16788 117d 0100     		.2byte	0x1
 16789 117f 53       		.byte	0x53
 16790 1180 700B0000 		.4byte	.LVL334
 16791 1184 740B0000 		.4byte	.LVL335
 16792 1188 0300     		.2byte	0x3
 16793 118a 73       		.byte	0x73
 16794 118b 37       		.sleb128 55
 16795 118c 9F       		.byte	0x9f
 16796 118d 740B0000 		.4byte	.LVL335
 16797 1191 760B0000 		.4byte	.LVL336
 16798 1195 0100     		.2byte	0x1
 16799 1197 52       		.byte	0x52
 16800 1198 760B0000 		.4byte	.LVL336
 16801 119c B00B0000 		.4byte	.LVL337
 16802 11a0 0300     		.2byte	0x3
 16803 11a2 72       		.byte	0x72
 16804 11a3 37       		.sleb128 55
 16805 11a4 9F       		.byte	0x9f
 16806 11a5 00000000 		.4byte	0
 16807 11a9 00000000 		.4byte	0
 16808              	.LLST66:
 16809 11ad 0C060000 		.4byte	.LVL176
 16810 11b1 16060000 		.4byte	.LVL177
 16811 11b5 0100     		.2byte	0x1
 16812 11b7 53       		.byte	0x53
 16813 11b8 16060000 		.4byte	.LVL177
 16814 11bc 18060000 		.4byte	.LVL178
 16815 11c0 0400     		.2byte	0x4
 16816 11c2 73       		.byte	0x73
 16817 11c3 D700     		.sleb128 87
 16818 11c5 9F       		.byte	0x9f
 16819 11c6 34060000 		.4byte	.LVL181
 16820 11ca 44060000 		.4byte	.LVL182
 16821 11ce 0100     		.2byte	0x1
 16822 11d0 53       		.byte	0x53
 16823 11d1 44060000 		.4byte	.LVL182
 16824 11d5 46060000 		.4byte	.LVL183
 16825 11d9 0400     		.2byte	0x4
 16826 11db 73       		.byte	0x73
 16827 11dc D700     		.sleb128 87
 16828 11de 9F       		.byte	0x9f
 16829 11df 60060000 		.4byte	.LVL186
 16830 11e3 70060000 		.4byte	.LVL187
 16831 11e7 0100     		.2byte	0x1
 16832 11e9 53       		.byte	0x53
 16833 11ea 70060000 		.4byte	.LVL187
 16834 11ee 72060000 		.4byte	.LVL188
 16835 11f2 0400     		.2byte	0x4
 16836 11f4 73       		.byte	0x73
 16837 11f5 D700     		.sleb128 87
 16838 11f7 9F       		.byte	0x9f
 16839 11f8 8A060000 		.4byte	.LVL191
 16840 11fc 9A060000 		.4byte	.LVL192
 16841 1200 0100     		.2byte	0x1
ARM GAS  C:\Users\ramanatg\AppData\Local\Temp\ccxbhSsV.s 			page 365


 16842 1202 52       		.byte	0x52
 16843 1203 9A060000 		.4byte	.LVL192
 16844 1207 9C060000 		.4byte	.LVL193
 16845 120b 0400     		.2byte	0x4
 16846 120d 72       		.byte	0x72
 16847 120e D700     		.sleb128 87
 16848 1210 9F       		.byte	0x9f
 16849 1211 00000000 		.4byte	0
 16850 1215 00000000 		.4byte	0
 16851              	.LLST67:
 16852 1219 980D0000 		.4byte	.LVL383
 16853 121d AA0D0000 		.4byte	.LVL384
 16854 1221 0300     		.2byte	0x3
 16855 1223 7B       		.byte	0x7b
 16856 1224 07       		.sleb128 7
 16857 1225 9F       		.byte	0x9f
 16858 1226 AA0D0000 		.4byte	.LVL384
 16859 122a FE0D0000 		.4byte	.LVL386
 16860 122e 0100     		.2byte	0x1
 16861 1230 51       		.byte	0x51
 16862 1231 600E0000 		.4byte	.LVL401
 16863 1235 6C0E0000 		.4byte	.LVL402
 16864 1239 0100     		.2byte	0x1
 16865 123b 51       		.byte	0x51
 16866 123c 00000000 		.4byte	0
 16867 1240 00000000 		.4byte	0
 16868              	.LLST68:
 16869 1244 960E0000 		.4byte	.LVL403
 16870 1248 9B0E0000 		.4byte	.LVL404-1
 16871 124c 0900     		.2byte	0x9
 16872 124e 03       		.byte	0x3
 16873 124f 00000000 		.4byte	data_array
 16874 1253 06       		.byte	0x6
 16875 1254 23       		.byte	0x23
 16876 1255 09       		.uleb128 0x9
 16877 1256 9F       		.byte	0x9f
 16878 1257 00000000 		.4byte	0
 16879 125b 00000000 		.4byte	0
 16880              	.LLST69:
 16881 125f AE0E0000 		.4byte	.LVL405
 16882 1263 B80E0000 		.4byte	.LVL406
 16883 1267 0100     		.2byte	0x1
 16884 1269 50       		.byte	0x50
 16885 126a D20E0000 		.4byte	.LVL408
 16886 126e D80E0000 		.4byte	.LVL409
 16887 1272 0100     		.2byte	0x1
 16888 1274 50       		.byte	0x50
 16889 1275 F20E0000 		.4byte	.LVL411
 16890 1279 F80E0000 		.4byte	.LVL412
 16891 127d 0100     		.2byte	0x1
 16892 127f 50       		.byte	0x50
 16893 1280 120F0000 		.4byte	.LVL414
 16894 1284 180F0000 		.4byte	.LVL415
 16895 1288 0100     		.2byte	0x1
 16896 128a 50       		.byte	0x50
 16897 128b 00000000 		.4byte	0
 16898 128f 00000000 		.4byte	0
ARM GAS  C:\Users\ramanatg\AppData\Local\Temp\ccxbhSsV.s 			page 366


 16899              	.LLST70:
 16900 1293 E0110000 		.4byte	.LVL474
 16901 1297 E8110000 		.4byte	.LVL475
 16902 129b 0300     		.2byte	0x3
 16903 129d 7B       		.byte	0x7b
 16904 129e 08       		.sleb128 8
 16905 129f 9F       		.byte	0x9f
 16906 12a0 E8110000 		.4byte	.LVL475
 16907 12a4 2A120000 		.4byte	.LVL480
 16908 12a8 0100     		.2byte	0x1
 16909 12aa 50       		.byte	0x50
 16910 12ab 8E120000 		.4byte	.LVL488
 16911 12af 90120000 		.4byte	.LVL489
 16912 12b3 0100     		.2byte	0x1
 16913 12b5 50       		.byte	0x50
 16914 12b6 90120000 		.4byte	.LVL489
 16915 12ba 3E130000 		.4byte	.LVL505
 16916 12be 0300     		.2byte	0x3
 16917 12c0 7B       		.byte	0x7b
 16918 12c1 09       		.sleb128 9
 16919 12c2 9F       		.byte	0x9f
 16920 12c3 12140000 		.4byte	.LVL521
 16921 12c7 1E140000 		.4byte	.LVL524
 16922 12cb 0300     		.2byte	0x3
 16923 12cd 7B       		.byte	0x7b
 16924 12ce 09       		.sleb128 9
 16925 12cf 9F       		.byte	0x9f
 16926 12d0 22140000 		.4byte	.LVL525
 16927 12d4 42140000 		.4byte	.LVL533
 16928 12d8 0300     		.2byte	0x3
 16929 12da 7B       		.byte	0x7b
 16930 12db 09       		.sleb128 9
 16931 12dc 9F       		.byte	0x9f
 16932 12dd 5E140000 		.4byte	.LVL537
 16933 12e1 7A140000 		.4byte	.LVL541
 16934 12e5 0100     		.2byte	0x1
 16935 12e7 50       		.byte	0x50
 16936 12e8 00000000 		.4byte	0
 16937 12ec 00000000 		.4byte	0
 16938              	.LLST71:
 16939 12f0 F6110000 		.4byte	.LVL476
 16940 12f4 1C120000 		.4byte	.LVL478
 16941 12f8 0300     		.2byte	0x3
 16942 12fa 72       		.byte	0x72
 16943 12fb 7F       		.sleb128 -1
 16944 12fc 9F       		.byte	0x9f
 16945 12fd 1C120000 		.4byte	.LVL478
 16946 1301 22120000 		.4byte	.LVL479
 16947 1305 0100     		.2byte	0x1
 16948 1307 52       		.byte	0x52
 16949 1308 8E120000 		.4byte	.LVL488
 16950 130c 90120000 		.4byte	.LVL489
 16951 1310 0100     		.2byte	0x1
 16952 1312 52       		.byte	0x52
 16953 1313 5E140000 		.4byte	.LVL537
 16954 1317 7A140000 		.4byte	.LVL541
 16955 131b 0300     		.2byte	0x3
ARM GAS  C:\Users\ramanatg\AppData\Local\Temp\ccxbhSsV.s 			page 367


 16956 131d 72       		.byte	0x72
 16957 131e 7F       		.sleb128 -1
 16958 131f 9F       		.byte	0x9f
 16959 1320 00000000 		.4byte	0
 16960 1324 00000000 		.4byte	0
 16961              	.LLST72:
 16962 1328 F6110000 		.4byte	.LVL476
 16963 132c 18120000 		.4byte	.LVL477
 16964 1330 0100     		.2byte	0x1
 16965 1332 51       		.byte	0x51
 16966 1333 18120000 		.4byte	.LVL477
 16967 1337 22120000 		.4byte	.LVL479
 16968 133b 0100     		.2byte	0x1
 16969 133d 58       		.byte	0x58
 16970 133e 8E120000 		.4byte	.LVL488
 16971 1342 90130000 		.4byte	.LVL506
 16972 1346 0100     		.2byte	0x1
 16973 1348 58       		.byte	0x58
 16974 1349 12140000 		.4byte	.LVL521
 16975 134d 42140000 		.4byte	.LVL533
 16976 1351 0100     		.2byte	0x1
 16977 1353 58       		.byte	0x58
 16978 1354 5E140000 		.4byte	.LVL537
 16979 1358 7A140000 		.4byte	.LVL541
 16980 135c 0100     		.2byte	0x1
 16981 135e 51       		.byte	0x51
 16982 135f 00000000 		.4byte	0
 16983 1363 00000000 		.4byte	0
 16984              	.LLST73:
 16985 1367 90120000 		.4byte	.LVL489
 16986 136b 0A130000 		.4byte	.LVL501
 16987 136f 0100     		.2byte	0x1
 16988 1371 55       		.byte	0x55
 16989 1372 12140000 		.4byte	.LVL521
 16990 1376 1C140000 		.4byte	.LVL523
 16991 137a 0100     		.2byte	0x1
 16992 137c 55       		.byte	0x55
 16993 137d 22140000 		.4byte	.LVL525
 16994 1381 42140000 		.4byte	.LVL533
 16995 1385 0100     		.2byte	0x1
 16996 1387 55       		.byte	0x55
 16997 1388 00000000 		.4byte	0
 16998 138c 00000000 		.4byte	0
 16999              	.LLST74:
 17000 1390 90120000 		.4byte	.LVL489
 17001 1394 90130000 		.4byte	.LVL506
 17002 1398 0100     		.2byte	0x1
 17003 139a 56       		.byte	0x56
 17004 139b 12140000 		.4byte	.LVL521
 17005 139f 42140000 		.4byte	.LVL533
 17006 13a3 0100     		.2byte	0x1
 17007 13a5 56       		.byte	0x56
 17008 13a6 00000000 		.4byte	0
 17009 13aa 00000000 		.4byte	0
 17010              	.LLST75:
 17011 13ae 90120000 		.4byte	.LVL489
 17012 13b2 F0120000 		.4byte	.LVL499
ARM GAS  C:\Users\ramanatg\AppData\Local\Temp\ccxbhSsV.s 			page 368


 17013 13b6 0300     		.2byte	0x3
 17014 13b8 75       		.byte	0x75
 17015 13b9 01       		.sleb128 1
 17016 13ba 9F       		.byte	0x9f
 17017 13bb F0120000 		.4byte	.LVL499
 17018 13bf 0A130000 		.4byte	.LVL501
 17019 13c3 0300     		.2byte	0x3
 17020 13c5 75       		.byte	0x75
 17021 13c6 7F       		.sleb128 -1
 17022 13c7 9F       		.byte	0x9f
 17023 13c8 12140000 		.4byte	.LVL521
 17024 13cc 1C140000 		.4byte	.LVL523
 17025 13d0 0300     		.2byte	0x3
 17026 13d2 75       		.byte	0x75
 17027 13d3 7F       		.sleb128 -1
 17028 13d4 9F       		.byte	0x9f
 17029 13d5 22140000 		.4byte	.LVL525
 17030 13d9 42140000 		.4byte	.LVL533
 17031 13dd 0300     		.2byte	0x3
 17032 13df 75       		.byte	0x75
 17033 13e0 01       		.sleb128 1
 17034 13e1 9F       		.byte	0x9f
 17035 13e2 00000000 		.4byte	0
 17036 13e6 00000000 		.4byte	0
 17037              	.LLST76:
 17038 13ea 92120000 		.4byte	.LVL490
 17039 13ee B4120000 		.4byte	.LVL492
 17040 13f2 0100     		.2byte	0x1
 17041 13f4 53       		.byte	0x53
 17042 13f5 B4120000 		.4byte	.LVL492
 17043 13f9 B6120000 		.4byte	.LVL493
 17044 13fd 0400     		.2byte	0x4
 17045 13ff 72       		.byte	0x72
 17046 1400 E100     		.sleb128 97
 17047 1402 9F       		.byte	0x9f
 17048 1403 B6120000 		.4byte	.LVL493
 17049 1407 F0120000 		.4byte	.LVL499
 17050 140b 0200     		.2byte	0x2
 17051 140d 75       		.byte	0x75
 17052 140e 00       		.sleb128 0
 17053 140f F0120000 		.4byte	.LVL499
 17054 1413 07130000 		.4byte	.LVL500-1
 17055 1417 0200     		.2byte	0x2
 17056 1419 75       		.byte	0x75
 17057 141a 7E       		.sleb128 -2
 17058 141b 12140000 		.4byte	.LVL521
 17059 141f 17140000 		.4byte	.LVL522-1
 17060 1423 0200     		.2byte	0x2
 17061 1425 75       		.byte	0x75
 17062 1426 7E       		.sleb128 -2
 17063 1427 22140000 		.4byte	.LVL525
 17064 142b 28140000 		.4byte	.LVL527
 17065 142f 0200     		.2byte	0x2
 17066 1431 75       		.byte	0x75
 17067 1432 00       		.sleb128 0
 17068 1433 28140000 		.4byte	.LVL527
 17069 1437 2A140000 		.4byte	.LVL528
ARM GAS  C:\Users\ramanatg\AppData\Local\Temp\ccxbhSsV.s 			page 369


 17070 143b 0100     		.2byte	0x1
 17071 143d 53       		.byte	0x53
 17072 143e 2A140000 		.4byte	.LVL528
 17073 1442 2C140000 		.4byte	.LVL529
 17074 1446 0400     		.2byte	0x4
 17075 1448 73       		.byte	0x73
 17076 1449 D700     		.sleb128 87
 17077 144b 9F       		.byte	0x9f
 17078 144c 2C140000 		.4byte	.LVL529
 17079 1450 3C140000 		.4byte	.LVL531
 17080 1454 0200     		.2byte	0x2
 17081 1456 75       		.byte	0x75
 17082 1457 00       		.sleb128 0
 17083 1458 3C140000 		.4byte	.LVL531
 17084 145c 3E140000 		.4byte	.LVL532
 17085 1460 0100     		.2byte	0x1
 17086 1462 53       		.byte	0x53
 17087 1463 3E140000 		.4byte	.LVL532
 17088 1467 42140000 		.4byte	.LVL533
 17089 146b 0300     		.2byte	0x3
 17090 146d 73       		.byte	0x73
 17091 146e 37       		.sleb128 55
 17092 146f 9F       		.byte	0x9f
 17093 1470 00000000 		.4byte	0
 17094 1474 00000000 		.4byte	0
 17095              	.LLST77:
 17096 1478 A8120000 		.4byte	.LVL491
 17097 147c B4120000 		.4byte	.LVL492
 17098 1480 0100     		.2byte	0x1
 17099 1482 53       		.byte	0x53
 17100 1483 B4120000 		.4byte	.LVL492
 17101 1487 B6120000 		.4byte	.LVL493
 17102 148b 0400     		.2byte	0x4
 17103 148d 72       		.byte	0x72
 17104 148e E100     		.sleb128 97
 17105 1490 9F       		.byte	0x9f
 17106 1491 B6120000 		.4byte	.LVL493
 17107 1495 C2120000 		.4byte	.LVL494
 17108 1499 0200     		.2byte	0x2
 17109 149b 75       		.byte	0x75
 17110 149c 00       		.sleb128 0
 17111 149d 28140000 		.4byte	.LVL527
 17112 14a1 2A140000 		.4byte	.LVL528
 17113 14a5 0100     		.2byte	0x1
 17114 14a7 53       		.byte	0x53
 17115 14a8 2A140000 		.4byte	.LVL528
 17116 14ac 2C140000 		.4byte	.LVL529
 17117 14b0 0400     		.2byte	0x4
 17118 14b2 73       		.byte	0x73
 17119 14b3 D700     		.sleb128 87
 17120 14b5 9F       		.byte	0x9f
 17121 14b6 00000000 		.4byte	0
 17122 14ba 00000000 		.4byte	0
 17123              	.LLST78:
 17124 14be B4120000 		.4byte	.LVL492
 17125 14c2 DA120000 		.4byte	.LVL496
 17126 14c6 0100     		.2byte	0x1
ARM GAS  C:\Users\ramanatg\AppData\Local\Temp\ccxbhSsV.s 			page 370


 17127 14c8 53       		.byte	0x53
 17128 14c9 DA120000 		.4byte	.LVL496
 17129 14cd DC120000 		.4byte	.LVL497
 17130 14d1 0400     		.2byte	0x4
 17131 14d3 73       		.byte	0x73
 17132 14d4 D700     		.sleb128 87
 17133 14d6 9F       		.byte	0x9f
 17134 14d7 22140000 		.4byte	.LVL525
 17135 14db 24140000 		.4byte	.LVL526
 17136 14df 0100     		.2byte	0x1
 17137 14e1 53       		.byte	0x53
 17138 14e2 2E140000 		.4byte	.LVL530
 17139 14e6 3C140000 		.4byte	.LVL531
 17140 14ea 0100     		.2byte	0x1
 17141 14ec 53       		.byte	0x53
 17142 14ed 00000000 		.4byte	0
 17143 14f1 00000000 		.4byte	0
 17144              	.LLST79:
 17145 14f5 CC120000 		.4byte	.LVL495
 17146 14f9 DA120000 		.4byte	.LVL496
 17147 14fd 0100     		.2byte	0x1
 17148 14ff 53       		.byte	0x53
 17149 1500 DA120000 		.4byte	.LVL496
 17150 1504 DC120000 		.4byte	.LVL497
 17151 1508 0400     		.2byte	0x4
 17152 150a 73       		.byte	0x73
 17153 150b D700     		.sleb128 87
 17154 150d 9F       		.byte	0x9f
 17155 150e 00000000 		.4byte	0
 17156 1512 00000000 		.4byte	0
 17157              	.LLST80:
 17158 1516 840A0000 		.4byte	.LVL296
 17159 151a 920A0000 		.4byte	.LVL297
 17160 151e 0200     		.2byte	0x2
 17161 1520 30       		.byte	0x30
 17162 1521 9F       		.byte	0x9f
 17163 1522 920A0000 		.4byte	.LVL297
 17164 1526 9E0A0000 		.4byte	.LVL299
 17165 152a 0100     		.2byte	0x1
 17166 152c 53       		.byte	0x53
 17167 152d A20A0000 		.4byte	.LVL300
 17168 1531 B20A0000 		.4byte	.LVL302
 17169 1535 0100     		.2byte	0x1
 17170 1537 53       		.byte	0x53
 17171 1538 B40F0000 		.4byte	.LVL421
 17172 153c B60F0000 		.4byte	.LVL422
 17173 1540 0200     		.2byte	0x2
 17174 1542 30       		.byte	0x30
 17175 1543 9F       		.byte	0x9f
 17176 1544 F20F0000 		.4byte	.LVL428
 17177 1548 F80F0000 		.4byte	.LVL429
 17178 154c 0200     		.2byte	0x2
 17179 154e 30       		.byte	0x30
 17180 154f 9F       		.byte	0x9f
 17181 1550 F80F0000 		.4byte	.LVL429
 17182 1554 06100000 		.4byte	.LVL431
 17183 1558 0300     		.2byte	0x3
ARM GAS  C:\Users\ramanatg\AppData\Local\Temp\ccxbhSsV.s 			page 371


 17184 155a 75       		.byte	0x75
 17185 155b 26       		.sleb128 38
 17186 155c 9F       		.byte	0x9f
 17187 155d 1C190000 		.4byte	.LVL644
 17188 1561 2A190000 		.4byte	.LVL645
 17189 1565 0100     		.2byte	0x1
 17190 1567 53       		.byte	0x53
 17191 1568 00000000 		.4byte	0
 17192 156c 00000000 		.4byte	0
 17193              	.LLST81:
 17194 1570 5C0A0000 		.4byte	.LVL293
 17195 1574 840A0000 		.4byte	.LVL296
 17196 1578 0200     		.2byte	0x2
 17197 157a 30       		.byte	0x30
 17198 157b 9F       		.byte	0x9f
 17199 157c 840A0000 		.4byte	.LVL296
 17200 1580 B20A0000 		.4byte	.LVL302
 17201 1584 0100     		.2byte	0x1
 17202 1586 56       		.byte	0x56
 17203 1587 B40F0000 		.4byte	.LVL421
 17204 158b D00F0000 		.4byte	.LVL424
 17205 158f 0100     		.2byte	0x1
 17206 1591 56       		.byte	0x56
 17207 1592 D00F0000 		.4byte	.LVL424
 17208 1596 EC0F0000 		.4byte	.LVL427
 17209 159a 0100     		.2byte	0x1
 17210 159c 58       		.byte	0x58
 17211 159d EC0F0000 		.4byte	.LVL427
 17212 15a1 F20F0000 		.4byte	.LVL428
 17213 15a5 0200     		.2byte	0x2
 17214 15a7 30       		.byte	0x30
 17215 15a8 9F       		.byte	0x9f
 17216 15a9 1C190000 		.4byte	.LVL644
 17217 15ad 3C190000 		.4byte	.LVL646
 17218 15b1 0100     		.2byte	0x1
 17219 15b3 56       		.byte	0x56
 17220 15b4 3C190000 		.4byte	.LVL646
 17221 15b8 A4190000 		.4byte	.LVL651
 17222 15bc 0100     		.2byte	0x1
 17223 15be 58       		.byte	0x58
 17224 15bf 00000000 		.4byte	0
 17225 15c3 00000000 		.4byte	0
 17226              	.LLST82:
 17227 15c7 780A0000 		.4byte	.LVL294
 17228 15cb 7E0A0000 		.4byte	.LVL295
 17229 15cf 0300     		.2byte	0x3
 17230 15d1 7B       		.byte	0x7b
 17231 15d2 07       		.sleb128 7
 17232 15d3 9F       		.byte	0x9f
 17233 15d4 7E0A0000 		.4byte	.LVL295
 17234 15d8 B20A0000 		.4byte	.LVL302
 17235 15dc 0100     		.2byte	0x1
 17236 15de 55       		.byte	0x55
 17237 15df B40F0000 		.4byte	.LVL421
 17238 15e3 EC0F0000 		.4byte	.LVL427
 17239 15e7 0100     		.2byte	0x1
 17240 15e9 55       		.byte	0x55
ARM GAS  C:\Users\ramanatg\AppData\Local\Temp\ccxbhSsV.s 			page 372


 17241 15ea 1C190000 		.4byte	.LVL644
 17242 15ee A4190000 		.4byte	.LVL651
 17243 15f2 0100     		.2byte	0x1
 17244 15f4 55       		.byte	0x55
 17245 15f5 00000000 		.4byte	0
 17246 15f9 00000000 		.4byte	0
 17247              	.LLST83:
 17248 15fd 780A0000 		.4byte	.LVL294
 17249 1601 B20A0000 		.4byte	.LVL302
 17250 1605 0200     		.2byte	0x2
 17251 1607 30       		.byte	0x30
 17252 1608 9F       		.byte	0x9f
 17253 1609 B40F0000 		.4byte	.LVL421
 17254 160d BC0F0000 		.4byte	.LVL423
 17255 1611 0200     		.2byte	0x2
 17256 1613 30       		.byte	0x30
 17257 1614 9F       		.byte	0x9f
 17258 1615 BC0F0000 		.4byte	.LVL423
 17259 1619 E00F0000 		.4byte	.LVL425
 17260 161d 0100     		.2byte	0x1
 17261 161f 50       		.byte	0x50
 17262 1620 E00F0000 		.4byte	.LVL425
 17263 1624 EC0F0000 		.4byte	.LVL427
 17264 1628 0200     		.2byte	0x2
 17265 162a 30       		.byte	0x30
 17266 162b 9F       		.byte	0x9f
 17267 162c 1C190000 		.4byte	.LVL644
 17268 1630 3C190000 		.4byte	.LVL646
 17269 1634 0200     		.2byte	0x2
 17270 1636 30       		.byte	0x30
 17271 1637 9F       		.byte	0x9f
 17272 1638 3C190000 		.4byte	.LVL646
 17273 163c 7E190000 		.4byte	.LVL647
 17274 1640 0100     		.2byte	0x1
 17275 1642 50       		.byte	0x50
 17276 1643 00000000 		.4byte	0
 17277 1647 00000000 		.4byte	0
 17278              	.LLST84:
 17279 164b 9C0C0000 		.4byte	.LVL363
 17280 164f AE0C0000 		.4byte	.LVL365
 17281 1653 0200     		.2byte	0x2
 17282 1655 30       		.byte	0x30
 17283 1656 9F       		.byte	0x9f
 17284 1657 AE0C0000 		.4byte	.LVL365
 17285 165b BE0C0000 		.4byte	.LVL367
 17286 165f 0200     		.2byte	0x2
 17287 1661 31       		.byte	0x31
 17288 1662 9F       		.byte	0x9f
 17289 1663 BE0C0000 		.4byte	.LVL367
 17290 1667 CE0C0000 		.4byte	.LVL369
 17291 166b 0200     		.2byte	0x2
 17292 166d 32       		.byte	0x32
 17293 166e 9F       		.byte	0x9f
 17294 166f CE0C0000 		.4byte	.LVL369
 17295 1673 DE0C0000 		.4byte	.LVL371
 17296 1677 0200     		.2byte	0x2
 17297 1679 33       		.byte	0x33
ARM GAS  C:\Users\ramanatg\AppData\Local\Temp\ccxbhSsV.s 			page 373


 17298 167a 9F       		.byte	0x9f
 17299 167b DE0C0000 		.4byte	.LVL371
 17300 167f 060D0000 		.4byte	.LVL373
 17301 1683 0200     		.2byte	0x2
 17302 1685 34       		.byte	0x34
 17303 1686 9F       		.byte	0x9f
 17304 1687 00000000 		.4byte	0
 17305 168b 00000000 		.4byte	0
 17306              	.LLST85:
 17307 168f 720C0000 		.4byte	.LVL361
 17308 1693 180D0000 		.4byte	.LVL375
 17309 1697 0200     		.2byte	0x2
 17310 1699 30       		.byte	0x30
 17311 169a 9F       		.byte	0x9f
 17312 169b 78160000 		.4byte	.LVL582
 17313 169f 82160000 		.4byte	.LVL584
 17314 16a3 0200     		.2byte	0x2
 17315 16a5 30       		.byte	0x30
 17316 16a6 9F       		.byte	0x9f
 17317 16a7 00000000 		.4byte	0
 17318 16ab 00000000 		.4byte	0
 17319              	.LLST86:
 17320 16af C4190000 		.4byte	.LVL655
 17321 16b3 E0190000 		.4byte	.LVL657
 17322 16b7 0100     		.2byte	0x1
 17323 16b9 55       		.byte	0x55
 17324 16ba E0190000 		.4byte	.LVL657
 17325 16be 021A0000 		.4byte	.LVL659
 17326 16c2 0100     		.2byte	0x1
 17327 16c4 56       		.byte	0x56
 17328 16c5 441A0000 		.4byte	.LVL668
 17329 16c9 601A0000 		.4byte	.LVL670
 17330 16cd 0100     		.2byte	0x1
 17331 16cf 56       		.byte	0x56
 17332 16d0 C41A0000 		.4byte	.LVL671
 17333 16d4 081B0000 		.4byte	.LVL675
 17334 16d8 0100     		.2byte	0x1
 17335 16da 56       		.byte	0x56
 17336 16db 0A1B0000 		.4byte	.LVL676
 17337 16df 121B0000 		.4byte	.LVL677
 17338 16e3 0100     		.2byte	0x1
 17339 16e5 56       		.byte	0x56
 17340 16e6 00000000 		.4byte	0
 17341 16ea 00000000 		.4byte	0
 17342              	.LLST87:
 17343 16ee 44120000 		.4byte	.LVL482
 17344 16f2 48120000 		.4byte	.LVL483
 17345 16f6 0300     		.2byte	0x3
 17346 16f8 7B       		.byte	0x7b
 17347 16f9 06       		.sleb128 6
 17348 16fa 9F       		.byte	0x9f
 17349 16fb 48120000 		.4byte	.LVL483
 17350 16ff 8E120000 		.4byte	.LVL488
 17351 1703 0100     		.2byte	0x1
 17352 1705 50       		.byte	0x50
 17353 1706 90130000 		.4byte	.LVL506
 17354 170a 9A130000 		.4byte	.LVL508
ARM GAS  C:\Users\ramanatg\AppData\Local\Temp\ccxbhSsV.s 			page 374


 17355 170e 0100     		.2byte	0x1
 17356 1710 50       		.byte	0x50
 17357 1711 9A130000 		.4byte	.LVL508
 17358 1715 0E140000 		.4byte	.LVL520
 17359 1719 0300     		.2byte	0x3
 17360 171b 7B       		.byte	0x7b
 17361 171c 07       		.sleb128 7
 17362 171d 9F       		.byte	0x9f
 17363 171e 42140000 		.4byte	.LVL533
 17364 1722 5E140000 		.4byte	.LVL537
 17365 1726 0100     		.2byte	0x1
 17366 1728 50       		.byte	0x50
 17367 1729 00000000 		.4byte	0
 17368 172d 00000000 		.4byte	0
 17369              	.LLST88:
 17370 1731 58120000 		.4byte	.LVL484
 17371 1735 7E120000 		.4byte	.LVL486
 17372 1739 0300     		.2byte	0x3
 17373 173b 72       		.byte	0x72
 17374 173c 7F       		.sleb128 -1
 17375 173d 9F       		.byte	0x9f
 17376 173e 7E120000 		.4byte	.LVL486
 17377 1742 86120000 		.4byte	.LVL487
 17378 1746 0100     		.2byte	0x1
 17379 1748 52       		.byte	0x52
 17380 1749 90130000 		.4byte	.LVL506
 17381 174d 9A130000 		.4byte	.LVL508
 17382 1751 0100     		.2byte	0x1
 17383 1753 52       		.byte	0x52
 17384 1754 42140000 		.4byte	.LVL533
 17385 1758 5E140000 		.4byte	.LVL537
 17386 175c 0300     		.2byte	0x3
 17387 175e 72       		.byte	0x72
 17388 175f 7F       		.sleb128 -1
 17389 1760 9F       		.byte	0x9f
 17390 1761 00000000 		.4byte	0
 17391 1765 00000000 		.4byte	0
 17392              	.LLST89:
 17393 1769 58120000 		.4byte	.LVL484
 17394 176d 7A120000 		.4byte	.LVL485
 17395 1771 0100     		.2byte	0x1
 17396 1773 51       		.byte	0x51
 17397 1774 7A120000 		.4byte	.LVL485
 17398 1778 86120000 		.4byte	.LVL487
 17399 177c 0100     		.2byte	0x1
 17400 177e 58       		.byte	0x58
 17401 177f 90130000 		.4byte	.LVL506
 17402 1783 94130000 		.4byte	.LVL507
 17403 1787 0100     		.2byte	0x1
 17404 1789 58       		.byte	0x58
 17405 178a 94130000 		.4byte	.LVL507
 17406 178e 9A130000 		.4byte	.LVL508
 17407 1792 0300     		.2byte	0x3
 17408 1794 71       		.byte	0x71
 17409 1795 01       		.sleb128 1
 17410 1796 9F       		.byte	0x9f
 17411 1797 42140000 		.4byte	.LVL533
ARM GAS  C:\Users\ramanatg\AppData\Local\Temp\ccxbhSsV.s 			page 375


 17412 179b 5E140000 		.4byte	.LVL537
 17413 179f 0100     		.2byte	0x1
 17414 17a1 51       		.byte	0x51
 17415 17a2 00000000 		.4byte	0
 17416 17a6 00000000 		.4byte	0
 17417              	.LLST90:
 17418 17aa 9A130000 		.4byte	.LVL508
 17419 17ae D0130000 		.4byte	.LVL515
 17420 17b2 0100     		.2byte	0x1
 17421 17b4 55       		.byte	0x55
 17422 17b5 00000000 		.4byte	0
 17423 17b9 00000000 		.4byte	0
 17424              	.LLST91:
 17425 17bd 9A130000 		.4byte	.LVL508
 17426 17c1 12140000 		.4byte	.LVL521
 17427 17c5 0100     		.2byte	0x1
 17428 17c7 57       		.byte	0x57
 17429 17c8 00000000 		.4byte	0
 17430 17cc 00000000 		.4byte	0
 17431              	.LLST92:
 17432 17d0 9A130000 		.4byte	.LVL508
 17433 17d4 C6130000 		.4byte	.LVL514
 17434 17d8 0300     		.2byte	0x3
 17435 17da 75       		.byte	0x75
 17436 17db 01       		.sleb128 1
 17437 17dc 9F       		.byte	0x9f
 17438 17dd C6130000 		.4byte	.LVL514
 17439 17e1 D0130000 		.4byte	.LVL515
 17440 17e5 0300     		.2byte	0x3
 17441 17e7 75       		.byte	0x75
 17442 17e8 7F       		.sleb128 -1
 17443 17e9 9F       		.byte	0x9f
 17444 17ea 00000000 		.4byte	0
 17445 17ee 00000000 		.4byte	0
 17446              	.LLST93:
 17447 17f2 A2130000 		.4byte	.LVL510
 17448 17f6 12140000 		.4byte	.LVL521
 17449 17fa 0100     		.2byte	0x1
 17450 17fc 59       		.byte	0x59
 17451 17fd 00000000 		.4byte	0
 17452 1801 00000000 		.4byte	0
 17453              	.LLST94:
 17454 1805 A8130000 		.4byte	.LVL511
 17455 1809 C0130000 		.4byte	.LVL512
 17456 180d 0100     		.2byte	0x1
 17457 180f 50       		.byte	0x50
 17458 1810 00000000 		.4byte	0
 17459 1814 00000000 		.4byte	0
 17460              	.LLST95:
 17461 1818 121A0000 		.4byte	.LVL661
 17462 181c 3A1A0000 		.4byte	.LVL666
 17463 1820 0100     		.2byte	0x1
 17464 1822 55       		.byte	0x55
 17465 1823 181B0000 		.4byte	.LVL679
 17466 1827 501B0000 		.4byte	.LFE39
 17467 182b 0100     		.2byte	0x1
 17468 182d 55       		.byte	0x55
ARM GAS  C:\Users\ramanatg\AppData\Local\Temp\ccxbhSsV.s 			page 376


 17469 182e 00000000 		.4byte	0
 17470 1832 00000000 		.4byte	0
 17471              	.LLST96:
 17472 1836 98150000 		.4byte	.LVL565
 17473 183a A4150000 		.4byte	.LVL566
 17474 183e 0200     		.2byte	0x2
 17475 1840 30       		.byte	0x30
 17476 1841 9F       		.byte	0x9f
 17477 1842 A4150000 		.4byte	.LVL566
 17478 1846 C2150000 		.4byte	.LVL567
 17479 184a 0100     		.2byte	0x1
 17480 184c 52       		.byte	0x52
 17481 184d C6150000 		.4byte	.LVL568
 17482 1851 D2150000 		.4byte	.LVL569
 17483 1855 0100     		.2byte	0x1
 17484 1857 52       		.byte	0x52
 17485 1858 D2150000 		.4byte	.LVL569
 17486 185c D6150000 		.4byte	.LVL570
 17487 1860 0200     		.2byte	0x2
 17488 1862 30       		.byte	0x30
 17489 1863 9F       		.byte	0x9f
 17490 1864 00000000 		.4byte	0
 17491 1868 00000000 		.4byte	0
 17492              	.LLST97:
 17493 186c 70150000 		.4byte	.LVL562
 17494 1870 08160000 		.4byte	.LVL574
 17495 1874 0200     		.2byte	0x2
 17496 1876 30       		.byte	0x30
 17497 1877 9F       		.byte	0x9f
 17498 1878 18160000 		.4byte	.LVL576
 17499 187c 24160000 		.4byte	.LVL578
 17500 1880 0200     		.2byte	0x2
 17501 1882 30       		.byte	0x30
 17502 1883 9F       		.byte	0x9f
 17503 1884 00000000 		.4byte	0
 17504 1888 00000000 		.4byte	0
 17505              	.LLST98:
 17506 188c 7E150000 		.4byte	.LVL564
 17507 1890 EB150000 		.4byte	.LVL571-1
 17508 1894 0100     		.2byte	0x1
 17509 1896 51       		.byte	0x51
 17510 1897 18160000 		.4byte	.LVL576
 17511 189b 1D160000 		.4byte	.LVL577-1
 17512 189f 0100     		.2byte	0x1
 17513 18a1 51       		.byte	0x51
 17514 18a2 00000000 		.4byte	0
 17515 18a6 00000000 		.4byte	0
 17516              	.LLST99:
 17517 18aa 10170000 		.4byte	.LVL590
 17518 18ae 18170000 		.4byte	.LVL591
 17519 18b2 0200     		.2byte	0x2
 17520 18b4 30       		.byte	0x30
 17521 18b5 9F       		.byte	0x9f
 17522 18b6 18170000 		.4byte	.LVL591
 17523 18ba A8170000 		.4byte	.LVL608
 17524 18be 0100     		.2byte	0x1
 17525 18c0 56       		.byte	0x56
ARM GAS  C:\Users\ramanatg\AppData\Local\Temp\ccxbhSsV.s 			page 377


 17526 18c1 FE170000 		.4byte	.LVL612
 17527 18c5 04180000 		.4byte	.LVL613
 17528 18c9 0200     		.2byte	0x2
 17529 18cb 30       		.byte	0x30
 17530 18cc 9F       		.byte	0x9f
 17531 18cd 04180000 		.4byte	.LVL613
 17532 18d1 12180000 		.4byte	.LVL615
 17533 18d5 0400     		.2byte	0x4
 17534 18d7 75       		.byte	0x75
 17535 18d8 D000     		.sleb128 80
 17536 18da 9F       		.byte	0x9f
 17537 18db E8180000 		.4byte	.LVL634
 17538 18df F4180000 		.4byte	.LVL636
 17539 18e3 0100     		.2byte	0x1
 17540 18e5 56       		.byte	0x56
 17541 18e6 F8180000 		.4byte	.LVL637
 17542 18ea 14190000 		.4byte	.LVL642
 17543 18ee 0100     		.2byte	0x1
 17544 18f0 56       		.byte	0x56
 17545 18f1 00000000 		.4byte	0
 17546 18f5 00000000 		.4byte	0
 17547              	.LLST100:
 17548 18f9 18170000 		.4byte	.LVL591
 17549 18fd 28170000 		.4byte	.LVL593
 17550 1901 0200     		.2byte	0x2
 17551 1903 30       		.byte	0x30
 17552 1904 9F       		.byte	0x9f
 17553 1905 28170000 		.4byte	.LVL593
 17554 1909 38170000 		.4byte	.LVL595
 17555 190d 0200     		.2byte	0x2
 17556 190f 31       		.byte	0x31
 17557 1910 9F       		.byte	0x9f
 17558 1911 38170000 		.4byte	.LVL595
 17559 1915 48170000 		.4byte	.LVL597
 17560 1919 0200     		.2byte	0x2
 17561 191b 32       		.byte	0x32
 17562 191c 9F       		.byte	0x9f
 17563 191d 48170000 		.4byte	.LVL597
 17564 1921 58170000 		.4byte	.LVL599
 17565 1925 0200     		.2byte	0x2
 17566 1927 33       		.byte	0x33
 17567 1928 9F       		.byte	0x9f
 17568 1929 58170000 		.4byte	.LVL599
 17569 192d 68170000 		.4byte	.LVL601
 17570 1931 0200     		.2byte	0x2
 17571 1933 34       		.byte	0x34
 17572 1934 9F       		.byte	0x9f
 17573 1935 68170000 		.4byte	.LVL601
 17574 1939 78170000 		.4byte	.LVL603
 17575 193d 0200     		.2byte	0x2
 17576 193f 35       		.byte	0x35
 17577 1940 9F       		.byte	0x9f
 17578 1941 78170000 		.4byte	.LVL603
 17579 1945 88170000 		.4byte	.LVL605
 17580 1949 0200     		.2byte	0x2
 17581 194b 36       		.byte	0x36
 17582 194c 9F       		.byte	0x9f
ARM GAS  C:\Users\ramanatg\AppData\Local\Temp\ccxbhSsV.s 			page 378


 17583 194d 88170000 		.4byte	.LVL605
 17584 1951 9E170000 		.4byte	.LVL607
 17585 1955 0200     		.2byte	0x2
 17586 1957 37       		.byte	0x37
 17587 1958 9F       		.byte	0x9f
 17588 1959 E8180000 		.4byte	.LVL634
 17589 195d EE180000 		.4byte	.LVL635
 17590 1961 0200     		.2byte	0x2
 17591 1963 36       		.byte	0x36
 17592 1964 9F       		.byte	0x9f
 17593 1965 EE180000 		.4byte	.LVL635
 17594 1969 F4180000 		.4byte	.LVL636
 17595 196d 0200     		.2byte	0x2
 17596 196f 35       		.byte	0x35
 17597 1970 9F       		.byte	0x9f
 17598 1971 F8180000 		.4byte	.LVL637
 17599 1975 FE180000 		.4byte	.LVL638
 17600 1979 0200     		.2byte	0x2
 17601 197b 34       		.byte	0x34
 17602 197c 9F       		.byte	0x9f
 17603 197d FE180000 		.4byte	.LVL638
 17604 1981 04190000 		.4byte	.LVL639
 17605 1985 0200     		.2byte	0x2
 17606 1987 33       		.byte	0x33
 17607 1988 9F       		.byte	0x9f
 17608 1989 04190000 		.4byte	.LVL639
 17609 198d 0A190000 		.4byte	.LVL640
 17610 1991 0200     		.2byte	0x2
 17611 1993 32       		.byte	0x32
 17612 1994 9F       		.byte	0x9f
 17613 1995 0A190000 		.4byte	.LVL640
 17614 1999 10190000 		.4byte	.LVL641
 17615 199d 0200     		.2byte	0x2
 17616 199f 31       		.byte	0x31
 17617 19a0 9F       		.byte	0x9f
 17618 19a1 10190000 		.4byte	.LVL641
 17619 19a5 14190000 		.4byte	.LVL642
 17620 19a9 0200     		.2byte	0x2
 17621 19ab 30       		.byte	0x30
 17622 19ac 9F       		.byte	0x9f
 17623 19ad 00000000 		.4byte	0
 17624 19b1 00000000 		.4byte	0
 17625              	.LLST101:
 17626 19b5 10170000 		.4byte	.LVL590
 17627 19b9 B2170000 		.4byte	.LVL610
 17628 19bd 0100     		.2byte	0x1
 17629 19bf 55       		.byte	0x55
 17630 19c0 E8180000 		.4byte	.LVL634
 17631 19c4 F4180000 		.4byte	.LVL636
 17632 19c8 0100     		.2byte	0x1
 17633 19ca 55       		.byte	0x55
 17634 19cb F8180000 		.4byte	.LVL637
 17635 19cf 14190000 		.4byte	.LVL642
 17636 19d3 0100     		.2byte	0x1
 17637 19d5 55       		.byte	0x55
 17638 19d6 00000000 		.4byte	0
 17639 19da 00000000 		.4byte	0
ARM GAS  C:\Users\ramanatg\AppData\Local\Temp\ccxbhSsV.s 			page 379


 17640              	.LLST102:
 17641 19de 18170000 		.4byte	.LVL591
 17642 19e2 38170000 		.4byte	.LVL595
 17643 19e6 0200     		.2byte	0x2
 17644 19e8 34       		.byte	0x34
 17645 19e9 9F       		.byte	0x9f
 17646 19ea 38170000 		.4byte	.LVL595
 17647 19ee 78170000 		.4byte	.LVL603
 17648 19f2 0200     		.2byte	0x2
 17649 19f4 33       		.byte	0x33
 17650 19f5 9F       		.byte	0x9f
 17651 19f6 78170000 		.4byte	.LVL603
 17652 19fa 9E170000 		.4byte	.LVL607
 17653 19fe 0200     		.2byte	0x2
 17654 1a00 32       		.byte	0x32
 17655 1a01 9F       		.byte	0x9f
 17656 1a02 E8180000 		.4byte	.LVL634
 17657 1a06 EE180000 		.4byte	.LVL635
 17658 1a0a 0200     		.2byte	0x2
 17659 1a0c 32       		.byte	0x32
 17660 1a0d 9F       		.byte	0x9f
 17661 1a0e EE180000 		.4byte	.LVL635
 17662 1a12 F4180000 		.4byte	.LVL636
 17663 1a16 0200     		.2byte	0x2
 17664 1a18 33       		.byte	0x33
 17665 1a19 9F       		.byte	0x9f
 17666 1a1a F8180000 		.4byte	.LVL637
 17667 1a1e 0A190000 		.4byte	.LVL640
 17668 1a22 0200     		.2byte	0x2
 17669 1a24 33       		.byte	0x33
 17670 1a25 9F       		.byte	0x9f
 17671 1a26 0A190000 		.4byte	.LVL640
 17672 1a2a 14190000 		.4byte	.LVL642
 17673 1a2e 0200     		.2byte	0x2
 17674 1a30 34       		.byte	0x34
 17675 1a31 9F       		.byte	0x9f
 17676 1a32 00000000 		.4byte	0
 17677 1a36 00000000 		.4byte	0
 17678              	.LLST103:
 17679 1a3a F0160000 		.4byte	.LVL588
 17680 1a3e 20180000 		.4byte	.LVL617
 17681 1a42 4000     		.2byte	0x40
 17682 1a44 03       		.byte	0x3
 17683 1a45 60020000 		.4byte	.LC21
 17684 1a49 9F       		.byte	0x9f
 17685 1a4a 93       		.byte	0x93
 17686 1a4b 04       		.uleb128 0x4
 17687 1a4c 03       		.byte	0x3
 17688 1a4d 68020000 		.4byte	.LC22
 17689 1a51 9F       		.byte	0x9f
 17690 1a52 93       		.byte	0x93
 17691 1a53 04       		.uleb128 0x4
 17692 1a54 03       		.byte	0x3
 17693 1a55 70020000 		.4byte	.LC23
 17694 1a59 9F       		.byte	0x9f
 17695 1a5a 93       		.byte	0x93
 17696 1a5b 04       		.uleb128 0x4
ARM GAS  C:\Users\ramanatg\AppData\Local\Temp\ccxbhSsV.s 			page 380


 17697 1a5c 03       		.byte	0x3
 17698 1a5d 74020000 		.4byte	.LC24
 17699 1a61 9F       		.byte	0x9f
 17700 1a62 93       		.byte	0x93
 17701 1a63 04       		.uleb128 0x4
 17702 1a64 03       		.byte	0x3
 17703 1a65 78020000 		.4byte	.LC25
 17704 1a69 9F       		.byte	0x9f
 17705 1a6a 93       		.byte	0x93
 17706 1a6b 04       		.uleb128 0x4
 17707 1a6c 03       		.byte	0x3
 17708 1a6d 7C020000 		.4byte	.LC26
 17709 1a71 9F       		.byte	0x9f
 17710 1a72 93       		.byte	0x93
 17711 1a73 04       		.uleb128 0x4
 17712 1a74 03       		.byte	0x3
 17713 1a75 80020000 		.4byte	.LC27
 17714 1a79 9F       		.byte	0x9f
 17715 1a7a 93       		.byte	0x93
 17716 1a7b 04       		.uleb128 0x4
 17717 1a7c 03       		.byte	0x3
 17718 1a7d 84020000 		.4byte	.LC28
 17719 1a81 9F       		.byte	0x9f
 17720 1a82 93       		.byte	0x93
 17721 1a83 04       		.uleb128 0x4
 17722 1a84 E8180000 		.4byte	.LVL634
 17723 1a88 F4180000 		.4byte	.LVL636
 17724 1a8c 4000     		.2byte	0x40
 17725 1a8e 03       		.byte	0x3
 17726 1a8f 60020000 		.4byte	.LC21
 17727 1a93 9F       		.byte	0x9f
 17728 1a94 93       		.byte	0x93
 17729 1a95 04       		.uleb128 0x4
 17730 1a96 03       		.byte	0x3
 17731 1a97 68020000 		.4byte	.LC22
 17732 1a9b 9F       		.byte	0x9f
 17733 1a9c 93       		.byte	0x93
 17734 1a9d 04       		.uleb128 0x4
 17735 1a9e 03       		.byte	0x3
 17736 1a9f 70020000 		.4byte	.LC23
 17737 1aa3 9F       		.byte	0x9f
 17738 1aa4 93       		.byte	0x93
 17739 1aa5 04       		.uleb128 0x4
 17740 1aa6 03       		.byte	0x3
 17741 1aa7 74020000 		.4byte	.LC24
 17742 1aab 9F       		.byte	0x9f
 17743 1aac 93       		.byte	0x93
 17744 1aad 04       		.uleb128 0x4
 17745 1aae 03       		.byte	0x3
 17746 1aaf 78020000 		.4byte	.LC25
 17747 1ab3 9F       		.byte	0x9f
 17748 1ab4 93       		.byte	0x93
 17749 1ab5 04       		.uleb128 0x4
 17750 1ab6 03       		.byte	0x3
 17751 1ab7 7C020000 		.4byte	.LC26
 17752 1abb 9F       		.byte	0x9f
 17753 1abc 93       		.byte	0x93
ARM GAS  C:\Users\ramanatg\AppData\Local\Temp\ccxbhSsV.s 			page 381


 17754 1abd 04       		.uleb128 0x4
 17755 1abe 03       		.byte	0x3
 17756 1abf 80020000 		.4byte	.LC27
 17757 1ac3 9F       		.byte	0x9f
 17758 1ac4 93       		.byte	0x93
 17759 1ac5 04       		.uleb128 0x4
 17760 1ac6 03       		.byte	0x3
 17761 1ac7 84020000 		.4byte	.LC28
 17762 1acb 9F       		.byte	0x9f
 17763 1acc 93       		.byte	0x93
 17764 1acd 04       		.uleb128 0x4
 17765 1ace F8180000 		.4byte	.LVL637
 17766 1ad2 1C190000 		.4byte	.LVL644
 17767 1ad6 4000     		.2byte	0x40
 17768 1ad8 03       		.byte	0x3
 17769 1ad9 60020000 		.4byte	.LC21
 17770 1add 9F       		.byte	0x9f
 17771 1ade 93       		.byte	0x93
 17772 1adf 04       		.uleb128 0x4
 17773 1ae0 03       		.byte	0x3
 17774 1ae1 68020000 		.4byte	.LC22
 17775 1ae5 9F       		.byte	0x9f
 17776 1ae6 93       		.byte	0x93
 17777 1ae7 04       		.uleb128 0x4
 17778 1ae8 03       		.byte	0x3
 17779 1ae9 70020000 		.4byte	.LC23
 17780 1aed 9F       		.byte	0x9f
 17781 1aee 93       		.byte	0x93
 17782 1aef 04       		.uleb128 0x4
 17783 1af0 03       		.byte	0x3
 17784 1af1 74020000 		.4byte	.LC24
 17785 1af5 9F       		.byte	0x9f
 17786 1af6 93       		.byte	0x93
 17787 1af7 04       		.uleb128 0x4
 17788 1af8 03       		.byte	0x3
 17789 1af9 78020000 		.4byte	.LC25
 17790 1afd 9F       		.byte	0x9f
 17791 1afe 93       		.byte	0x93
 17792 1aff 04       		.uleb128 0x4
 17793 1b00 03       		.byte	0x3
 17794 1b01 7C020000 		.4byte	.LC26
 17795 1b05 9F       		.byte	0x9f
 17796 1b06 93       		.byte	0x93
 17797 1b07 04       		.uleb128 0x4
 17798 1b08 03       		.byte	0x3
 17799 1b09 80020000 		.4byte	.LC27
 17800 1b0d 9F       		.byte	0x9f
 17801 1b0e 93       		.byte	0x93
 17802 1b0f 04       		.uleb128 0x4
 17803 1b10 03       		.byte	0x3
 17804 1b11 84020000 		.4byte	.LC28
 17805 1b15 9F       		.byte	0x9f
 17806 1b16 93       		.byte	0x93
 17807 1b17 04       		.uleb128 0x4
 17808 1b18 00000000 		.4byte	0
 17809 1b1c 00000000 		.4byte	0
 17810              	.LLST104:
ARM GAS  C:\Users\ramanatg\AppData\Local\Temp\ccxbhSsV.s 			page 382


 17811 1b20 A4180000 		.4byte	.LVL628
 17812 1b24 C4180000 		.4byte	.LVL629
 17813 1b28 0200     		.2byte	0x2
 17814 1b2a 31       		.byte	0x31
 17815 1b2b 9F       		.byte	0x9f
 17816 1b2c C4180000 		.4byte	.LVL629
 17817 1b30 C6180000 		.4byte	.LVL630
 17818 1b34 0100     		.2byte	0x1
 17819 1b36 52       		.byte	0x52
 17820 1b37 C8180000 		.4byte	.LVL631
 17821 1b3b DC180000 		.4byte	.LVL632
 17822 1b3f 0100     		.2byte	0x1
 17823 1b41 52       		.byte	0x52
 17824 1b42 F4180000 		.4byte	.LVL636
 17825 1b46 F8180000 		.4byte	.LVL637
 17826 1b4a 0100     		.2byte	0x1
 17827 1b4c 52       		.byte	0x52
 17828 1b4d 00000000 		.4byte	0
 17829 1b51 00000000 		.4byte	0
 17830              	.LLST105:
 17831 1b55 20180000 		.4byte	.LVL617
 17832 1b59 E8180000 		.4byte	.LVL634
 17833 1b5d 0200     		.2byte	0x2
 17834 1b5f 30       		.byte	0x30
 17835 1b60 9F       		.byte	0x9f
 17836 1b61 F4180000 		.4byte	.LVL636
 17837 1b65 F8180000 		.4byte	.LVL637
 17838 1b69 0200     		.2byte	0x2
 17839 1b6b 30       		.byte	0x30
 17840 1b6c 9F       		.byte	0x9f
 17841 1b6d 00000000 		.4byte	0
 17842 1b71 00000000 		.4byte	0
 17843              	.LLST106:
 17844 1b75 2E180000 		.4byte	.LVL619
 17845 1b79 50180000 		.4byte	.LVL620
 17846 1b7d 0100     		.2byte	0x1
 17847 1b7f 52       		.byte	0x52
 17848 1b80 50180000 		.4byte	.LVL620
 17849 1b84 5E180000 		.4byte	.LVL621
 17850 1b88 0100     		.2byte	0x1
 17851 1b8a 50       		.byte	0x50
 17852 1b8b 96180000 		.4byte	.LVL625
 17853 1b8f 98180000 		.4byte	.LVL626
 17854 1b93 0100     		.2byte	0x1
 17855 1b95 52       		.byte	0x52
 17856 1b96 98180000 		.4byte	.LVL626
 17857 1b9a A2180000 		.4byte	.LVL627
 17858 1b9e 0300     		.2byte	0x3
 17859 1ba0 72       		.byte	0x72
 17860 1ba1 03       		.sleb128 3
 17861 1ba2 9F       		.byte	0x9f
 17862 1ba3 A2180000 		.4byte	.LVL627
 17863 1ba7 C4180000 		.4byte	.LVL629
 17864 1bab 0100     		.2byte	0x1
 17865 1bad 50       		.byte	0x50
 17866 1bae DC180000 		.4byte	.LVL632
 17867 1bb2 E1180000 		.4byte	.LVL633-1
ARM GAS  C:\Users\ramanatg\AppData\Local\Temp\ccxbhSsV.s 			page 383


 17868 1bb6 0100     		.2byte	0x1
 17869 1bb8 52       		.byte	0x52
 17870 1bb9 00000000 		.4byte	0
 17871 1bbd 00000000 		.4byte	0
 17872              		.section	.debug_aranges,"",%progbits
 17873 0000 34000000 		.4byte	0x34
 17874 0004 0200     		.2byte	0x2
 17875 0006 00000000 		.4byte	.Ldebug_info0
 17876 000a 04       		.byte	0x4
 17877 000b 00       		.byte	0
 17878 000c 0000     		.2byte	0
 17879 000e 0000     		.2byte	0
 17880 0010 00000000 		.4byte	.LFB64
 17881 0014 2A000000 		.4byte	.LFE64-.LFB64
 17882 0018 00000000 		.4byte	.LFB37
 17883 001c 7C000000 		.4byte	.LFE37-.LFB37
 17884 0020 00000000 		.4byte	.LFB38
 17885 0024 34000000 		.4byte	.LFE38-.LFB38
 17886 0028 00000000 		.4byte	.LFB39
 17887 002c 501B0000 		.4byte	.LFE39-.LFB39
 17888 0030 00000000 		.4byte	0
 17889 0034 00000000 		.4byte	0
 17890              		.section	.debug_ranges,"",%progbits
 17891              	.Ldebug_ranges0:
 17892 0000 12000000 		.4byte	.LBB4
 17893 0004 1C000000 		.4byte	.LBE4
 17894 0008 24000000 		.4byte	.LBB7
 17895 000c 2A000000 		.4byte	.LBE7
 17896 0010 00000000 		.4byte	0
 17897 0014 00000000 		.4byte	0
 17898 0018 12000000 		.4byte	.LBB130
 17899 001c 4E000000 		.4byte	.LBE130
 17900 0020 60000000 		.4byte	.LBB136
 17901 0024 78000000 		.4byte	.LBE136
 17902 0028 C2020000 		.4byte	.LBB137
 17903 002c CA020000 		.4byte	.LBE137
 17904 0030 00000000 		.4byte	0
 17905 0034 00000000 		.4byte	0
 17906 0038 CA020000 		.4byte	.LBB138
 17907 003c 18030000 		.4byte	.LBE138
 17908 0040 DA060000 		.4byte	.LBB401
 17909 0044 AA080000 		.4byte	.LBE401
 17910 0048 86090000 		.4byte	.LBB413
 17911 004c EA090000 		.4byte	.LBE413
 17912 0050 EE090000 		.4byte	.LBB457
 17913 0054 2E0A0000 		.4byte	.LBE457
 17914 0058 320A0000 		.4byte	.LBB459
 17915 005c 400A0000 		.4byte	.LBE459
 17916 0060 440A0000 		.4byte	.LBB461
 17917 0064 560A0000 		.4byte	.LBE461
 17918 0068 BA0A0000 		.4byte	.LBB468
 17919 006c 3A0B0000 		.4byte	.LBE468
 17920 0070 00000000 		.4byte	0
 17921 0074 00000000 		.4byte	0
 17922 0078 02030000 		.4byte	.LBB140
 17923 007c 18030000 		.4byte	.LBE140
 17924 0080 DA060000 		.4byte	.LBB181
ARM GAS  C:\Users\ramanatg\AppData\Local\Temp\ccxbhSsV.s 			page 384


 17925 0084 60080000 		.4byte	.LBE181
 17926 0088 86090000 		.4byte	.LBB182
 17927 008c EA090000 		.4byte	.LBE182
 17928 0090 EE090000 		.4byte	.LBB183
 17929 0094 2E0A0000 		.4byte	.LBE183
 17930 0098 320A0000 		.4byte	.LBB184
 17931 009c 400A0000 		.4byte	.LBE184
 17932 00a0 440A0000 		.4byte	.LBB185
 17933 00a4 560A0000 		.4byte	.LBE185
 17934 00a8 BA0A0000 		.4byte	.LBB186
 17935 00ac F20A0000 		.4byte	.LBE186
 17936 00b0 2E0B0000 		.4byte	.LBB188
 17937 00b4 3A0B0000 		.4byte	.LBE188
 17938 00b8 00000000 		.4byte	0
 17939 00bc 00000000 		.4byte	0
 17940 00c0 E6060000 		.4byte	.LBB141
 17941 00c4 60080000 		.4byte	.LBE141
 17942 00c8 2E0B0000 		.4byte	.LBB180
 17943 00cc 3A0B0000 		.4byte	.LBE180
 17944 00d0 00000000 		.4byte	0
 17945 00d4 00000000 		.4byte	0
 17946 00d8 86090000 		.4byte	.LBB142
 17947 00dc EA090000 		.4byte	.LBE142
 17948 00e0 EE090000 		.4byte	.LBB177
 17949 00e4 2E0A0000 		.4byte	.LBE177
 17950 00e8 320A0000 		.4byte	.LBB178
 17951 00ec 400A0000 		.4byte	.LBE178
 17952 00f0 440A0000 		.4byte	.LBB179
 17953 00f4 460A0000 		.4byte	.LBE179
 17954 00f8 00000000 		.4byte	0
 17955 00fc 00000000 		.4byte	0
 17956 0100 B4090000 		.4byte	.LBB143
 17957 0104 EA090000 		.4byte	.LBE143
 17958 0108 EE090000 		.4byte	.LBB174
 17959 010c FE090000 		.4byte	.LBE174
 17960 0110 040A0000 		.4byte	.LBB175
 17961 0114 0A0A0000 		.4byte	.LBE175
 17962 0118 320A0000 		.4byte	.LBB176
 17963 011c 400A0000 		.4byte	.LBE176
 17964 0120 00000000 		.4byte	0
 17965 0124 00000000 		.4byte	0
 17966 0128 B4090000 		.4byte	.LBB145
 17967 012c CE090000 		.4byte	.LBE145
 17968 0130 D8090000 		.4byte	.LBB165
 17969 0134 DA090000 		.4byte	.LBE165
 17970 0138 EE090000 		.4byte	.LBB167
 17971 013c F2090000 		.4byte	.LBE167
 17972 0140 320A0000 		.4byte	.LBB169
 17973 0144 380A0000 		.4byte	.LBE169
 17974 0148 00000000 		.4byte	0
 17975 014c 00000000 		.4byte	0
 17976 0150 C6090000 		.4byte	.LBB147
 17977 0154 CE090000 		.4byte	.LBE147
 17978 0158 D8090000 		.4byte	.LBB151
 17979 015c DA090000 		.4byte	.LBE151
 17980 0160 EE090000 		.4byte	.LBB152
 17981 0164 F2090000 		.4byte	.LBE152
ARM GAS  C:\Users\ramanatg\AppData\Local\Temp\ccxbhSsV.s 			page 385


 17982 0168 00000000 		.4byte	0
 17983 016c 00000000 		.4byte	0
 17984 0170 D2090000 		.4byte	.LBB156
 17985 0174 D8090000 		.4byte	.LBE156
 17986 0178 DA090000 		.4byte	.LBB166
 17987 017c EA090000 		.4byte	.LBE166
 17988 0180 F6090000 		.4byte	.LBB168
 17989 0184 FE090000 		.4byte	.LBE168
 17990 0188 380A0000 		.4byte	.LBB170
 17991 018c 3C0A0000 		.4byte	.LBE170
 17992 0190 00000000 		.4byte	0
 17993 0194 00000000 		.4byte	0
 17994 0198 E2090000 		.4byte	.LBB158
 17995 019c EA090000 		.4byte	.LBE158
 17996 01a0 380A0000 		.4byte	.LBB161
 17997 01a4 3C0A0000 		.4byte	.LBE161
 17998 01a8 00000000 		.4byte	0
 17999 01ac 00000000 		.4byte	0
 18000 01b0 2A030000 		.4byte	.LBB195
 18001 01b4 44030000 		.4byte	.LBE195
 18002 01b8 D2080000 		.4byte	.LBB411
 18003 01bc 72090000 		.4byte	.LBE411
 18004 01c0 B20B0000 		.4byte	.LBB473
 18005 01c4 380C0000 		.4byte	.LBE473
 18006 01c8 4C0E0000 		.4byte	.LBB479
 18007 01cc 5A0E0000 		.4byte	.LBE479
 18008 01d0 00000000 		.4byte	0
 18009 01d4 00000000 		.4byte	0
 18010 01d8 2C090000 		.4byte	.LBB197
 18011 01dc 32090000 		.4byte	.LBE197
 18012 01e0 3C090000 		.4byte	.LBB242
 18013 01e4 44090000 		.4byte	.LBE242
 18014 01e8 B60B0000 		.4byte	.LBB243
 18015 01ec 0C0C0000 		.4byte	.LBE243
 18016 01f0 1A0C0000 		.4byte	.LBB244
 18017 01f4 380C0000 		.4byte	.LBE244
 18018 01f8 00000000 		.4byte	0
 18019 01fc 00000000 		.4byte	0
 18020 0200 2C090000 		.4byte	.LBB199
 18021 0204 32090000 		.4byte	.LBE199
 18022 0208 3C090000 		.4byte	.LBB235
 18023 020c 44090000 		.4byte	.LBE235
 18024 0210 B60B0000 		.4byte	.LBB236
 18025 0214 FE0B0000 		.4byte	.LBE236
 18026 0218 000C0000 		.4byte	.LBB237
 18027 021c 020C0000 		.4byte	.LBE237
 18028 0220 1A0C0000 		.4byte	.LBB238
 18029 0224 380C0000 		.4byte	.LBE238
 18030 0228 00000000 		.4byte	0
 18031 022c 00000000 		.4byte	0
 18032 0230 2C090000 		.4byte	.LBB201
 18033 0234 32090000 		.4byte	.LBE201
 18034 0238 3C090000 		.4byte	.LBB218
 18035 023c 44090000 		.4byte	.LBE218
 18036 0240 B80B0000 		.4byte	.LBB219
 18037 0244 D20B0000 		.4byte	.LBE219
 18038 0248 DE0B0000 		.4byte	.LBB226
ARM GAS  C:\Users\ramanatg\AppData\Local\Temp\ccxbhSsV.s 			page 386


 18039 024c E00B0000 		.4byte	.LBE226
 18040 0250 1A0C0000 		.4byte	.LBB228
 18041 0254 1E0C0000 		.4byte	.LBE228
 18042 0258 320C0000 		.4byte	.LBB230
 18043 025c 380C0000 		.4byte	.LBE230
 18044 0260 00000000 		.4byte	0
 18045 0264 00000000 		.4byte	0
 18046 0268 2C090000 		.4byte	.LBB203
 18047 026c 32090000 		.4byte	.LBE203
 18048 0270 3C090000 		.4byte	.LBB209
 18049 0274 44090000 		.4byte	.LBE209
 18050 0278 CA0B0000 		.4byte	.LBB210
 18051 027c D20B0000 		.4byte	.LBE210
 18052 0280 DE0B0000 		.4byte	.LBB211
 18053 0284 E00B0000 		.4byte	.LBE211
 18054 0288 1A0C0000 		.4byte	.LBB212
 18055 028c 1E0C0000 		.4byte	.LBE212
 18056 0290 00000000 		.4byte	0
 18057 0294 00000000 		.4byte	0
 18058 0298 D40B0000 		.4byte	.LBB220
 18059 029c DE0B0000 		.4byte	.LBE220
 18060 02a0 E00B0000 		.4byte	.LBB227
 18061 02a4 F60B0000 		.4byte	.LBE227
 18062 02a8 200C0000 		.4byte	.LBB229
 18063 02ac 320C0000 		.4byte	.LBE229
 18064 02b0 00000000 		.4byte	0
 18065 02b4 00000000 		.4byte	0
 18066 02b8 D4030000 		.4byte	.LBB248
 18067 02bc 36040000 		.4byte	.LBE248
 18068 02c0 3C040000 		.4byte	.LBB360
 18069 02c4 8A040000 		.4byte	.LBE360
 18070 02c8 9E040000 		.4byte	.LBB370
 18071 02cc A6040000 		.4byte	.LBE370
 18072 02d0 560B0000 		.4byte	.LBB471
 18073 02d4 6E0B0000 		.4byte	.LBE471
 18074 02d8 00000000 		.4byte	0
 18075 02dc 00000000 		.4byte	0
 18076 02e0 F8030000 		.4byte	.LBB250
 18077 02e4 36040000 		.4byte	.LBE250
 18078 02e8 3C040000 		.4byte	.LBB297
 18079 02ec 5C040000 		.4byte	.LBE297
 18080 02f0 72040000 		.4byte	.LBB298
 18081 02f4 74040000 		.4byte	.LBE298
 18082 02f8 560B0000 		.4byte	.LBB299
 18083 02fc 6E0B0000 		.4byte	.LBE299
 18084 0300 00000000 		.4byte	0
 18085 0304 00000000 		.4byte	0
 18086 0308 F8030000 		.4byte	.LBB252
 18087 030c 36040000 		.4byte	.LBE252
 18088 0310 3C040000 		.4byte	.LBB290
 18089 0314 4E040000 		.4byte	.LBE290
 18090 0318 50040000 		.4byte	.LBB291
 18091 031c 52040000 		.4byte	.LBE291
 18092 0320 72040000 		.4byte	.LBB292
 18093 0324 74040000 		.4byte	.LBE292
 18094 0328 560B0000 		.4byte	.LBB293
 18095 032c 6E0B0000 		.4byte	.LBE293
ARM GAS  C:\Users\ramanatg\AppData\Local\Temp\ccxbhSsV.s 			page 387


 18096 0330 00000000 		.4byte	0
 18097 0334 00000000 		.4byte	0
 18098 0338 FA030000 		.4byte	.LBB254
 18099 033c 16040000 		.4byte	.LBE254
 18100 0340 20040000 		.4byte	.LBB278
 18101 0344 22040000 		.4byte	.LBE278
 18102 0348 3C040000 		.4byte	.LBB280
 18103 034c 40040000 		.4byte	.LBE280
 18104 0350 72040000 		.4byte	.LBB282
 18105 0354 74040000 		.4byte	.LBE282
 18106 0358 560B0000 		.4byte	.LBB283
 18107 035c 5C0B0000 		.4byte	.LBE283
 18108 0360 00000000 		.4byte	0
 18109 0364 00000000 		.4byte	0
 18110 0368 0E040000 		.4byte	.LBB256
 18111 036c 16040000 		.4byte	.LBE256
 18112 0370 20040000 		.4byte	.LBB261
 18113 0374 22040000 		.4byte	.LBE261
 18114 0378 3C040000 		.4byte	.LBB262
 18115 037c 40040000 		.4byte	.LBE262
 18116 0380 72040000 		.4byte	.LBB263
 18117 0384 74040000 		.4byte	.LBE263
 18118 0388 00000000 		.4byte	0
 18119 038c 00000000 		.4byte	0
 18120 0390 18040000 		.4byte	.LBB268
 18121 0394 20040000 		.4byte	.LBE268
 18122 0398 22040000 		.4byte	.LBB279
 18123 039c 36040000 		.4byte	.LBE279
 18124 03a0 42040000 		.4byte	.LBB281
 18125 03a4 4C040000 		.4byte	.LBE281
 18126 03a8 5C0B0000 		.4byte	.LBB284
 18127 03ac 600B0000 		.4byte	.LBE284
 18128 03b0 680B0000 		.4byte	.LBB285
 18129 03b4 6E0B0000 		.4byte	.LBE285
 18130 03b8 00000000 		.4byte	0
 18131 03bc 00000000 		.4byte	0
 18132 03c0 2C040000 		.4byte	.LBB270
 18133 03c4 36040000 		.4byte	.LBE270
 18134 03c8 5C0B0000 		.4byte	.LBB273
 18135 03cc 600B0000 		.4byte	.LBE273
 18136 03d0 00000000 		.4byte	0
 18137 03d4 00000000 		.4byte	0
 18138 03d8 36040000 		.4byte	.LBB303
 18139 03dc 3C040000 		.4byte	.LBE303
 18140 03e0 A6040000 		.4byte	.LBB371
 18141 03e4 44050000 		.4byte	.LBE371
 18142 03e8 72090000 		.4byte	.LBB412
 18143 03ec 86090000 		.4byte	.LBE412
 18144 03f0 220E0000 		.4byte	.LBB478
 18145 03f4 4C0E0000 		.4byte	.LBE478
 18146 03f8 5A0E0000 		.4byte	.LBB480
 18147 03fc 600E0000 		.4byte	.LBE480
 18148 0400 12100000 		.4byte	.LBB484
 18149 0404 1A100000 		.4byte	.LBE484
 18150 0408 00000000 		.4byte	0
 18151 040c 00000000 		.4byte	0
 18152 0410 CC040000 		.4byte	.LBB305
ARM GAS  C:\Users\ramanatg\AppData\Local\Temp\ccxbhSsV.s 			page 388


 18153 0414 32050000 		.4byte	.LBE305
 18154 0418 72090000 		.4byte	.LBB351
 18155 041c 86090000 		.4byte	.LBE351
 18156 0420 300E0000 		.4byte	.LBB352
 18157 0424 320E0000 		.4byte	.LBE352
 18158 0428 5A0E0000 		.4byte	.LBB353
 18159 042c 600E0000 		.4byte	.LBE353
 18160 0430 12100000 		.4byte	.LBB354
 18161 0434 1A100000 		.4byte	.LBE354
 18162 0438 00000000 		.4byte	0
 18163 043c 00000000 		.4byte	0
 18164 0440 D6040000 		.4byte	.LBB307
 18165 0444 24050000 		.4byte	.LBE307
 18166 0448 26050000 		.4byte	.LBB342
 18167 044c 28050000 		.4byte	.LBE342
 18168 0450 72090000 		.4byte	.LBB343
 18169 0454 86090000 		.4byte	.LBE343
 18170 0458 300E0000 		.4byte	.LBB344
 18171 045c 320E0000 		.4byte	.LBE344
 18172 0460 5A0E0000 		.4byte	.LBB345
 18173 0464 600E0000 		.4byte	.LBE345
 18174 0468 12100000 		.4byte	.LBB346
 18175 046c 1A100000 		.4byte	.LBE346
 18176 0470 00000000 		.4byte	0
 18177 0474 00000000 		.4byte	0
 18178 0478 D8040000 		.4byte	.LBB309
 18179 047c FA040000 		.4byte	.LBE309
 18180 0480 04050000 		.4byte	.LBB330
 18181 0484 06050000 		.4byte	.LBE330
 18182 0488 72090000 		.4byte	.LBB332
 18183 048c 76090000 		.4byte	.LBE332
 18184 0490 300E0000 		.4byte	.LBB334
 18185 0494 320E0000 		.4byte	.LBE334
 18186 0498 5A0E0000 		.4byte	.LBB335
 18187 049c 600E0000 		.4byte	.LBE335
 18188 04a0 00000000 		.4byte	0
 18189 04a4 00000000 		.4byte	0
 18190 04a8 F0040000 		.4byte	.LBB311
 18191 04ac FA040000 		.4byte	.LBE311
 18192 04b0 04050000 		.4byte	.LBB316
 18193 04b4 06050000 		.4byte	.LBE316
 18194 04b8 72090000 		.4byte	.LBB317
 18195 04bc 76090000 		.4byte	.LBE317
 18196 04c0 300E0000 		.4byte	.LBB318
 18197 04c4 320E0000 		.4byte	.LBE318
 18198 04c8 00000000 		.4byte	0
 18199 04cc 00000000 		.4byte	0
 18200 04d0 FC040000 		.4byte	.LBB323
 18201 04d4 04050000 		.4byte	.LBE323
 18202 04d8 06050000 		.4byte	.LBB331
 18203 04dc 1E050000 		.4byte	.LBE331
 18204 04e0 78090000 		.4byte	.LBB333
 18205 04e4 86090000 		.4byte	.LBE333
 18206 04e8 12100000 		.4byte	.LBB336
 18207 04ec 1A100000 		.4byte	.LBE336
 18208 04f0 00000000 		.4byte	0
 18209 04f4 00000000 		.4byte	0
ARM GAS  C:\Users\ramanatg\AppData\Local\Temp\ccxbhSsV.s 			page 389


 18210 04f8 8A040000 		.4byte	.LBB361
 18211 04fc 8C040000 		.4byte	.LBE361
 18212 0500 1A100000 		.4byte	.LBB485
 18213 0504 A0100000 		.4byte	.LBE485
 18214 0508 BA100000 		.4byte	.LBB487
 18215 050c E0100000 		.4byte	.LBE487
 18216 0510 00000000 		.4byte	0
 18217 0514 00000000 		.4byte	0
 18218 0518 8C040000 		.4byte	.LBB365
 18219 051c 9E040000 		.4byte	.LBE365
 18220 0520 A0100000 		.4byte	.LBB486
 18221 0524 AA100000 		.4byte	.LBE486
 18222 0528 C6140000 		.4byte	.LBB519
 18223 052c 70150000 		.4byte	.LBE519
 18224 0530 121B0000 		.4byte	.LBB539
 18225 0534 181B0000 		.4byte	.LBE539
 18226 0538 00000000 		.4byte	0
 18227 053c 00000000 		.4byte	0
 18228 0540 44050000 		.4byte	.LBB372
 18229 0544 D6050000 		.4byte	.LBE372
 18230 0548 3A0B0000 		.4byte	.LBB469
 18231 054c 420B0000 		.4byte	.LBE469
 18232 0550 00000000 		.4byte	0
 18233 0554 00000000 		.4byte	0
 18234 0558 D6050000 		.4byte	.LBB375
 18235 055c DA060000 		.4byte	.LBE375
 18236 0560 420B0000 		.4byte	.LBB470
 18237 0564 560B0000 		.4byte	.LBE470
 18238 0568 6E0B0000 		.4byte	.LBB472
 18239 056c B20B0000 		.4byte	.LBE472
 18240 0570 00000000 		.4byte	0
 18241 0574 00000000 		.4byte	0
 18242 0578 F8050000 		.4byte	.LBB377
 18243 057c 18060000 		.4byte	.LBE377
 18244 0580 20060000 		.4byte	.LBB393
 18245 0584 46060000 		.4byte	.LBE393
 18246 0588 4C060000 		.4byte	.LBB394
 18247 058c 72060000 		.4byte	.LBE394
 18248 0590 78060000 		.4byte	.LBB395
 18249 0594 9C060000 		.4byte	.LBE395
 18250 0598 420B0000 		.4byte	.LBB396
 18251 059c 480B0000 		.4byte	.LBE396
 18252 05a0 500B0000 		.4byte	.LBB397
 18253 05a4 560B0000 		.4byte	.LBE397
 18254 05a8 6E0B0000 		.4byte	.LBB398
 18255 05ac B20B0000 		.4byte	.LBE398
 18256 05b0 00000000 		.4byte	0
 18257 05b4 00000000 		.4byte	0
 18258 05b8 0C060000 		.4byte	.LBB379
 18259 05bc 18060000 		.4byte	.LBE379
 18260 05c0 34060000 		.4byte	.LBB384
 18261 05c4 46060000 		.4byte	.LBE384
 18262 05c8 60060000 		.4byte	.LBB385
 18263 05cc 72060000 		.4byte	.LBE385
 18264 05d0 8A060000 		.4byte	.LBB386
 18265 05d4 9C060000 		.4byte	.LBE386
 18266 05d8 00000000 		.4byte	0
ARM GAS  C:\Users\ramanatg\AppData\Local\Temp\ccxbhSsV.s 			page 390


 18267 05dc 00000000 		.4byte	0
 18268 05e0 AA080000 		.4byte	.LBB402
 18269 05e4 C0080000 		.4byte	.LBE402
 18270 05e8 8A0D0000 		.4byte	.LBB477
 18271 05ec 220E0000 		.4byte	.LBE477
 18272 05f0 600E0000 		.4byte	.LBB481
 18273 05f4 6C0E0000 		.4byte	.LBE481
 18274 05f8 00000000 		.4byte	0
 18275 05fc 00000000 		.4byte	0
 18276 0600 C0080000 		.4byte	.LBB406
 18277 0604 D2080000 		.4byte	.LBE406
 18278 0608 560A0000 		.4byte	.LBB462
 18279 060c 5C0A0000 		.4byte	.LBE462
 18280 0610 B40A0000 		.4byte	.LBB467
 18281 0614 BA0A0000 		.4byte	.LBE467
 18282 0618 6C0E0000 		.4byte	.LBB482
 18283 061c B40F0000 		.4byte	.LBE482
 18284 0620 00000000 		.4byte	0
 18285 0624 00000000 		.4byte	0
 18286 0628 EA090000 		.4byte	.LBB414
 18287 062c EE090000 		.4byte	.LBE414
 18288 0630 2E0A0000 		.4byte	.LBB458
 18289 0634 320A0000 		.4byte	.LBE458
 18290 0638 400A0000 		.4byte	.LBB460
 18291 063c 440A0000 		.4byte	.LBE460
 18292 0640 C6110000 		.4byte	.LBB496
 18293 0644 2A120000 		.4byte	.LBE496
 18294 0648 8E120000 		.4byte	.LBB508
 18295 064c 90130000 		.4byte	.LBE508
 18296 0650 12140000 		.4byte	.LBB510
 18297 0654 42140000 		.4byte	.LBE510
 18298 0658 4A140000 		.4byte	.LBB512
 18299 065c 50140000 		.4byte	.LBE512
 18300 0660 58140000 		.4byte	.LBB514
 18301 0664 7A140000 		.4byte	.LBE514
 18302 0668 00000000 		.4byte	0
 18303 066c 00000000 		.4byte	0
 18304 0670 90120000 		.4byte	.LBB416
 18305 0674 F4120000 		.4byte	.LBE416
 18306 0678 22140000 		.4byte	.LBB449
 18307 067c 42140000 		.4byte	.LBE449
 18308 0680 00000000 		.4byte	0
 18309 0684 00000000 		.4byte	0
 18310 0688 90120000 		.4byte	.LBB418
 18311 068c E6120000 		.4byte	.LBE418
 18312 0690 E8120000 		.4byte	.LBB446
 18313 0694 EA120000 		.4byte	.LBE446
 18314 0698 22140000 		.4byte	.LBB447
 18315 069c 42140000 		.4byte	.LBE447
 18316 06a0 00000000 		.4byte	0
 18317 06a4 00000000 		.4byte	0
 18318 06a8 92120000 		.4byte	.LBB420
 18319 06ac B2120000 		.4byte	.LBE420
 18320 06b0 C0120000 		.4byte	.LBB438
 18321 06b4 C2120000 		.4byte	.LBE438
 18322 06b8 28140000 		.4byte	.LBB441
 18323 06bc 2C140000 		.4byte	.LBE441
ARM GAS  C:\Users\ramanatg\AppData\Local\Temp\ccxbhSsV.s 			page 391


 18324 06c0 3C140000 		.4byte	.LBB443
 18325 06c4 42140000 		.4byte	.LBE443
 18326 06c8 00000000 		.4byte	0
 18327 06cc 00000000 		.4byte	0
 18328 06d0 A8120000 		.4byte	.LBB422
 18329 06d4 B2120000 		.4byte	.LBE422
 18330 06d8 C0120000 		.4byte	.LBB426
 18331 06dc C2120000 		.4byte	.LBE426
 18332 06e0 28140000 		.4byte	.LBB427
 18333 06e4 2C140000 		.4byte	.LBE427
 18334 06e8 00000000 		.4byte	0
 18335 06ec 00000000 		.4byte	0
 18336 06f0 B4120000 		.4byte	.LBB431
 18337 06f4 C0120000 		.4byte	.LBE431
 18338 06f8 C2120000 		.4byte	.LBB439
 18339 06fc DC120000 		.4byte	.LBE439
 18340 0700 22140000 		.4byte	.LBB440
 18341 0704 28140000 		.4byte	.LBE440
 18342 0708 2E140000 		.4byte	.LBB442
 18343 070c 3C140000 		.4byte	.LBE442
 18344 0710 00000000 		.4byte	0
 18345 0714 00000000 		.4byte	0
 18346 0718 5C0A0000 		.4byte	.LBB463
 18347 071c B40A0000 		.4byte	.LBE463
 18348 0720 B40F0000 		.4byte	.LBB483
 18349 0724 12100000 		.4byte	.LBE483
 18350 0728 1C190000 		.4byte	.LBB535
 18351 072c A4190000 		.4byte	.LBE535
 18352 0730 00000000 		.4byte	0
 18353 0734 00000000 		.4byte	0
 18354 0738 720C0000 		.4byte	.LBB474
 18355 073c 180D0000 		.4byte	.LBE474
 18356 0740 78160000 		.4byte	.LBB527
 18357 0744 82160000 		.4byte	.LBE527
 18358 0748 00000000 		.4byte	0
 18359 074c 00000000 		.4byte	0
 18360 0750 0E110000 		.4byte	.LBB488
 18361 0754 10110000 		.4byte	.LBE488
 18362 0758 18110000 		.4byte	.LBB491
 18363 075c 3A110000 		.4byte	.LBE491
 18364 0760 00000000 		.4byte	0
 18365 0764 00000000 		.4byte	0
 18366 0768 3A110000 		.4byte	.LBB492
 18367 076c C2110000 		.4byte	.LBE492
 18368 0770 A4190000 		.4byte	.LBB536
 18369 0774 061A0000 		.4byte	.LBE536
 18370 0778 441A0000 		.4byte	.LBB538
 18371 077c 121B0000 		.4byte	.LBE538
 18372 0780 00000000 		.4byte	0
 18373 0784 00000000 		.4byte	0
 18374 0788 2A120000 		.4byte	.LBB497
 18375 078c 8E120000 		.4byte	.LBE497
 18376 0790 90130000 		.4byte	.LBB509
 18377 0794 12140000 		.4byte	.LBE509
 18378 0798 42140000 		.4byte	.LBB511
 18379 079c 4A140000 		.4byte	.LBE511
 18380 07a0 50140000 		.4byte	.LBB513
ARM GAS  C:\Users\ramanatg\AppData\Local\Temp\ccxbhSsV.s 			page 392


 18381 07a4 58140000 		.4byte	.LBE513
 18382 07a8 00000000 		.4byte	0
 18383 07ac 00000000 		.4byte	0
 18384 07b0 9A130000 		.4byte	.LBB501
 18385 07b4 BC130000 		.4byte	.LBE501
 18386 07b8 BE130000 		.4byte	.LBB504
 18387 07bc C0130000 		.4byte	.LBE504
 18388 07c0 00000000 		.4byte	0
 18389 07c4 00000000 		.4byte	0
 18390 07c8 7A140000 		.4byte	.LBB515
 18391 07cc C6140000 		.4byte	.LBE515
 18392 07d0 061A0000 		.4byte	.LBB537
 18393 07d4 441A0000 		.4byte	.LBE537
 18394 07d8 181B0000 		.4byte	.LBB540
 18395 07dc 501B0000 		.4byte	.LBE540
 18396 07e0 00000000 		.4byte	0
 18397 07e4 00000000 		.4byte	0
 18398 07e8 24160000 		.4byte	.LBB522
 18399 07ec 42160000 		.4byte	.LBE522
 18400 07f0 82160000 		.4byte	.LBB528
 18401 07f4 E0160000 		.4byte	.LBE528
 18402 07f8 00000000 		.4byte	0
 18403 07fc 00000000 		.4byte	0
 18404 0800 E0160000 		.4byte	.LBB529
 18405 0804 20180000 		.4byte	.LBE529
 18406 0808 E8180000 		.4byte	.LBB534
 18407 080c 1C190000 		.4byte	.LBE534
 18408 0810 00000000 		.4byte	0
 18409 0814 00000000 		.4byte	0
 18410 0818 00000000 		.4byte	.LFB64
 18411 081c 2A000000 		.4byte	.LFE64
 18412 0820 00000000 		.4byte	.LFB37
 18413 0824 7C000000 		.4byte	.LFE37
 18414 0828 00000000 		.4byte	.LFB38
 18415 082c 34000000 		.4byte	.LFE38
 18416 0830 00000000 		.4byte	.LFB39
 18417 0834 501B0000 		.4byte	.LFE39
 18418 0838 00000000 		.4byte	0
 18419 083c 00000000 		.4byte	0
 18420              		.section	.debug_line,"",%progbits
 18421              	.Ldebug_line0:
 18422 0000 51090000 		.section	.debug_str,"MS",%progbits,1
 18422      02006B02 
 18422      00000201 
 18422      FB0E0D00 
 18422      01010101 
 18423              	.LASF107:
 18424 0000 4359424C 		.ascii	"CYBLE_GATT_ERR_INVALID_OFFSET\000"
 18424      455F4741 
 18424      54545F45 
 18424      52525F49 
 18424      4E56414C 
 18425              	.LASF303:
 18426 001e 43794465 		.ascii	"CyDelay\000"
 18426      6C617900 
 18427              	.LASF81:
 18428 0026 4359424C 		.ascii	"CYBLE_EVT_GATTC_STOP_CMD_COMPLETE\000"
ARM GAS  C:\Users\ramanatg\AppData\Local\Temp\ccxbhSsV.s 			page 393


 18428      455F4556 
 18428      545F4741 
 18428      5454435F 
 18428      53544F50 
 18429              	.LASF260:
 18430 0048 746D705F 		.ascii	"tmp_lock\000"
 18430      6C6F636B 
 18430      00
 18431              	.LASF254:
 18432 0051 636D645F 		.ascii	"cmd_sub_mode\000"
 18432      7375625F 
 18432      6D6F6465 
 18432      00
 18433              	.LASF139:
 18434 005e 4359424C 		.ascii	"CYBLE_GATT_ERR_CODE_T\000"
 18434      455F4741 
 18434      54545F45 
 18434      52525F43 
 18434      4F44455F 
 18435              	.LASF219:
 18436 0074 55706461 		.ascii	"UpdateHandle\000"
 18436      74654861 
 18436      6E646C65 
 18436      00
 18437              	.LASF222:
 18438 0081 6C6F7765 		.ascii	"lower_nibble\000"
 18438      725F6E69 
 18438      62626C65 
 18438      00
 18439              	.LASF36:
 18440 008e 4359424C 		.ascii	"CYBLE_EVT_GAP_AUTH_REQ\000"
 18440      455F4556 
 18440      545F4741 
 18440      505F4155 
 18440      54485F52 
 18441              	.LASF301:
 18442 00a5 7374726C 		.ascii	"strlen\000"
 18442      656E00
 18443              	.LASF282:
 18444 00ac 636D645F 		.ascii	"cmd_EDLOCK\000"
 18444      45444C4F 
 18444      434B00
 18445              	.LASF105:
 18446 00b7 4359424C 		.ascii	"CYBLE_GATT_ERR_INSUFFICIENT_AUTHENTICATION\000"
 18446      455F4741 
 18446      54545F45 
 18446      52525F49 
 18446      4E535546 
 18447              	.LASF61:
 18448 00e2 4359424C 		.ascii	"CYBLE_EVT_GATT_DISCONNECT_IND\000"
 18448      455F4556 
 18448      545F4741 
 18448      54545F44 
 18448      4953434F 
 18449              	.LASF56:
 18450 0100 4359424C 		.ascii	"CYBLE_EVT_GAP_SCAN_REQ_RECVD\000"
 18450      455F4556 
ARM GAS  C:\Users\ramanatg\AppData\Local\Temp\ccxbhSsV.s 			page 394


 18450      545F4741 
 18450      505F5343 
 18450      414E5F52 
 18451              	.LASF120:
 18452 011d 4359424C 		.ascii	"CYBLE_GATT_ERR_USER_DATA_ACCESS_NOT_PERMITTED\000"
 18452      455F4741 
 18452      54545F45 
 18452      52525F55 
 18452      5345525F 
 18453              	.LASF269:
 18454 014b 636D645F 		.ascii	"cmd_tmp_upr\000"
 18454      746D705F 
 18454      75707200 
 18455              	.LASF62:
 18456 0157 4359424C 		.ascii	"CYBLE_EVT_GATTS_XCNHG_MTU_REQ\000"
 18456      455F4556 
 18456      545F4741 
 18456      5454535F 
 18456      58434E48 
 18457              	.LASF321:
 18458 0175 62756666 		.ascii	"buffer\000"
 18458      657200
 18459              	.LASF143:
 18460 017c 4359424C 		.ascii	"CYBLE_CONN_HANDLE_T\000"
 18460      455F434F 
 18460      4E4E5F48 
 18460      414E444C 
 18460      455F5400 
 18461              	.LASF80:
 18462 0190 4359424C 		.ascii	"CYBLE_EVT_GATTS_DATA_SIGNED_CMD_REQ\000"
 18462      455F4556 
 18462      545F4741 
 18462      5454535F 
 18462      44415441 
 18463              	.LASF317:
 18464 01b4 436F6E66 		.ascii	"ConfigRW_WriteReset\000"
 18464      69675257 
 18464      5F577269 
 18464      74655265 
 18464      73657400 
 18465              	.LASF31:
 18466 01c8 4359424C 		.ascii	"CYBLE_EVT_HARDWARE_ERROR\000"
 18466      455F4556 
 18466      545F4841 
 18466      52445741 
 18466      52455F45 
 18467              	.LASF96:
 18468 01e1 4359424C 		.ascii	"CYBLE_EVT_LE_PING_AUTH_TIMEOUT\000"
 18468      455F4556 
 18468      545F4C45 
 18468      5F50494E 
 18468      475F4155 
 18469              	.LASF93:
 18470 0200 4359424C 		.ascii	"CYBLE_EVT_L2CAP_CBFC_TX_CREDIT_IND\000"
 18470      455F4556 
 18470      545F4C32 
 18470      4341505F 
ARM GAS  C:\Users\ramanatg\AppData\Local\Temp\ccxbhSsV.s 			page 395


 18470      43424643 
 18471              	.LASF180:
 18472 0223 44617461 		.ascii	"DataFlag_Start\000"
 18472      466C6167 
 18472      5F537461 
 18472      727400
 18473              	.LASF73:
 18474 0232 4359424C 		.ascii	"CYBLE_EVT_GATTS_WRITE_CMD_REQ\000"
 18474      455F4556 
 18474      545F4741 
 18474      5454535F 
 18474      57524954 
 18475              	.LASF7:
 18476 0250 5F5F696E 		.ascii	"__int32_t\000"
 18476      7433325F 
 18476      7400
 18477              	.LASF163:
 18478 025a 434F4E46 		.ascii	"CONFIG_TYPE_EDTXPWR\000"
 18478      49475F54 
 18478      5950455F 
 18478      45445458 
 18478      50575200 
 18479              	.LASF255:
 18480 026e 626C6542 		.ascii	"bleBeacon\000"
 18480      6561636F 
 18480      6E00
 18481              	.LASF165:
 18482 0278 434F4E46 		.ascii	"CONFIG_TYPE_LOCKSTATE\000"
 18482      49475F54 
 18482      5950455F 
 18482      4C4F434B 
 18482      53544154 
 18483              	.LASF283:
 18484 028e 636D645F 		.ascii	"cmd_EDUNLOCK\000"
 18484      4544554E 
 18484      4C4F434B 
 18484      00
 18485              	.LASF150:
 18486 029b 61747447 		.ascii	"attGenericVal\000"
 18486      656E6572 
 18486      69635661 
 18486      6C00
 18487              	.LASF223:
 18488 02a9 636D645F 		.ascii	"cmd_sub_uuid\000"
 18488      7375625F 
 18488      75756964 
 18488      00
 18489              	.LASF191:
 18490 02b6 6672616D 		.ascii	"frame\000"
 18490      6500
 18491              	.LASF4:
 18492 02bc 73686F72 		.ascii	"short int\000"
 18492      7420696E 
 18492      7400
 18493              	.LASF264:
 18494 02c6 636D645F 		.ascii	"cmd_sub_edreset\000"
 18494      7375625F 
ARM GAS  C:\Users\ramanatg\AppData\Local\Temp\ccxbhSsV.s 			page 396


 18494      65647265 
 18494      73657400 
 18495              	.LASF37:
 18496 02d6 4359424C 		.ascii	"CYBLE_EVT_GAP_PASSKEY_ENTRY_REQUEST\000"
 18496      455F4556 
 18496      545F4741 
 18496      505F5041 
 18496      53534B45 
 18497              	.LASF122:
 18498 02fa 4359424C 		.ascii	"CYBLE_GATT_ERR_HTS_OUT_OF_RANGE\000"
 18498      455F4741 
 18498      54545F45 
 18498      52525F48 
 18498      54535F4F 
 18499              	.LASF92:
 18500 031a 4359424C 		.ascii	"CYBLE_EVT_L2CAP_CBFC_RX_CREDIT_IND\000"
 18500      455F4556 
 18500      545F4C32 
 18500      4341505F 
 18500      43424643 
 18501              	.LASF227:
 18502 033d 636D645F 		.ascii	"cmd_sub_ednid\000"
 18502      7375625F 
 18502      65646E69 
 18502      6400
 18503              	.LASF176:
 18504 034b 55524C69 		.ascii	"URLisEnabled\000"
 18504      73456E61 
 18504      626C6564 
 18504      00
 18505              	.LASF137:
 18506 0358 4359424C 		.ascii	"CYBLE_GATT_ERR_PROCEDURE_ALREADY_IN_PROGRESS\000"
 18506      455F4741 
 18506      54545F45 
 18506      52525F50 
 18506      524F4345 
 18507              	.LASF77:
 18508 0385 4359424C 		.ascii	"CYBLE_EVT_GATTC_HANDLE_VALUE_NTF\000"
 18508      455F4556 
 18508      545F4741 
 18508      5454435F 
 18508      48414E44 
 18509              	.LASF215:
 18510 03a6 69734875 		.ascii	"isHumanReadable\000"
 18510      6D616E52 
 18510      65616461 
 18510      626C6500 
 18511              	.LASF259:
 18512 03b6 636D645F 		.ascii	"cmd_sub_lock\000"
 18512      7375625F 
 18512      6C6F636B 
 18512      00
 18513              	.LASF299:
 18514 03c3 55415254 		.ascii	"UART_SpiUartGetRxBufferSize\000"
 18514      5F537069 
 18514      55617274 
 18514      47657452 
ARM GAS  C:\Users\ramanatg\AppData\Local\Temp\ccxbhSsV.s 			page 397


 18514      78427566 
 18515              	.LASF45:
 18516 03df 4359424C 		.ascii	"CYBLE_EVT_GAP_CONNECTION_UPDATE_COMPLETE\000"
 18516      455F4556 
 18516      545F4741 
 18516      505F434F 
 18516      4E4E4543 
 18517              	.LASF208:
 18518 0408 4E627974 		.ascii	"Nbytes\000"
 18518      657300
 18519              	.LASF288:
 18520 040f 636D645F 		.ascii	"cmd_EDRESET\000"
 18520      45445245 
 18520      53455400 
 18521              	.LASF258:
 18522 041b 636D645F 		.ascii	"cmd_sub_edframe\000"
 18522      7375625F 
 18522      65646672 
 18522      616D6500 
 18523              	.LASF19:
 18524 042b 75696E74 		.ascii	"uint8\000"
 18524      3800
 18525              	.LASF213:
 18526 0431 75726C5F 		.ascii	"url_PREFIX\000"
 18526      50524546 
 18526      495800
 18527              	.LASF100:
 18528 043c 4359424C 		.ascii	"CYBLE_GATT_ERR_NONE\000"
 18528      455F4741 
 18528      54545F45 
 18528      52525F4E 
 18528      4F4E4500 
 18529              	.LASF252:
 18530 0450 6669726D 		.ascii	"firmwareVersion\000"
 18530      77617265 
 18530      56657273 
 18530      696F6E00 
 18531              	.LASF171:
 18532 0460 434F4E46 		.ascii	"CONFIG_TYPE_TXPMODE\000"
 18532      49475F54 
 18532      5950455F 
 18532      5458504D 
 18532      4F444500 
 18533              	.LASF18:
 18534 0474 75696E74 		.ascii	"uint32_t\000"
 18534      33325F74 
 18534      00
 18535              	.LASF14:
 18536 047d 696E7438 		.ascii	"int8_t\000"
 18536      5F7400
 18537              	.LASF129:
 18538 0484 4359424C 		.ascii	"CYBLE_GATTS_ERR_HPS_INVALID_REQUEST\000"
 18538      455F4741 
 18538      5454535F 
 18538      4552525F 
 18538      4850535F 
 18539              	.LASF124:
ARM GAS  C:\Users\ramanatg\AppData\Local\Temp\ccxbhSsV.s 			page 398


 18540 04a8 4359424C 		.ascii	"CYBLE_GATT_ERR_OP_CODE_NOT_SUPPORTED\000"
 18540      455F4741 
 18540      54545F45 
 18540      52525F4F 
 18540      505F434F 
 18541              	.LASF12:
 18542 04cd 6C6F6E67 		.ascii	"long long unsigned int\000"
 18542      206C6F6E 
 18542      6720756E 
 18542      7369676E 
 18542      65642069 
 18543              	.LASF295:
 18544 04e4 64617461 		.ascii	"data_array\000"
 18544      5F617272 
 18544      617900
 18545              	.LASF160:
 18546 04ef 434F4E46 		.ascii	"CONFIG_TYPE_MODE\000"
 18546      49475F54 
 18546      5950455F 
 18546      4D4F4445 
 18546      00
 18547              	.LASF72:
 18548 0500 4359424C 		.ascii	"CYBLE_EVT_GATTC_WRITE_RSP\000"
 18548      455F4556 
 18548      545F4741 
 18548      5454435F 
 18548      57524954 
 18549              	.LASF126:
 18550 051a 4359424C 		.ascii	"CYBLE_GATTS_ERR_CCCD_IMPROPERLY_CONFIGURED\000"
 18550      455F4741 
 18550      5454535F 
 18550      4552525F 
 18550      43434344 
 18551              	.LASF22:
 18552 0545 666C6F61 		.ascii	"float\000"
 18552      7400
 18553              	.LASF33:
 18554 054b 4359424C 		.ascii	"CYBLE_EVT_STACK_BUSY_STATUS\000"
 18554      455F4556 
 18554      545F5354 
 18554      41434B5F 
 18554      42555359 
 18555              	.LASF280:
 18556 0567 636D645F 		.ascii	"cmd_EDFRAME\000"
 18556      45444652 
 18556      414D4500 
 18557              	.LASF209:
 18558 0573 696E6465 		.ascii	"index\000"
 18558      7800
 18559              	.LASF82:
 18560 0579 4359424C 		.ascii	"CYBLE_EVT_GATTS_READ_CHAR_VAL_ACCESS_REQ\000"
 18560      455F4556 
 18560      545F4741 
 18560      5454535F 
 18560      52454144 
 18561              	.LASF268:
 18562 05a2 64617461 		.ascii	"data_length\000"
ARM GAS  C:\Users\ramanatg\AppData\Local\Temp\ccxbhSsV.s 			page 399


 18562      5F6C656E 
 18562      67746800 
 18563              	.LASF161:
 18564 05ae 434F4E46 		.ascii	"CONFIG_TYPE_NID\000"
 18564      49475F54 
 18564      5950455F 
 18564      4E494400 
 18565              	.LASF232:
 18566 05be 72657375 		.ascii	"result\000"
 18566      6C7400
 18567              	.LASF242:
 18568 05c5 73747254 		.ascii	"strTab\000"
 18568      616200
 18569              	.LASF315:
 18570 05cc 55415254 		.ascii	"UART_Start\000"
 18570      5F537461 
 18570      727400
 18571              	.LASF248:
 18572 05d7 636D645F 		.ascii	"cmd_sub_rssi\000"
 18572      7375625F 
 18572      72737369 
 18572      00
 18573              	.LASF71:
 18574 05e4 4359424C 		.ascii	"CYBLE_EVT_GATTS_WRITE_REQ\000"
 18574      455F4556 
 18574      545F4741 
 18574      5454535F 
 18574      57524954 
 18575              	.LASF292:
 18576 05fe 636D645F 		.ascii	"cmd_EXIT\000"
 18576      45584954 
 18576      00
 18577              	.LASF221:
 18578 0607 75707065 		.ascii	"upper_nibble\000"
 18578      725F6E69 
 18578      62626C65 
 18578      00
 18579              	.LASF121:
 18580 0614 4359424C 		.ascii	"CYBLE_GATT_ERR_CPS_INAPPROPRIATE_CONNECTION_PARAMET"
 18580      455F4741 
 18580      54545F45 
 18580      52525F43 
 18580      50535F49 
 18581 0647 45525300 		.ascii	"ERS\000"
 18582              	.LASF57:
 18583 064b 4359424C 		.ascii	"CYBLE_EVT_GAP_AUTH_REQ_REPLY_ERR\000"
 18583      455F4556 
 18583      545F4741 
 18583      505F4155 
 18583      54485F52 
 18584              	.LASF169:
 18585 066c 434F4E46 		.ascii	"CONFIG_TYPE_URLFLAGS\000"
 18585      49475F54 
 18585      5950455F 
 18585      55524C46 
 18585      4C414753 
 18586              	.LASF267:
ARM GAS  C:\Users\ramanatg\AppData\Local\Temp\ccxbhSsV.s 			page 400


 18587 0681 55617274 		.ascii	"UartCmd_ProcessInput\000"
 18587      436D645F 
 18587      50726F63 
 18587      65737349 
 18587      6E707574 
 18588              	.LASF297:
 18589 0696 44656661 		.ascii	"DefaultBeaconConfig\000"
 18589      756C7442 
 18589      6561636F 
 18589      6E436F6E 
 18589      66696700 
 18590              	.LASF5:
 18591 06aa 5F5F7569 		.ascii	"__uint16_t\000"
 18591      6E743136 
 18591      5F7400
 18592              	.LASF113:
 18593 06b5 4359424C 		.ascii	"CYBLE_GATT_ERR_INVALID_ATTRIBUTE_LEN\000"
 18593      455F4741 
 18593      54545F45 
 18593      52525F49 
 18593      4E56414C 
 18594              	.LASF114:
 18595 06da 4359424C 		.ascii	"CYBLE_GATT_ERR_UNLIKELY_ERROR\000"
 18595      455F4741 
 18595      54545F45 
 18595      52525F55 
 18595      4E4C494B 
 18596              	.LASF66:
 18597 06f8 4359424C 		.ascii	"CYBLE_EVT_GATTC_FIND_INFO_RSP\000"
 18597      455F4556 
 18597      545F4741 
 18597      5454435F 
 18597      46494E44 
 18598              	.LASF173:
 18599 0716 434F4E46 		.ascii	"CONFIG_TYPE_ALL\000"
 18599      49475F54 
 18599      5950455F 
 18599      414C4C00 
 18600              	.LASF246:
 18601 0726 636D645F 		.ascii	"cmd_sub_edtxmode\000"
 18601      7375625F 
 18601      65647478 
 18601      6D6F6465 
 18601      00
 18602              	.LASF200:
 18603 0737 76657273 		.ascii	"version_minor2\000"
 18603      696F6E5F 
 18603      6D696E6F 
 18603      723200
 18604              	.LASF67:
 18605 0746 4359424C 		.ascii	"CYBLE_EVT_GATTC_FIND_BY_TYPE_VALUE_RSP\000"
 18605      455F4556 
 18605      545F4741 
 18605      5454435F 
 18605      46494E44 
 18606              	.LASF146:
 18607 076d 76616C75 		.ascii	"value\000"
ARM GAS  C:\Users\ramanatg\AppData\Local\Temp\ccxbhSsV.s 			page 401


 18607      6500
 18608              	.LASF307:
 18609 0773 436F6E66 		.ascii	"ConfigRW_UpdateConfig\000"
 18609      69675257 
 18609      5F557064 
 18609      61746543 
 18609      6F6E6669 
 18610              	.LASF212:
 18611 0789 68747470 		.ascii	"http\000"
 18611      00
 18612              	.LASF75:
 18613 078e 4359424C 		.ascii	"CYBLE_EVT_GATTS_EXEC_WRITE_REQ\000"
 18613      455F4556 
 18613      545F4741 
 18613      5454535F 
 18613      45584543 
 18614              	.LASF76:
 18615 07ad 4359424C 		.ascii	"CYBLE_EVT_GATTC_EXEC_WRITE_RSP\000"
 18615      455F4556 
 18615      545F4741 
 18615      5454435F 
 18615      45584543 
 18616              	.LASF281:
 18617 07cc 636D645F 		.ascii	"cmd_EDSTATE\000"
 18617      45445354 
 18617      41544500 
 18618              	.LASF320:
 18619 07d8 443A5C52 		.ascii	"D:\\Research\\GitHubRepos\\smart-sensing\\cypress-s"
 18619      65736561 
 18619      7263685C 
 18619      47697448 
 18619      75625265 
 18620 0807 6F6C6172 		.ascii	"olar-ble\\Solar_BLE_Sensor\\Solar_BLE_Sensor.cydsn\000"
 18620      2D626C65 
 18620      5C536F6C 
 18620      61725F42 
 18620      4C455F53 
 18621              	.LASF270:
 18622 0838 636D645F 		.ascii	"cmd_UUID\000"
 18622      55554944 
 18622      00
 18623              	.LASF237:
 18624 0841 6164765F 		.ascii	"adv_editrvl\000"
 18624      65646974 
 18624      72766C00 
 18625              	.LASF26:
 18626 084d 73697A65 		.ascii	"size_t\000"
 18626      5F7400
 18627              	.LASF194:
 18628 0854 5552495F 		.ascii	"URI_Length\000"
 18628      4C656E67 
 18628      746800
 18629              	.LASF39:
 18630 085f 4359424C 		.ascii	"CYBLE_EVT_GAP_AUTH_COMPLETE\000"
 18630      455F4556 
 18630      545F4741 
 18630      505F4155 
ARM GAS  C:\Users\ramanatg\AppData\Local\Temp\ccxbhSsV.s 			page 402


 18630      54485F43 
 18631              	.LASF157:
 18632 087b 434F4E46 		.ascii	"CONFIG_TYPE_TXPWR\000"
 18632      49475F54 
 18632      5950455F 
 18632      54585057 
 18632      5200
 18633              	.LASF179:
 18634 088d 45446672 		.ascii	"EDframeFlag\000"
 18634      616D6546 
 18634      6C616700 
 18635              	.LASF277:
 18636 0899 636D645F 		.ascii	"cmd_EDNID\000"
 18636      45444E49 
 18636      4400
 18637              	.LASF313:
 18638 08a3 73747275 		.ascii	"strupr\000"
 18638      707200
 18639              	.LASF189:
 18640 08aa 6D6F6465 		.ascii	"mode\000"
 18640      00
 18641              	.LASF172:
 18642 08af 434F4E46 		.ascii	"CONFIG_TYPE_URLPERIOD\000"
 18642      49475F54 
 18642      5950455F 
 18642      55524C50 
 18642      4552494F 
 18643              	.LASF63:
 18644 08c5 4359424C 		.ascii	"CYBLE_EVT_GATTC_XCHNG_MTU_RSP\000"
 18644      455F4556 
 18644      545F4741 
 18644      5454435F 
 18644      5843484E 
 18645              	.LASF196:
 18646 08e3 55524C5F 		.ascii	"URL_Flags\000"
 18646      466C6167 
 18646      7300
 18647              	.LASF249:
 18648 08ed 636D645F 		.ascii	"cmd_sub_coid\000"
 18648      7375625F 
 18648      636F6964 
 18648      00
 18649              	.LASF98:
 18650 08fa 4359424C 		.ascii	"CYBLE_EVT_FLASH_CORRUPT\000"
 18650      455F4556 
 18650      545F464C 
 18650      4153485F 
 18650      434F5252 
 18651              	.LASF147:
 18652 0912 61747472 		.ascii	"attrHandle\000"
 18652      48616E64 
 18652      6C6500
 18653              	.LASF192:
 18654 091d 4C6F636B 		.ascii	"LockState\000"
 18654      53746174 
 18654      6500
 18655              	.LASF181:
ARM GAS  C:\Users\ramanatg\AppData\Local\Temp\ccxbhSsV.s 			page 403


 18656 0927 75756964 		.ascii	"uuid\000"
 18656      00
 18657              	.LASF273:
 18658 092c 636D645F 		.ascii	"cmd_TXPWR\000"
 18658      54585057 
 18658      5200
 18659              	.LASF69:
 18660 0936 4359424C 		.ascii	"CYBLE_EVT_GATTC_READ_BLOB_RSP\000"
 18660      455F4556 
 18660      545F4741 
 18660      5454435F 
 18660      52454144 
 18661              	.LASF85:
 18662 0954 4359424C 		.ascii	"CYBLE_EVT_L2CAP_CONN_PARAM_UPDATE_RSP\000"
 18662      455F4556 
 18662      545F4C32 
 18662      4341505F 
 18662      434F4E4E 
 18663              	.LASF239:
 18664 097a 636D645F 		.ascii	"cmd_sub_edtxpwr\000"
 18664      7375625F 
 18664      65647478 
 18664      70777200 
 18665              	.LASF88:
 18666 098a 4359424C 		.ascii	"CYBLE_EVT_L2CAP_CBFC_CONN_CNF\000"
 18666      455F4556 
 18666      545F4C32 
 18666      4341505F 
 18666      43424643 
 18667              	.LASF293:
 18668 09a8 636D645F 		.ascii	"cmd_VER\000"
 18668      56455200 
 18669              	.LASF174:
 18670 09b0 436F6E66 		.ascii	"ConfigType\000"
 18670      69675479 
 18670      706500
 18671              	.LASF109:
 18672 09bb 4359424C 		.ascii	"CYBLE_GATT_ERR_PREPARE_WRITE_QUEUE_FULL\000"
 18672      455F4741 
 18672      54545F45 
 18672      52525F50 
 18672      52455041 
 18673              	.LASF188:
 18674 09e3 73656E73 		.ascii	"sensor\000"
 18674      6F7200
 18675              	.LASF170:
 18676 09ea 434F4E46 		.ascii	"CONFIG_TYPE_EDADPWR\000"
 18676      49475F54 
 18676      5950455F 
 18676      45444144 
 18676      50575200 
 18677              	.LASF257:
 18678 09fe 65647465 		.ascii	"edtest\000"
 18678      737400
 18679              	.LASF119:
 18680 0a05 4359424C 		.ascii	"CYBLE_GATT_ERR_HEART_RATE_CONTROL_POINT_NOT_SUPPORT"
 18680      455F4741 
ARM GAS  C:\Users\ramanatg\AppData\Local\Temp\ccxbhSsV.s 			page 404


 18680      54545F45 
 18680      52525F48 
 18680      45415254 
 18681 0a38 454400   		.ascii	"ED\000"
 18682              	.LASF32:
 18683 0a3b 4359424C 		.ascii	"CYBLE_EVT_HCI_STATUS\000"
 18683      455F4556 
 18683      545F4843 
 18683      495F5354 
 18683      41545553 
 18684              	.LASF25:
 18685 0a50 63686172 		.ascii	"char\000"
 18685      00
 18686              	.LASF108:
 18687 0a55 4359424C 		.ascii	"CYBLE_GATT_ERR_INSUFFICIENT_AUTHORIZATION\000"
 18687      455F4741 
 18687      54545F45 
 18687      52525F49 
 18687      4E535546 
 18688              	.LASF274:
 18689 0a7f 636D645F 		.ascii	"cmd_RSSI\000"
 18689      52535349 
 18689      00
 18690              	.LASF15:
 18691 0a88 75696E74 		.ascii	"uint8_t\000"
 18691      385F7400 
 18692              	.LASF279:
 18693 0a90 636D645F 		.ascii	"cmd_EDTXPWR\000"
 18693      45445458 
 18693      50575200 
 18694              	.LASF265:
 18695 0a9c 636D645F 		.ascii	"cmd_sub_init\000"
 18695      7375625F 
 18695      696E6974 
 18695      00
 18696              	.LASF251:
 18697 0aa9 636D645F 		.ascii	"cmd_sub_version\000"
 18697      7375625F 
 18697      76657273 
 18697      696F6E00 
 18698              	.LASF145:
 18699 0ab9 4359424C 		.ascii	"CYBLE_GATT_VALUE_T\000"
 18699      455F4741 
 18699      54545F56 
 18699      414C5545 
 18699      5F5400
 18700              	.LASF29:
 18701 0acc 4359424C 		.ascii	"CYBLE_EVT_STACK_ON\000"
 18701      455F4556 
 18701      545F5354 
 18701      41434B5F 
 18701      4F4E00
 18702              	.LASF20:
 18703 0adf 75696E74 		.ascii	"uint16\000"
 18703      313600
 18704              	.LASF204:
 18705 0ae6 64617461 		.ascii	"data\000"
ARM GAS  C:\Users\ramanatg\AppData\Local\Temp\ccxbhSsV.s 			page 405


 18705      00
 18706              	.LASF140:
 18707 0aeb 4359424C 		.ascii	"CYBLE_GATT_DB_ATTR_HANDLE_T\000"
 18707      455F4741 
 18707      54545F44 
 18707      425F4154 
 18707      54525F48 
 18708              	.LASF11:
 18709 0b07 6C6F6E67 		.ascii	"long long int\000"
 18709      206C6F6E 
 18709      6720696E 
 18709      7400
 18710              	.LASF84:
 18711 0b15 4359424C 		.ascii	"CYBLE_EVT_L2CAP_CONN_PARAM_UPDATE_REQ\000"
 18711      455F4556 
 18711      545F4C32 
 18711      4341505F 
 18711      434F4E4E 
 18712              	.LASF210:
 18713 0b3b 746D705F 		.ascii	"tmp_result\000"
 18713      72657375 
 18713      6C7400
 18714              	.LASF149:
 18715 0b46 61637475 		.ascii	"actualLength\000"
 18715      616C4C65 
 18715      6E677468 
 18715      00
 18716              	.LASF133:
 18717 0b53 4359424C 		.ascii	"CYBLE_GATT_ERR_ANCS_INVALID_COMMAND\000"
 18717      455F4741 
 18717      54545F45 
 18717      52525F41 
 18717      4E43535F 
 18718              	.LASF24:
 18719 0b77 63686172 		.ascii	"char8\000"
 18719      3800
 18720              	.LASF226:
 18721 0b7d 70506F73 		.ascii	"pPos\000"
 18721      00
 18722              	.LASF244:
 18723 0b82 636D645F 		.ascii	"cmd_sub_edadpwr\000"
 18723      7375625F 
 18723      65646164 
 18723      70777200 
 18724              	.LASF162:
 18725 0b92 434F4E46 		.ascii	"CONFIG_TYPE_BID\000"
 18725      49475F54 
 18725      5950455F 
 18725      42494400 
 18726              	.LASF52:
 18727 0ba2 4359424C 		.ascii	"CYBLE_EVT_GAP_ENHANCE_CONN_COMPLETE\000"
 18727      455F4556 
 18727      545F4741 
 18727      505F454E 
 18727      48414E43 
 18728              	.LASF250:
 18729 0bc6 636F6D70 		.ascii	"company_id\000"
ARM GAS  C:\Users\ramanatg\AppData\Local\Temp\ccxbhSsV.s 			page 406


 18729      616E795F 
 18729      696400
 18730              	.LASF132:
 18731 0bd1 4359424C 		.ascii	"CYBLE_GATT_ERR_ANCS_UNKNOWN_COMMAND\000"
 18731      455F4741 
 18731      54545F45 
 18731      52525F41 
 18731      4E43535F 
 18732              	.LASF286:
 18733 0bf5 636D645F 		.ascii	"cmd_EDTXMODE\000"
 18733      45445458 
 18733      4D4F4445 
 18733      00
 18734              	.LASF193:
 18735 0c02 6C6F636B 		.ascii	"lock\000"
 18735      00
 18736              	.LASF256:
 18737 0c07 65646479 		.ascii	"eddystone\000"
 18737      73746F6E 
 18737      6500
 18738              	.LASF298:
 18739 0c11 55415254 		.ascii	"UART_SpiUartGetTxBufferSize\000"
 18739      5F537069 
 18739      55617274 
 18739      47657454 
 18739      78427566 
 18740              	.LASF238:
 18741 0c2d 636D645F 		.ascii	"cmd_sub_txpwr\000"
 18741      7375625F 
 18741      74787077 
 18741      7200
 18742              	.LASF187:
 18743 0c3b 72737369 		.ascii	"rssi\000"
 18743      00
 18744              	.LASF240:
 18745 0c40 6C656E67 		.ascii	"length\000"
 18745      746800
 18746              	.LASF217:
 18747 0c47 746D705F 		.ascii	"tmp_Uri_Data\000"
 18747      5572695F 
 18747      44617461 
 18747      00
 18748              	.LASF59:
 18749 0c54 4359424C 		.ascii	"CYBLE_EVT_GATTC_ERROR_RSP\000"
 18749      455F4556 
 18749      545F4741 
 18749      5454435F 
 18749      4552524F 
 18750              	.LASF224:
 18751 0c6e 7374725F 		.ascii	"str_buf\000"
 18751      62756600 
 18752              	.LASF48:
 18753 0c76 4359424C 		.ascii	"CYBLE_EVT_GAP_NUMERIC_COMPARISON_REQUEST\000"
 18753      455F4556 
 18753      545F4741 
 18753      505F4E55 
 18753      4D455249 
ARM GAS  C:\Users\ramanatg\AppData\Local\Temp\ccxbhSsV.s 			page 407


 18754              	.LASF296:
 18755 0c9f 6379426C 		.ascii	"cyBle_attValuesLen\000"
 18755      655F6174 
 18755      7456616C 
 18755      7565734C 
 18755      656E00
 18756              	.LASF285:
 18757 0cb2 636D645F 		.ascii	"cmd_EDADPWR\000"
 18757      45444144 
 18757      50575200 
 18758              	.LASF276:
 18759 0cbe 636D645F 		.ascii	"cmd_COID\000"
 18759      434F4944 
 18759      00
 18760              	.LASF195:
 18761 0cc7 5552495F 		.ascii	"URI_Data\000"
 18761      44617461 
 18761      00
 18762              	.LASF287:
 18763 0cd0 636D645F 		.ascii	"cmd_EDITRVL\000"
 18763      45444954 
 18763      52564C00 
 18764              	.LASF214:
 18765 0cdc 75726C5F 		.ascii	"url_SUFFIX\000"
 18765      53554646 
 18765      495800
 18766              	.LASF152:
 18767 0ce7 434F4E46 		.ascii	"CONFIG_TYPE_UUID\000"
 18767      49475F54 
 18767      5950455F 
 18767      55554944 
 18767      00
 18768              	.LASF253:
 18769 0cf8 636D645F 		.ascii	"cmd_sub_exsens\000"
 18769      7375625F 
 18769      65787365 
 18769      6E7300
 18770              	.LASF167:
 18771 0d07 434F4E46 		.ascii	"CONFIG_TYPE_URILENGTH\000"
 18771      49475F54 
 18771      5950455F 
 18771      5552494C 
 18771      454E4754 
 18772              	.LASF305:
 18773 0d1d 6D656D73 		.ascii	"memset\000"
 18773      657400
 18774              	.LASF115:
 18775 0d24 4359424C 		.ascii	"CYBLE_GATT_ERR_INSUFFICIENT_ENCRYPTION\000"
 18775      455F4741 
 18775      54545F45 
 18775      52525F49 
 18775      4E535546 
 18776              	.LASF202:
 18777 0d4b 44617461 		.ascii	"DataFlag_End\000"
 18777      466C6167 
 18777      5F456E64 
 18777      00
ARM GAS  C:\Users\ramanatg\AppData\Local\Temp\ccxbhSsV.s 			page 408


 18778              	.LASF117:
 18779 0d58 4359424C 		.ascii	"CYBLE_GATT_ERR_INSUFFICIENT_RESOURCE\000"
 18779      455F4741 
 18779      54545F45 
 18779      52525F49 
 18779      4E535546 
 18780              	.LASF41:
 18781 0d7d 4359424C 		.ascii	"CYBLE_EVT_GAPP_ADVERTISEMENT_START_STOP\000"
 18781      455F4556 
 18781      545F4741 
 18781      50505F41 
 18781      44564552 
 18782              	.LASF201:
 18783 0da5 76657273 		.ascii	"version_major_minor1\000"
 18783      696F6E5F 
 18783      6D616A6F 
 18783      725F6D69 
 18783      6E6F7231 
 18784              	.LASF183:
 18785 0dba 6D696E6F 		.ascii	"minor\000"
 18785      7200
 18786              	.LASF21:
 18787 0dc0 75696E74 		.ascii	"uint32\000"
 18787      333200
 18788              	.LASF278:
 18789 0dc7 636D645F 		.ascii	"cmd_EDBID\000"
 18789      45444249 
 18789      4400
 18790              	.LASF166:
 18791 0dd1 434F4E46 		.ascii	"CONFIG_TYPE_LOCK\000"
 18791      49475F54 
 18791      5950455F 
 18791      4C4F434B 
 18791      00
 18792              	.LASF128:
 18793 0de2 4359424C 		.ascii	"CYBLE_GATT_ERR_INVALID_CRC\000"
 18793      455F4741 
 18793      54545F45 
 18793      52525F49 
 18793      4E56414C 
 18794              	.LASF91:
 18795 0dfd 4359424C 		.ascii	"CYBLE_EVT_L2CAP_CBFC_DATA_READ\000"
 18795      455F4556 
 18795      545F4C32 
 18795      4341505F 
 18795      43424643 
 18796              	.LASF155:
 18797 0e1c 434F4E46 		.ascii	"CONFIG_TYPE_ITRVL\000"
 18797      49475F54 
 18797      5950455F 
 18797      49545256 
 18797      4C00
 18798              	.LASF185:
 18799 0e2e 636F6D49 		.ascii	"comID\000"
 18799      4400
 18800              	.LASF134:
 18801 0e34 4359424C 		.ascii	"CYBLE_GATT_ERR_ANCS_INVALID_PARAMETER\000"
ARM GAS  C:\Users\ramanatg\AppData\Local\Temp\ccxbhSsV.s 			page 409


 18801      455F4741 
 18801      54545F45 
 18801      52525F41 
 18801      4E43535F 
 18802              	.LASF10:
 18803 0e5a 6C6F6E67 		.ascii	"long unsigned int\000"
 18803      20756E73 
 18803      69676E65 
 18803      6420696E 
 18803      7400
 18804              	.LASF308:
 18805 0e6c 4379426C 		.ascii	"CyBle_GattsWriteAttributeValue\000"
 18805      655F4761 
 18805      74747357 
 18805      72697465 
 18805      41747472 
 18806              	.LASF228:
 18807 0e8b 746D705F 		.ascii	"tmp_nid\000"
 18807      6E696400 
 18808              	.LASF116:
 18809 0e93 4359424C 		.ascii	"CYBLE_GATT_ERR_UNSUPPORTED_GROUP_TYPE\000"
 18809      455F4741 
 18809      54545F45 
 18809      52525F55 
 18809      4E535550 
 18810              	.LASF97:
 18811 0eb9 4359424C 		.ascii	"CYBLE_EVT_HCI_PKT\000"
 18811      455F4556 
 18811      545F4843 
 18811      495F504B 
 18811      5400
 18812              	.LASF142:
 18813 0ecb 61747449 		.ascii	"attId\000"
 18813      6400
 18814              	.LASF153:
 18815 0ed1 434F4E46 		.ascii	"CONFIG_TYPE_MAJOR\000"
 18815      49475F54 
 18815      5950455F 
 18815      4D414A4F 
 18815      5200
 18816              	.LASF291:
 18817 0ee3 636D645F 		.ascii	"cmd_INIT\000"
 18817      494E4954 
 18817      00
 18818              	.LASF101:
 18819 0eec 4359424C 		.ascii	"CYBLE_GATT_ERR_INVALID_HANDLE\000"
 18819      455F4741 
 18819      54545F45 
 18819      52525F49 
 18819      4E56414C 
 18820              	.LASF83:
 18821 0f0a 4359424C 		.ascii	"CYBLE_EVT_GATTC_LONG_PROCEDURE_END\000"
 18821      455F4556 
 18821      545F4741 
 18821      5454435F 
 18821      4C4F4E47 
 18822              	.LASF0:
ARM GAS  C:\Users\ramanatg\AppData\Local\Temp\ccxbhSsV.s 			page 410


 18823 0f2d 5F5F696E 		.ascii	"__int8_t\000"
 18823      74385F74 
 18823      00
 18824              	.LASF103:
 18825 0f36 4359424C 		.ascii	"CYBLE_GATT_ERR_WRITE_NOT_PERMITTED\000"
 18825      455F4741 
 18825      54545F45 
 18825      52525F57 
 18825      52495445 
 18826              	.LASF54:
 18827 0f59 4359424C 		.ascii	"CYBLE_EVT_GAP_SMP_NEGOTIATED_AUTH_INFO\000"
 18827      455F4556 
 18827      545F4741 
 18827      505F534D 
 18827      505F4E45 
 18828              	.LASF275:
 18829 0f80 636D645F 		.ascii	"cmd_ITRVL\000"
 18829      49545256 
 18829      4C00
 18830              	.LASF197:
 18831 0f8a 4164765F 		.ascii	"Adv_TXPowerLevels\000"
 18831      5458506F 
 18831      7765724C 
 18831      6576656C 
 18831      7300
 18832              	.LASF309:
 18833 0f9c 73707269 		.ascii	"sprintf\000"
 18833      6E746600 
 18834              	.LASF16:
 18835 0fa4 75696E74 		.ascii	"uint16_t\000"
 18835      31365F74 
 18835      00
 18836              	.LASF271:
 18837 0fad 636D645F 		.ascii	"cmd_MAJOR\000"
 18837      4D414A4F 
 18837      5200
 18838              	.LASF199:
 18839 0fb7 55524C50 		.ascii	"URLPeriod\000"
 18839      6572696F 
 18839      6400
 18840              	.LASF78:
 18841 0fc1 4359424C 		.ascii	"CYBLE_EVT_GATTC_HANDLE_VALUE_IND\000"
 18841      455F4556 
 18841      545F4741 
 18841      5454435F 
 18841      48414E44 
 18842              	.LASF102:
 18843 0fe2 4359424C 		.ascii	"CYBLE_GATT_ERR_READ_NOT_PERMITTED\000"
 18843      455F4741 
 18843      54545F45 
 18843      52525F52 
 18843      4541445F 
 18844              	.LASF294:
 18845 1004 636D645F 		.ascii	"cmd_HELP\000"
 18845      48454C50 
 18845      00
 18846              	.LASF206:
ARM GAS  C:\Users\ramanatg\AppData\Local\Temp\ccxbhSsV.s 			page 411


 18847 100d 68657874 		.ascii	"hextobin\000"
 18847      6F62696E 
 18847      00
 18848              	.LASF311:
 18849 1016 55415254 		.ascii	"UART_SpiUartWriteTxData\000"
 18849      5F537069 
 18849      55617274 
 18849      57726974 
 18849      65547844 
 18850              	.LASF318:
 18851 102e 474E5520 		.ascii	"GNU C 4.9.3 20150303 (release) [ARM/embedded-4_9-br"
 18851      4320342E 
 18851      392E3320 
 18851      32303135 
 18851      30333033 
 18852 1061 616E6368 		.ascii	"anch revision 221220] -mcpu=cortex-m0 -mthumb -g -O"
 18852      20726576 
 18852      6973696F 
 18852      6E203232 
 18852      31323230 
 18853 1094 33202D66 		.ascii	"3 -ffunction-sections -ffat-lto-objects\000"
 18853      66756E63 
 18853      74696F6E 
 18853      2D736563 
 18853      74696F6E 
 18854              	.LASF30:
 18855 10bc 4359424C 		.ascii	"CYBLE_EVT_TIMEOUT\000"
 18855      455F4556 
 18855      545F5449 
 18855      4D454F55 
 18855      5400
 18856              	.LASF261:
 18857 10ce 6C6F636B 		.ascii	"lock_state_locked\000"
 18857      5F737461 
 18857      74655F6C 
 18857      6F636B65 
 18857      6400
 18858              	.LASF44:
 18859 10e0 4359424C 		.ascii	"CYBLE_EVT_GAP_ENCRYPT_CHANGE\000"
 18859      455F4556 
 18859      545F4741 
 18859      505F454E 
 18859      43525950 
 18860              	.LASF235:
 18861 10fd 6164765F 		.ascii	"adv_interval\000"
 18861      696E7465 
 18861      7276616C 
 18861      00
 18862              	.LASF158:
 18863 110a 434F4E46 		.ascii	"CONFIG_TYPE_RSSI\000"
 18863      49475F54 
 18863      5950455F 
 18863      52535349 
 18863      00
 18864              	.LASF203:
 18865 111b 42656163 		.ascii	"BeaconConfig\000"
 18865      6F6E436F 
ARM GAS  C:\Users\ramanatg\AppData\Local\Temp\ccxbhSsV.s 			page 412


 18865      6E666967 
 18865      00
 18866              	.LASF138:
 18867 1128 4359424C 		.ascii	"CYBLE_GATT_ERR_OUT_OF_RANGE\000"
 18867      455F4741 
 18867      54545F45 
 18867      52525F4F 
 18867      55545F4F 
 18868              	.LASF263:
 18869 1144 6C6F636B 		.ascii	"lock_state_unlocked\000"
 18869      5F737461 
 18869      74655F75 
 18869      6E6C6F63 
 18869      6B656400 
 18870              	.LASF127:
 18871 1158 4359424C 		.ascii	"CYBLE_GATTS_ERR_OPERATION_FAILED\000"
 18871      455F4741 
 18871      5454535F 
 18871      4552525F 
 18871      4F504552 
 18872              	.LASF131:
 18873 1179 4359424C 		.ascii	"CYBLE_GATT_ERR_ANS_COMMAND_NOT_SUPPORTED\000"
 18873      455F4741 
 18873      54545F45 
 18873      52525F41 
 18873      4E535F43 
 18874              	.LASF94:
 18875 11a2 4359424C 		.ascii	"CYBLE_EVT_L2CAP_CBFC_DATA_WRITE_IND\000"
 18875      455F4556 
 18875      545F4C32 
 18875      4341505F 
 18875      43424643 
 18876              	.LASF8:
 18877 11c6 6C6F6E67 		.ascii	"long int\000"
 18877      20696E74 
 18877      00
 18878              	.LASF51:
 18879 11cf 4359424C 		.ascii	"CYBLE_EVT_GAP_DATA_LENGTH_CHANGE\000"
 18879      455F4556 
 18879      545F4741 
 18879      505F4441 
 18879      54415F4C 
 18880              	.LASF60:
 18881 11f0 4359424C 		.ascii	"CYBLE_EVT_GATT_CONNECT_IND\000"
 18881      455F4556 
 18881      545F4741 
 18881      54545F43 
 18881      4F4E4E45 
 18882              	.LASF99:
 18883 120b 4359424C 		.ascii	"CYBLE_EVT_MAX\000"
 18883      455F4556 
 18883      545F4D41 
 18883      5800
 18884              	.LASF112:
 18885 1219 4359424C 		.ascii	"CYBLE_GATT_ERR_INSUFFICIENT_ENC_KEY_SIZE\000"
 18885      455F4741 
 18885      54545F45 
ARM GAS  C:\Users\ramanatg\AppData\Local\Temp\ccxbhSsV.s 			page 413


 18885      52525F49 
 18885      4E535546 
 18886              	.LASF70:
 18887 1242 4359424C 		.ascii	"CYBLE_EVT_GATTC_READ_MULTI_RSP\000"
 18887      455F4556 
 18887      545F4741 
 18887      5454435F 
 18887      52454144 
 18888              	.LASF229:
 18889 1261 636D645F 		.ascii	"cmd_sub_edbid\000"
 18889      7375625F 
 18889      65646269 
 18889      6400
 18890              	.LASF284:
 18891 126f 636D645F 		.ascii	"cmd_EDURI\000"
 18891      45445552 
 18891      4900
 18892              	.LASF151:
 18893 1279 4359424C 		.ascii	"CYBLE_GATTS_ATT_GEN_VAL_LEN_T\000"
 18893      455F4741 
 18893      5454535F 
 18893      4154545F 
 18893      47454E5F 
 18894              	.LASF125:
 18895 1297 4359424C 		.ascii	"CYBLE_GATT_ERR_MISSING_CRC\000"
 18895      455F4741 
 18895      54545F45 
 18895      52525F4D 
 18895      49535349 
 18896              	.LASF89:
 18897 12b2 4359424C 		.ascii	"CYBLE_EVT_L2CAP_CBFC_DISCONN_IND\000"
 18897      455F4556 
 18897      545F4C32 
 18897      4341505F 
 18897      43424643 
 18898              	.LASF136:
 18899 12d3 4359424C 		.ascii	"CYBLE_GATT_ERR_CCCD_IMPROPERLY_CONFIGURED\000"
 18899      455F4741 
 18899      54545F45 
 18899      52525F43 
 18899      4343445F 
 18900              	.LASF247:
 18901 12fd 4E65774D 		.ascii	"NewMode\000"
 18901      6F646500 
 18902              	.LASF28:
 18903 1305 4359424C 		.ascii	"CYBLE_EVT_HOST_INVALID\000"
 18903      455F4556 
 18903      545F484F 
 18903      53545F49 
 18903      4E56414C 
 18904              	.LASF306:
 18905 131c 6D656D63 		.ascii	"memcmp\000"
 18905      6D7000
 18906              	.LASF304:
 18907 1323 55415254 		.ascii	"UART_UartPutString\000"
 18907      5F556172 
 18907      74507574 
ARM GAS  C:\Users\ramanatg\AppData\Local\Temp\ccxbhSsV.s 			page 414


 18907      53747269 
 18907      6E6700
 18908              	.LASF53:
 18909 1336 4359424C 		.ascii	"CYBLE_EVT_GAPC_DIRECT_ADV_REPORT\000"
 18909      455F4556 
 18909      545F4741 
 18909      50435F44 
 18909      49524543 
 18910              	.LASF50:
 18911 1357 4359424C 		.ascii	"CYBLE_EVT_GAP_OOB_GENERATED_NOTIFICATION\000"
 18911      455F4556 
 18911      545F4741 
 18911      505F4F4F 
 18911      425F4745 
 18912              	.LASF64:
 18913 1380 4359424C 		.ascii	"CYBLE_EVT_GATTC_READ_BY_GROUP_TYPE_RSP\000"
 18913      455F4556 
 18913      545F4741 
 18913      5454435F 
 18913      52454144 
 18914              	.LASF218:
 18915 13a7 70537461 		.ascii	"pStartofURL\000"
 18915      72746F66 
 18915      55524C00 
 18916              	.LASF144:
 18917 13b3 61637475 		.ascii	"actualLen\000"
 18917      616C4C65 
 18917      6E00
 18918              	.LASF234:
 18919 13bd 636D645F 		.ascii	"cmd_sub_itrvl\000"
 18919      7375625F 
 18919      69747276 
 18919      6C00
 18920              	.LASF1:
 18921 13cb 5F5F7569 		.ascii	"__uint8_t\000"
 18921      6E74385F 
 18921      7400
 18922              	.LASF43:
 18923 13d5 4359424C 		.ascii	"CYBLE_EVT_GAP_DEVICE_DISCONNECTED\000"
 18923      455F4556 
 18923      545F4741 
 18923      505F4445 
 18923      56494345 
 18924              	.LASF135:
 18925 13f7 4359424C 		.ascii	"CYBLE_GATT_ERR_ANCS_ACTION_FAILED\000"
 18925      455F4741 
 18925      54545F45 
 18925      52525F41 
 18925      4E43535F 
 18926              	.LASF13:
 18927 1419 756E7369 		.ascii	"unsigned int\000"
 18927      676E6564 
 18927      20696E74 
 18927      00
 18928              	.LASF87:
 18929 1426 4359424C 		.ascii	"CYBLE_EVT_L2CAP_CBFC_CONN_IND\000"
 18929      455F4556 
ARM GAS  C:\Users\ramanatg\AppData\Local\Temp\ccxbhSsV.s 			page 415


 18929      545F4C32 
 18929      4341505F 
 18929      43424643 
 18930              	.LASF27:
 18931 1444 73697A65 		.ascii	"sizetype\000"
 18931      74797065 
 18931      00
 18932              	.LASF314:
 18933 144d 436F6E66 		.ascii	"ConfigRW_WriteDefault\000"
 18933      69675257 
 18933      5F577269 
 18933      74654465 
 18933      6661756C 
 18934              	.LASF316:
 18935 1463 45646479 		.ascii	"EddystoneURL_Config_UpdateAllAttrib\000"
 18935      73746F6E 
 18935      6555524C 
 18935      5F436F6E 
 18935      6669675F 
 18936              	.LASF154:
 18937 1487 434F4E46 		.ascii	"CONFIG_TYPE_MINOR\000"
 18937      49475F54 
 18937      5950455F 
 18937      4D494E4F 
 18937      5200
 18938              	.LASF47:
 18939 1499 4359424C 		.ascii	"CYBLE_EVT_GAP_KEYINFO_EXCHNGE_CMPLT\000"
 18939      455F4556 
 18939      545F4741 
 18939      505F4B45 
 18939      59494E46 
 18940              	.LASF38:
 18941 14bd 4359424C 		.ascii	"CYBLE_EVT_GAP_PASSKEY_DISPLAY_REQUEST\000"
 18941      455F4556 
 18941      545F4741 
 18941      505F5041 
 18941      53534B45 
 18942              	.LASF175:
 18943 14e3 55494469 		.ascii	"UIDisEnabled\000"
 18943      73456E61 
 18943      626C6564 
 18943      00
 18944              	.LASF17:
 18945 14f0 696E7433 		.ascii	"int32_t\000"
 18945      325F7400 
 18946              	.LASF148:
 18947 14f8 4359424C 		.ascii	"CYBLE_GATT_HANDLE_VALUE_PAIR_T\000"
 18947      455F4741 
 18947      54545F48 
 18947      414E444C 
 18947      455F5641 
 18948              	.LASF216:
 18949 1517 746D705F 		.ascii	"tmp_Uri_Length\000"
 18949      5572695F 
 18949      4C656E67 
 18949      746800
 18950              	.LASF190:
ARM GAS  C:\Users\ramanatg\AppData\Local\Temp\ccxbhSsV.s 			page 416


 18951 1526 5458506F 		.ascii	"TXPowerLevels\000"
 18951      7765724C 
 18951      6576656C 
 18951      7300
 18952              	.LASF319:
 18953 1534 55617274 		.ascii	"UartCmd.c\000"
 18953      436D642E 
 18953      6300
 18954              	.LASF40:
 18955 153e 4359424C 		.ascii	"CYBLE_EVT_GAP_AUTH_FAILED\000"
 18955      455F4556 
 18955      545F4741 
 18955      505F4155 
 18955      54485F46 
 18956              	.LASF34:
 18957 1558 4359424C 		.ascii	"CYBLE_EVT_MEMORY_REQUEST\000"
 18957      455F4556 
 18957      545F4D45 
 18957      4D4F5259 
 18957      5F524551 
 18958              	.LASF86:
 18959 1571 4359424C 		.ascii	"CYBLE_EVT_L2CAP_COMMAND_REJ\000"
 18959      455F4556 
 18959      545F4C32 
 18959      4341505F 
 18959      434F4D4D 
 18960              	.LASF230:
 18961 158d 746D705F 		.ascii	"tmp_bid\000"
 18961      62696400 
 18962              	.LASF49:
 18963 1595 4359424C 		.ascii	"CYBLE_EVT_GAP_KEYPRESS_NOTIFICATION\000"
 18963      455F4556 
 18963      545F4741 
 18963      505F4B45 
 18963      59505245 
 18964              	.LASF3:
 18965 15b9 756E7369 		.ascii	"unsigned char\000"
 18965      676E6564 
 18965      20636861 
 18965      7200
 18966              	.LASF272:
 18967 15c7 636D645F 		.ascii	"cmd_MINOR\000"
 18967      4D494E4F 
 18967      5200
 18968              	.LASF9:
 18969 15d1 5F5F7569 		.ascii	"__uint32_t\000"
 18969      6E743332 
 18969      5F7400
 18970              	.LASF220:
 18971 15dc 74776F61 		.ascii	"twoaton\000"
 18971      746F6E00 
 18972              	.LASF68:
 18973 15e4 4359424C 		.ascii	"CYBLE_EVT_GATTC_READ_RSP\000"
 18973      455F4556 
 18973      545F4741 
 18973      5454435F 
 18973      52454144 
ARM GAS  C:\Users\ramanatg\AppData\Local\Temp\ccxbhSsV.s 			page 417


 18974              	.LASF104:
 18975 15fd 4359424C 		.ascii	"CYBLE_GATT_ERR_INVALID_PDU\000"
 18975      455F4741 
 18975      54545F45 
 18975      52525F49 
 18975      4E56414C 
 18976              	.LASF245:
 18977 1618 746D705F 		.ascii	"tmp_Adv_TXPowerLevels\000"
 18977      4164765F 
 18977      5458506F 
 18977      7765724C 
 18977      6576656C 
 18978              	.LASF182:
 18979 162e 6D616A6F 		.ascii	"major\000"
 18979      7200
 18980              	.LASF225:
 18981 1634 72627566 		.ascii	"rbuff\000"
 18981      6600
 18982              	.LASF159:
 18983 163a 434F4E46 		.ascii	"CONFIG_TYPE_SENSOR\000"
 18983      49475F54 
 18983      5950455F 
 18983      53454E53 
 18983      4F5200
 18984              	.LASF198:
 18985 164d 5458506F 		.ascii	"TXPowerMode\000"
 18985      7765724D 
 18985      6F646500 
 18986              	.LASF266:
 18987 1659 55617274 		.ascii	"UartCmd_Init\000"
 18987      436D645F 
 18987      496E6974 
 18987      00
 18988              	.LASF58:
 18989 1666 4359424C 		.ascii	"CYBLE_EVT_GAP_SMP_LOC_P256_KEYS_GEN_AND_SET_COMPLET"
 18989      455F4556 
 18989      545F4741 
 18989      505F534D 
 18989      505F4C4F 
 18990 1699 4500     		.ascii	"E\000"
 18991              	.LASF289:
 18992 169b 636D645F 		.ascii	"cmd_EXSENS\000"
 18992      45585345 
 18992      4E5300
 18993              	.LASF231:
 18994 16a6 636D645F 		.ascii	"cmd_sub_major\000"
 18994      7375625F 
 18994      6D616A6F 
 18994      7200
 18995              	.LASF90:
 18996 16b4 4359424C 		.ascii	"CYBLE_EVT_L2CAP_CBFC_DISCONN_CNF\000"
 18996      455F4556 
 18996      545F4C32 
 18996      4341505F 
 18996      43424643 
 18997              	.LASF302:
 18998 16d5 55415254 		.ascii	"UART_UartGetByte\000"
ARM GAS  C:\Users\ramanatg\AppData\Local\Temp\ccxbhSsV.s 			page 418


 18998      5F556172 
 18998      74476574 
 18998      42797465 
 18998      00
 18999              	.LASF42:
 19000 16e6 4359424C 		.ascii	"CYBLE_EVT_GAP_DEVICE_CONNECTED\000"
 19000      455F4556 
 19000      545F4741 
 19000      505F4445 
 19000      56494345 
 19001              	.LASF118:
 19002 1705 4359424C 		.ascii	"CYBLE_GATT_ERR_TRIGGER_CODITION_VALUE_NOT_SUPPORTED"
 19002      455F4741 
 19002      54545F45 
 19002      52525F54 
 19002      52494747 
 19003 1738 00       		.ascii	"\000"
 19004              	.LASF74:
 19005 1739 4359424C 		.ascii	"CYBLE_EVT_GATTS_PREP_WRITE_REQ\000"
 19005      455F4556 
 19005      545F4741 
 19005      5454535F 
 19005      50524550 
 19006              	.LASF168:
 19007 1758 434F4E46 		.ascii	"CONFIG_TYPE_URIDATA\000"
 19007      49475F54 
 19007      5950455F 
 19007      55524944 
 19007      41544100 
 19008              	.LASF55:
 19009 176c 4359424C 		.ascii	"CYBLE_EVT_GAP_CONN_ESTB\000"
 19009      455F4556 
 19009      545F4741 
 19009      505F434F 
 19009      4E4E5F45 
 19010              	.LASF95:
 19011 1784 4359424C 		.ascii	"CYBLE_EVT_PENDING_FLASH_WRITE\000"
 19011      455F4556 
 19011      545F5045 
 19011      4E44494E 
 19011      475F464C 
 19012              	.LASF110:
 19013 17a2 4359424C 		.ascii	"CYBLE_GATT_ERR_ATTRIBUTE_NOT_FOUND\000"
 19013      455F4741 
 19013      54545F45 
 19013      52525F41 
 19013      54545249 
 19014              	.LASF300:
 19015 17c5 55617274 		.ascii	"UartCmd_ReadLineAppend\000"
 19015      436D645F 
 19015      52656164 
 19015      4C696E65 
 19015      41707065 
 19016              	.LASF141:
 19017 17dc 62644861 		.ascii	"bdHandle\000"
 19017      6E646C65 
 19017      00
ARM GAS  C:\Users\ramanatg\AppData\Local\Temp\ccxbhSsV.s 			page 419


 19018              	.LASF262:
 19019 17e5 636D645F 		.ascii	"cmd_sub_unlock\000"
 19019      7375625F 
 19019      756E6C6F 
 19019      636B00
 19020              	.LASF123:
 19021 17f4 4359424C 		.ascii	"CYBLE_GATTS_ERR_PROCEDURE_ALREADY_IN_PROGRESS\000"
 19021      455F4741 
 19021      5454535F 
 19021      4552525F 
 19021      50524F43 
 19022              	.LASF2:
 19023 1822 7369676E 		.ascii	"signed char\000"
 19023      65642063 
 19023      68617200 
 19024              	.LASF6:
 19025 182e 73686F72 		.ascii	"short unsigned int\000"
 19025      7420756E 
 19025      7369676E 
 19025      65642069 
 19025      6E7400
 19026              	.LASF65:
 19027 1841 4359424C 		.ascii	"CYBLE_EVT_GATTC_READ_BY_TYPE_RSP\000"
 19027      455F4556 
 19027      545F4741 
 19027      5454435F 
 19027      52454144 
 19028              	.LASF184:
 19029 1862 69747276 		.ascii	"itrvl\000"
 19029      6C00
 19030              	.LASF310:
 19031 1868 6D656D63 		.ascii	"memcpy\000"
 19031      707900
 19032              	.LASF312:
 19033 186f 61746F69 		.ascii	"atoi\000"
 19033      00
 19034              	.LASF233:
 19035 1874 636D645F 		.ascii	"cmd_sub_minor\000"
 19035      7375625F 
 19035      6D696E6F 
 19035      7200
 19036              	.LASF178:
 19037 1882 72657365 		.ascii	"reserved\000"
 19037      72766564 
 19037      00
 19038              	.LASF156:
 19039 188b 434F4E46 		.ascii	"CONFIG_TYPE_COMID\000"
 19039      49475F54 
 19039      5950455F 
 19039      434F4D49 
 19039      4400
 19040              	.LASF211:
 19041 189d 636D645F 		.ascii	"cmd_sub_eduri\000"
 19041      7375625F 
 19041      65647572 
 19041      6900
 19042              	.LASF205:
ARM GAS  C:\Users\ramanatg\AppData\Local\Temp\ccxbhSsV.s 			page 420


 19043 18ab 61746F78 		.ascii	"atox\000"
 19043      00
 19044              	.LASF23:
 19045 18b0 646F7562 		.ascii	"double\000"
 19045      6C6500
 19046              	.LASF130:
 19047 18b7 4359424C 		.ascii	"CYBLE_GATTS_ERR_NETWORK_NOT_AVAILABLE\000"
 19047      455F4741 
 19047      5454535F 
 19047      4552525F 
 19047      4E455457 
 19048              	.LASF79:
 19049 18dd 4359424C 		.ascii	"CYBLE_EVT_GATTS_HANDLE_VALUE_CNF\000"
 19049      455F4556 
 19049      545F4741 
 19049      5454535F 
 19049      48414E44 
 19050              	.LASF290:
 19051 18fe 636D645F 		.ascii	"cmd_MODE\000"
 19051      4D4F4445 
 19051      00
 19052              	.LASF236:
 19053 1907 636D645F 		.ascii	"cmd_sub_editrvl\000"
 19053      7375625F 
 19053      65646974 
 19053      72766C00 
 19054              	.LASF241:
 19055 1917 746D705F 		.ascii	"tmp_TXPowerLevels\000"
 19055      5458506F 
 19055      7765724C 
 19055      6576656C 
 19055      7300
 19056              	.LASF106:
 19057 1929 4359424C 		.ascii	"CYBLE_GATT_ERR_REQUEST_NOT_SUPPORTED\000"
 19057      455F4741 
 19057      54545F45 
 19057      52525F52 
 19057      45515545 
 19058              	.LASF164:
 19059 194e 434F4E46 		.ascii	"CONFIG_TYPE_FRAME\000"
 19059      49475F54 
 19059      5950455F 
 19059      4652414D 
 19059      4500
 19060              	.LASF35:
 19061 1960 4359424C 		.ascii	"CYBLE_EVT_GAPC_SCAN_PROGRESS_RESULT\000"
 19061      455F4556 
 19061      545F4741 
 19061      50435F53 
 19061      43414E5F 
 19062              	.LASF46:
 19063 1984 4359424C 		.ascii	"CYBLE_EVT_GAPC_SCAN_START_STOP\000"
 19063      455F4556 
 19063      545F4741 
 19063      50435F53 
 19063      43414E5F 
 19064              	.LASF207:
ARM GAS  C:\Users\ramanatg\AppData\Local\Temp\ccxbhSsV.s 			page 421


 19065 19a3 64657374 		.ascii	"dest\000"
 19065      00
 19066              	.LASF243:
 19067 19a8 76616C75 		.ascii	"valueTab\000"
 19067      65546162 
 19067      00
 19068              	.LASF111:
 19069 19b1 4359424C 		.ascii	"CYBLE_GATT_ERR_ATTRIBUTE_NOT_LONG\000"
 19069      455F4741 
 19069      54545F45 
 19069      52525F41 
 19069      54545249 
 19070              	.LASF177:
 19071 19d3 544C4D69 		.ascii	"TLMisEnabled\000"
 19071      73456E61 
 19071      626C6564 
 19071      00
 19072              	.LASF186:
 19073 19e0 74787077 		.ascii	"txpwr\000"
 19073      7200
 19074              		.ident	"GCC: (GNU Tools for ARM Embedded Processors) 4.9.3 20150303 (release) [ARM/embedded-4_9-br
