ARM GAS  C:\Users\ramanatg\AppData\Local\Temp\cciThAgf.s 			page 1


   1              		.cpu cortex-m0
   2              		.fpu softvfp
   3              		.eabi_attribute 20, 1
   4              		.eabi_attribute 21, 1
   5              		.eabi_attribute 23, 3
   6              		.eabi_attribute 24, 1
   7              		.eabi_attribute 25, 1
   8              		.eabi_attribute 26, 1
   9              		.eabi_attribute 30, 2
  10              		.eabi_attribute 34, 0
  11              		.eabi_attribute 18, 4
  12              		.code	16
  13              		.file	"BLE.c"
  14              		.text
  15              	.Ltext0:
  16              		.cfi_sections	.debug_frame
  17              		.section	.text.CyBle_Init,"ax",%progbits
  18              		.align	2
  19              		.global	CyBle_Init
  20              		.code	16
  21              		.thumb_func
  22              		.type	CyBle_Init, %function
  23              	CyBle_Init:
  24              	.LFB2:
  25              		.file 1 "Generated_Source\\PSoC4\\BLE.c"
   1:Generated_Source\PSoC4/BLE.c **** /***************************************************************************//**
   2:Generated_Source\PSoC4/BLE.c **** * \file CYBLE.c
   3:Generated_Source\PSoC4/BLE.c **** * \version 3.30
   4:Generated_Source\PSoC4/BLE.c **** * 
   5:Generated_Source\PSoC4/BLE.c **** * \brief
   6:Generated_Source\PSoC4/BLE.c **** *  This file contains the source code for the Common APIs of the BLE Component.
   7:Generated_Source\PSoC4/BLE.c **** * 
   8:Generated_Source\PSoC4/BLE.c **** ********************************************************************************
   9:Generated_Source\PSoC4/BLE.c **** * \copyright
  10:Generated_Source\PSoC4/BLE.c **** * Copyright 2014-2016, Cypress Semiconductor Corporation.  All rights reserved.
  11:Generated_Source\PSoC4/BLE.c **** * You may use this file only in accordance with the license, terms, conditions,
  12:Generated_Source\PSoC4/BLE.c **** * disclaimers, and limitations in the end user license agreement accompanying
  13:Generated_Source\PSoC4/BLE.c **** * the software package with which this file was provided.
  14:Generated_Source\PSoC4/BLE.c **** *******************************************************************************/
  15:Generated_Source\PSoC4/BLE.c **** 
  16:Generated_Source\PSoC4/BLE.c **** #include "BLE_eventHandler.h"
  17:Generated_Source\PSoC4/BLE.c **** #include "BLE_HAL_PVT.h"
  18:Generated_Source\PSoC4/BLE.c **** #include <stdlib.h>
  19:Generated_Source\PSoC4/BLE.c **** 
  20:Generated_Source\PSoC4/BLE.c **** 
  21:Generated_Source\PSoC4/BLE.c **** /***************************************
  22:Generated_Source\PSoC4/BLE.c **** * Function Prototypes
  23:Generated_Source\PSoC4/BLE.c **** ***************************************/
  24:Generated_Source\PSoC4/BLE.c **** 
  25:Generated_Source\PSoC4/BLE.c **** #if(CYBLE_GATT_ROLE_SERVER)
  26:Generated_Source\PSoC4/BLE.c ****     #if(CYBLE_GAP_ROLE_PERIPHERAL)
  27:Generated_Source\PSoC4/BLE.c ****         static void CyBle_ChangeAdLocalName(const char8 name[], uint8 dest);
  28:Generated_Source\PSoC4/BLE.c ****     #endif /* (CYBLE_GAP_ROLE_PERIPHERAL) */
  29:Generated_Source\PSoC4/BLE.c **** #endif /* (CYBLE_GATT_ROLE_SERVER) */
  30:Generated_Source\PSoC4/BLE.c ****     
  31:Generated_Source\PSoC4/BLE.c **** 
  32:Generated_Source\PSoC4/BLE.c **** /***************************************
ARM GAS  C:\Users\ramanatg\AppData\Local\Temp\cciThAgf.s 			page 2


  33:Generated_Source\PSoC4/BLE.c **** * Global Variables
  34:Generated_Source\PSoC4/BLE.c **** ***************************************/
  35:Generated_Source\PSoC4/BLE.c **** 
  36:Generated_Source\PSoC4/BLE.c **** /* Indicates whether the BLE has been initialized. The variable is initialized to
  37:Generated_Source\PSoC4/BLE.c ****    0 and set to 1 the first time CyBle_Start() is called. This allows the component
  38:Generated_Source\PSoC4/BLE.c ****    to restart without reinitialization after the first call to the CyBle_Start() 
  39:Generated_Source\PSoC4/BLE.c ****    routine. If reinitialization of the component is required, the variable should 
  40:Generated_Source\PSoC4/BLE.c ****    be set to 0 before the CyBle_Start() routine is called. Alternatively, the BLE
  41:Generated_Source\PSoC4/BLE.c ****    can be reinitialized by calling the CyBle_Init() function.
  42:Generated_Source\PSoC4/BLE.c **** */
  43:Generated_Source\PSoC4/BLE.c **** uint8  cyBle_initVar = 0u;
  44:Generated_Source\PSoC4/BLE.c **** 
  45:Generated_Source\PSoC4/BLE.c **** /* Allocate RAM memory for stack. This buffer could be reused by application when 
  46:Generated_Source\PSoC4/BLE.c ****    BLE component is stopped. For export mode buffer is allocated in heap.
  47:Generated_Source\PSoC4/BLE.c **** */
  48:Generated_Source\PSoC4/BLE.c **** #if(CYBLE_SHARING_MODE_EXPORT)
  49:Generated_Source\PSoC4/BLE.c ****     
  50:Generated_Source\PSoC4/BLE.c **** uint8 *cyBle_stackMemoryRam = NULL;
  51:Generated_Source\PSoC4/BLE.c **** 
  52:Generated_Source\PSoC4/BLE.c **** #else
  53:Generated_Source\PSoC4/BLE.c **** 
  54:Generated_Source\PSoC4/BLE.c **** CYBLE_CYALIGNED_BEGIN CY_NOINIT uint8 cyBle_stackMemoryRam[CYBLE_STACK_RAM_SIZE] CYBLE_CYALIGNED_EN
  55:Generated_Source\PSoC4/BLE.c **** 
  56:Generated_Source\PSoC4/BLE.c **** #endif  /* CYBLE_SHARING_MODE_EXPORT */
  57:Generated_Source\PSoC4/BLE.c **** 
  58:Generated_Source\PSoC4/BLE.c **** #if(CYBLE_GAP_ROLE_PERIPHERAL || CYBLE_GAP_ROLE_BROADCASTER)
  59:Generated_Source\PSoC4/BLE.c **** 
  60:Generated_Source\PSoC4/BLE.c **** CYBLE_GAPP_DISC_PARAM_T cyBle_discoveryParam =
  61:Generated_Source\PSoC4/BLE.c **** {
  62:Generated_Source\PSoC4/BLE.c ****     0x0050u,    /* uint16 advertising_interval_min */
  63:Generated_Source\PSoC4/BLE.c ****     0x0050u,    /* uint16 advertising_interval_max */
  64:Generated_Source\PSoC4/BLE.c ****     CYBLE_GAPP_CONNECTABLE_UNDIRECTED_ADV, /* uint8 advertising_type */
  65:Generated_Source\PSoC4/BLE.c ****     0x00u,      /* uint8 own_addr_type */
  66:Generated_Source\PSoC4/BLE.c ****     0x00u,      /* uint8 direct_addr_type */
  67:Generated_Source\PSoC4/BLE.c ****     {0x00u, 0x00u, 0x00u, 0x50u, 0xA0u, 0x00u}, /* uint8* direct_addr */
  68:Generated_Source\PSoC4/BLE.c ****     0x07u,      /* uint8 advertising_channel_map */
  69:Generated_Source\PSoC4/BLE.c ****     0x00u,      /* uint8 advertising_filter_policy */
  70:Generated_Source\PSoC4/BLE.c **** };
  71:Generated_Source\PSoC4/BLE.c **** 
  72:Generated_Source\PSoC4/BLE.c **** CYBLE_GAPP_DISC_DATA_T cyBle_discoveryData =
  73:Generated_Source\PSoC4/BLE.c **** {
  74:Generated_Source\PSoC4/BLE.c ****     { 0x02u, 0x01u, 0x06u, 0x02u, 0x0Au, 0xFEu, 0x11u,
  75:Generated_Source\PSoC4/BLE.c ****     0x07u, 0xD8u, 0x81u, 0xC9u, 0x1Au, 0xB9u, 0x99u, 0x96u,
  76:Generated_Source\PSoC4/BLE.c ****     0xABu, 0xBAu, 0x40u, 0x86u, 0x87u, 0x80u, 0x20u, 0x0Cu,
  77:Generated_Source\PSoC4/BLE.c ****     0xEEu, 0x00u, 0x00u, 0x00u, 0x00u, 0x00u, 0x00u, 0x00u }, /* uint8 advertising_data[CYBLE_MAX_A
  78:Generated_Source\PSoC4/BLE.c ****     0x18u,      /* uint8 adv_data_length */
  79:Generated_Source\PSoC4/BLE.c **** };
  80:Generated_Source\PSoC4/BLE.c **** 
  81:Generated_Source\PSoC4/BLE.c **** CYBLE_GAPP_SCAN_RSP_DATA_T cyBle_scanRspData =
  82:Generated_Source\PSoC4/BLE.c **** {
  83:Generated_Source\PSoC4/BLE.c ****     { 0x11u, 0x09u, 0x53u, 0x6Fu, 0x6Cu, 0x61u, 0x72u,
  84:Generated_Source\PSoC4/BLE.c ****     0x20u, 0x42u, 0x4Cu, 0x45u, 0x20u, 0x53u, 0x65u, 0x6Eu,
  85:Generated_Source\PSoC4/BLE.c ****     0x73u, 0x6Fu, 0x72u, 0x00u, 0x00u, 0x00u, 0x00u, 0x00u,
  86:Generated_Source\PSoC4/BLE.c ****     0x00u, 0x00u, 0x00u, 0x00u, 0x00u, 0x00u, 0x00u, 0x00u }, /* uint8 scan_rsp_data[CYBLE_MAX_SCAN
  87:Generated_Source\PSoC4/BLE.c ****     0x12u,      /* uint8 scan_rsp_data_length */
  88:Generated_Source\PSoC4/BLE.c **** };
  89:Generated_Source\PSoC4/BLE.c **** 
ARM GAS  C:\Users\ramanatg\AppData\Local\Temp\cciThAgf.s 			page 3


  90:Generated_Source\PSoC4/BLE.c **** /* This variable of type CYBLE_GAPP_DISC_MODE_INFO_T is present only when 
  91:Generated_Source\PSoC4/BLE.c ****    the BLE component is configured for Peripheral GAP role or Central and 
  92:Generated_Source\PSoC4/BLE.c ****    Peripheral GAP role. It contains the Advertisement settings and also the 
  93:Generated_Source\PSoC4/BLE.c ****    Advertisement and Scan response data parameters entered in the customizer.
  94:Generated_Source\PSoC4/BLE.c ****    This variable can be used by advanced users to change Advertisement settings,
  95:Generated_Source\PSoC4/BLE.c ****    Advertisement or Scan response data in runtime. 
  96:Generated_Source\PSoC4/BLE.c **** */
  97:Generated_Source\PSoC4/BLE.c **** CYBLE_GAPP_DISC_MODE_INFO_T cyBle_discoveryModeInfo =
  98:Generated_Source\PSoC4/BLE.c **** {
  99:Generated_Source\PSoC4/BLE.c ****     0x02u,      /* uint8 discMode */
 100:Generated_Source\PSoC4/BLE.c ****     &cyBle_discoveryParam,
 101:Generated_Source\PSoC4/BLE.c ****     &cyBle_discoveryData,
 102:Generated_Source\PSoC4/BLE.c ****     &cyBle_scanRspData,
 103:Generated_Source\PSoC4/BLE.c ****     0x003Cu,    /* uint16 advTo */
 104:Generated_Source\PSoC4/BLE.c **** };
 105:Generated_Source\PSoC4/BLE.c **** 
 106:Generated_Source\PSoC4/BLE.c **** 
 107:Generated_Source\PSoC4/BLE.c **** #endif /* CYBLE_GAP_ROLE_PERIPHERAL || CYBLE_GAP_ROLE_BROADCASTER */
 108:Generated_Source\PSoC4/BLE.c **** 
 109:Generated_Source\PSoC4/BLE.c **** #if(CYBLE_GAP_ROLE_CENTRAL)
 110:Generated_Source\PSoC4/BLE.c ****     
 111:Generated_Source\PSoC4/BLE.c **** CYBLE_GAPC_CONN_PARAM_T cyBle_connectionParameters;
 112:Generated_Source\PSoC4/BLE.c **** 
 113:Generated_Source\PSoC4/BLE.c **** /* Connecting timeout is set to 30 seconds in CyBle_Init function. 
 114:Generated_Source\PSoC4/BLE.c ****    Not zero value starts timer in CyBle_GapcConnectDevice API.
 115:Generated_Source\PSoC4/BLE.c **** */
 116:Generated_Source\PSoC4/BLE.c **** uint16 cyBle_connectingTimeout;
 117:Generated_Source\PSoC4/BLE.c ****     
 118:Generated_Source\PSoC4/BLE.c **** #endif /* CYBLE_GAP_ROLE_CENTRAL */
 119:Generated_Source\PSoC4/BLE.c **** 
 120:Generated_Source\PSoC4/BLE.c **** #if(CYBLE_GAP_ROLE_CENTRAL || CYBLE_GAP_ROLE_OBSERVER)
 121:Generated_Source\PSoC4/BLE.c ****     
 122:Generated_Source\PSoC4/BLE.c **** 
 123:Generated_Source\PSoC4/BLE.c ****     
 124:Generated_Source\PSoC4/BLE.c **** #endif /* CYBLE_GAP_ROLE_CENTRAL || CYBLE_GAP_ROLE_OBSERVER */
 125:Generated_Source\PSoC4/BLE.c **** 
 126:Generated_Source\PSoC4/BLE.c **** #if((CYBLE_GAP_ROLE_PERIPHERAL || CYBLE_GAP_ROLE_CENTRAL) && (CYBLE_BONDING_REQUIREMENT == CYBLE_BO
 127:Generated_Source\PSoC4/BLE.c **** 
 128:Generated_Source\PSoC4/BLE.c **** uint8 cyBle_peerBonding;
 129:Generated_Source\PSoC4/BLE.c **** uint8 cyBle_pendingFlashWrite;
 130:Generated_Source\PSoC4/BLE.c ****     
 131:Generated_Source\PSoC4/BLE.c **** #if(CYBLE_GATT_DB_CCCD_COUNT != 0u)
 132:Generated_Source\PSoC4/BLE.c ****     static uint8 cyBle_pendingFlashClearCccdHandle;
 133:Generated_Source\PSoC4/BLE.c **** #endif /* CYBLE_GATT_DB_CCCD_COUNT != 0u */
 134:Generated_Source\PSoC4/BLE.c ****     
 135:Generated_Source\PSoC4/BLE.c **** #endif  /* (CYBLE_BONDING_REQUIREMENT == CYBLE_BONDING_YES) */
 136:Generated_Source\PSoC4/BLE.c **** 
 137:Generated_Source\PSoC4/BLE.c **** CYBLE_CALLBACK_T CyBle_ApplCallback;
 138:Generated_Source\PSoC4/BLE.c **** CYBLE_GAP_BD_ADDR_T cyBle_deviceAddress = {{0x00u, 0x00u, 0x00u, 0x50u, 0xA0u, 0x00u}, 0x00u };
 139:Generated_Source\PSoC4/BLE.c **** CYBLE_GAP_BD_ADDR_T * cyBle_sflashDeviceAddress = CYBLE_SFLASH_DEVICE_ADDRESS_PTR;
 140:Generated_Source\PSoC4/BLE.c **** 
 141:Generated_Source\PSoC4/BLE.c **** 
 142:Generated_Source\PSoC4/BLE.c **** /******************************************************************************
 143:Generated_Source\PSoC4/BLE.c **** * Function Name: CyBle_Init
 144:Generated_Source\PSoC4/BLE.c **** ***************************************************************************//**
 145:Generated_Source\PSoC4/BLE.c **** *
 146:Generated_Source\PSoC4/BLE.c **** *   Initializes the component with the parameters set in the customizer.
ARM GAS  C:\Users\ramanatg\AppData\Local\Temp\cciThAgf.s 			page 4


 147:Generated_Source\PSoC4/BLE.c **** * 
 148:Generated_Source\PSoC4/BLE.c **** *  \return
 149:Generated_Source\PSoC4/BLE.c **** *   None
 150:Generated_Source\PSoC4/BLE.c **** * 
 151:Generated_Source\PSoC4/BLE.c **** ******************************************************************************/
 152:Generated_Source\PSoC4/BLE.c **** void CyBle_Init(void)
 153:Generated_Source\PSoC4/BLE.c **** {
  26              		.loc 1 153 0
  27              		.cfi_startproc
  28 0000 10B5     		push	{r4, lr}
  29              		.cfi_def_cfa_offset 8
  30              		.cfi_offset 4, -8
  31              		.cfi_offset 14, -4
 154:Generated_Source\PSoC4/BLE.c ****     cyBle_eventHandlerFlag = 0u;
  32              		.loc 1 154 0
  33 0002 0024     		mov	r4, #0
  34 0004 064B     		ldr	r3, .L2
 155:Generated_Source\PSoC4/BLE.c ****     cyBle_busyStatus = CYBLE_STACK_STATE_FREE;
 156:Generated_Source\PSoC4/BLE.c **** 
 157:Generated_Source\PSoC4/BLE.c ****     #if(CYBLE_GAP_ROLE_PERIPHERAL || CYBLE_GAP_ROLE_BROADCASTER) 
 158:Generated_Source\PSoC4/BLE.c ****         cyBle_advertisingIntervalType = CYBLE_ADVERTISING_FAST; 
 159:Generated_Source\PSoC4/BLE.c ****     #endif /* (CYBLE_GAP_ROLE_PERIPHERAL || CYBLE_GAP_ROLE_BROADCASTER)  */
 160:Generated_Source\PSoC4/BLE.c ****     #if(CYBLE_GAP_ROLE_CENTRAL || CYBLE_GAP_ROLE_OBSERVER)
 161:Generated_Source\PSoC4/BLE.c ****         cyBle_scanningIntervalType = CYBLE_SCANNING_FAST; 
 162:Generated_Source\PSoC4/BLE.c ****     #endif /* (CYBLE_GAP_ROLE_CENTRAL || CYBLE_GAP_ROLE_OBSERVER) */
 163:Generated_Source\PSoC4/BLE.c ****         
 164:Generated_Source\PSoC4/BLE.c ****     /* Init default connection parameters. 
 165:Generated_Source\PSoC4/BLE.c ****        Application may change it before initiating a connection */
 166:Generated_Source\PSoC4/BLE.c ****     #if(CYBLE_GAP_ROLE_CENTRAL)
 167:Generated_Source\PSoC4/BLE.c ****         cyBle_connectionParameters.scanIntv = cyBle_discoveryInfo.scanIntv;
 168:Generated_Source\PSoC4/BLE.c ****         cyBle_connectionParameters.scanWindow = cyBle_discoveryInfo.scanWindow;
 169:Generated_Source\PSoC4/BLE.c ****         cyBle_connectionParameters.ownAddrType = cyBle_discoveryInfo.ownAddrType;
 170:Generated_Source\PSoC4/BLE.c ****         cyBle_connectionParameters.initiatorFilterPolicy = cyBle_discoveryInfo.scanFilterPolicy;
 171:Generated_Source\PSoC4/BLE.c ****         cyBle_connectionParameters.connIntvMin = CYBLE_GAPC_CONNECTION_INTERVAL_MIN;
 172:Generated_Source\PSoC4/BLE.c ****         cyBle_connectionParameters.connIntvMax = CYBLE_GAPC_CONNECTION_INTERVAL_MAX;
 173:Generated_Source\PSoC4/BLE.c ****         cyBle_connectionParameters.connLatency = CYBLE_GAPC_CONNECTION_SLAVE_LATENCY;
 174:Generated_Source\PSoC4/BLE.c ****         cyBle_connectionParameters.supervisionTO = CYBLE_GAPC_CONNECTION_TIME_OUT;
 175:Generated_Source\PSoC4/BLE.c ****         cyBle_connectionParameters.minCeLength = 0x0000u;
 176:Generated_Source\PSoC4/BLE.c ****         cyBle_connectionParameters.maxCeLength = 0xFFFFu;
 177:Generated_Source\PSoC4/BLE.c ****         
 178:Generated_Source\PSoC4/BLE.c ****         cyBle_connectingTimeout = CYBLE_GAPC_CONNECTING_TIMEOUT;
 179:Generated_Source\PSoC4/BLE.c ****     #endif /* CYBLE_GAP_ROLE_CENTRAL */
 180:Generated_Source\PSoC4/BLE.c **** 
 181:Generated_Source\PSoC4/BLE.c ****     CyBle_ServiceInit();
 182:Generated_Source\PSoC4/BLE.c **** 
 183:Generated_Source\PSoC4/BLE.c ****     #if((CYBLE_GAP_ROLE_PERIPHERAL || CYBLE_GAP_ROLE_CENTRAL) && (CYBLE_BONDING_REQUIREMENT == CYBL
 184:Generated_Source\PSoC4/BLE.c ****         cyBle_pendingFlashWrite = 0u;
 185:Generated_Source\PSoC4/BLE.c ****         cyBle_peerBonding = CYBLE_GAP_BONDING_NONE;
 186:Generated_Source\PSoC4/BLE.c ****     #endif  /* (CYBLE_BONDING_REQUIREMENT == CYBLE_BONDING_YES) */
 187:Generated_Source\PSoC4/BLE.c **** 
 188:Generated_Source\PSoC4/BLE.c **** }
  35              		.loc 1 188 0
  36              		@ sp needed
 154:Generated_Source\PSoC4/BLE.c ****     cyBle_eventHandlerFlag = 0u;
  37              		.loc 1 154 0
  38 0006 1C70     		strb	r4, [r3]
 155:Generated_Source\PSoC4/BLE.c ****     cyBle_busyStatus = CYBLE_STACK_STATE_FREE;
ARM GAS  C:\Users\ramanatg\AppData\Local\Temp\cciThAgf.s 			page 5


  39              		.loc 1 155 0
  40 0008 064B     		ldr	r3, .L2+4
  41 000a 1C70     		strb	r4, [r3]
 158:Generated_Source\PSoC4/BLE.c ****     #endif /* (CYBLE_GAP_ROLE_PERIPHERAL || CYBLE_GAP_ROLE_BROADCASTER)  */
  42              		.loc 1 158 0
  43 000c 064B     		ldr	r3, .L2+8
  44 000e 1C70     		strb	r4, [r3]
  45              	.LBB9:
  46              	.LBB10:
 189:Generated_Source\PSoC4/BLE.c **** 
 190:Generated_Source\PSoC4/BLE.c **** 
 191:Generated_Source\PSoC4/BLE.c **** /******************************************************************************
 192:Generated_Source\PSoC4/BLE.c **** * Function Name: CyBle_ServiceInit
 193:Generated_Source\PSoC4/BLE.c **** ***************************************************************************//**
 194:Generated_Source\PSoC4/BLE.c **** * 
 195:Generated_Source\PSoC4/BLE.c **** *  Initializes all included services.
 196:Generated_Source\PSoC4/BLE.c **** * 
 197:Generated_Source\PSoC4/BLE.c **** * \return
 198:Generated_Source\PSoC4/BLE.c **** *  None
 199:Generated_Source\PSoC4/BLE.c **** * 
 200:Generated_Source\PSoC4/BLE.c **** ******************************************************************************/
 201:Generated_Source\PSoC4/BLE.c **** void CyBle_ServiceInit(void)
 202:Generated_Source\PSoC4/BLE.c **** {
 203:Generated_Source\PSoC4/BLE.c ****     #if(CYBLE_GATT_ROLE_CLIENT)
 204:Generated_Source\PSoC4/BLE.c ****         /* Check service range before clearing to support partial discovery */
 205:Generated_Source\PSoC4/BLE.c ****         if(cyBle_serverInfo[CYBLE_SRVI_GAP].range.startHandle == CYBLE_GATT_INVALID_ATTR_HANDLE_VAL
 206:Generated_Source\PSoC4/BLE.c ****         {
 207:Generated_Source\PSoC4/BLE.c ****             (void)memset(&cyBle_gapc, 0, sizeof(cyBle_gapc));
 208:Generated_Source\PSoC4/BLE.c ****         }
 209:Generated_Source\PSoC4/BLE.c ****         if(cyBle_serverInfo[CYBLE_SRVI_GATT].range.startHandle == CYBLE_GATT_INVALID_ATTR_HANDLE_VA
 210:Generated_Source\PSoC4/BLE.c ****         {
 211:Generated_Source\PSoC4/BLE.c ****             (void)memset(&cyBle_gattc, 0, sizeof(cyBle_gattc));
 212:Generated_Source\PSoC4/BLE.c ****         }
 213:Generated_Source\PSoC4/BLE.c ****     #endif /* CYBLE_GATT_ROLE_CLIENT */
 214:Generated_Source\PSoC4/BLE.c **** 
 215:Generated_Source\PSoC4/BLE.c ****    	#ifdef CYBLE_AIOS
 216:Generated_Source\PSoC4/BLE.c ****         CyBle_AiosInit();
 217:Generated_Source\PSoC4/BLE.c ****     #endif /* CYBLE_AIOS */
 218:Generated_Source\PSoC4/BLE.c **** 
 219:Generated_Source\PSoC4/BLE.c **** 	#ifdef CYBLE_ANCS
 220:Generated_Source\PSoC4/BLE.c ****         CyBle_AncsInit();
 221:Generated_Source\PSoC4/BLE.c ****     #endif /* CYBLE_ANCS */
 222:Generated_Source\PSoC4/BLE.c **** 	
 223:Generated_Source\PSoC4/BLE.c ****     #ifdef CYBLE_ANS
 224:Generated_Source\PSoC4/BLE.c ****         CyBle_AnsInit();
 225:Generated_Source\PSoC4/BLE.c ****     #endif /* CYBLE_ANS */
 226:Generated_Source\PSoC4/BLE.c ****     
 227:Generated_Source\PSoC4/BLE.c ****     #ifdef CYBLE_BAS
 228:Generated_Source\PSoC4/BLE.c ****         CyBle_BasInit();
 229:Generated_Source\PSoC4/BLE.c ****     #endif /* CYBLE_BAS */
 230:Generated_Source\PSoC4/BLE.c ****     
 231:Generated_Source\PSoC4/BLE.c ****     #ifdef CYBLE_BCS
 232:Generated_Source\PSoC4/BLE.c ****         CyBle_BcsInit();
 233:Generated_Source\PSoC4/BLE.c ****     #endif /* CYBLE_BCS */
 234:Generated_Source\PSoC4/BLE.c **** 
 235:Generated_Source\PSoC4/BLE.c ****     #ifdef CYBLE_BLS
 236:Generated_Source\PSoC4/BLE.c ****         CyBle_BlsInit();
ARM GAS  C:\Users\ramanatg\AppData\Local\Temp\cciThAgf.s 			page 6


 237:Generated_Source\PSoC4/BLE.c ****     #endif /* CYBLE_BLS */
 238:Generated_Source\PSoC4/BLE.c ****     
 239:Generated_Source\PSoC4/BLE.c ****     #ifdef CYBLE_BMS
 240:Generated_Source\PSoC4/BLE.c ****         CyBle_BmsInit();
 241:Generated_Source\PSoC4/BLE.c ****     #endif /* CYBLE_BMS */
 242:Generated_Source\PSoC4/BLE.c ****     
 243:Generated_Source\PSoC4/BLE.c ****     #ifdef CYBLE_CGMS
 244:Generated_Source\PSoC4/BLE.c ****         CyBle_CgmsInit();
 245:Generated_Source\PSoC4/BLE.c ****     #endif /* CYBLE_CGMS */
 246:Generated_Source\PSoC4/BLE.c **** 
 247:Generated_Source\PSoC4/BLE.c ****     #ifdef CYBLE_CPS
 248:Generated_Source\PSoC4/BLE.c ****         CyBle_CpsInit();
 249:Generated_Source\PSoC4/BLE.c ****     #endif /* CYBLE_CPS */
 250:Generated_Source\PSoC4/BLE.c **** 
 251:Generated_Source\PSoC4/BLE.c ****     #ifdef CYBLE_CSCS
 252:Generated_Source\PSoC4/BLE.c ****         CyBle_CscsInit();
 253:Generated_Source\PSoC4/BLE.c ****     #endif /* CYBLE_CSCS */
 254:Generated_Source\PSoC4/BLE.c ****     
 255:Generated_Source\PSoC4/BLE.c ****     #ifdef CYBLE_CTS
 256:Generated_Source\PSoC4/BLE.c ****         CyBle_CtsInit();
 257:Generated_Source\PSoC4/BLE.c ****     #endif /* CYBLE_CTS */
 258:Generated_Source\PSoC4/BLE.c **** 
 259:Generated_Source\PSoC4/BLE.c ****     #ifdef CYBLE_CUSTOM
 260:Generated_Source\PSoC4/BLE.c ****         CyBle_CustomInit();
  47              		.loc 1 260 0
  48 0010 FFF7FEFF 		bl	CyBle_CustomInit
  49              	.LVL0:
  50              	.LBE10:
  51              	.LBE9:
 184:Generated_Source\PSoC4/BLE.c ****         cyBle_peerBonding = CYBLE_GAP_BONDING_NONE;
  52              		.loc 1 184 0
  53 0014 054B     		ldr	r3, .L2+12
  54 0016 1C70     		strb	r4, [r3]
 185:Generated_Source\PSoC4/BLE.c ****     #endif  /* (CYBLE_BONDING_REQUIREMENT == CYBLE_BONDING_YES) */
  55              		.loc 1 185 0
  56 0018 054B     		ldr	r3, .L2+16
  57 001a 1C70     		strb	r4, [r3]
 188:Generated_Source\PSoC4/BLE.c **** 
  58              		.loc 1 188 0
  59 001c 10BD     		pop	{r4, pc}
  60              	.L3:
  61 001e C046     		.align	2
  62              	.L2:
  63 0020 00000000 		.word	cyBle_eventHandlerFlag
  64 0024 00000000 		.word	cyBle_busyStatus
  65 0028 00000000 		.word	cyBle_advertisingIntervalType
  66 002c 00000000 		.word	cyBle_pendingFlashWrite
  67 0030 00000000 		.word	cyBle_peerBonding
  68              		.cfi_endproc
  69              	.LFE2:
  70              		.size	CyBle_Init, .-CyBle_Init
  71              		.section	.text.CyBle_ServiceInit,"ax",%progbits
  72              		.align	2
  73              		.global	CyBle_ServiceInit
  74              		.code	16
  75              		.thumb_func
  76              		.type	CyBle_ServiceInit, %function
ARM GAS  C:\Users\ramanatg\AppData\Local\Temp\cciThAgf.s 			page 7


  77              	CyBle_ServiceInit:
  78              	.LFB3:
 202:Generated_Source\PSoC4/BLE.c ****     #if(CYBLE_GATT_ROLE_CLIENT)
  79              		.loc 1 202 0
  80              		.cfi_startproc
  81 0000 08B5     		push	{r3, lr}
  82              		.cfi_def_cfa_offset 8
  83              		.cfi_offset 3, -8
  84              		.cfi_offset 14, -4
  85              		.loc 1 260 0
  86 0002 FFF7FEFF 		bl	CyBle_CustomInit
  87              	.LVL1:
 261:Generated_Source\PSoC4/BLE.c ****     #endif /* CYBLE_CUSTOM */
 262:Generated_Source\PSoC4/BLE.c **** 
 263:Generated_Source\PSoC4/BLE.c ****     #ifdef CYBLE_DIS
 264:Generated_Source\PSoC4/BLE.c ****         CyBle_DisInit();
 265:Generated_Source\PSoC4/BLE.c ****     #endif /* CYBLE_DIS */
 266:Generated_Source\PSoC4/BLE.c **** 
 267:Generated_Source\PSoC4/BLE.c ****     #ifdef CYBLE_ESS
 268:Generated_Source\PSoC4/BLE.c ****         CyBle_EssInit();
 269:Generated_Source\PSoC4/BLE.c ****     #endif /* CYBLE_ESS */
 270:Generated_Source\PSoC4/BLE.c ****     
 271:Generated_Source\PSoC4/BLE.c ****     #ifdef CYBLE_GLS
 272:Generated_Source\PSoC4/BLE.c ****         CyBle_GlsInit();
 273:Generated_Source\PSoC4/BLE.c ****     #endif /* CYBLE_GLS */
 274:Generated_Source\PSoC4/BLE.c ****     
 275:Generated_Source\PSoC4/BLE.c ****     #ifdef CYBLE_HIDS
 276:Generated_Source\PSoC4/BLE.c ****         CyBle_HidsInit();
 277:Generated_Source\PSoC4/BLE.c ****     #endif /* CYBLE_HIDS */
 278:Generated_Source\PSoC4/BLE.c **** 
 279:Generated_Source\PSoC4/BLE.c ****     #ifdef CYBLE_HPS
 280:Generated_Source\PSoC4/BLE.c ****         CyBle_HpsInit();
 281:Generated_Source\PSoC4/BLE.c ****     #endif /* CYBLE_HPS */
 282:Generated_Source\PSoC4/BLE.c **** 
 283:Generated_Source\PSoC4/BLE.c ****     #ifdef CYBLE_HRS
 284:Generated_Source\PSoC4/BLE.c ****         CyBle_HrsInit();
 285:Generated_Source\PSoC4/BLE.c ****     #endif /* CYBLE_HRS */
 286:Generated_Source\PSoC4/BLE.c ****     
 287:Generated_Source\PSoC4/BLE.c ****     #ifdef CYBLE_HTS
 288:Generated_Source\PSoC4/BLE.c ****         CyBle_HtsInit();
 289:Generated_Source\PSoC4/BLE.c ****     #endif /* CYBLE_RSCS */
 290:Generated_Source\PSoC4/BLE.c **** 
 291:Generated_Source\PSoC4/BLE.c ****     #ifdef CYBLE_IAS
 292:Generated_Source\PSoC4/BLE.c ****         CyBle_IasInit();
 293:Generated_Source\PSoC4/BLE.c ****     #endif /* CYBLE_IAS */
 294:Generated_Source\PSoC4/BLE.c **** 
 295:Generated_Source\PSoC4/BLE.c ****     #ifdef CYBLE_IPS
 296:Generated_Source\PSoC4/BLE.c ****         CyBle_IpsInit();
 297:Generated_Source\PSoC4/BLE.c ****     #endif /* CYBLE_IPS */
 298:Generated_Source\PSoC4/BLE.c ****     
 299:Generated_Source\PSoC4/BLE.c ****     #ifdef CYBLE_LLS
 300:Generated_Source\PSoC4/BLE.c ****         CyBle_LlsInit();
 301:Generated_Source\PSoC4/BLE.c ****     #endif /* CYBLE_LLS */
 302:Generated_Source\PSoC4/BLE.c **** 
 303:Generated_Source\PSoC4/BLE.c ****     #ifdef CYBLE_LNS
 304:Generated_Source\PSoC4/BLE.c ****         CyBle_LnsInit();
 305:Generated_Source\PSoC4/BLE.c ****     #endif /* CYBLE_LNS */
ARM GAS  C:\Users\ramanatg\AppData\Local\Temp\cciThAgf.s 			page 8


 306:Generated_Source\PSoC4/BLE.c ****     
 307:Generated_Source\PSoC4/BLE.c ****     #ifdef CYBLE_NDCS
 308:Generated_Source\PSoC4/BLE.c ****         CyBle_NdcsInit();
 309:Generated_Source\PSoC4/BLE.c ****     #endif /* CYBLE_NDCS */
 310:Generated_Source\PSoC4/BLE.c ****     
 311:Generated_Source\PSoC4/BLE.c ****     #ifdef CYBLE_PASS
 312:Generated_Source\PSoC4/BLE.c ****         CyBle_PassInit();
 313:Generated_Source\PSoC4/BLE.c ****     #endif /* CYBLE_PASS */
 314:Generated_Source\PSoC4/BLE.c ****     
 315:Generated_Source\PSoC4/BLE.c ****     #ifdef CYBLE_PLXS
 316:Generated_Source\PSoC4/BLE.c ****         CyBle_PlxsInit();
 317:Generated_Source\PSoC4/BLE.c ****     #endif /* CYBLE_PLXS */
 318:Generated_Source\PSoC4/BLE.c ****     
 319:Generated_Source\PSoC4/BLE.c ****     #ifdef CYBLE_RSCS
 320:Generated_Source\PSoC4/BLE.c ****         CyBle_RscsInit();
 321:Generated_Source\PSoC4/BLE.c ****     #endif /* CYBLE_RSCS */
 322:Generated_Source\PSoC4/BLE.c **** 
 323:Generated_Source\PSoC4/BLE.c ****     #ifdef CYBLE_RTUS
 324:Generated_Source\PSoC4/BLE.c ****         CyBle_RtusInit();
 325:Generated_Source\PSoC4/BLE.c ****     #endif /* CYBLE_RTUS */
 326:Generated_Source\PSoC4/BLE.c **** 
 327:Generated_Source\PSoC4/BLE.c ****     #ifdef CYBLE_SCPS
 328:Generated_Source\PSoC4/BLE.c ****         CyBle_ScpsInit();
 329:Generated_Source\PSoC4/BLE.c ****     #endif /* CYBLE_SCPS */
 330:Generated_Source\PSoC4/BLE.c ****     
 331:Generated_Source\PSoC4/BLE.c ****     #ifdef CYBLE_TPS
 332:Generated_Source\PSoC4/BLE.c ****         CyBle_TpsInit();
 333:Generated_Source\PSoC4/BLE.c ****     #endif /* CYBLE_TPS */
 334:Generated_Source\PSoC4/BLE.c ****     
 335:Generated_Source\PSoC4/BLE.c ****     #ifdef CYBLE_UDS
 336:Generated_Source\PSoC4/BLE.c ****         CyBle_UdsInit();
 337:Generated_Source\PSoC4/BLE.c ****     #endif /* CYBLE_UDS */
 338:Generated_Source\PSoC4/BLE.c **** 
 339:Generated_Source\PSoC4/BLE.c ****     #ifdef CYBLE_WPTS
 340:Generated_Source\PSoC4/BLE.c ****         CyBle_WptsInit();
 341:Generated_Source\PSoC4/BLE.c ****     #endif /* CYBLE_WPTS */
 342:Generated_Source\PSoC4/BLE.c **** 
 343:Generated_Source\PSoC4/BLE.c ****     #ifdef CYBLE_WSS
 344:Generated_Source\PSoC4/BLE.c ****         CyBle_WssInit();
 345:Generated_Source\PSoC4/BLE.c ****     #endif /* CYBLE_WSS */
 346:Generated_Source\PSoC4/BLE.c **** }
  88              		.loc 1 346 0
  89              		@ sp needed
  90 0006 08BD     		pop	{r3, pc}
  91              		.cfi_endproc
  92              	.LFE3:
  93              		.size	CyBle_ServiceInit, .-CyBle_ServiceInit
  94              		.section	.text.CyBle_Start,"ax",%progbits
  95              		.align	2
  96              		.global	CyBle_Start
  97              		.code	16
  98              		.thumb_func
  99              		.type	CyBle_Start, %function
 100              	CyBle_Start:
 101              	.LFB4:
 347:Generated_Source\PSoC4/BLE.c **** 
 348:Generated_Source\PSoC4/BLE.c **** 
ARM GAS  C:\Users\ramanatg\AppData\Local\Temp\cciThAgf.s 			page 9


 349:Generated_Source\PSoC4/BLE.c **** /******************************************************************************
 350:Generated_Source\PSoC4/BLE.c **** * Function Name: CyBle_Start
 351:Generated_Source\PSoC4/BLE.c **** ***************************************************************************//**
 352:Generated_Source\PSoC4/BLE.c **** * 
 353:Generated_Source\PSoC4/BLE.c **** *  This function initializes the BLE Stack, which consists of the BLE Stack 
 354:Generated_Source\PSoC4/BLE.c **** *  Manager, BLE Controller, and BLE Host modules. It takes care of initializing
 355:Generated_Source\PSoC4/BLE.c **** *  the Profile layer, schedulers, Timer and other platform related
 356:Generated_Source\PSoC4/BLE.c **** *  resources required for the BLE component. It also registers the callback 
 357:Generated_Source\PSoC4/BLE.c **** *  function for BLE events that will be registered in the BLE stack.
 358:Generated_Source\PSoC4/BLE.c **** * 
 359:Generated_Source\PSoC4/BLE.c **** *  Note that this function does not reset the BLE Stack.
 360:Generated_Source\PSoC4/BLE.c **** * 
 361:Generated_Source\PSoC4/BLE.c **** *  For HCI-Mode of operation, this function will not initialize the BLE Host 
 362:Generated_Source\PSoC4/BLE.c **** *  module.
 363:Generated_Source\PSoC4/BLE.c **** * 
 364:Generated_Source\PSoC4/BLE.c **** *  Calling this function results in the generation of CYBLE_EVT_STACK_ON event
 365:Generated_Source\PSoC4/BLE.c **** *  on successful initialization of the BLE Stack.
 366:Generated_Source\PSoC4/BLE.c **** * 
 367:Generated_Source\PSoC4/BLE.c **** *  \param callbackFunc: Event callback function to receive events from BLE stack.
 368:Generated_Source\PSoC4/BLE.c **** *   CYBLE_CALLBACK_T is a function pointer type.
 369:Generated_Source\PSoC4/BLE.c **** * 
 370:Generated_Source\PSoC4/BLE.c **** * \return
 371:Generated_Source\PSoC4/BLE.c **** *  CYBLE_API_RESULT_T : Return value indicates if the function succeeded or 
 372:Generated_Source\PSoC4/BLE.c **** *  failed. Following are the possible error codes.
 373:Generated_Source\PSoC4/BLE.c **** * 
 374:Generated_Source\PSoC4/BLE.c **** *   <table>
 375:Generated_Source\PSoC4/BLE.c **** *  	  <tr>
 376:Generated_Source\PSoC4/BLE.c **** *       <th>Error codes</th>
 377:Generated_Source\PSoC4/BLE.c **** *       <th>Description</th>
 378:Generated_Source\PSoC4/BLE.c **** *     </tr>
 379:Generated_Source\PSoC4/BLE.c **** *     <tr>
 380:Generated_Source\PSoC4/BLE.c **** *       <td>CYBLE_ERROR_OK</td>
 381:Generated_Source\PSoC4/BLE.c **** *       <td>On successful operation.</td>
 382:Generated_Source\PSoC4/BLE.c **** *     </tr>
 383:Generated_Source\PSoC4/BLE.c **** *     <tr>
 384:Generated_Source\PSoC4/BLE.c **** *       <td>CYBLE_ERROR_INVALID_PARAMETER</td>
 385:Generated_Source\PSoC4/BLE.c **** *       <td>On passing a NULL pointer to the function. 
 386:Generated_Source\PSoC4/BLE.c **** *		</td>
 387:Generated_Source\PSoC4/BLE.c **** *     </tr>
 388:Generated_Source\PSoC4/BLE.c **** *     <tr>
 389:Generated_Source\PSoC4/BLE.c **** *       <td>CYBLE_ERROR_REPEATED_ATTEMPTS</td>
 390:Generated_Source\PSoC4/BLE.c **** *       <td>On invoking this function more than once without calling CyBle_Shutdown() 
 391:Generated_Source\PSoC4/BLE.c **** *           function between calls to this function.</td>
 392:Generated_Source\PSoC4/BLE.c **** *     </tr>
 393:Generated_Source\PSoC4/BLE.c **** *     <tr>
 394:Generated_Source\PSoC4/BLE.c **** *       <td>CYBLE_ERROR_MEMORY_ALLOCATION_FAILED</td>
 395:Generated_Source\PSoC4/BLE.c **** *       <td>There is insufficient memory available.</td>
 396:Generated_Source\PSoC4/BLE.c **** *     </tr>
 397:Generated_Source\PSoC4/BLE.c **** *   </table>
 398:Generated_Source\PSoC4/BLE.c **** * 
 399:Generated_Source\PSoC4/BLE.c **** *  \globalvars
 400:Generated_Source\PSoC4/BLE.c **** *   The CyBle_initVar variable is used to indicate initial
 401:Generated_Source\PSoC4/BLE.c **** *   configuration of this component. The variable is initialized to zero (0u)
 402:Generated_Source\PSoC4/BLE.c **** *   and set to one (1u) the first time CyBle_Start() is called. This
 403:Generated_Source\PSoC4/BLE.c **** *   allows for component initialization without re-initialization in all
 404:Generated_Source\PSoC4/BLE.c **** *   subsequent calls to the CyBle_Start() routine.
 405:Generated_Source\PSoC4/BLE.c **** * 
ARM GAS  C:\Users\ramanatg\AppData\Local\Temp\cciThAgf.s 			page 10


 406:Generated_Source\PSoC4/BLE.c **** ******************************************************************************/
 407:Generated_Source\PSoC4/BLE.c **** CYBLE_API_RESULT_T CyBle_Start(CYBLE_CALLBACK_T callbackFunc)
 408:Generated_Source\PSoC4/BLE.c **** {
 102              		.loc 1 408 0
 103              		.cfi_startproc
 104              	.LVL2:
 105 0000 70B5     		push	{r4, r5, r6, lr}
 106              		.cfi_def_cfa_offset 16
 107              		.cfi_offset 4, -16
 108              		.cfi_offset 5, -12
 109              		.cfi_offset 6, -8
 110              		.cfi_offset 14, -4
 111 0002 90B0     		sub	sp, sp, #64
 112              		.cfi_def_cfa_offset 80
 113              		.loc 1 408 0
 114 0004 051C     		mov	r5, r0
 409:Generated_Source\PSoC4/BLE.c ****     CYBLE_API_RESULT_T apiResult = CYBLE_ERROR_OK;
 410:Generated_Source\PSoC4/BLE.c ****     
 411:Generated_Source\PSoC4/BLE.c ****     #if(CYBLE_MODE_PROFILE)
 412:Generated_Source\PSoC4/BLE.c ****     
 413:Generated_Source\PSoC4/BLE.c ****     CYBLE_STK_APP_DATA_BUFF_T cyBle_stackDataBuff[CYBLE_STACK_APP_MIN_POOL] = 
 115              		.loc 1 413 0
 116 0006 2649     		ldr	r1, .L13
 117 0008 0BA8     		add	r0, sp, #44
 118              	.LVL3:
 119 000a 1422     		mov	r2, #20
 120 000c FFF7FEFF 		bl	memcpy
 121              	.LVL4:
 414:Generated_Source\PSoC4/BLE.c ****     {
 415:Generated_Source\PSoC4/BLE.c ****         {CYBLE_GATT_MTU_PLUS_L2CAP_MEM_EXT, CYBLE_GATT_MTU_BUFF_COUNT + CYBLE_GATT_MAX_ATTR_BUFF_CO
 416:Generated_Source\PSoC4/BLE.c ****         {CYBLE_L2CAP_PSM_PLUS_L2CAP_MEM_EXT, CYBLE_L2CAP_PSM_COUNT},
 417:Generated_Source\PSoC4/BLE.c ****         {CYBLE_L2CAP_CBFC_PLUS_L2CAP_MEM_EXT, 2u * CYBLE_L2CAP_LOGICAL_CHANNEL_COUNT},
 418:Generated_Source\PSoC4/BLE.c ****         {CYBLE_L2CAP_MTU_PLUS_L2CAP_MEM_EXT, CYBLE_L2CAP_LOGICAL_CHANNEL_COUNT},
 419:Generated_Source\PSoC4/BLE.c ****         {CYBLE_L2CAP_MPS_PLUS_L2CAP_MEM_EXT, CYBLE_L2CAP_LOGICAL_CHANNEL_COUNT * (CYBLE_L2CAP_MTU_M
 420:Generated_Source\PSoC4/BLE.c ****     }; 
 421:Generated_Source\PSoC4/BLE.c **** 
 422:Generated_Source\PSoC4/BLE.c ****     #endif /* CYBLE_MODE_PROFILE */
 423:Generated_Source\PSoC4/BLE.c ****     
 424:Generated_Source\PSoC4/BLE.c ****     /* If not initialized then initialize all the required hardware and software */
 425:Generated_Source\PSoC4/BLE.c ****     if(cyBle_initVar == 0u)
 122              		.loc 1 425 0
 123 0010 244E     		ldr	r6, .L13+4
 124 0012 3478     		ldrb	r4, [r6]
 125 0014 002C     		cmp	r4, #0
 126 0016 31D0     		beq	.L10
 426:Generated_Source\PSoC4/BLE.c ****     {
 427:Generated_Source\PSoC4/BLE.c ****         CyBle_Init();
 428:Generated_Source\PSoC4/BLE.c ****         cyBle_initVar = 1u;
 429:Generated_Source\PSoC4/BLE.c ****     }
 430:Generated_Source\PSoC4/BLE.c ****     
 431:Generated_Source\PSoC4/BLE.c ****     if(callbackFunc != NULL)
 127              		.loc 1 431 0
 128 0018 002D     		cmp	r5, #0
 129 001a 3FD0     		beq	.L8
 130              	.L12:
 131              	.LBB11:
 432:Generated_Source\PSoC4/BLE.c ****     {
ARM GAS  C:\Users\ramanatg\AppData\Local\Temp\cciThAgf.s 			page 11


 433:Generated_Source\PSoC4/BLE.c ****         CyBle_ApplCallback = callbackFunc;
 434:Generated_Source\PSoC4/BLE.c ****         
 435:Generated_Source\PSoC4/BLE.c ****     #if(CYBLE_SHARING_MODE_EXPORT)
 436:Generated_Source\PSoC4/BLE.c ****         if(cyBle_stackMemoryRam == NULL)
 437:Generated_Source\PSoC4/BLE.c ****         {
 438:Generated_Source\PSoC4/BLE.c ****             cyBle_stackMemoryRam = (uint8 *)malloc(CYBLE_STACK_RAM_SIZE);
 439:Generated_Source\PSoC4/BLE.c ****             if(cyBle_stackMemoryRam == NULL)
 440:Generated_Source\PSoC4/BLE.c ****             {
 441:Generated_Source\PSoC4/BLE.c ****                 apiResult = CYBLE_ERROR_MEMORY_ALLOCATION_FAILED;
 442:Generated_Source\PSoC4/BLE.c ****             }
 443:Generated_Source\PSoC4/BLE.c ****         }
 444:Generated_Source\PSoC4/BLE.c ****     #endif /* CYBLE_SHARING_MODE_EXPORT */
 445:Generated_Source\PSoC4/BLE.c ****         if(apiResult == CYBLE_ERROR_OK)
 446:Generated_Source\PSoC4/BLE.c ****         {
 447:Generated_Source\PSoC4/BLE.c ****             CYBLE_DLE_CONFIG_PARAM_T dleConfigParams;
 448:Generated_Source\PSoC4/BLE.c ****             CYBLE_PRIVACY_1_2_CONFIG_PARAM_T privacyConfigParams;
 449:Generated_Source\PSoC4/BLE.c ****             CYBLE_STACK_CONFIG_PARAM_T stackConfig;
 450:Generated_Source\PSoC4/BLE.c ****             uint16 featureHeapReq;
 451:Generated_Source\PSoC4/BLE.c ****             
 452:Generated_Source\PSoC4/BLE.c ****             stackConfig.privacyConfig = &privacyConfigParams;
 453:Generated_Source\PSoC4/BLE.c ****             stackConfig.dleConfig = &dleConfigParams;
 454:Generated_Source\PSoC4/BLE.c ****             
 455:Generated_Source\PSoC4/BLE.c ****             /* Configure default BLE 4.1 features and enabled 4.2 features */
 456:Generated_Source\PSoC4/BLE.c ****             stackConfig.feature_mask = CYBLE_DLE_FEATURE | CYBLE_LL_PRIVACY_FEATURE | 
 132              		.loc 1 456 0
 133 001c 0021     		mov	r1, #0
 134              	.LBE11:
 433:Generated_Source\PSoC4/BLE.c ****         
 135              		.loc 1 433 0
 136 001e 224B     		ldr	r3, .L13+8
 137              	.LBB12:
 452:Generated_Source\PSoC4/BLE.c ****             stackConfig.dleConfig = &dleConfigParams;
 138              		.loc 1 452 0
 139 0020 08A8     		add	r0, sp, #32
 140              	.LBE12:
 433:Generated_Source\PSoC4/BLE.c ****         
 141              		.loc 1 433 0
 142 0022 1D60     		str	r5, [r3]
 143              	.LBB13:
 144              		.loc 1 456 0
 145 0024 0181     		strh	r1, [r0, #8]
 453:Generated_Source\PSoC4/BLE.c ****             
 146              		.loc 1 453 0
 147 0026 06AB     		add	r3, sp, #24
 457:Generated_Source\PSoC4/BLE.c ****                                        CYBLE_SECURE_CONN_FEATURE;
 458:Generated_Source\PSoC4/BLE.c **** 
 459:Generated_Source\PSoC4/BLE.c ****             /* Configure DLE */
 460:Generated_Source\PSoC4/BLE.c ****             dleConfigParams.dleMaxTxCapability = CYBLE_LL_MAX_TX_PAYLOAD_SIZE;
 148              		.loc 1 460 0
 149 0028 1B31     		add	r1, r1, #27
 150 002a 1980     		strh	r1, [r3]
 461:Generated_Source\PSoC4/BLE.c ****             dleConfigParams.dleMaxRxCapability = CYBLE_LL_MAX_RX_PAYLOAD_SIZE;
 151              		.loc 1 461 0
 152 002c 5980     		strh	r1, [r3, #2]
 462:Generated_Source\PSoC4/BLE.c ****             dleConfigParams.dleNumTxBuffer = CYBLE_LL_DEFAULT_NUM_ACL_TX_PACKETS;
 153              		.loc 1 462 0
 154 002e 1739     		sub	r1, r1, #23
ARM GAS  C:\Users\ramanatg\AppData\Local\Temp\cciThAgf.s 			page 12


 155 0030 1971     		strb	r1, [r3, #4]
 453:Generated_Source\PSoC4/BLE.c ****             
 156              		.loc 1 453 0
 157 0032 0893     		str	r3, [sp, #32]
 463:Generated_Source\PSoC4/BLE.c ****         #if(CYBLE_DLE_FEATURE_ENABLED)
 464:Generated_Source\PSoC4/BLE.c ****             CyBle_EnableDleFeature();              /* Enable DLE code in stack */
 465:Generated_Source\PSoC4/BLE.c ****         #endif /* CYBLE_DLE_FEATURE_ENABLED */
 466:Generated_Source\PSoC4/BLE.c ****         
 467:Generated_Source\PSoC4/BLE.c ****             /* Configure LL Privacy */
 468:Generated_Source\PSoC4/BLE.c ****             privacyConfigParams.resolvingListSize = CYBLE_MAX_RESOLVABLE_DEVICES;
 158              		.loc 1 468 0
 159 0034 0023     		mov	r3, #0
 469:Generated_Source\PSoC4/BLE.c ****         #if(CYBLE_LL_PRIVACY_FEATURE_ENABLED)
 470:Generated_Source\PSoC4/BLE.c ****             CyBle_EnablePrivacyFeature();          /* Enable LL Privacy code in stack */
 471:Generated_Source\PSoC4/BLE.c ****         #endif /* CYBLE_LL_PRIVACY_FEATURE_ENABLED */
 472:Generated_Source\PSoC4/BLE.c **** 
 473:Generated_Source\PSoC4/BLE.c ****             apiResult = CyBle_StackSetFeatureConfig(&stackConfig, &featureHeapReq);
 160              		.loc 1 473 0
 161 0036 1231     		add	r1, r1, #18
 452:Generated_Source\PSoC4/BLE.c ****             stackConfig.dleConfig = &dleConfigParams;
 162              		.loc 1 452 0
 163 0038 05AA     		add	r2, sp, #20
 164              		.loc 1 473 0
 165 003a 6944     		add	r1, r1, sp
 452:Generated_Source\PSoC4/BLE.c ****             stackConfig.dleConfig = &dleConfigParams;
 166              		.loc 1 452 0
 167 003c 4260     		str	r2, [r0, #4]
 468:Generated_Source\PSoC4/BLE.c ****         #if(CYBLE_LL_PRIVACY_FEATURE_ENABLED)
 168              		.loc 1 468 0
 169 003e 1370     		strb	r3, [r2]
 170              		.loc 1 473 0
 171 0040 FFF7FEFF 		bl	CyBle_StackSetFeatureConfig
 172              	.LVL5:
 173              	.LBE13:
 474:Generated_Source\PSoC4/BLE.c ****             }
 475:Generated_Source\PSoC4/BLE.c ****     
 476:Generated_Source\PSoC4/BLE.c ****         if(apiResult == CYBLE_ERROR_OK)
 174              		.loc 1 476 0
 175 0044 0028     		cmp	r0, #0
 176 0046 01D0     		beq	.L11
 177              	.LVL6:
 178              	.L7:
 477:Generated_Source\PSoC4/BLE.c ****         {
 478:Generated_Source\PSoC4/BLE.c ****         
 479:Generated_Source\PSoC4/BLE.c ****         #if(CYBLE_MODE_PROFILE)
 480:Generated_Source\PSoC4/BLE.c ****             #if(CYBLE_BONDING_REQUIREMENT == CYBLE_BONDING_YES)
 481:Generated_Source\PSoC4/BLE.c ****                 apiResult = CyBle_StackInit(&CyBle_EventHandler, cyBle_stackMemoryRam, 
 482:Generated_Source\PSoC4/BLE.c ****                     CYBLE_STACK_RAM_SIZE - CYBLE_GATT_PREPARE_WRITE_BUFF_LEN, cyBle_stackDataBuff, 
 483:Generated_Source\PSoC4/BLE.c ****                     CYBLE_STACK_APP_MIN_POOL, cyBle_flashStorage.stackFlashptr, CYBLE_STACK_FLASH_S
 484:Generated_Source\PSoC4/BLE.c ****             #else
 485:Generated_Source\PSoC4/BLE.c ****                 apiResult = CyBle_StackInit(&CyBle_EventHandler, cyBle_stackMemoryRam, 
 486:Generated_Source\PSoC4/BLE.c ****                     CYBLE_STACK_RAM_SIZE - CYBLE_GATT_PREPARE_WRITE_BUFF_LEN, cyBle_stackDataBuff, 
 487:Generated_Source\PSoC4/BLE.c ****                     CYBLE_STACK_APP_MIN_POOL, NULL, 0u);
 488:Generated_Source\PSoC4/BLE.c ****             #endif  /* CYBLE_BONDING_REQUIREMENT == CYBLE_BONDING_YES */
 489:Generated_Source\PSoC4/BLE.c ****         #else /* HCI mode */
 490:Generated_Source\PSoC4/BLE.c ****             /* The following will perform preparation to use HCI over UART or over
 491:Generated_Source\PSoC4/BLE.c ****                software. But the following fucntions will not initialize the HCI
ARM GAS  C:\Users\ramanatg\AppData\Local\Temp\cciThAgf.s 			page 13


 492:Generated_Source\PSoC4/BLE.c ****                Transport. This will be done as part of Stack initialization, so
 493:Generated_Source\PSoC4/BLE.c ****                the functions should be called prior CyBle_StackInit().
 494:Generated_Source\PSoC4/BLE.c ****             */
 495:Generated_Source\PSoC4/BLE.c ****             #if (CYBLE_HCI_TYPE == CYBLE_HCI_OVER_UART)
 496:Generated_Source\PSoC4/BLE.c ****                 CyBle_HciUartTransportEnable();
 497:Generated_Source\PSoC4/BLE.c ****             #else
 498:Generated_Source\PSoC4/BLE.c ****                 CyBle_HciSoftTransportEnable();
 499:Generated_Source\PSoC4/BLE.c ****             #endif /* (CYBLE_HCI_TYPE == CYBLE_HCI_OVER_UART) */
 500:Generated_Source\PSoC4/BLE.c ****             /* This will initialize BLE stack for HCI mode operation */
 501:Generated_Source\PSoC4/BLE.c ****             apiResult = CyBle_StackInit(&CyBle_EventHandler, cyBle_stackMemoryRam, CYBLE_STACK_RAM_
 502:Generated_Source\PSoC4/BLE.c ****                 NULL, 0u, NULL, 0u);
 503:Generated_Source\PSoC4/BLE.c ****         #endif /* CYBLE_MODE_PROFILE */
 504:Generated_Source\PSoC4/BLE.c **** 
 505:Generated_Source\PSoC4/BLE.c ****             if(apiResult == CYBLE_ERROR_OK)
 506:Generated_Source\PSoC4/BLE.c ****             {
 507:Generated_Source\PSoC4/BLE.c ****                 CyBle_SetState(CYBLE_STATE_INITIALIZING);
 508:Generated_Source\PSoC4/BLE.c ****                 
 509:Generated_Source\PSoC4/BLE.c ****             #if (CYBLE_GATT_ROLE_CLIENT)
 510:Generated_Source\PSoC4/BLE.c ****                 CyBle_SetClientState(CYBLE_CLIENT_STATE_DISCONNECTED);
 511:Generated_Source\PSoC4/BLE.c ****             #endif /* CYBLE_GATT_ROLE_CLIENT */
 512:Generated_Source\PSoC4/BLE.c ****                 
 513:Generated_Source\PSoC4/BLE.c ****             #if(CYBLE_GATT_ROLE_SERVER)
 514:Generated_Source\PSoC4/BLE.c ****                 apiResult = CyBle_GattsDbRegister(cyBle_gattDB, CYBLE_GATT_DB_INDEX_COUNT, CYBLE_GA
 515:Generated_Source\PSoC4/BLE.c ****             #endif /* CYBLE_GATT_ROLE_SERVER */
 516:Generated_Source\PSoC4/BLE.c ****             }
 517:Generated_Source\PSoC4/BLE.c ****         }
 518:Generated_Source\PSoC4/BLE.c ****     }
 519:Generated_Source\PSoC4/BLE.c ****     else
 520:Generated_Source\PSoC4/BLE.c ****     {
 521:Generated_Source\PSoC4/BLE.c ****         apiResult = CYBLE_ERROR_INVALID_PARAMETER;
 522:Generated_Source\PSoC4/BLE.c ****     }
 523:Generated_Source\PSoC4/BLE.c **** 
 524:Generated_Source\PSoC4/BLE.c ****     return (apiResult);
 525:Generated_Source\PSoC4/BLE.c **** }
 179              		.loc 1 525 0
 180 0048 10B0     		add	sp, sp, #64
 181              		@ sp needed
 182              	.LVL7:
 183 004a 70BD     		pop	{r4, r5, r6, pc}
 184              	.LVL8:
 185              	.L11:
 481:Generated_Source\PSoC4/BLE.c ****                     CYBLE_STACK_RAM_SIZE - CYBLE_GATT_PREPARE_WRITE_BUFF_LEN, cyBle_stackDataBuff, 
 186              		.loc 1 481 0
 187 004c 0523     		mov	r3, #5
 188 004e AE22     		mov	r2, #174
 189 0050 0093     		str	r3, [sp]
 190 0052 164B     		ldr	r3, .L13+12
 191 0054 1648     		ldr	r0, .L13+16
 192              	.LVL9:
 193 0056 0193     		str	r3, [sp, #4]
 194 0058 164B     		ldr	r3, .L13+20
 195 005a 1749     		ldr	r1, .L13+24
 196 005c 0293     		str	r3, [sp, #8]
 197 005e 1201     		lsl	r2, r2, #4
 198 0060 0BAB     		add	r3, sp, #44
 199 0062 FFF7FEFF 		bl	CyBle_StackInit
 200              	.LVL10:
ARM GAS  C:\Users\ramanatg\AppData\Local\Temp\cciThAgf.s 			page 14


 505:Generated_Source\PSoC4/BLE.c ****             {
 201              		.loc 1 505 0
 202 0066 0028     		cmp	r0, #0
 203 0068 EED1     		bne	.L7
 507:Generated_Source\PSoC4/BLE.c ****                 
 204              		.loc 1 507 0
 205 006a 0122     		mov	r2, #1
 206 006c 134B     		ldr	r3, .L13+28
 514:Generated_Source\PSoC4/BLE.c ****             #endif /* CYBLE_GATT_ROLE_SERVER */
 207              		.loc 1 514 0
 208 006e 1E21     		mov	r1, #30
 507:Generated_Source\PSoC4/BLE.c ****                 
 209              		.loc 1 507 0
 210 0070 1A70     		strb	r2, [r3]
 514:Generated_Source\PSoC4/BLE.c ****             #endif /* CYBLE_GATT_ROLE_SERVER */
 211              		.loc 1 514 0
 212 0072 1348     		ldr	r0, .L13+32
 213              	.LVL11:
 214 0074 1132     		add	r2, r2, #17
 215 0076 FFF7FEFF 		bl	CyBle_GattsDbRegister
 216              	.LVL12:
 217 007a E5E7     		b	.L7
 218              	.LVL13:
 219              	.L10:
 220              	.LBB14:
 221              	.LBB15:
 154:Generated_Source\PSoC4/BLE.c ****     cyBle_busyStatus = CYBLE_STACK_STATE_FREE;
 222              		.loc 1 154 0
 223 007c 114B     		ldr	r3, .L13+36
 224 007e 1C70     		strb	r4, [r3]
 155:Generated_Source\PSoC4/BLE.c **** 
 225              		.loc 1 155 0
 226 0080 114B     		ldr	r3, .L13+40
 227 0082 1C70     		strb	r4, [r3]
 158:Generated_Source\PSoC4/BLE.c ****     #endif /* (CYBLE_GAP_ROLE_PERIPHERAL || CYBLE_GAP_ROLE_BROADCASTER)  */
 228              		.loc 1 158 0
 229 0084 114B     		ldr	r3, .L13+44
 230 0086 1C70     		strb	r4, [r3]
 231              	.LBB16:
 232              	.LBB17:
 260:Generated_Source\PSoC4/BLE.c ****     #endif /* CYBLE_CUSTOM */
 233              		.loc 1 260 0
 234 0088 FFF7FEFF 		bl	CyBle_CustomInit
 235              	.LVL14:
 236              	.LBE17:
 237              	.LBE16:
 184:Generated_Source\PSoC4/BLE.c ****         cyBle_peerBonding = CYBLE_GAP_BONDING_NONE;
 238              		.loc 1 184 0
 239 008c 104B     		ldr	r3, .L13+48
 240 008e 1C70     		strb	r4, [r3]
 185:Generated_Source\PSoC4/BLE.c ****     #endif  /* (CYBLE_BONDING_REQUIREMENT == CYBLE_BONDING_YES) */
 241              		.loc 1 185 0
 242 0090 104B     		ldr	r3, .L13+52
 243 0092 1C70     		strb	r4, [r3]
 244              	.LBE15:
 245              	.LBE14:
 428:Generated_Source\PSoC4/BLE.c ****     }
ARM GAS  C:\Users\ramanatg\AppData\Local\Temp\cciThAgf.s 			page 15


 246              		.loc 1 428 0
 247 0094 0123     		mov	r3, #1
 248 0096 3370     		strb	r3, [r6]
 431:Generated_Source\PSoC4/BLE.c ****     {
 249              		.loc 1 431 0
 250 0098 002D     		cmp	r5, #0
 251 009a BFD1     		bne	.L12
 252              	.L8:
 521:Generated_Source\PSoC4/BLE.c ****     }
 253              		.loc 1 521 0
 254 009c 0120     		mov	r0, #1
 255 009e D3E7     		b	.L7
 256              	.L14:
 257              		.align	2
 258              	.L13:
 259 00a0 00000000 		.word	.LANCHOR0
 260 00a4 00000000 		.word	.LANCHOR1
 261 00a8 00000000 		.word	CyBle_ApplCallback
 262 00ac 00000000 		.word	cyBle_flashStorage
 263 00b0 00000000 		.word	CyBle_EventHandler
 264 00b4 79020000 		.word	633
 265 00b8 00000000 		.word	.LANCHOR2
 266 00bc 00000000 		.word	cyBle_state
 267 00c0 00000000 		.word	cyBle_gattDB
 268 00c4 00000000 		.word	cyBle_eventHandlerFlag
 269 00c8 00000000 		.word	cyBle_busyStatus
 270 00cc 00000000 		.word	cyBle_advertisingIntervalType
 271 00d0 00000000 		.word	cyBle_pendingFlashWrite
 272 00d4 00000000 		.word	cyBle_peerBonding
 273              		.cfi_endproc
 274              	.LFE4:
 275              		.size	CyBle_Start, .-CyBle_Start
 276              		.section	.text.CyBle_Stop,"ax",%progbits
 277              		.align	2
 278              		.global	CyBle_Stop
 279              		.code	16
 280              		.thumb_func
 281              		.type	CyBle_Stop, %function
 282              	CyBle_Stop:
 283              	.LFB5:
 526:Generated_Source\PSoC4/BLE.c **** 
 527:Generated_Source\PSoC4/BLE.c **** 
 528:Generated_Source\PSoC4/BLE.c **** /******************************************************************************
 529:Generated_Source\PSoC4/BLE.c **** * Function Name: CyBle_Stop
 530:Generated_Source\PSoC4/BLE.c **** ***************************************************************************//**
 531:Generated_Source\PSoC4/BLE.c **** * 
 532:Generated_Source\PSoC4/BLE.c **** *  This function stops any ongoing operation in the BLE Stack and forces the 
 533:Generated_Source\PSoC4/BLE.c **** *  BLE Stack to shut down. The only function that can be called after calling
 534:Generated_Source\PSoC4/BLE.c **** *  this function is CyBle_Start(). 
 535:Generated_Source\PSoC4/BLE.c **** * 
 536:Generated_Source\PSoC4/BLE.c **** * \return
 537:Generated_Source\PSoC4/BLE.c **** *  None
 538:Generated_Source\PSoC4/BLE.c **** * 
 539:Generated_Source\PSoC4/BLE.c **** ******************************************************************************/
 540:Generated_Source\PSoC4/BLE.c **** void CyBle_Stop(void)
 541:Generated_Source\PSoC4/BLE.c **** {
 284              		.loc 1 541 0
ARM GAS  C:\Users\ramanatg\AppData\Local\Temp\cciThAgf.s 			page 16


 285              		.cfi_startproc
 286 0000 08B5     		push	{r3, lr}
 287              		.cfi_def_cfa_offset 8
 288              		.cfi_offset 3, -8
 289              		.cfi_offset 14, -4
 542:Generated_Source\PSoC4/BLE.c ****     CyBle_Shutdown();                         /* Stop all ongoing activities */
 290              		.loc 1 542 0
 291 0002 FFF7FEFF 		bl	CyBle_Shutdown
 292              	.LVL15:
 543:Generated_Source\PSoC4/BLE.c ****     CyBle_SetState(CYBLE_STATE_STOPPED);
 293              		.loc 1 543 0
 294 0006 0022     		mov	r2, #0
 295 0008 014B     		ldr	r3, .L16
 544:Generated_Source\PSoC4/BLE.c ****     #if(CYBLE_SHARING_MODE_EXPORT)
 545:Generated_Source\PSoC4/BLE.c ****         if(cyBle_stackMemoryRam != NULL)
 546:Generated_Source\PSoC4/BLE.c ****         {
 547:Generated_Source\PSoC4/BLE.c ****             free(cyBle_stackMemoryRam);
 548:Generated_Source\PSoC4/BLE.c ****         }
 549:Generated_Source\PSoC4/BLE.c ****     #endif /* CYBLE_SHARING_MODE_EXPORT */
 550:Generated_Source\PSoC4/BLE.c **** }
 296              		.loc 1 550 0
 297              		@ sp needed
 543:Generated_Source\PSoC4/BLE.c ****     CyBle_SetState(CYBLE_STATE_STOPPED);
 298              		.loc 1 543 0
 299 000a 1A70     		strb	r2, [r3]
 300              		.loc 1 550 0
 301 000c 08BD     		pop	{r3, pc}
 302              	.L17:
 303 000e C046     		.align	2
 304              	.L16:
 305 0010 00000000 		.word	cyBle_state
 306              		.cfi_endproc
 307              	.LFE5:
 308              		.size	CyBle_Stop, .-CyBle_Stop
 309              		.section	.text.CyBle_StoreBondingData,"ax",%progbits
 310              		.align	2
 311              		.global	CyBle_StoreBondingData
 312              		.code	16
 313              		.thumb_func
 314              		.type	CyBle_StoreBondingData, %function
 315              	CyBle_StoreBondingData:
 316              	.LFB6:
 551:Generated_Source\PSoC4/BLE.c **** 
 552:Generated_Source\PSoC4/BLE.c **** 
 553:Generated_Source\PSoC4/BLE.c **** #if((CYBLE_GAP_ROLE_PERIPHERAL || CYBLE_GAP_ROLE_CENTRAL) && (CYBLE_BONDING_REQUIREMENT == CYBLE_BO
 554:Generated_Source\PSoC4/BLE.c **** 
 555:Generated_Source\PSoC4/BLE.c ****     
 556:Generated_Source\PSoC4/BLE.c **** /******************************************************************************
 557:Generated_Source\PSoC4/BLE.c **** * Function Name: CyBle_StoreBondingData
 558:Generated_Source\PSoC4/BLE.c **** ***************************************************************************//**
 559:Generated_Source\PSoC4/BLE.c **** * 
 560:Generated_Source\PSoC4/BLE.c **** *  This function writes the new bonding data from RAM to the dedicated Flash 
 561:Generated_Source\PSoC4/BLE.c **** *  location as defined by the component. It performs data comparing between RAM
 562:Generated_Source\PSoC4/BLE.c **** *  and Flash before writing to Flash. If there is no change between RAM and Flash
 563:Generated_Source\PSoC4/BLE.c **** *  data, then no write is performed. It writes only one flash row in one call.
 564:Generated_Source\PSoC4/BLE.c **** *  Application should keep calling this function till API return CYBLE_ERROR_OK. 
 565:Generated_Source\PSoC4/BLE.c **** *  This function is available only when Bonding requirement is selected in
ARM GAS  C:\Users\ramanatg\AppData\Local\Temp\cciThAgf.s 			page 17


 566:Generated_Source\PSoC4/BLE.c **** *  Security settings.    
 567:Generated_Source\PSoC4/BLE.c **** * 
 568:Generated_Source\PSoC4/BLE.c **** *  \param isForceWrite:  If value is set to 0, then stack will check if flash write 
 569:Generated_Source\PSoC4/BLE.c **** *                 is permissible. 
 570:Generated_Source\PSoC4/BLE.c **** *  
 571:Generated_Source\PSoC4/BLE.c **** * \return
 572:Generated_Source\PSoC4/BLE.c **** *  Return value is of type CYBLE_API_RESULT_T.
 573:Generated_Source\PSoC4/BLE.c **** *
 574:Generated_Source\PSoC4/BLE.c **** *   Errors codes                         | Description
 575:Generated_Source\PSoC4/BLE.c **** *   ----------------------------------   | ------------------------------------
 576:Generated_Source\PSoC4/BLE.c **** *   CYBLE_ERROR_OK                       | On successful operation
 577:Generated_Source\PSoC4/BLE.c **** *   CYBLE_ERROR_FLASH_WRITE_NOT_PERMITED | Flash Write is not complete
 578:Generated_Source\PSoC4/BLE.c **** *   CYBLE_ERROR_INVALID_PARAMETER        | Invalid input parameter  
 579:Generated_Source\PSoC4/BLE.c **** *   CYBLE_ERROR_FLASH_WRITE              | Error in flash Write	
 580:Generated_Source\PSoC4/BLE.c ****     
 581:Generated_Source\PSoC4/BLE.c **** *  \sideeffect
 582:Generated_Source\PSoC4/BLE.c **** *   For BLE devices with 128K of Flash memory this API will automatically 
 583:Generated_Source\PSoC4/BLE.c **** *   modify the clock settings for the device.
 584:Generated_Source\PSoC4/BLE.c **** *   Writing to flash requires changes to be done to the IMO (set to 48 MHz)
 585:Generated_Source\PSoC4/BLE.c **** *   and HFCLK (source set to IMO) settings. The configuration is restored before
 586:Generated_Source\PSoC4/BLE.c **** *   returning. This will impact the operation of most of the hardware in the
 587:Generated_Source\PSoC4/BLE.c **** *   device.
 588:Generated_Source\PSoC4/BLE.c **** * 
 589:Generated_Source\PSoC4/BLE.c **** *  \globalvars
 590:Generated_Source\PSoC4/BLE.c **** *   The cyBle_pendingFlashWrite variable is used to detect status
 591:Generated_Source\PSoC4/BLE.c **** *   of pending write to flash operation for stack data and CCCD.
 592:Generated_Source\PSoC4/BLE.c **** *   This API automatically clears pending bits after write operation complete.
 593:Generated_Source\PSoC4/BLE.c **** *     
 594:Generated_Source\PSoC4/BLE.c **** ******************************************************************************/
 595:Generated_Source\PSoC4/BLE.c **** CYBLE_API_RESULT_T CyBle_StoreBondingData(uint8 isForceWrite)
 596:Generated_Source\PSoC4/BLE.c **** {
 317              		.loc 1 596 0
 318              		.cfi_startproc
 319              	.LVL16:
 320 0000 70B5     		push	{r4, r5, r6, lr}
 321              		.cfi_def_cfa_offset 16
 322              		.cfi_offset 4, -16
 323              		.cfi_offset 5, -12
 324              		.cfi_offset 6, -8
 325              		.cfi_offset 14, -4
 597:Generated_Source\PSoC4/BLE.c ****     CYBLE_API_RESULT_T apiResult = CYBLE_ERROR_OK;
 598:Generated_Source\PSoC4/BLE.c ****     
 599:Generated_Source\PSoC4/BLE.c ****     /* Store Stack data */
 600:Generated_Source\PSoC4/BLE.c ****     if((cyBle_pendingFlashWrite & CYBLE_PENDING_STACK_FLASH_WRITE_BIT) != 0u)
 326              		.loc 1 600 0
 327 0002 0126     		mov	r6, #1
 328 0004 314C     		ldr	r4, .L46
 596:Generated_Source\PSoC4/BLE.c ****     CYBLE_API_RESULT_T apiResult = CYBLE_ERROR_OK;
 329              		.loc 1 596 0
 330 0006 84B0     		sub	sp, sp, #16
 331              		.cfi_def_cfa_offset 32
 332              		.loc 1 600 0
 333 0008 2378     		ldrb	r3, [r4]
 596:Generated_Source\PSoC4/BLE.c ****     CYBLE_API_RESULT_T apiResult = CYBLE_ERROR_OK;
 334              		.loc 1 596 0
 335 000a 051C     		mov	r5, r0
 336              		.loc 1 600 0
ARM GAS  C:\Users\ramanatg\AppData\Local\Temp\cciThAgf.s 			page 18


 337 000c 1E42     		tst	r6, r3
 338 000e 2FD1     		bne	.L45
 339              	.LVL17:
 340              	.L19:
 601:Generated_Source\PSoC4/BLE.c ****     {
 602:Generated_Source\PSoC4/BLE.c ****         apiResult = CyBle_StoreStackData(isForceWrite);
 603:Generated_Source\PSoC4/BLE.c ****         if(apiResult == CYBLE_ERROR_OK)
 604:Generated_Source\PSoC4/BLE.c ****         {
 605:Generated_Source\PSoC4/BLE.c ****             cyBle_pendingFlashWrite &= (uint8)~CYBLE_PENDING_STACK_FLASH_WRITE_BIT;
 606:Generated_Source\PSoC4/BLE.c ****             /* Change apiResult if there are more pending data to store */
 607:Generated_Source\PSoC4/BLE.c ****             if((cyBle_pendingFlashWrite & CYBLE_PENDING_CCCD_FLASH_WRITE_BIT) != 0u)
 608:Generated_Source\PSoC4/BLE.c ****             {
 609:Generated_Source\PSoC4/BLE.c ****                 apiResult = CYBLE_ERROR_FLASH_WRITE_NOT_PERMITED;
 610:Generated_Source\PSoC4/BLE.c ****             }
 611:Generated_Source\PSoC4/BLE.c ****         }
 612:Generated_Source\PSoC4/BLE.c ****     }
 613:Generated_Source\PSoC4/BLE.c **** #if(CYBLE_GATT_DB_CCCD_COUNT != 0u)
 614:Generated_Source\PSoC4/BLE.c ****     /* Store CCCD values */
 615:Generated_Source\PSoC4/BLE.c ****     if( ((apiResult == CYBLE_ERROR_OK) || (isForceWrite != 0u)) && 
 341              		.loc 1 615 0
 342 0010 9A07     		lsl	r2, r3, #30
 343 0012 17D4     		bmi	.L30
 344              	.L43:
 616:Generated_Source\PSoC4/BLE.c ****         ((cyBle_pendingFlashWrite & CYBLE_PENDING_CCCD_FLASH_WRITE_BIT) != 0u) &&
 345              		.loc 1 616 0
 346 0014 0020     		mov	r0, #0
 347              	.LVL18:
 348              	.L24:
 617:Generated_Source\PSoC4/BLE.c ****         (cyBle_connHandle.bdHandle <= CYBLE_GAP_MAX_BONDED_DEVICE))
 618:Generated_Source\PSoC4/BLE.c ****     {
 619:Generated_Source\PSoC4/BLE.c ****         apiResult = CyBle_StoreAppData(cyBle_attValuesCCCD, cyBle_flashStorage.attValuesCCCDFlashMe
 620:Generated_Source\PSoC4/BLE.c ****                         cyBle_connHandle.bdHandle], CYBLE_GATT_DB_CCCD_COUNT, isForceWrite);
 621:Generated_Source\PSoC4/BLE.c ****         if(apiResult == CYBLE_ERROR_OK)
 622:Generated_Source\PSoC4/BLE.c ****         {
 623:Generated_Source\PSoC4/BLE.c ****             cyBle_pendingFlashWrite &= (uint8)~CYBLE_PENDING_CCCD_FLASH_WRITE_BIT;
 624:Generated_Source\PSoC4/BLE.c ****         }
 625:Generated_Source\PSoC4/BLE.c ****     }
 626:Generated_Source\PSoC4/BLE.c ****     /* Clear requested CCCD values */
 627:Generated_Source\PSoC4/BLE.c ****     if( ((apiResult == CYBLE_ERROR_OK) || (isForceWrite != 0u)) && 
 349              		.loc 1 627 0 discriminator 3
 350 0016 0C22     		mov	r2, #12
 351 0018 1A42     		tst	r2, r3
 352 001a 11D0     		beq	.L36
 628:Generated_Source\PSoC4/BLE.c ****         ((cyBle_pendingFlashWrite & CYBLE_PENDING_CCCD_FLASH_CLEAR_MASK) != 0u) )
 629:Generated_Source\PSoC4/BLE.c ****     {
 630:Generated_Source\PSoC4/BLE.c ****         if((cyBle_pendingFlashWrite & CYBLE_PENDING_CCCD_FLASH_CLEAR_ALL_BIT) != 0u)
 353              		.loc 1 630 0
 354 001c 0826     		mov	r6, #8
 355              	.LBB18:
 631:Generated_Source\PSoC4/BLE.c ****         {
 632:Generated_Source\PSoC4/BLE.c ****             /* Remove cccd values for all bonded devices */
 633:Generated_Source\PSoC4/BLE.c ****             uint8 defaultValuesCCCD[CYBLE_GAP_MAX_BONDED_DEVICE + 1u][CYBLE_GATT_DB_CCCD_COUNT];
 634:Generated_Source\PSoC4/BLE.c ****             
 635:Generated_Source\PSoC4/BLE.c ****             (void)memset(defaultValuesCCCD, 0, sizeof(defaultValuesCCCD));
 356              		.loc 1 635 0
 357 001e 01A8     		add	r0, sp, #4
 358              	.LBE18:
ARM GAS  C:\Users\ramanatg\AppData\Local\Temp\cciThAgf.s 			page 19


 630:Generated_Source\PSoC4/BLE.c ****         {
 359              		.loc 1 630 0
 360 0020 3340     		and	r3, r6
 361 0022 3BD0     		beq	.L26
 362              	.LBB19:
 363              		.loc 1 635 0
 364 0024 0023     		mov	r3, #0
 636:Generated_Source\PSoC4/BLE.c **** 
 637:Generated_Source\PSoC4/BLE.c ****             apiResult = CyBle_StoreAppData((uint8 *)defaultValuesCCCD, 
 365              		.loc 1 637 0
 366 0026 2A49     		ldr	r1, .L46+4
 635:Generated_Source\PSoC4/BLE.c **** 
 367              		.loc 1 635 0
 368 0028 0193     		str	r3, [sp, #4]
 369              		.loc 1 637 0
 370 002a 023A     		sub	r2, r2, #2
 635:Generated_Source\PSoC4/BLE.c **** 
 371              		.loc 1 635 0
 372 002c 4360     		str	r3, [r0, #4]
 373 002e 0381     		strh	r3, [r0, #8]
 374              		.loc 1 637 0
 375 0030 2B1C     		mov	r3, r5
 376 0032 FFF7FEFF 		bl	CyBle_StoreAppData
 377              	.LVL19:
 638:Generated_Source\PSoC4/BLE.c ****                 (const uint8 *)cyBle_flashStorage.attValuesCCCDFlashMemory, sizeof(defaultValuesCCC
 639:Generated_Source\PSoC4/BLE.c ****             if(apiResult == CYBLE_ERROR_OK)
 378              		.loc 1 639 0
 379 0036 0028     		cmp	r0, #0
 380 0038 02D1     		bne	.L36
 640:Generated_Source\PSoC4/BLE.c ****             {
 641:Generated_Source\PSoC4/BLE.c ****                 cyBle_pendingFlashWrite &= (uint8)~CYBLE_PENDING_CCCD_FLASH_CLEAR_ALL_BIT;
 381              		.loc 1 641 0
 382 003a 2378     		ldrb	r3, [r4]
 383 003c B343     		bic	r3, r6
 384 003e 2370     		strb	r3, [r4]
 385              	.LVL20:
 386              	.L36:
 387              	.LBE19:
 642:Generated_Source\PSoC4/BLE.c ****             }
 643:Generated_Source\PSoC4/BLE.c ****         }
 644:Generated_Source\PSoC4/BLE.c ****         else /* Remove cccd values for particular device */
 645:Generated_Source\PSoC4/BLE.c ****         {
 646:Generated_Source\PSoC4/BLE.c ****             uint8 defaultValuesCCCD[CYBLE_GATT_DB_CCCD_COUNT] = {0u};
 647:Generated_Source\PSoC4/BLE.c ****             
 648:Generated_Source\PSoC4/BLE.c ****             apiResult = CyBle_StoreAppData(defaultValuesCCCD, cyBle_flashStorage.attValuesCCCDFlash
 649:Generated_Source\PSoC4/BLE.c ****                                     cyBle_pendingFlashClearCccdHandle], CYBLE_GATT_DB_CCCD_COUNT, i
 650:Generated_Source\PSoC4/BLE.c ****             if(apiResult == CYBLE_ERROR_OK)
 651:Generated_Source\PSoC4/BLE.c ****             {
 652:Generated_Source\PSoC4/BLE.c ****                 cyBle_pendingFlashWrite &= (uint8)~CYBLE_PENDING_CCCD_FLASH_CLEAR_BIT;
 653:Generated_Source\PSoC4/BLE.c ****             }
 654:Generated_Source\PSoC4/BLE.c ****         }
 655:Generated_Source\PSoC4/BLE.c ****     }
 656:Generated_Source\PSoC4/BLE.c **** #endif /* CYBLE_GATT_DB_CCCD_COUNT != 0u */
 657:Generated_Source\PSoC4/BLE.c ****     return(apiResult);
 658:Generated_Source\PSoC4/BLE.c **** }
 388              		.loc 1 658 0
 389 0040 04B0     		add	sp, sp, #16
ARM GAS  C:\Users\ramanatg\AppData\Local\Temp\cciThAgf.s 			page 20


 390              		@ sp needed
 391 0042 70BD     		pop	{r4, r5, r6, pc}
 392              	.LVL21:
 393              	.L30:
 617:Generated_Source\PSoC4/BLE.c ****     {
 394              		.loc 1 617 0
 395 0044 234A     		ldr	r2, .L46+8
 396 0046 1278     		ldrb	r2, [r2]
 616:Generated_Source\PSoC4/BLE.c ****         (cyBle_connHandle.bdHandle <= CYBLE_GAP_MAX_BONDED_DEVICE))
 397              		.loc 1 616 0
 398 0048 042A     		cmp	r2, #4
 399 004a E3D8     		bhi	.L43
 400              	.LVL22:
 401              	.L31:
 619:Generated_Source\PSoC4/BLE.c ****                         cyBle_connHandle.bdHandle], CYBLE_GATT_DB_CCCD_COUNT, isForceWrite);
 402              		.loc 1 619 0
 403 004c 3D32     		add	r2, r2, #61
 404 004e FF32     		add	r2, r2, #255
 405 0050 2149     		ldr	r1, .L46+12
 406 0052 5200     		lsl	r2, r2, #1
 407 0054 5118     		add	r1, r2, r1
 408 0056 0131     		add	r1, r1, #1
 409 0058 2048     		ldr	r0, .L46+16
 410 005a 0222     		mov	r2, #2
 411 005c 2B1C     		mov	r3, r5
 412 005e FFF7FEFF 		bl	CyBle_StoreAppData
 413              	.LVL23:
 621:Generated_Source\PSoC4/BLE.c ****         {
 414              		.loc 1 621 0
 415 0062 0028     		cmp	r0, #0
 416 0064 2ED1     		bne	.L23
 623:Generated_Source\PSoC4/BLE.c ****         }
 417              		.loc 1 623 0
 418 0066 0222     		mov	r2, #2
 419 0068 2378     		ldrb	r3, [r4]
 420 006a 9343     		bic	r3, r2
 421 006c 2370     		strb	r3, [r4]
 422              	.LVL24:
 423 006e D2E7     		b	.L24
 424              	.LVL25:
 425              	.L45:
 602:Generated_Source\PSoC4/BLE.c ****         if(apiResult == CYBLE_ERROR_OK)
 426              		.loc 1 602 0
 427 0070 FFF7FEFF 		bl	CyBle_StoreStackData
 428              	.LVL26:
 603:Generated_Source\PSoC4/BLE.c ****         {
 429              		.loc 1 603 0
 430 0074 0028     		cmp	r0, #0
 431 0076 06D1     		bne	.L20
 605:Generated_Source\PSoC4/BLE.c ****             /* Change apiResult if there are more pending data to store */
 432              		.loc 1 605 0
 433 0078 2278     		ldrb	r2, [r4]
 434 007a 131C     		mov	r3, r2
 435 007c B343     		bic	r3, r6
 436 007e 2370     		strb	r3, [r4]
 607:Generated_Source\PSoC4/BLE.c ****             {
 437              		.loc 1 607 0
ARM GAS  C:\Users\ramanatg\AppData\Local\Temp\cciThAgf.s 			page 21


 438 0080 9207     		lsl	r2, r2, #30
 439 0082 C5D5     		bpl	.L19
 609:Generated_Source\PSoC4/BLE.c ****             }
 440              		.loc 1 609 0
 441 0084 2820     		mov	r0, #40
 442              	.LVL27:
 443              	.L20:
 615:Generated_Source\PSoC4/BLE.c ****         ((cyBle_pendingFlashWrite & CYBLE_PENDING_CCCD_FLASH_WRITE_BIT) != 0u) &&
 444              		.loc 1 615 0
 445 0086 002D     		cmp	r5, #0
 446 0088 DAD0     		beq	.L36
 616:Generated_Source\PSoC4/BLE.c ****         (cyBle_connHandle.bdHandle <= CYBLE_GAP_MAX_BONDED_DEVICE))
 447              		.loc 1 616 0 discriminator 3
 448 008a 2378     		ldrb	r3, [r4]
 615:Generated_Source\PSoC4/BLE.c ****         ((cyBle_pendingFlashWrite & CYBLE_PENDING_CCCD_FLASH_WRITE_BIT) != 0u) &&
 449              		.loc 1 615 0 discriminator 3
 450 008c 9B07     		lsl	r3, r3, #30
 451 008e 03D5     		bpl	.L21
 617:Generated_Source\PSoC4/BLE.c ****     {
 452              		.loc 1 617 0
 453 0090 104B     		ldr	r3, .L46+8
 454 0092 1A78     		ldrb	r2, [r3]
 616:Generated_Source\PSoC4/BLE.c ****         (cyBle_connHandle.bdHandle <= CYBLE_GAP_MAX_BONDED_DEVICE))
 455              		.loc 1 616 0
 456 0094 042A     		cmp	r2, #4
 457 0096 D9D9     		bls	.L31
 458              	.L21:
 459 0098 2378     		ldrb	r3, [r4]
 460 009a BCE7     		b	.L24
 461              	.LVL28:
 462              	.L26:
 463              	.LBB20:
 646:Generated_Source\PSoC4/BLE.c ****             
 464              		.loc 1 646 0
 465 009c 0380     		strh	r3, [r0]
 648:Generated_Source\PSoC4/BLE.c ****                                     cyBle_pendingFlashClearCccdHandle], CYBLE_GATT_DB_CCCD_COUNT, i
 466              		.loc 1 648 0
 467 009e 104B     		ldr	r3, .L46+20
 468 00a0 0222     		mov	r2, #2
 469 00a2 5978     		ldrb	r1, [r3, #1]
 470 00a4 0C4B     		ldr	r3, .L46+12
 471 00a6 3D31     		add	r1, r1, #61
 472 00a8 FF31     		add	r1, r1, #255
 473 00aa 4900     		lsl	r1, r1, #1
 474 00ac C918     		add	r1, r1, r3
 475 00ae 0131     		add	r1, r1, #1
 476 00b0 2B1C     		mov	r3, r5
 477 00b2 FFF7FEFF 		bl	CyBle_StoreAppData
 478              	.LVL29:
 650:Generated_Source\PSoC4/BLE.c ****             {
 479              		.loc 1 650 0
 480 00b6 0028     		cmp	r0, #0
 481 00b8 C2D1     		bne	.L36
 652:Generated_Source\PSoC4/BLE.c ****             }
 482              		.loc 1 652 0
 483 00ba 0422     		mov	r2, #4
 484 00bc 2378     		ldrb	r3, [r4]
ARM GAS  C:\Users\ramanatg\AppData\Local\Temp\cciThAgf.s 			page 22


 485 00be 9343     		bic	r3, r2
 486 00c0 2370     		strb	r3, [r4]
 487 00c2 BDE7     		b	.L36
 488              	.L23:
 489              	.LBE20:
 627:Generated_Source\PSoC4/BLE.c ****         ((cyBle_pendingFlashWrite & CYBLE_PENDING_CCCD_FLASH_CLEAR_MASK) != 0u) )
 490              		.loc 1 627 0
 491 00c4 002D     		cmp	r5, #0
 492 00c6 BBD0     		beq	.L36
 493 00c8 2378     		ldrb	r3, [r4]
 494 00ca A4E7     		b	.L24
 495              	.L47:
 496              		.align	2
 497              	.L46:
 498 00cc 00000000 		.word	cyBle_pendingFlashWrite
 499 00d0 79020000 		.word	cyBle_flashStorage+633
 500 00d4 00000000 		.word	cyBle_connHandle
 501 00d8 00000000 		.word	cyBle_flashStorage
 502 00dc 00000000 		.word	cyBle_attValuesCCCD
 503 00e0 00000000 		.word	.LANCHOR1
 504              		.cfi_endproc
 505              	.LFE6:
 506              		.size	CyBle_StoreBondingData, .-CyBle_StoreBondingData
 507              		.section	.text.CyBle_GapRemoveBondedDevice,"ax",%progbits
 508              		.align	2
 509              		.global	CyBle_GapRemoveBondedDevice
 510              		.code	16
 511              		.thumb_func
 512              		.type	CyBle_GapRemoveBondedDevice, %function
 513              	CyBle_GapRemoveBondedDevice:
 514              	.LFB7:
 659:Generated_Source\PSoC4/BLE.c **** 
 660:Generated_Source\PSoC4/BLE.c **** 
 661:Generated_Source\PSoC4/BLE.c **** /******************************************************************************
 662:Generated_Source\PSoC4/BLE.c **** * Function Name: CyBle_GapRemoveBondedDevice
 663:Generated_Source\PSoC4/BLE.c **** ***************************************************************************//**
 664:Generated_Source\PSoC4/BLE.c **** * 
 665:Generated_Source\PSoC4/BLE.c **** *  This function marks the device untrusted. It removes the bonding information
 666:Generated_Source\PSoC4/BLE.c **** *  of the device including CCCD values. This function removes device from the
 667:Generated_Source\PSoC4/BLE.c **** *  white list also when autopopulate white list with bonded devices option is
 668:Generated_Source\PSoC4/BLE.c **** *  enabled.
 669:Generated_Source\PSoC4/BLE.c **** * 
 670:Generated_Source\PSoC4/BLE.c **** *  This function is available only when Bonding requirement is selected in
 671:Generated_Source\PSoC4/BLE.c **** *  Security settings.    
 672:Generated_Source\PSoC4/BLE.c **** *
 673:Generated_Source\PSoC4/BLE.c **** *  \param bdAddr: Pointer to peer device address, of type CYBLE_GAP_BD_ADDR_T.
 674:Generated_Source\PSoC4/BLE.c **** *                 If device address is set to 0, then all devices shall be
 675:Generated_Source\PSoC4/BLE.c **** *                 removed from trusted list and white list.
 676:Generated_Source\PSoC4/BLE.c **** *
 677:Generated_Source\PSoC4/BLE.c **** * \return
 678:Generated_Source\PSoC4/BLE.c **** *  CYBLE_API_RESULT_T : Return value indicates if the function succeeded or
 679:Generated_Source\PSoC4/BLE.c **** *  failed. Following are the possible error codes.
 680:Generated_Source\PSoC4/BLE.c **** *
 681:Generated_Source\PSoC4/BLE.c **** *   Errors codes                     | Description
 682:Generated_Source\PSoC4/BLE.c **** *   ---------------------------------| ------------------------------------
 683:Generated_Source\PSoC4/BLE.c **** *   CYBLE_ERROR_OK                   | On successful operation.
 684:Generated_Source\PSoC4/BLE.c **** *   CYBLE_ERROR_INVALID_PARAMETER    | On specifying NULL as input parameter for 'bdAddr'.
ARM GAS  C:\Users\ramanatg\AppData\Local\Temp\cciThAgf.s 			page 23


 685:Generated_Source\PSoC4/BLE.c **** *   CYBLE_ERROR_INVALID_OPERATION    | Whitelist is already in use or there is pending write to fla
 686:Generated_Source\PSoC4/BLE.c **** *   CYBLE_ERROR_NO_DEVICE_ENTITY     | Device does not exist in the bond list.
 687:Generated_Source\PSoC4/BLE.c **** *
 688:Generated_Source\PSoC4/BLE.c **** *  \globalvars
 689:Generated_Source\PSoC4/BLE.c **** *   The bdHandle is set in cyBle_pendingFlashWrite variable to indicate that
 690:Generated_Source\PSoC4/BLE.c **** *   data should be stored to flash by CyBle_StoreBondingData afterwards. 
 691:Generated_Source\PSoC4/BLE.c **** *     
 692:Generated_Source\PSoC4/BLE.c **** ******************************************************************************/
 693:Generated_Source\PSoC4/BLE.c **** CYBLE_API_RESULT_T CyBle_GapRemoveBondedDevice(CYBLE_GAP_BD_ADDR_T* bdAddr)
 694:Generated_Source\PSoC4/BLE.c **** {
 515              		.loc 1 694 0
 516              		.cfi_startproc
 517              	.LVL30:
 518 0000 30B5     		push	{r4, r5, lr}
 519              		.cfi_def_cfa_offset 12
 520              		.cfi_offset 4, -12
 521              		.cfi_offset 5, -8
 522              		.cfi_offset 14, -4
 695:Generated_Source\PSoC4/BLE.c ****     CYBLE_API_RESULT_T apiResult = CYBLE_ERROR_OK;
 696:Generated_Source\PSoC4/BLE.c ****     
 697:Generated_Source\PSoC4/BLE.c ****     if(cyBle_pendingFlashWrite == 0u)
 523              		.loc 1 697 0
 524 0002 174D     		ldr	r5, .L56
 694:Generated_Source\PSoC4/BLE.c ****     CYBLE_API_RESULT_T apiResult = CYBLE_ERROR_OK;
 525              		.loc 1 694 0
 526 0004 011C     		mov	r1, r0
 527              		.loc 1 697 0
 528 0006 2B78     		ldrb	r3, [r5]
 694:Generated_Source\PSoC4/BLE.c ****     CYBLE_API_RESULT_T apiResult = CYBLE_ERROR_OK;
 529              		.loc 1 694 0
 530 0008 85B0     		sub	sp, sp, #20
 531              		.cfi_def_cfa_offset 32
 698:Generated_Source\PSoC4/BLE.c ****     {
 699:Generated_Source\PSoC4/BLE.c ****         
 700:Generated_Source\PSoC4/BLE.c ****     #if(CYBLE_GATT_DB_CCCD_COUNT != 0u)
 701:Generated_Source\PSoC4/BLE.c ****         /* Request to clear CCCD values which will be done by CyBle_StoreBondingData API */
 702:Generated_Source\PSoC4/BLE.c ****         uint8 bDevHandle;
 703:Generated_Source\PSoC4/BLE.c ****         CYBLE_GAP_BD_ADDR_T invalidBdAddr = {{0u,0u,0u,0u,0u,0u}, 0u};
 704:Generated_Source\PSoC4/BLE.c **** 
 705:Generated_Source\PSoC4/BLE.c ****         if(memcmp(((uint8 *) &(bdAddr->bdAddr)), ((uint8 *) &(invalidBdAddr.bdAddr)), CYBLE_GAP_BD_
 706:Generated_Source\PSoC4/BLE.c **** 	    {
 707:Generated_Source\PSoC4/BLE.c ****             /* Request to remove all bonded devices by cyBle_StoreBondingData API */
 708:Generated_Source\PSoC4/BLE.c ****             cyBle_pendingFlashWrite |= CYBLE_PENDING_CCCD_FLASH_CLEAR_ALL_BIT;
 709:Generated_Source\PSoC4/BLE.c ****         }
 710:Generated_Source\PSoC4/BLE.c ****         else
 711:Generated_Source\PSoC4/BLE.c ****         {
 712:Generated_Source\PSoC4/BLE.c ****             /* Get the BD handle from Address */
 713:Generated_Source\PSoC4/BLE.c ****             apiResult = CyBle_GapGetPeerBdHandle(&bDevHandle, bdAddr);
 714:Generated_Source\PSoC4/BLE.c ****             if(apiResult == CYBLE_ERROR_OK)
 715:Generated_Source\PSoC4/BLE.c ****             {
 716:Generated_Source\PSoC4/BLE.c ****                 /* Store BD handle to clear cccd values by CyBle_StoreBondingData API */
 717:Generated_Source\PSoC4/BLE.c ****                 cyBle_pendingFlashWrite |= CYBLE_PENDING_CCCD_FLASH_CLEAR_BIT;
 718:Generated_Source\PSoC4/BLE.c ****                 cyBle_pendingFlashClearCccdHandle = bDevHandle;
 719:Generated_Source\PSoC4/BLE.c ****             }
 720:Generated_Source\PSoC4/BLE.c ****         }
 721:Generated_Source\PSoC4/BLE.c ****     #endif /* CYBLE_GATT_DB_CCCD_COUNT != 0u */
 722:Generated_Source\PSoC4/BLE.c ****         if(apiResult == CYBLE_ERROR_OK)
ARM GAS  C:\Users\ramanatg\AppData\Local\Temp\cciThAgf.s 			page 24


 723:Generated_Source\PSoC4/BLE.c ****         {
 724:Generated_Source\PSoC4/BLE.c ****             apiResult = CyBle_GapRemoveDeviceFromWhiteList(bdAddr);
 725:Generated_Source\PSoC4/BLE.c ****         }
 726:Generated_Source\PSoC4/BLE.c ****     }
 727:Generated_Source\PSoC4/BLE.c ****     else
 728:Generated_Source\PSoC4/BLE.c ****     {
 729:Generated_Source\PSoC4/BLE.c ****         apiResult = CYBLE_ERROR_INVALID_OPERATION;
 532              		.loc 1 729 0
 533 000a 0220     		mov	r0, #2
 534              	.LVL31:
 697:Generated_Source\PSoC4/BLE.c ****     {
 535              		.loc 1 697 0
 536 000c 002B     		cmp	r3, #0
 537 000e 01D0     		beq	.L55
 538              	.LVL32:
 539              	.L54:
 730:Generated_Source\PSoC4/BLE.c ****     }
 731:Generated_Source\PSoC4/BLE.c ****     
 732:Generated_Source\PSoC4/BLE.c ****     return(apiResult);
 733:Generated_Source\PSoC4/BLE.c **** }
 540              		.loc 1 733 0
 541 0010 05B0     		add	sp, sp, #20
 542              		@ sp needed
 543 0012 30BD     		pop	{r4, r5, pc}
 544              	.LVL33:
 545              	.L55:
 546 0014 0C1C     		mov	r4, r1
 547              	.LBB21:
 705:Generated_Source\PSoC4/BLE.c **** 	    {
 548              		.loc 1 705 0
 549 0016 0622     		mov	r2, #6
 703:Generated_Source\PSoC4/BLE.c **** 
 550              		.loc 1 703 0
 551 0018 02A9     		add	r1, sp, #8
 552              	.LVL34:
 705:Generated_Source\PSoC4/BLE.c **** 	    {
 553              		.loc 1 705 0
 554 001a 201C     		mov	r0, r4
 703:Generated_Source\PSoC4/BLE.c **** 
 555              		.loc 1 703 0
 556 001c 0B70     		strb	r3, [r1]
 557 001e 4B70     		strb	r3, [r1, #1]
 558 0020 8B70     		strb	r3, [r1, #2]
 559 0022 CB70     		strb	r3, [r1, #3]
 560 0024 0B71     		strb	r3, [r1, #4]
 561 0026 4B71     		strb	r3, [r1, #5]
 562 0028 8B71     		strb	r3, [r1, #6]
 705:Generated_Source\PSoC4/BLE.c **** 	    {
 563              		.loc 1 705 0
 564 002a FFF7FEFF 		bl	memcmp
 565              	.LVL35:
 566 002e 0028     		cmp	r0, #0
 567 0030 05D1     		bne	.L50
 708:Generated_Source\PSoC4/BLE.c ****         }
 568              		.loc 1 708 0
 569 0032 0823     		mov	r3, #8
 570 0034 2B70     		strb	r3, [r5]
ARM GAS  C:\Users\ramanatg\AppData\Local\Temp\cciThAgf.s 			page 25


 571              	.LVL36:
 572              	.L51:
 724:Generated_Source\PSoC4/BLE.c ****         }
 573              		.loc 1 724 0
 574 0036 201C     		mov	r0, r4
 575 0038 FFF7FEFF 		bl	CyBle_GapRemoveDeviceFromWhiteList
 576              	.LVL37:
 577 003c E8E7     		b	.L54
 578              	.LVL38:
 579              	.L50:
 713:Generated_Source\PSoC4/BLE.c ****             if(apiResult == CYBLE_ERROR_OK)
 580              		.loc 1 713 0
 581 003e 6B46     		mov	r3, sp
 582 0040 211C     		mov	r1, r4
 583 0042 D81D     		add	r0, r3, #7
 584 0044 FFF7FEFF 		bl	CyBle_GapGetPeerBdHandle
 585              	.LVL39:
 714:Generated_Source\PSoC4/BLE.c ****             {
 586              		.loc 1 714 0
 587 0048 0028     		cmp	r0, #0
 588 004a E1D1     		bne	.L54
 717:Generated_Source\PSoC4/BLE.c ****                 cyBle_pendingFlashClearCccdHandle = bDevHandle;
 589              		.loc 1 717 0
 590 004c 0423     		mov	r3, #4
 591 004e 2A78     		ldrb	r2, [r5]
 592 0050 1343     		orr	r3, r2
 593 0052 2B70     		strb	r3, [r5]
 718:Generated_Source\PSoC4/BLE.c ****             }
 594              		.loc 1 718 0
 595 0054 6B46     		mov	r3, sp
 596 0056 DA79     		ldrb	r2, [r3, #7]
 597 0058 024B     		ldr	r3, .L56+4
 598 005a 5A70     		strb	r2, [r3, #1]
 599 005c EBE7     		b	.L51
 600              	.L57:
 601 005e C046     		.align	2
 602              	.L56:
 603 0060 00000000 		.word	cyBle_pendingFlashWrite
 604 0064 00000000 		.word	.LANCHOR1
 605              	.LBE21:
 606              		.cfi_endproc
 607              	.LFE7:
 608              		.size	CyBle_GapRemoveBondedDevice, .-CyBle_GapRemoveBondedDevice
 609              		.section	.text.CyBle_GappStartAdvertisement,"ax",%progbits
 610              		.align	2
 611              		.global	CyBle_GappStartAdvertisement
 612              		.code	16
 613              		.thumb_func
 614              		.type	CyBle_GappStartAdvertisement, %function
 615              	CyBle_GappStartAdvertisement:
 616              	.LFB8:
 734:Generated_Source\PSoC4/BLE.c **** 
 735:Generated_Source\PSoC4/BLE.c **** 
 736:Generated_Source\PSoC4/BLE.c **** #endif /* (CYBLE_GAP_ROLE_PERIPHERAL || CYBLE_GAP_ROLE_CENTRAL) && (CYBLE_BONDING_REQUIREMENT == CY
 737:Generated_Source\PSoC4/BLE.c **** 
 738:Generated_Source\PSoC4/BLE.c **** 
 739:Generated_Source\PSoC4/BLE.c **** #if(CYBLE_GAP_ROLE_PERIPHERAL || CYBLE_GAP_ROLE_BROADCASTER)
ARM GAS  C:\Users\ramanatg\AppData\Local\Temp\cciThAgf.s 			page 26


 740:Generated_Source\PSoC4/BLE.c **** 
 741:Generated_Source\PSoC4/BLE.c ****     /******************************************************************************
 742:Generated_Source\PSoC4/BLE.c ****     *  Function Name: CyBle_GappStartAdvertisement
 743:Generated_Source\PSoC4/BLE.c ****     ***************************************************************************//**
 744:Generated_Source\PSoC4/BLE.c ****     *     
 745:Generated_Source\PSoC4/BLE.c ****     *  This function is used to start the advertisement using the advertisement data 
 746:Generated_Source\PSoC4/BLE.c ****     *  set in the component customizer's GUI. After invoking this API, the device 
 747:Generated_Source\PSoC4/BLE.c ****     *  will be available for connection by the devices configured for GAP central 
 748:Generated_Source\PSoC4/BLE.c ****     *  role. It is only included if the device is configured for GAP Peripheral or 
 749:Generated_Source\PSoC4/BLE.c ****     *  GAP Peripheral + Central role.
 750:Generated_Source\PSoC4/BLE.c ****     *  
 751:Generated_Source\PSoC4/BLE.c ****     *  On start of advertisement, GAP Peripheral receives the
 752:Generated_Source\PSoC4/BLE.c ****     *  CYBLE_EVT_GAPP_ADVERTISEMENT_START_STOP event. The following events are 
 753:Generated_Source\PSoC4/BLE.c ****     *  possible on invoking this function:
 754:Generated_Source\PSoC4/BLE.c ****     *  
 755:Generated_Source\PSoC4/BLE.c ****     *  * CYBLE_EVT_GAP_DEVICE_CONNECTED - If the device connects to a GAP Central and 
 756:Generated_Source\PSoC4/BLE.c ****     *    Link Layer Privacy is disabled in component customizer.
 757:Generated_Source\PSoC4/BLE.c ****     *  * CYBLE_EVT_GAP_ENHANCE_CONN_COMPLETE - If the device connects to a GAP Central and 
 758:Generated_Source\PSoC4/BLE.c ****     *    Link Layer Privacy is enabled in component customizer.
 759:Generated_Source\PSoC4/BLE.c ****     *  * CYBLE_EVT_TIMEOUT: If no device in GAP Central mode connects to this 
 760:Generated_Source\PSoC4/BLE.c ****     *                       device within the specified timeout limit. Stack 
 761:Generated_Source\PSoC4/BLE.c ****     *                       automatically initiate stop advertising when Slow 
 762:Generated_Source\PSoC4/BLE.c ****     *                       advertising was initiated, or starts Slow advertising
 763:Generated_Source\PSoC4/BLE.c ****     *                       after Fast advertising timeout occur.
 764:Generated_Source\PSoC4/BLE.c ****     *  * CYBLE_EVT_GAPP_ADVERTISEMENT_START_STOP: If device started or stopped
 765:Generated_Source\PSoC4/BLE.c ****     *                                               advertising. Use CyBle_GetState()
 766:Generated_Source\PSoC4/BLE.c ****     *                                               to determine the state. Sequential 
 767:Generated_Source\PSoC4/BLE.c ****     *                                               advertising could be started when
 768:Generated_Source\PSoC4/BLE.c ****     *                                               CYBLE_STATE_DISCONNECTED state is
 769:Generated_Source\PSoC4/BLE.c ****     *                                               returned.
 770:Generated_Source\PSoC4/BLE.c ****     * 
 771:Generated_Source\PSoC4/BLE.c ****     *  \param advertisingIntervalType: Fast or slow advertising interval with timings
 772:Generated_Source\PSoC4/BLE.c ****     *                                 entered in Advertising settings section of the
 773:Generated_Source\PSoC4/BLE.c ****     *                                 customizer.
 774:Generated_Source\PSoC4/BLE.c ****     *  * CYBLE_ADVERTISING_FAST   0x00u
 775:Generated_Source\PSoC4/BLE.c ****     *  * CYBLE_ADVERTISING_SLOW   0x01u
 776:Generated_Source\PSoC4/BLE.c ****     *  * CYBLE_ADVERTISING_CUSTOM 0x02u
 777:Generated_Source\PSoC4/BLE.c ****     * 
 778:Generated_Source\PSoC4/BLE.c ****     * \return
 779:Generated_Source\PSoC4/BLE.c ****     *  CYBLE_API_RESULT_T : Return value indicates if the function succeeded or
 780:Generated_Source\PSoC4/BLE.c ****     *  failed. Following are the possible error codes.
 781:Generated_Source\PSoC4/BLE.c ****     * 
 782:Generated_Source\PSoC4/BLE.c ****     *   Errors codes                      |  Description
 783:Generated_Source\PSoC4/BLE.c ****     *   --------------------------------- |  --------------------------------
 784:Generated_Source\PSoC4/BLE.c ****     *   CYBLE_ERROR_OK                    |  On successful operation.
 785:Generated_Source\PSoC4/BLE.c ****     *   CYBLE_ERROR_INVALID_PARAMETER     |  On passing an invalid parameter.
 786:Generated_Source\PSoC4/BLE.c ****     *   CYBLE_ERROR_INVALID_STATE         |  On calling this API not in Disconnected state.
 787:Generated_Source\PSoC4/BLE.c ****     *
 788:Generated_Source\PSoC4/BLE.c ****     * 
 789:Generated_Source\PSoC4/BLE.c ****     *******************************************************************************/
 790:Generated_Source\PSoC4/BLE.c ****     CYBLE_API_RESULT_T CyBle_GappStartAdvertisement(uint8 advertisingIntervalType)
 791:Generated_Source\PSoC4/BLE.c ****     {
 617              		.loc 1 791 0
 618              		.cfi_startproc
 619              	.LVL40:
 620 0000 031C     		mov	r3, r0
 621 0002 10B5     		push	{r4, lr}
ARM GAS  C:\Users\ramanatg\AppData\Local\Temp\cciThAgf.s 			page 27


 622              		.cfi_def_cfa_offset 8
 623              		.cfi_offset 4, -8
 624              		.cfi_offset 14, -4
 792:Generated_Source\PSoC4/BLE.c ****         CYBLE_API_RESULT_T apiResult;
 793:Generated_Source\PSoC4/BLE.c ****         
 794:Generated_Source\PSoC4/BLE.c ****         if(advertisingIntervalType > CYBLE_ADVERTISING_CUSTOM)
 795:Generated_Source\PSoC4/BLE.c ****         {
 796:Generated_Source\PSoC4/BLE.c ****             apiResult = CYBLE_ERROR_INVALID_PARAMETER;
 625              		.loc 1 796 0
 626 0004 0120     		mov	r0, #1
 627              	.LVL41:
 794:Generated_Source\PSoC4/BLE.c ****         {
 628              		.loc 1 794 0
 629 0006 022B     		cmp	r3, #2
 630 0008 05D8     		bhi	.L59
 797:Generated_Source\PSoC4/BLE.c ****         }
 798:Generated_Source\PSoC4/BLE.c ****         else if((CYBLE_STATE_DISCONNECTED == CyBle_GetState()) && ((cyBle_eventHandlerFlag & CYBLE_
 631              		.loc 1 798 0
 632 000a 154A     		ldr	r2, .L68
 633 000c 1278     		ldrb	r2, [r2]
 634 000e 042A     		cmp	r2, #4
 635 0010 02D0     		beq	.L67
 636              	.L64:
 799:Generated_Source\PSoC4/BLE.c ****         {   
 800:Generated_Source\PSoC4/BLE.c ****             if(advertisingIntervalType == CYBLE_ADVERTISING_FAST)
 801:Generated_Source\PSoC4/BLE.c ****             {
 802:Generated_Source\PSoC4/BLE.c ****                 cyBle_discoveryModeInfo.advTo = CYBLE_FAST_ADV_TIMEOUT;
 803:Generated_Source\PSoC4/BLE.c ****                 cyBle_discoveryModeInfo.advParam->advIntvMin = CYBLE_FAST_ADV_INT_MIN;
 804:Generated_Source\PSoC4/BLE.c ****                 cyBle_discoveryModeInfo.advParam->advIntvMax = CYBLE_FAST_ADV_INT_MAX;
 805:Generated_Source\PSoC4/BLE.c ****             }
 806:Generated_Source\PSoC4/BLE.c ****             else if(advertisingIntervalType == CYBLE_ADVERTISING_SLOW)
 807:Generated_Source\PSoC4/BLE.c ****             {
 808:Generated_Source\PSoC4/BLE.c ****                 cyBle_discoveryModeInfo.advTo = CYBLE_SLOW_ADV_TIMEOUT;
 809:Generated_Source\PSoC4/BLE.c ****                 cyBle_discoveryModeInfo.advParam->advIntvMin = CYBLE_SLOW_ADV_INT_MIN;
 810:Generated_Source\PSoC4/BLE.c ****                 cyBle_discoveryModeInfo.advParam->advIntvMax = CYBLE_SLOW_ADV_INT_MAX;
 811:Generated_Source\PSoC4/BLE.c ****             }       
 812:Generated_Source\PSoC4/BLE.c ****             else /* Do not update advertising intervals */
 813:Generated_Source\PSoC4/BLE.c ****             {
 814:Generated_Source\PSoC4/BLE.c ****             }
 815:Generated_Source\PSoC4/BLE.c ****             cyBle_advertisingIntervalType = advertisingIntervalType;
 816:Generated_Source\PSoC4/BLE.c ****             apiResult = CyBle_GappEnterDiscoveryMode(&cyBle_discoveryModeInfo);
 817:Generated_Source\PSoC4/BLE.c ****         
 818:Generated_Source\PSoC4/BLE.c ****             if(apiResult == CYBLE_ERROR_OK)
 819:Generated_Source\PSoC4/BLE.c ****             {
 820:Generated_Source\PSoC4/BLE.c ****                 cyBle_eventHandlerFlag |= CYBLE_START_FLAG;
 821:Generated_Source\PSoC4/BLE.c ****             }
 822:Generated_Source\PSoC4/BLE.c ****         }
 823:Generated_Source\PSoC4/BLE.c ****         else
 824:Generated_Source\PSoC4/BLE.c ****         {
 825:Generated_Source\PSoC4/BLE.c ****             apiResult = CYBLE_ERROR_INVALID_STATE;
 637              		.loc 1 825 0
 638 0012 0420     		mov	r0, #4
 639 0014 FF30     		add	r0, r0, #255
 640              	.L59:
 641              	.LVL42:
 826:Generated_Source\PSoC4/BLE.c ****         }
 827:Generated_Source\PSoC4/BLE.c **** 
ARM GAS  C:\Users\ramanatg\AppData\Local\Temp\cciThAgf.s 			page 28


 828:Generated_Source\PSoC4/BLE.c ****         return (apiResult);
 829:Generated_Source\PSoC4/BLE.c ****     }
 642              		.loc 1 829 0
 643              		@ sp needed
 644 0016 10BD     		pop	{r4, pc}
 645              	.LVL43:
 646              	.L67:
 798:Generated_Source\PSoC4/BLE.c ****         {   
 647              		.loc 1 798 0 discriminator 1
 648 0018 124C     		ldr	r4, .L68+4
 649 001a 2178     		ldrb	r1, [r4]
 650 001c 0A42     		tst	r2, r1
 651 001e F8D1     		bne	.L64
 802:Generated_Source\PSoC4/BLE.c ****                 cyBle_discoveryModeInfo.advParam->advIntvMin = CYBLE_FAST_ADV_INT_MIN;
 652              		.loc 1 802 0
 653 0020 1148     		ldr	r0, .L68+8
 800:Generated_Source\PSoC4/BLE.c ****             {
 654              		.loc 1 800 0
 655 0022 002B     		cmp	r3, #0
 656 0024 10D1     		bne	.L60
 803:Generated_Source\PSoC4/BLE.c ****                 cyBle_discoveryModeInfo.advParam->advIntvMax = CYBLE_FAST_ADV_INT_MAX;
 657              		.loc 1 803 0
 658 0026 5021     		mov	r1, #80
 802:Generated_Source\PSoC4/BLE.c ****                 cyBle_discoveryModeInfo.advParam->advIntvMin = CYBLE_FAST_ADV_INT_MIN;
 659              		.loc 1 802 0
 660 0028 3832     		add	r2, r2, #56
 661 002a 0282     		strh	r2, [r0, #16]
 803:Generated_Source\PSoC4/BLE.c ****                 cyBle_discoveryModeInfo.advParam->advIntvMax = CYBLE_FAST_ADV_INT_MAX;
 662              		.loc 1 803 0
 663 002c 4268     		ldr	r2, [r0, #4]
 664 002e 1180     		strh	r1, [r2]
 804:Generated_Source\PSoC4/BLE.c ****             }
 665              		.loc 1 804 0
 666 0030 5180     		strh	r1, [r2, #2]
 667              	.L61:
 815:Generated_Source\PSoC4/BLE.c ****             apiResult = CyBle_GappEnterDiscoveryMode(&cyBle_discoveryModeInfo);
 668              		.loc 1 815 0
 669 0032 0E4A     		ldr	r2, .L68+12
 670 0034 1370     		strb	r3, [r2]
 816:Generated_Source\PSoC4/BLE.c ****         
 671              		.loc 1 816 0
 672 0036 FFF7FEFF 		bl	CyBle_GappEnterDiscoveryMode
 673              	.LVL44:
 818:Generated_Source\PSoC4/BLE.c ****             {
 674              		.loc 1 818 0
 675 003a 0028     		cmp	r0, #0
 676 003c EBD1     		bne	.L59
 820:Generated_Source\PSoC4/BLE.c ****             }
 677              		.loc 1 820 0
 678 003e 0423     		mov	r3, #4
 679 0040 2278     		ldrb	r2, [r4]
 680 0042 1343     		orr	r3, r2
 681 0044 2370     		strb	r3, [r4]
 682 0046 E6E7     		b	.L59
 683              	.LVL45:
 684              	.L60:
 806:Generated_Source\PSoC4/BLE.c ****             {
ARM GAS  C:\Users\ramanatg\AppData\Local\Temp\cciThAgf.s 			page 29


 685              		.loc 1 806 0
 686 0048 012B     		cmp	r3, #1
 687 004a F2D1     		bne	.L61
 808:Generated_Source\PSoC4/BLE.c ****                 cyBle_discoveryModeInfo.advParam->advIntvMin = CYBLE_SLOW_ADV_INT_MIN;
 688              		.loc 1 808 0
 689 004c 9622     		mov	r2, #150
 809:Generated_Source\PSoC4/BLE.c ****                 cyBle_discoveryModeInfo.advParam->advIntvMax = CYBLE_SLOW_ADV_INT_MAX;
 690              		.loc 1 809 0
 691 004e C821     		mov	r1, #200
 808:Generated_Source\PSoC4/BLE.c ****                 cyBle_discoveryModeInfo.advParam->advIntvMin = CYBLE_SLOW_ADV_INT_MIN;
 692              		.loc 1 808 0
 693 0050 0282     		strh	r2, [r0, #16]
 809:Generated_Source\PSoC4/BLE.c ****                 cyBle_discoveryModeInfo.advParam->advIntvMax = CYBLE_SLOW_ADV_INT_MAX;
 694              		.loc 1 809 0
 695 0052 4268     		ldr	r2, [r0, #4]
 696 0054 C900     		lsl	r1, r1, #3
 697 0056 1180     		strh	r1, [r2]
 810:Generated_Source\PSoC4/BLE.c ****             }       
 698              		.loc 1 810 0
 699 0058 8021     		mov	r1, #128
 700 005a C901     		lsl	r1, r1, #7
 701 005c 5180     		strh	r1, [r2, #2]
 702 005e E8E7     		b	.L61
 703              	.L69:
 704              		.align	2
 705              	.L68:
 706 0060 00000000 		.word	cyBle_state
 707 0064 00000000 		.word	cyBle_eventHandlerFlag
 708 0068 00000000 		.word	.LANCHOR3
 709 006c 00000000 		.word	cyBle_advertisingIntervalType
 710              		.cfi_endproc
 711              	.LFE8:
 712              		.size	CyBle_GappStartAdvertisement, .-CyBle_GappStartAdvertisement
 713              		.section	.text.CyBle_GappStopAdvertisement,"ax",%progbits
 714              		.align	2
 715              		.global	CyBle_GappStopAdvertisement
 716              		.code	16
 717              		.thumb_func
 718              		.type	CyBle_GappStopAdvertisement, %function
 719              	CyBle_GappStopAdvertisement:
 720              	.LFB9:
 830:Generated_Source\PSoC4/BLE.c **** 
 831:Generated_Source\PSoC4/BLE.c ****     
 832:Generated_Source\PSoC4/BLE.c ****     /******************************************************************************
 833:Generated_Source\PSoC4/BLE.c ****     * Function Name: CyBle_GappStopAdvertisement
 834:Generated_Source\PSoC4/BLE.c ****     ***************************************************************************//**
 835:Generated_Source\PSoC4/BLE.c ****     * 
 836:Generated_Source\PSoC4/BLE.c ****     *   This function can be used to exit from discovery mode. After the execution 
 837:Generated_Source\PSoC4/BLE.c ****     *   of this function, there will no longer be any advertisements. On stopping 
 838:Generated_Source\PSoC4/BLE.c ****     *   advertising, GAP Peripheral receives CYBLE_EVT_GAPP_ADVERTISEMENT_START_STOP
 839:Generated_Source\PSoC4/BLE.c ****     *   event. It is expected that the application layer tracks the function call 
 840:Generated_Source\PSoC4/BLE.c ****     *   performed before occurrence of this event as this event can occur on making 
 841:Generated_Source\PSoC4/BLE.c ****     *   a call to Cy_BleGappStartAdvertisement(), CyBle_GappEnterDiscoveryMode(), 
 842:Generated_Source\PSoC4/BLE.c ****     *   or CyBle_GappStartAdvertisement() functions as well.
 843:Generated_Source\PSoC4/BLE.c ****     *   
 844:Generated_Source\PSoC4/BLE.c ****     *   The following event occurs on invoking this function:
 845:Generated_Source\PSoC4/BLE.c ****     *   * CYBLE_EVT_GAPP_ADVERTISEMENT_START_STOP
ARM GAS  C:\Users\ramanatg\AppData\Local\Temp\cciThAgf.s 			page 30


 846:Generated_Source\PSoC4/BLE.c ****     * 
 847:Generated_Source\PSoC4/BLE.c ****     *  \return
 848:Generated_Source\PSoC4/BLE.c ****     *   None
 849:Generated_Source\PSoC4/BLE.c ****     * 
 850:Generated_Source\PSoC4/BLE.c ****     *******************************************************************************/
 851:Generated_Source\PSoC4/BLE.c ****     void CyBle_GappStopAdvertisement(void)
 852:Generated_Source\PSoC4/BLE.c ****     {
 721              		.loc 1 852 0
 722              		.cfi_startproc
 723 0000 08B5     		push	{r3, lr}
 724              		.cfi_def_cfa_offset 8
 725              		.cfi_offset 3, -8
 726              		.cfi_offset 14, -4
 853:Generated_Source\PSoC4/BLE.c ****         CyBle_GappExitDiscoveryMode();
 727              		.loc 1 853 0
 728 0002 FFF7FEFF 		bl	CyBle_GappExitDiscoveryMode
 729              	.LVL46:
 854:Generated_Source\PSoC4/BLE.c ****         cyBle_eventHandlerFlag |= CYBLE_STOP_FLAG;
 730              		.loc 1 854 0
 731 0006 0823     		mov	r3, #8
 732 0008 024A     		ldr	r2, .L71
 855:Generated_Source\PSoC4/BLE.c ****     }
 733              		.loc 1 855 0
 734              		@ sp needed
 854:Generated_Source\PSoC4/BLE.c ****         cyBle_eventHandlerFlag |= CYBLE_STOP_FLAG;
 735              		.loc 1 854 0
 736 000a 1178     		ldrb	r1, [r2]
 737 000c 0B43     		orr	r3, r1
 738 000e 1370     		strb	r3, [r2]
 739              		.loc 1 855 0
 740 0010 08BD     		pop	{r3, pc}
 741              	.L72:
 742 0012 C046     		.align	2
 743              	.L71:
 744 0014 00000000 		.word	cyBle_eventHandlerFlag
 745              		.cfi_endproc
 746              	.LFE9:
 747              		.size	CyBle_GappStopAdvertisement, .-CyBle_GappStopAdvertisement
 748              		.section	.text.CyBle_ChangeAdDeviceAddress,"ax",%progbits
 749              		.align	2
 750              		.global	CyBle_ChangeAdDeviceAddress
 751              		.code	16
 752              		.thumb_func
 753              		.type	CyBle_ChangeAdDeviceAddress, %function
 754              	CyBle_ChangeAdDeviceAddress:
 755              	.LFB10:
 856:Generated_Source\PSoC4/BLE.c ****     
 857:Generated_Source\PSoC4/BLE.c ****     
 858:Generated_Source\PSoC4/BLE.c ****     /******************************************************************************
 859:Generated_Source\PSoC4/BLE.c ****     * Function Name: CyBle_ChangeAdDeviceAddress
 860:Generated_Source\PSoC4/BLE.c ****     ***************************************************************************//**
 861:Generated_Source\PSoC4/BLE.c ****     * 
 862:Generated_Source\PSoC4/BLE.c ****     *  This API is used to set the Bluetooth device address into the advertisement 
 863:Generated_Source\PSoC4/BLE.c ****     *  or scan response data structure.
 864:Generated_Source\PSoC4/BLE.c ****     * 
 865:Generated_Source\PSoC4/BLE.c ****     *  \param bdAddr: Bluetooth Device address. The variable is of type CYBLE_GAP_BD_ADDR_T
 866:Generated_Source\PSoC4/BLE.c ****     *  \param dest: 0 - selects advertisement structure, not zero value selects scan 
ARM GAS  C:\Users\ramanatg\AppData\Local\Temp\cciThAgf.s 			page 31


 867:Generated_Source\PSoC4/BLE.c ****     *               response structure.
 868:Generated_Source\PSoC4/BLE.c ****     * 
 869:Generated_Source\PSoC4/BLE.c ****     * \return
 870:Generated_Source\PSoC4/BLE.c ****     *  None
 871:Generated_Source\PSoC4/BLE.c ****     *  
 872:Generated_Source\PSoC4/BLE.c ****     *******************************************************************************/
 873:Generated_Source\PSoC4/BLE.c ****     void CyBle_ChangeAdDeviceAddress(const CYBLE_GAP_BD_ADDR_T* bdAddr, uint8 dest)
 874:Generated_Source\PSoC4/BLE.c ****     {
 756              		.loc 1 874 0
 757              		.cfi_startproc
 758              	.LVL47:
 875:Generated_Source\PSoC4/BLE.c ****         uint8 i;
 876:Generated_Source\PSoC4/BLE.c ****         uint8 *destBuffer = NULL;
 877:Generated_Source\PSoC4/BLE.c ****         
 878:Generated_Source\PSoC4/BLE.c ****         if(dest == 0u)      /* Destination - advertising structure */
 879:Generated_Source\PSoC4/BLE.c ****         {
 880:Generated_Source\PSoC4/BLE.c ****             #ifdef CYBLE_ADV_PKT_INDEX_BLUETOOTH_DEVICE_ADDRESS
 881:Generated_Source\PSoC4/BLE.c ****                 destBuffer = &cyBle_discoveryData.advData[CYBLE_ADV_PKT_INDEX_BLUETOOTH_DEVICE_ADDR
 882:Generated_Source\PSoC4/BLE.c ****             #endif /* CYBLE_ADV_PKT_INDEX_BLUETOOTH_DEVICE_ADDRESS */
 883:Generated_Source\PSoC4/BLE.c ****         }
 884:Generated_Source\PSoC4/BLE.c ****         else                /* Destination - scan response structure */
 885:Generated_Source\PSoC4/BLE.c ****         {
 886:Generated_Source\PSoC4/BLE.c ****             #ifdef CYBLE_SCN_PKT_INDEX_BLUETOOTH_DEVICE_ADDRESS
 887:Generated_Source\PSoC4/BLE.c ****                 destBuffer = &cyBle_scanRspData.scanRspData[CYBLE_SCN_PKT_INDEX_BLUETOOTH_DEVICE_AD
 888:Generated_Source\PSoC4/BLE.c ****             #endif /* CYBLE_SCN_PKT_INDEX_BLUETOOTH_DEVICE_ADDRESS */    
 889:Generated_Source\PSoC4/BLE.c ****         }
 890:Generated_Source\PSoC4/BLE.c ****         
 891:Generated_Source\PSoC4/BLE.c ****         if(destBuffer != NULL)
 892:Generated_Source\PSoC4/BLE.c ****         {
 893:Generated_Source\PSoC4/BLE.c ****             /* Update Device Address type */
 894:Generated_Source\PSoC4/BLE.c ****             destBuffer[0u] = bdAddr->type;
 895:Generated_Source\PSoC4/BLE.c ****             
 896:Generated_Source\PSoC4/BLE.c ****             for(i = 0u; i < CYBLE_GAP_BD_ADDR_SIZE; i++)
 897:Generated_Source\PSoC4/BLE.c ****             {
 898:Generated_Source\PSoC4/BLE.c ****                 destBuffer[i + 1u] = bdAddr->bdAddr[i];
 899:Generated_Source\PSoC4/BLE.c ****             }
 900:Generated_Source\PSoC4/BLE.c ****         }
 901:Generated_Source\PSoC4/BLE.c ****     }
 759              		.loc 1 901 0
 760              		@ sp needed
 761 0000 7047     		bx	lr
 762              		.cfi_endproc
 763              	.LFE10:
 764              		.size	CyBle_ChangeAdDeviceAddress, .-CyBle_ChangeAdDeviceAddress
 765 0002 C046     		.section	.text.CyBle_GapSetLocalName,"ax",%progbits
 766              		.align	2
 767              		.global	CyBle_GapSetLocalName
 768              		.code	16
 769              		.thumb_func
 770              		.type	CyBle_GapSetLocalName, %function
 771              	CyBle_GapSetLocalName:
 772              	.LFB12:
 902:Generated_Source\PSoC4/BLE.c ****   
 903:Generated_Source\PSoC4/BLE.c **** #endif /* CYBLE_GAP_ROLE_PERIPHERAL || CYBLE_GAP_ROLE_BROADCASTER */
 904:Generated_Source\PSoC4/BLE.c **** 
 905:Generated_Source\PSoC4/BLE.c **** 
 906:Generated_Source\PSoC4/BLE.c **** #if(CYBLE_GAP_ROLE_CENTRAL || CYBLE_GAP_ROLE_OBSERVER)
ARM GAS  C:\Users\ramanatg\AppData\Local\Temp\cciThAgf.s 			page 32


 907:Generated_Source\PSoC4/BLE.c **** 
 908:Generated_Source\PSoC4/BLE.c ****     /******************************************************************************
 909:Generated_Source\PSoC4/BLE.c ****     * Function Name: CyBle_GapcStartScan
 910:Generated_Source\PSoC4/BLE.c ****     ***************************************************************************//**
 911:Generated_Source\PSoC4/BLE.c ****     * 
 912:Generated_Source\PSoC4/BLE.c ****     *   This function is used for discovering GAP peripheral devices that are 
 913:Generated_Source\PSoC4/BLE.c ****     *   available for connection. It performs the scanning routine using the 
 914:Generated_Source\PSoC4/BLE.c ****     *   parameters entered in the component's customizer.
 915:Generated_Source\PSoC4/BLE.c ****     *   
 916:Generated_Source\PSoC4/BLE.c ****     *   As soon as the discovery operation starts, CYBLE_EVT_GAPC_SCAN_START_STOP 
 917:Generated_Source\PSoC4/BLE.c ****     *   event is generated. The CYBLE_EVT_GAPC_SCAN_PROGRESS_RESULT event is 
 918:Generated_Source\PSoC4/BLE.c ****     *   generated when a GAP peripheral device is located. There are three discovery
 919:Generated_Source\PSoC4/BLE.c ****     *   procedures can be selected in the customizer's GUI:
 920:Generated_Source\PSoC4/BLE.c ****     *   
 921:Generated_Source\PSoC4/BLE.c ****     *   * Observation procedure: A device performing the observer role receives only
 922:Generated_Source\PSoC4/BLE.c ****     *                            advertisement data from devices irrespective of 
 923:Generated_Source\PSoC4/BLE.c ****     *                            their discoverable mode settings. Advertisement 
 924:Generated_Source\PSoC4/BLE.c ****     *                            data received is provided by the event,      
 925:Generated_Source\PSoC4/BLE.c ****     *                            CYBLE_EVT_GAPC_SCAN_PROGRESS_RESULT. This procedure
 926:Generated_Source\PSoC4/BLE.c ****     *                            requires the scanType sub parameter to be passive
 927:Generated_Source\PSoC4/BLE.c ****     *                            scanning. 
 928:Generated_Source\PSoC4/BLE.c ****     *   
 929:Generated_Source\PSoC4/BLE.c ****     *   * Limited Discovery procedure: A device performing the limited discovery
 930:Generated_Source\PSoC4/BLE.c ****     *                                  procedure receives advertisement data and 
 931:Generated_Source\PSoC4/BLE.c ****     *                                  scan# response data from devices in the 
 932:Generated_Source\PSoC4/BLE.c ****     *                                  limited discoverable mode only. Received data
 933:Generated_Source\PSoC4/BLE.c ****     *                                  is provided by the event, 
 934:Generated_Source\PSoC4/BLE.c ****     *                                  CYBLE_EVT_GAPC_SCAN_PROGRESS_RESULT. This 
 935:Generated_Source\PSoC4/BLE.c ****     *                                  procedure requires the scanType sub-parameter 
 936:Generated_Source\PSoC4/BLE.c ****     *                                  to be active scanning.
 937:Generated_Source\PSoC4/BLE.c ****     *   
 938:Generated_Source\PSoC4/BLE.c ****     *   * General Discovery procedure: A device performing the general discovery 
 939:Generated_Source\PSoC4/BLE.c ****     *                                  procedure receives the advertisement data and
 940:Generated_Source\PSoC4/BLE.c ****     *                                  scan response data from devices in both 
 941:Generated_Source\PSoC4/BLE.c ****     *                                  limited discoverable mode and the general 
 942:Generated_Source\PSoC4/BLE.c ****     *                                  discoverable mode. Received data is provided
 943:Generated_Source\PSoC4/BLE.c ****     *                                  by the event,
 944:Generated_Source\PSoC4/BLE.c ****     *                                  CYBLE_EVT_GAPC_SCAN_PROGRESS_RESULT. This 
 945:Generated_Source\PSoC4/BLE.c ****     *                                  procedure requires the scanType sub-parameter
 946:Generated_Source\PSoC4/BLE.c ****     *                                  to be active scanning.
 947:Generated_Source\PSoC4/BLE.c ****     *   
 948:Generated_Source\PSoC4/BLE.c ****     *   Every Advertisement / Scan response packet received results in a new event, 
 949:Generated_Source\PSoC4/BLE.c ****     *   CYBLE_EVT_GAPC_SCAN_PROGRESS_RESULT.
 950:Generated_Source\PSoC4/BLE.c ****     *   If 'scanTo' sub-parameter is a non-zero value, then upon commencement of 
 951:Generated_Source\PSoC4/BLE.c ****     *   discovery procedure and elapsed time = 'scanTo', CYBLE_EVT_TIMEOUT event
 952:Generated_Source\PSoC4/BLE.c ****     *   is generated with the event parameter indicating CYBLE_GAP_SCAN_TO.
 953:Generated_Source\PSoC4/BLE.c ****     *   Possible generated events are:
 954:Generated_Source\PSoC4/BLE.c ****     *   * CYBLE_EVT_GAPC_SCAN_START_STOP: If a device started or stopped scanning. 
 955:Generated_Source\PSoC4/BLE.c ****     *                                     Use CyBle_GetState() to determine the 
 956:Generated_Source\PSoC4/BLE.c ****     *                                     state. Sequential scanning could be 
 957:Generated_Source\PSoC4/BLE.c ****     *                                     started when CYBLE_STATE_DISCONNECTED 
 958:Generated_Source\PSoC4/BLE.c ****     *                                     state is returned. 
 959:Generated_Source\PSoC4/BLE.c ****     *   * CYBLE_EVT_GAPC_SCAN_PROGRESS_RESULT 
 960:Generated_Source\PSoC4/BLE.c ****     *   * CYBLE_EVT_TIMEOUT (CYBLE_GAP_SCAN_TO)
 961:Generated_Source\PSoC4/BLE.c ****     * 
 962:Generated_Source\PSoC4/BLE.c ****     *   \param scanningIntervalType:  Fast or slow scanning interval with
 963:Generated_Source\PSoC4/BLE.c ****     *       timings entered in Scan settings section of the customizer.
ARM GAS  C:\Users\ramanatg\AppData\Local\Temp\cciThAgf.s 			page 33


 964:Generated_Source\PSoC4/BLE.c ****     * 	  * CYBLE_SCANNING_FAST   0x00u
 965:Generated_Source\PSoC4/BLE.c ****     * 	  * CYBLE_SCANNING_SLOW   0x01u
 966:Generated_Source\PSoC4/BLE.c ****     * 	  * CYBLE_SCANNING_CUSTOM 0x02u
 967:Generated_Source\PSoC4/BLE.c ****     * 
 968:Generated_Source\PSoC4/BLE.c ****     * \return
 969:Generated_Source\PSoC4/BLE.c ****     *  CYBLE_API_RESULT_T : Return value indicates if the function succeeded or
 970:Generated_Source\PSoC4/BLE.c ****     *  failed. Following are the possible error codes.
 971:Generated_Source\PSoC4/BLE.c ****     *
 972:Generated_Source\PSoC4/BLE.c ****     *   Errors codes                       | Description
 973:Generated_Source\PSoC4/BLE.c ****     *   ---------------------------------- | -----------------------------------
 974:Generated_Source\PSoC4/BLE.c ****     *   CYBLE_ERROR_OK                     | On successful operation.
 975:Generated_Source\PSoC4/BLE.c ****     *   CYBLE_ERROR_STACK_INTERNAL         | An error occurred in the BLE stack.
 976:Generated_Source\PSoC4/BLE.c ****     *   CYBLE_ERROR_INVALID_PARAMETER      | On passing an invalid parameter.
 977:Generated_Source\PSoC4/BLE.c ****     *  
 978:Generated_Source\PSoC4/BLE.c ****     *******************************************************************************/
 979:Generated_Source\PSoC4/BLE.c ****     CYBLE_API_RESULT_T CyBle_GapcStartScan(uint8 scanningIntervalType)
 980:Generated_Source\PSoC4/BLE.c ****     {
 981:Generated_Source\PSoC4/BLE.c ****         CYBLE_API_RESULT_T apiResult;
 982:Generated_Source\PSoC4/BLE.c **** 
 983:Generated_Source\PSoC4/BLE.c ****         if(scanningIntervalType > CYBLE_SCANNING_CUSTOM)
 984:Generated_Source\PSoC4/BLE.c ****         {
 985:Generated_Source\PSoC4/BLE.c ****             apiResult = CYBLE_ERROR_INVALID_PARAMETER;
 986:Generated_Source\PSoC4/BLE.c ****         }
 987:Generated_Source\PSoC4/BLE.c ****         else
 988:Generated_Source\PSoC4/BLE.c ****         {
 989:Generated_Source\PSoC4/BLE.c ****             if(scanningIntervalType == CYBLE_SCANNING_FAST)
 990:Generated_Source\PSoC4/BLE.c ****             {
 991:Generated_Source\PSoC4/BLE.c ****                 cyBle_discoveryInfo.scanTo = CYBLE_FAST_SCAN_TIMEOUT;
 992:Generated_Source\PSoC4/BLE.c ****                 cyBle_discoveryInfo.scanIntv = CYBLE_FAST_SCAN_INTERVAL;
 993:Generated_Source\PSoC4/BLE.c ****                 cyBle_discoveryInfo.scanWindow = CYBLE_FAST_SCAN_WINDOW;
 994:Generated_Source\PSoC4/BLE.c ****             }
 995:Generated_Source\PSoC4/BLE.c ****             else if(scanningIntervalType == CYBLE_SCANNING_SLOW)
 996:Generated_Source\PSoC4/BLE.c ****             {
 997:Generated_Source\PSoC4/BLE.c ****                 cyBle_discoveryInfo.scanTo = CYBLE_SLOW_SCAN_TIMEOUT;
 998:Generated_Source\PSoC4/BLE.c ****                 cyBle_discoveryInfo.scanIntv = CYBLE_SLOW_SCAN_INTERVAL;
 999:Generated_Source\PSoC4/BLE.c ****                 cyBle_discoveryInfo.scanWindow = CYBLE_SLOW_SCAN_WINDOW;
1000:Generated_Source\PSoC4/BLE.c ****             }       
1001:Generated_Source\PSoC4/BLE.c ****             else /* Do not update scanning intervals */
1002:Generated_Source\PSoC4/BLE.c ****             {
1003:Generated_Source\PSoC4/BLE.c ****             }
1004:Generated_Source\PSoC4/BLE.c ****             
1005:Generated_Source\PSoC4/BLE.c ****             cyBle_scanningIntervalType = scanningIntervalType;
1006:Generated_Source\PSoC4/BLE.c ****             apiResult = CyBle_GapcStartDiscovery(&cyBle_discoveryInfo);
1007:Generated_Source\PSoC4/BLE.c ****         
1008:Generated_Source\PSoC4/BLE.c ****             if(apiResult == CYBLE_ERROR_OK)
1009:Generated_Source\PSoC4/BLE.c ****             {
1010:Generated_Source\PSoC4/BLE.c ****                 cyBle_eventHandlerFlag |= CYBLE_START_FLAG;
1011:Generated_Source\PSoC4/BLE.c ****             }
1012:Generated_Source\PSoC4/BLE.c ****         }
1013:Generated_Source\PSoC4/BLE.c ****        
1014:Generated_Source\PSoC4/BLE.c ****         return (apiResult);
1015:Generated_Source\PSoC4/BLE.c ****     }
1016:Generated_Source\PSoC4/BLE.c ****     
1017:Generated_Source\PSoC4/BLE.c ****     
1018:Generated_Source\PSoC4/BLE.c ****     /******************************************************************************
1019:Generated_Source\PSoC4/BLE.c ****     * Function Name: CyBle_GapcStopScan
1020:Generated_Source\PSoC4/BLE.c ****     ***************************************************************************//**
ARM GAS  C:\Users\ramanatg\AppData\Local\Temp\cciThAgf.s 			page 34


1021:Generated_Source\PSoC4/BLE.c ****     * 
1022:Generated_Source\PSoC4/BLE.c ****     *   This function used to stop the discovery of devices. On stopping discovery
1023:Generated_Source\PSoC4/BLE.c ****     *   operation, CYBLE_EVT_GAPC_SCAN_START_STOP event is generated. Application
1024:Generated_Source\PSoC4/BLE.c ****     *   layer needs to keep track of the function call made before receiving this
1025:Generated_Source\PSoC4/BLE.c ****     *   event to associate this event with either the start or stop discovery
1026:Generated_Source\PSoC4/BLE.c ****     *   function.
1027:Generated_Source\PSoC4/BLE.c ****     * 
1028:Generated_Source\PSoC4/BLE.c ****     *   Possible events generated are:
1029:Generated_Source\PSoC4/BLE.c ****     *    * CYBLE_EVT_GAPC_SCAN_START_STOP
1030:Generated_Source\PSoC4/BLE.c ****     * 
1031:Generated_Source\PSoC4/BLE.c ****     *  \return
1032:Generated_Source\PSoC4/BLE.c ****     *   None
1033:Generated_Source\PSoC4/BLE.c ****     * 
1034:Generated_Source\PSoC4/BLE.c ****     *******************************************************************************/
1035:Generated_Source\PSoC4/BLE.c ****     void CyBle_GapcStopScan(void)
1036:Generated_Source\PSoC4/BLE.c ****     {
1037:Generated_Source\PSoC4/BLE.c ****         CyBle_GapcStopDiscovery();
1038:Generated_Source\PSoC4/BLE.c ****         
1039:Generated_Source\PSoC4/BLE.c ****         cyBle_eventHandlerFlag |= CYBLE_STOP_FLAG;
1040:Generated_Source\PSoC4/BLE.c ****     }
1041:Generated_Source\PSoC4/BLE.c **** 
1042:Generated_Source\PSoC4/BLE.c ****     
1043:Generated_Source\PSoC4/BLE.c **** #endif /* CYBLE_GAP_ROLE_CENTRAL || CYBLE_GAP_ROLE_OBSERVER */
1044:Generated_Source\PSoC4/BLE.c **** 
1045:Generated_Source\PSoC4/BLE.c **** 
1046:Generated_Source\PSoC4/BLE.c **** #if(CYBLE_GAP_ROLE_CENTRAL)
1047:Generated_Source\PSoC4/BLE.c **** 
1048:Generated_Source\PSoC4/BLE.c ****     /******************************************************************************
1049:Generated_Source\PSoC4/BLE.c ****     * Function Name: CyBle_GapcConnectDevice
1050:Generated_Source\PSoC4/BLE.c ****     ***************************************************************************//**
1051:Generated_Source\PSoC4/BLE.c ****     * 
1052:Generated_Source\PSoC4/BLE.c ****     *  This function is used to send a connection request to the remote device with
1053:Generated_Source\PSoC4/BLE.c ****     *  the connection parameters set in the component customizer. This function needs
1054:Generated_Source\PSoC4/BLE.c ****     *  to be called only once after the target device is discovered by 
1055:Generated_Source\PSoC4/BLE.c ****     *  CyBle_GapcStartScan() and further scanning has stopped. Scanning is 
1056:Generated_Source\PSoC4/BLE.c ****     *  successfully stopped on invoking CyBle_GapcStopScan() and then receiving the
1057:Generated_Source\PSoC4/BLE.c ****     *  event CYBLE_EVT_GAPC_SCAN_START_STOP with sub-parameter 'success' = 0x01u.
1058:Generated_Source\PSoC4/BLE.c ****     *  
1059:Generated_Source\PSoC4/BLE.c ****     *  On successful connection, the following events are generated at the GAP 
1060:Generated_Source\PSoC4/BLE.c ****     *  Central device (as well as the GAP Peripheral device), in the following order.
1061:Generated_Source\PSoC4/BLE.c ****     *  * CYBLE_EVT_GATT_CONNECT_IND
1062:Generated_Source\PSoC4/BLE.c ****     *  * CYBLE_EVT_GAP_DEVICE_CONNECTED - If the device connects to a GAP Central and 
1063:Generated_Source\PSoC4/BLE.c ****     *    Link Layer Privacy is disabled in component customizer.
1064:Generated_Source\PSoC4/BLE.c ****     *  * CYBLE_EVT_GAP_ENHANCE_CONN_COMPLETE - If the device connects to a GAP Central and 
1065:Generated_Source\PSoC4/BLE.c ****     *    Link Layer Privacy is enabled in component customizer.
1066:Generated_Source\PSoC4/BLE.c ****     *  * CYBLE_EVT_GAP_DEVICE_CONNECTED
1067:Generated_Source\PSoC4/BLE.c ****     *  
1068:Generated_Source\PSoC4/BLE.c ****     *  A procedure is considered to have timed out if a connection response packet is 
1069:Generated_Source\PSoC4/BLE.c ****     *  not received within time set by cyBle_connectingTimeout global variable
1070:Generated_Source\PSoC4/BLE.c ****     *  (30 seconds by default). CYBLE_EVT_TIMEOUT event with CYBLE_GENERIC_TO parameter
1071:Generated_Source\PSoC4/BLE.c ****     *  will indicate about connection procedure timeout. Connection will automatically
1072:Generated_Source\PSoC4/BLE.c ****     *  be canceled and state will be changed to CYBLE_STATE_DISCONNECTED.
1073:Generated_Source\PSoC4/BLE.c ****     * 
1074:Generated_Source\PSoC4/BLE.c ****     *  \param address: The device address of the remote device to connect to. 
1075:Generated_Source\PSoC4/BLE.c ****     *  
1076:Generated_Source\PSoC4/BLE.c ****     * \return
1077:Generated_Source\PSoC4/BLE.c ****     *  CYBLE_API_RESULT_T : Return value indicates if the function succeeded or 
ARM GAS  C:\Users\ramanatg\AppData\Local\Temp\cciThAgf.s 			page 35


1078:Generated_Source\PSoC4/BLE.c ****     *  failed. Following are the possible error codes.
1079:Generated_Source\PSoC4/BLE.c ****     *
1080:Generated_Source\PSoC4/BLE.c ****     *   Errors codes                       | Description
1081:Generated_Source\PSoC4/BLE.c ****     *   ------------                       | -----------
1082:Generated_Source\PSoC4/BLE.c ****     *   CYBLE_ERROR_OK                     | On successful operation.
1083:Generated_Source\PSoC4/BLE.c ****     *   CYBLE_ERROR_STACK_INTERNAL         | On error occurred in the BLE stack.
1084:Generated_Source\PSoC4/BLE.c ****     *   CYBLE_ERROR_INVALID_PARAMETER      | On passing an invalid parameter.
1085:Generated_Source\PSoC4/BLE.c ****     *   CYBLE_ERROR_INVALID_STATE          | On calling this API not in Disconnected state.
1086:Generated_Source\PSoC4/BLE.c ****     *  
1087:Generated_Source\PSoC4/BLE.c ****     ******************************************************************************/
1088:Generated_Source\PSoC4/BLE.c ****     CYBLE_API_RESULT_T CyBle_GapcConnectDevice(const CYBLE_GAP_BD_ADDR_T * address)
1089:Generated_Source\PSoC4/BLE.c ****     {
1090:Generated_Source\PSoC4/BLE.c ****         CYBLE_API_RESULT_T apiResult;
1091:Generated_Source\PSoC4/BLE.c ****         uint8 i;
1092:Generated_Source\PSoC4/BLE.c **** 
1093:Generated_Source\PSoC4/BLE.c ****         if(CyBle_GetState() != CYBLE_STATE_DISCONNECTED)
1094:Generated_Source\PSoC4/BLE.c ****         {
1095:Generated_Source\PSoC4/BLE.c ****             apiResult = CYBLE_ERROR_INVALID_STATE;
1096:Generated_Source\PSoC4/BLE.c ****         }
1097:Generated_Source\PSoC4/BLE.c ****         else if(address == NULL)
1098:Generated_Source\PSoC4/BLE.c ****         {
1099:Generated_Source\PSoC4/BLE.c ****             apiResult = CYBLE_ERROR_INVALID_PARAMETER;
1100:Generated_Source\PSoC4/BLE.c ****         }
1101:Generated_Source\PSoC4/BLE.c ****         else
1102:Generated_Source\PSoC4/BLE.c ****         {
1103:Generated_Source\PSoC4/BLE.c ****             for(i = 0u; i < CYBLE_GAP_BD_ADDR_SIZE; i++)
1104:Generated_Source\PSoC4/BLE.c ****             {
1105:Generated_Source\PSoC4/BLE.c ****                 cyBle_connectionParameters.peerBdAddr[i] = address->bdAddr[i];
1106:Generated_Source\PSoC4/BLE.c ****             }
1107:Generated_Source\PSoC4/BLE.c ****             cyBle_connectionParameters.peerAddrType = address -> type;
1108:Generated_Source\PSoC4/BLE.c ****             apiResult = CyBle_GapcInitConnection(&cyBle_connectionParameters);
1109:Generated_Source\PSoC4/BLE.c ****             
1110:Generated_Source\PSoC4/BLE.c ****             if(apiResult == CYBLE_ERROR_OK)
1111:Generated_Source\PSoC4/BLE.c ****             {
1112:Generated_Source\PSoC4/BLE.c ****                 CyBle_SetState(CYBLE_STATE_CONNECTING);
1113:Generated_Source\PSoC4/BLE.c ****                 if(cyBle_connectingTimeout != 0u)
1114:Generated_Source\PSoC4/BLE.c ****                 {
1115:Generated_Source\PSoC4/BLE.c ****                     (void)CyBle_StartTimer(cyBle_connectingTimeout);
1116:Generated_Source\PSoC4/BLE.c ****                 }
1117:Generated_Source\PSoC4/BLE.c ****             }
1118:Generated_Source\PSoC4/BLE.c ****         }
1119:Generated_Source\PSoC4/BLE.c ****         return (apiResult);
1120:Generated_Source\PSoC4/BLE.c ****     }
1121:Generated_Source\PSoC4/BLE.c ****     
1122:Generated_Source\PSoC4/BLE.c **** 
1123:Generated_Source\PSoC4/BLE.c ****     /******************************************************************************
1124:Generated_Source\PSoC4/BLE.c ****     * Function Name: CyBle_GapcCancelDeviceConnection
1125:Generated_Source\PSoC4/BLE.c ****     ***************************************************************************//**
1126:Generated_Source\PSoC4/BLE.c ****     * 
1127:Generated_Source\PSoC4/BLE.c ****     *  This function cancels a previously initiated connection with the remote 
1128:Generated_Source\PSoC4/BLE.c ****     *  device. It is a blocking function. No event is generated on calling this 
1129:Generated_Source\PSoC4/BLE.c ****     *  function. If the devices are already connected then this function should not
1130:Generated_Source\PSoC4/BLE.c ****     *  be used. If you intend to disconnect from an existing connection, the function
1131:Generated_Source\PSoC4/BLE.c ****     *  CyBle_GapDisconnect() should be used.
1132:Generated_Source\PSoC4/BLE.c ****     * 
1133:Generated_Source\PSoC4/BLE.c ****     * \return
1134:Generated_Source\PSoC4/BLE.c ****     *  CYBLE_API_RESULT_T : Return value indicates if the function succeeded or 
ARM GAS  C:\Users\ramanatg\AppData\Local\Temp\cciThAgf.s 			page 36


1135:Generated_Source\PSoC4/BLE.c ****     *  failed. Following are the possible error codes.
1136:Generated_Source\PSoC4/BLE.c ****     *
1137:Generated_Source\PSoC4/BLE.c ****     *   Errors codes                       | Description
1138:Generated_Source\PSoC4/BLE.c ****     *   ---------------------------------- | --------------------------------------
1139:Generated_Source\PSoC4/BLE.c ****     *   CYBLE_ERROR_OK                     | On successful operation.
1140:Generated_Source\PSoC4/BLE.c ****     *   CYBLE_ERROR_STACK_INTERNAL         | An error occurred in the BLE stack.
1141:Generated_Source\PSoC4/BLE.c ****     *   CYBLE_ERROR_INVALID_STATE          | On calling this API not in Connecting state.
1142:Generated_Source\PSoC4/BLE.c ****     *  
1143:Generated_Source\PSoC4/BLE.c ****     *******************************************************************************/
1144:Generated_Source\PSoC4/BLE.c ****     CYBLE_API_RESULT_T CyBle_GapcCancelDeviceConnection(void)
1145:Generated_Source\PSoC4/BLE.c ****     {
1146:Generated_Source\PSoC4/BLE.c ****         CYBLE_API_RESULT_T apiResult;
1147:Generated_Source\PSoC4/BLE.c ****         
1148:Generated_Source\PSoC4/BLE.c ****         if(CyBle_GetState() != CYBLE_STATE_CONNECTING)
1149:Generated_Source\PSoC4/BLE.c ****         {
1150:Generated_Source\PSoC4/BLE.c ****             apiResult = CYBLE_ERROR_INVALID_STATE;
1151:Generated_Source\PSoC4/BLE.c ****         }
1152:Generated_Source\PSoC4/BLE.c ****         else 
1153:Generated_Source\PSoC4/BLE.c ****         {
1154:Generated_Source\PSoC4/BLE.c ****             apiResult = CyBle_GapcCancelConnection();
1155:Generated_Source\PSoC4/BLE.c ****             
1156:Generated_Source\PSoC4/BLE.c ****             if(cyBle_connectingTimeout != 0u)
1157:Generated_Source\PSoC4/BLE.c ****             {
1158:Generated_Source\PSoC4/BLE.c ****                 (void)CyBle_StopTimer();
1159:Generated_Source\PSoC4/BLE.c ****             }
1160:Generated_Source\PSoC4/BLE.c **** 
1161:Generated_Source\PSoC4/BLE.c ****             if(apiResult == CYBLE_ERROR_OK)
1162:Generated_Source\PSoC4/BLE.c ****             {
1163:Generated_Source\PSoC4/BLE.c ****                 CyBle_SetState(CYBLE_STATE_DISCONNECTED);
1164:Generated_Source\PSoC4/BLE.c ****             }
1165:Generated_Source\PSoC4/BLE.c ****         }
1166:Generated_Source\PSoC4/BLE.c ****         return (apiResult);
1167:Generated_Source\PSoC4/BLE.c ****     }    
1168:Generated_Source\PSoC4/BLE.c **** 
1169:Generated_Source\PSoC4/BLE.c ****     
1170:Generated_Source\PSoC4/BLE.c **** #endif /* CYBLE_GAP_ROLE_CENTRAL */
1171:Generated_Source\PSoC4/BLE.c **** 
1172:Generated_Source\PSoC4/BLE.c **** 
1173:Generated_Source\PSoC4/BLE.c **** #if(CYBLE_GATT_ROLE_SERVER)
1174:Generated_Source\PSoC4/BLE.c **** 
1175:Generated_Source\PSoC4/BLE.c **** #if(CYBLE_GAP_ROLE_PERIPHERAL)
1176:Generated_Source\PSoC4/BLE.c **** 
1177:Generated_Source\PSoC4/BLE.c ****         /******************************************************************************
1178:Generated_Source\PSoC4/BLE.c ****         * Function Name: CyBle_ChangeAdLocalName
1179:Generated_Source\PSoC4/BLE.c ****         ***************************************************************************//**
1180:Generated_Source\PSoC4/BLE.c ****         *  This API is used to set the local device name in the advertisement or scan 
1181:Generated_Source\PSoC4/BLE.c ****         *  response data structure.
1182:Generated_Source\PSoC4/BLE.c ****         * 
1183:Generated_Source\PSoC4/BLE.c ****         *  \param name: The local device name string to be set in advertisement data 
1184:Generated_Source\PSoC4/BLE.c ****         *            structure.
1185:Generated_Source\PSoC4/BLE.c ****         *  \param dest: 0 - advertisement structure, not zero value selects scan response
1186:Generated_Source\PSoC4/BLE.c ****         *              structure.
1187:Generated_Source\PSoC4/BLE.c ****         * 
1188:Generated_Source\PSoC4/BLE.c ****         * \return
1189:Generated_Source\PSoC4/BLE.c ****         *  None
1190:Generated_Source\PSoC4/BLE.c ****         *  
1191:Generated_Source\PSoC4/BLE.c ****         *******************************************************************************/
ARM GAS  C:\Users\ramanatg\AppData\Local\Temp\cciThAgf.s 			page 37


1192:Generated_Source\PSoC4/BLE.c ****         static void CyBle_ChangeAdLocalName(const char8 name[], uint8 dest)
1193:Generated_Source\PSoC4/BLE.c ****         {
1194:Generated_Source\PSoC4/BLE.c ****             uint8 i;
1195:Generated_Source\PSoC4/BLE.c ****             uint8 flag = 0u;
1196:Generated_Source\PSoC4/BLE.c ****             uint8 adLength = 0u;
1197:Generated_Source\PSoC4/BLE.c ****             uint8 byteCounter = 0u;
1198:Generated_Source\PSoC4/BLE.c ****             uint8 *destBuffer;
1199:Generated_Source\PSoC4/BLE.c ****             uint8 maxLength;
1200:Generated_Source\PSoC4/BLE.c ****             
1201:Generated_Source\PSoC4/BLE.c ****             if(dest == 0u)      /* Destination - advertising structure */
1202:Generated_Source\PSoC4/BLE.c ****             {
1203:Generated_Source\PSoC4/BLE.c ****                 destBuffer = cyBle_discoveryData.advData;
1204:Generated_Source\PSoC4/BLE.c ****                 maxLength = cyBle_discoveryData.advDataLen;
1205:Generated_Source\PSoC4/BLE.c ****             }
1206:Generated_Source\PSoC4/BLE.c ****             else                /* Destination - scan response structure */
1207:Generated_Source\PSoC4/BLE.c ****             {
1208:Generated_Source\PSoC4/BLE.c ****                 destBuffer = cyBle_scanRspData.scanRspData;
1209:Generated_Source\PSoC4/BLE.c ****                 maxLength = cyBle_scanRspData.scanRspDataLen;
1210:Generated_Source\PSoC4/BLE.c ****             }
1211:Generated_Source\PSoC4/BLE.c ****             
1212:Generated_Source\PSoC4/BLE.c ****             while((byteCounter < maxLength) && (flag == 0u))
1213:Generated_Source\PSoC4/BLE.c ****             {
1214:Generated_Source\PSoC4/BLE.c ****                 adLength = destBuffer[byteCounter];
1215:Generated_Source\PSoC4/BLE.c ****                 
1216:Generated_Source\PSoC4/BLE.c ****                 if(0u != adLength)
1217:Generated_Source\PSoC4/BLE.c ****                 {
1218:Generated_Source\PSoC4/BLE.c ****                     /* Increment byte counter so it can point to AD type */
1219:Generated_Source\PSoC4/BLE.c ****                     byteCounter++;
1220:Generated_Source\PSoC4/BLE.c ****                     
1221:Generated_Source\PSoC4/BLE.c ****                     if((destBuffer[byteCounter] == CYBLE_SHORT_LOCAL_NAME) || 
1222:Generated_Source\PSoC4/BLE.c ****                        (destBuffer[byteCounter] == CYBLE_COMPLETE_LOCAL_NAME))
1223:Generated_Source\PSoC4/BLE.c ****                     {
1224:Generated_Source\PSoC4/BLE.c ****                         /* Start of the Local Name AD type was fount. Set flag and exit the loop. *
1225:Generated_Source\PSoC4/BLE.c ****                         flag = 1u;
1226:Generated_Source\PSoC4/BLE.c ****                     }
1227:Generated_Source\PSoC4/BLE.c ****                     else
1228:Generated_Source\PSoC4/BLE.c ****                     {
1229:Generated_Source\PSoC4/BLE.c ****                         byteCounter += adLength;
1230:Generated_Source\PSoC4/BLE.c ****                     }
1231:Generated_Source\PSoC4/BLE.c ****                 }
1232:Generated_Source\PSoC4/BLE.c ****                 else
1233:Generated_Source\PSoC4/BLE.c ****                 {
1234:Generated_Source\PSoC4/BLE.c ****                     /* The end of advertisement data structure was encountered though exit the loop
1235:Generated_Source\PSoC4/BLE.c ****                     break;
1236:Generated_Source\PSoC4/BLE.c ****                 }
1237:Generated_Source\PSoC4/BLE.c ****             }
1238:Generated_Source\PSoC4/BLE.c ****             
1239:Generated_Source\PSoC4/BLE.c ****             if(0u != flag)
1240:Generated_Source\PSoC4/BLE.c ****             {
1241:Generated_Source\PSoC4/BLE.c ****                 /* Reuse "adLength" to hold location of the last character of local name in 
1242:Generated_Source\PSoC4/BLE.c ****                    AD structure. */
1243:Generated_Source\PSoC4/BLE.c ****                 adLength += byteCounter;
1244:Generated_Source\PSoC4/BLE.c ****                 
1245:Generated_Source\PSoC4/BLE.c ****                 /* Increment byte counter to point to start of the local Name string */
1246:Generated_Source\PSoC4/BLE.c ****                 byteCounter++;
1247:Generated_Source\PSoC4/BLE.c ****                 
1248:Generated_Source\PSoC4/BLE.c ****                 for(i = byteCounter; ((i < (adLength)) && (CYBLE_NULL_CHARCTER != name[i - byteCoun
ARM GAS  C:\Users\ramanatg\AppData\Local\Temp\cciThAgf.s 			page 38


1249:Generated_Source\PSoC4/BLE.c ****                 {
1250:Generated_Source\PSoC4/BLE.c ****                     destBuffer[i] = (uint8)name[i - byteCounter];
1251:Generated_Source\PSoC4/BLE.c ****                 }
1252:Generated_Source\PSoC4/BLE.c ****                 
1253:Generated_Source\PSoC4/BLE.c ****                 /* This loop handles the case when new local name is shorted than old one.
1254:Generated_Source\PSoC4/BLE.c ****                    In this case all remaining characters should be null characters. */
1255:Generated_Source\PSoC4/BLE.c ****                 while(adLength > i)
1256:Generated_Source\PSoC4/BLE.c ****                 {
1257:Generated_Source\PSoC4/BLE.c ****                     /* Terminate string */
1258:Generated_Source\PSoC4/BLE.c ****                     destBuffer[i] = (uint8)CYBLE_NULL_CHARCTER;
1259:Generated_Source\PSoC4/BLE.c ****                     i++;
1260:Generated_Source\PSoC4/BLE.c ****                 }
1261:Generated_Source\PSoC4/BLE.c ****             }
1262:Generated_Source\PSoC4/BLE.c ****         }
1263:Generated_Source\PSoC4/BLE.c ****         
1264:Generated_Source\PSoC4/BLE.c **** #endif /* (CYBLE_GAP_ROLE_PERIPHERAL) */  
1265:Generated_Source\PSoC4/BLE.c ****     
1266:Generated_Source\PSoC4/BLE.c ****     
1267:Generated_Source\PSoC4/BLE.c ****     /******************************************************************************
1268:Generated_Source\PSoC4/BLE.c ****     * Function Name: CyBle_GapSetLocalName
1269:Generated_Source\PSoC4/BLE.c ****     ***************************************************************************//**
1270:Generated_Source\PSoC4/BLE.c ****     *  This API is used to set the local device name - a Characteristic of the 
1271:Generated_Source\PSoC4/BLE.c ****     *  GAP Service. If the characteristic length entered in the component customizer
1272:Generated_Source\PSoC4/BLE.c ****     *  is shorter than the string specified by the "name" parameter, the local device
1273:Generated_Source\PSoC4/BLE.c ****     *  name will be cut to the length specified in the customizer.
1274:Generated_Source\PSoC4/BLE.c ****     * 
1275:Generated_Source\PSoC4/BLE.c ****     *  \param name: The local device name string. The name string to be written as
1276:Generated_Source\PSoC4/BLE.c ****     *              the local device name. It represents a UTF-8 encoded User
1277:Generated_Source\PSoC4/BLE.c ****     *              Friendly Descriptive Name for the device. The length of the local
1278:Generated_Source\PSoC4/BLE.c ****     *              device string is entered into the component customizer and it can
1279:Generated_Source\PSoC4/BLE.c ****     *              be set to a value from 0 to 248 bytes. If the name contained in
1280:Generated_Source\PSoC4/BLE.c ****     *              the parameter is shorter than the length from the customizer, the
1281:Generated_Source\PSoC4/BLE.c ****     *              end of the name is indicated by a NULL octet (0x00).
1282:Generated_Source\PSoC4/BLE.c ****     * 
1283:Generated_Source\PSoC4/BLE.c ****     * \return
1284:Generated_Source\PSoC4/BLE.c ****     *  CYBLE_API_RESULT_T : Return value indicates if the function succeeded or 
1285:Generated_Source\PSoC4/BLE.c ****     *  failed. Following are the possible error codes.
1286:Generated_Source\PSoC4/BLE.c ****     *
1287:Generated_Source\PSoC4/BLE.c ****     *   Errors codes                       | Description
1288:Generated_Source\PSoC4/BLE.c ****     *   ------------                       | -----------
1289:Generated_Source\PSoC4/BLE.c ****     *   CYBLE_ERROR_OK                     | Function completed successfully.
1290:Generated_Source\PSoC4/BLE.c ****     *   CYBLE_ERROR_INVALID_PARAMETER      | On specifying NULL as input parameter
1291:Generated_Source\PSoC4/BLE.c ****     *  
1292:Generated_Source\PSoC4/BLE.c ****     *******************************************************************************/
1293:Generated_Source\PSoC4/BLE.c ****     CYBLE_API_RESULT_T CyBle_GapSetLocalName(const char8 name[])
1294:Generated_Source\PSoC4/BLE.c ****     {
 773              		.loc 1 1294 0
 774              		.cfi_startproc
 775              	.LVL48:
 776 0000 70B5     		push	{r4, r5, r6, lr}
 777              		.cfi_def_cfa_offset 16
 778              		.cfi_offset 4, -16
 779              		.cfi_offset 5, -12
 780              		.cfi_offset 6, -8
 781              		.cfi_offset 14, -4
1295:Generated_Source\PSoC4/BLE.c ****         CYBLE_API_RESULT_T apiResult = CYBLE_ERROR_OK;
1296:Generated_Source\PSoC4/BLE.c ****         uint8 i;
ARM GAS  C:\Users\ramanatg\AppData\Local\Temp\cciThAgf.s 			page 39


1297:Generated_Source\PSoC4/BLE.c ****         char8 *ptr;
1298:Generated_Source\PSoC4/BLE.c ****         uint8 charLen;
1299:Generated_Source\PSoC4/BLE.c **** 
1300:Generated_Source\PSoC4/BLE.c ****         if(NULL != name)
 782              		.loc 1 1300 0
 783 0002 0028     		cmp	r0, #0
 784 0004 00D1     		bne	.LCB682
 785 0006 91E0     		b	.L105	@long jump
 786              	.LCB682:
1301:Generated_Source\PSoC4/BLE.c ****         {
1302:Generated_Source\PSoC4/BLE.c ****             /* Get the pointer to the Device Name characteristic  */
1303:Generated_Source\PSoC4/BLE.c ****             ptr = (char8 *) CYBLE_GATT_DB_ATTR_GET_ATTR_GEN_PTR(cyBle_gaps.deviceNameCharHandle);
 787              		.loc 1 1303 0
 788 0008 494B     		ldr	r3, .L133
 789 000a 5B88     		ldrh	r3, [r3, #2]
 790 000c 013B     		sub	r3, r3, #1
 791 000e 9A00     		lsl	r2, r3, #2
 792 0010 D318     		add	r3, r2, r3
 793 0012 484A     		ldr	r2, .L133+4
 794 0014 9B00     		lsl	r3, r3, #2
 795 0016 D318     		add	r3, r2, r3
 796 0018 1A69     		ldr	r2, [r3, #16]
1304:Generated_Source\PSoC4/BLE.c **** 
1305:Generated_Source\PSoC4/BLE.c ****             /* First need to get the maximum length of the characteristic data in the GATT
1306:Generated_Source\PSoC4/BLE.c ****                 database to make sure there is enough place for the data. The length
1307:Generated_Source\PSoC4/BLE.c ****                 can't be longer than 248, so only the LSB of 16 bit of length is to
1308:Generated_Source\PSoC4/BLE.c ****                 be used. */
1309:Generated_Source\PSoC4/BLE.c ****             charLen = (uint8)CYBLE_GATT_DB_ATTR_GET_ATTR_GEN_MAX_LEN(cyBle_gaps.deviceNameCharHandl
 797              		.loc 1 1309 0
 798 001a 197B     		ldrb	r1, [r3, #12]
1303:Generated_Source\PSoC4/BLE.c **** 
 799              		.loc 1 1303 0
 800 001c 5468     		ldr	r4, [r2, #4]
 801              	.LVL49:
1310:Generated_Source\PSoC4/BLE.c **** 
1311:Generated_Source\PSoC4/BLE.c ****             /* Copy name into characteristic */
1312:Generated_Source\PSoC4/BLE.c ****             for(i = 0u; ((i < charLen) && (CYBLE_NULL_CHARCTER != name[i])); i++)
 802              		.loc 1 1312 0
 803 001e 0029     		cmp	r1, #0
 804 0020 0ED0     		beq	.L100
 805 0022 0278     		ldrb	r2, [r0]
 806 0024 002A     		cmp	r2, #0
 807 0026 00D1     		bne	.LCB702
 808 0028 6BE0     		b	.L106	@long jump
 809              	.LCB702:
 810 002a 0139     		sub	r1, r1, #1
 811              	.LVL50:
 812 002c C9B2     		uxtb	r1, r1
 813              	.LVL51:
 814 002e 0023     		mov	r3, #0
 815              	.LVL52:
 816 0030 03E0     		b	.L78
 817              	.LVL53:
 818              	.L128:
 819 0032 0133     		add	r3, r3, #1
 820              	.LVL54:
 821              		.loc 1 1312 0 is_stmt 0 discriminator 3
ARM GAS  C:\Users\ramanatg\AppData\Local\Temp\cciThAgf.s 			page 40


 822 0034 C25C     		ldrb	r2, [r0, r3]
 823 0036 002A     		cmp	r2, #0
 824 0038 64D0     		beq	.L77
 825              	.L78:
 826              	.LVL55:
1313:Generated_Source\PSoC4/BLE.c ****             {
1314:Generated_Source\PSoC4/BLE.c ****                 ptr[i] = name[i];
 827              		.loc 1 1314 0 is_stmt 1 discriminator 4
 828 003a E254     		strb	r2, [r4, r3]
 829              	.LVL56:
1312:Generated_Source\PSoC4/BLE.c ****             {
 830              		.loc 1 1312 0 discriminator 4
 831 003c 8B42     		cmp	r3, r1
 832 003e F8D1     		bne	.L128
 833              	.LVL57:
 834              	.L100:
 835              	.LBB26:
 836              	.LBB27:
1204:Generated_Source\PSoC4/BLE.c ****             }
 837              		.loc 1 1204 0
 838 0040 3323     		mov	r3, #51
 839 0042 3D4A     		ldr	r2, .L133+8
 840 0044 D65C     		ldrb	r6, [r2, r3]
 841              	.LVL58:
1212:Generated_Source\PSoC4/BLE.c ****             {
 842              		.loc 1 1212 0
 843 0046 002E     		cmp	r6, #0
 844 0048 29D0     		beq	.L80
1214:Generated_Source\PSoC4/BLE.c ****                 
 845              		.loc 1 1214 0
 846 004a 147D     		ldrb	r4, [r2, #20]
 847              	.LVL59:
1216:Generated_Source\PSoC4/BLE.c ****                 {
 848              		.loc 1 1216 0
 849 004c 0023     		mov	r3, #0
1221:Generated_Source\PSoC4/BLE.c ****                        (destBuffer[byteCounter] == CYBLE_COMPLETE_LOCAL_NAME))
 850              		.loc 1 1221 0
 851 004e 151C     		mov	r5, r2
1216:Generated_Source\PSoC4/BLE.c ****                 {
 852              		.loc 1 1216 0
 853 0050 002C     		cmp	r4, #0
 854 0052 08D1     		bne	.L114
 855 0054 23E0     		b	.L80
 856              	.LVL60:
 857              	.L129:
1229:Generated_Source\PSoC4/BLE.c ****                     }
 858              		.loc 1 1229 0
 859 0056 E318     		add	r3, r4, r3
 860              	.LVL61:
 861 0058 DBB2     		uxtb	r3, r3
 862              	.LVL62:
1212:Generated_Source\PSoC4/BLE.c ****             {
 863              		.loc 1 1212 0
 864 005a 9E42     		cmp	r6, r3
 865 005c 1FD9     		bls	.L80
1214:Generated_Source\PSoC4/BLE.c ****                 
 866              		.loc 1 1214 0
ARM GAS  C:\Users\ramanatg\AppData\Local\Temp\cciThAgf.s 			page 41


 867 005e E918     		add	r1, r5, r3
 868              	.LVL63:
 869 0060 0C7D     		ldrb	r4, [r1, #20]
 870              	.LVL64:
1216:Generated_Source\PSoC4/BLE.c ****                 {
 871              		.loc 1 1216 0
 872 0062 002C     		cmp	r4, #0
 873 0064 1BD0     		beq	.L80
 874              	.LVL65:
 875              	.L114:
1219:Generated_Source\PSoC4/BLE.c ****                     
 876              		.loc 1 1219 0
 877 0066 0133     		add	r3, r3, #1
 878              	.LVL66:
 879 0068 DBB2     		uxtb	r3, r3
 880              	.LVL67:
1221:Generated_Source\PSoC4/BLE.c ****                        (destBuffer[byteCounter] == CYBLE_COMPLETE_LOCAL_NAME))
 881              		.loc 1 1221 0
 882 006a D118     		add	r1, r2, r3
 883 006c 097D     		ldrb	r1, [r1, #20]
 884 006e 0839     		sub	r1, r1, #8
 885 0070 0129     		cmp	r1, #1
 886 0072 F0D8     		bhi	.L129
 887              	.LVL68:
1243:Generated_Source\PSoC4/BLE.c ****                 
 888              		.loc 1 1243 0
 889 0074 E418     		add	r4, r4, r3
 890              	.LVL69:
1246:Generated_Source\PSoC4/BLE.c ****                 
 891              		.loc 1 1246 0
 892 0076 0133     		add	r3, r3, #1
 893              	.LVL70:
1243:Generated_Source\PSoC4/BLE.c ****                 
 894              		.loc 1 1243 0
 895 0078 E4B2     		uxtb	r4, r4
 896              	.LVL71:
1246:Generated_Source\PSoC4/BLE.c ****                 
 897              		.loc 1 1246 0
 898 007a DBB2     		uxtb	r3, r3
 899              	.LVL72:
1248:Generated_Source\PSoC4/BLE.c ****                 {
 900              		.loc 1 1248 0
 901 007c 9C42     		cmp	r4, r3
 902 007e 0ED9     		bls	.L80
 903 0080 0178     		ldrb	r1, [r0]
 904 0082 1E1C     		mov	r6, r3
 905              	.LVL73:
 906 0084 0029     		cmp	r1, #0
 907 0086 04D1     		bne	.L88
 908 0088 48E0     		b	.L87
 909              	.LVL74:
 910              	.L130:
 911 008a 991B     		sub	r1, r3, r6
 912 008c 415C     		ldrb	r1, [r0, r1]
 913 008e 0029     		cmp	r1, #0
 914 0090 44D0     		beq	.L87
 915              	.L88:
ARM GAS  C:\Users\ramanatg\AppData\Local\Temp\cciThAgf.s 			page 42


1250:Generated_Source\PSoC4/BLE.c ****                 }
 916              		.loc 1 1250 0
 917 0092 D518     		add	r5, r2, r3
1248:Generated_Source\PSoC4/BLE.c ****                 {
 918              		.loc 1 1248 0
 919 0094 0133     		add	r3, r3, #1
 920              	.LVL75:
 921 0096 DBB2     		uxtb	r3, r3
 922              	.LVL76:
1250:Generated_Source\PSoC4/BLE.c ****                 }
 923              		.loc 1 1250 0
 924 0098 2975     		strb	r1, [r5, #20]
1248:Generated_Source\PSoC4/BLE.c ****                 {
 925              		.loc 1 1248 0
 926 009a 9C42     		cmp	r4, r3
 927 009c F5D8     		bhi	.L130
 928              	.LVL77:
 929              	.L80:
 930              	.LBE27:
 931              	.LBE26:
 932              	.LBB29:
 933              	.LBB30:
1209:Generated_Source\PSoC4/BLE.c ****             }
 934              		.loc 1 1209 0
 935 009e 131C     		mov	r3, r2
 936 00a0 3433     		add	r3, r3, #52
 937 00a2 DE7F     		ldrb	r6, [r3, #31]
 938              	.LVL78:
1212:Generated_Source\PSoC4/BLE.c ****             {
 939              		.loc 1 1212 0
 940 00a4 002E     		cmp	r6, #0
 941 00a6 2AD0     		beq	.L96
1214:Generated_Source\PSoC4/BLE.c ****                 
 942              		.loc 1 1214 0
 943 00a8 3423     		mov	r3, #52
 944 00aa D45C     		ldrb	r4, [r2, r3]
 945              	.LVL79:
1216:Generated_Source\PSoC4/BLE.c ****                 {
 946              		.loc 1 1216 0
 947 00ac 0023     		mov	r3, #0
 948 00ae 002C     		cmp	r4, #0
 949 00b0 07D1     		bne	.L113
 950 00b2 24E0     		b	.L96
 951              	.LVL80:
 952              	.L131:
1229:Generated_Source\PSoC4/BLE.c ****                     }
 953              		.loc 1 1229 0
 954 00b4 E318     		add	r3, r4, r3
 955              	.LVL81:
 956 00b6 DBB2     		uxtb	r3, r3
 957              	.LVL82:
1212:Generated_Source\PSoC4/BLE.c ****             {
 958              		.loc 1 1212 0
 959 00b8 9E42     		cmp	r6, r3
 960 00ba 20D9     		bls	.L96
 961              	.LVL83:
1214:Generated_Source\PSoC4/BLE.c ****                 
ARM GAS  C:\Users\ramanatg\AppData\Local\Temp\cciThAgf.s 			page 43


 962              		.loc 1 1214 0
 963 00bc EC5C     		ldrb	r4, [r5, r3]
 964              	.LVL84:
1216:Generated_Source\PSoC4/BLE.c ****                 {
 965              		.loc 1 1216 0
 966 00be 002C     		cmp	r4, #0
 967 00c0 1DD0     		beq	.L96
 968              	.LVL85:
 969              	.L113:
1221:Generated_Source\PSoC4/BLE.c ****                        (destBuffer[byteCounter] == CYBLE_COMPLETE_LOCAL_NAME))
 970              		.loc 1 1221 0
 971 00c2 151C     		mov	r5, r2
1219:Generated_Source\PSoC4/BLE.c ****                     
 972              		.loc 1 1219 0
 973 00c4 0133     		add	r3, r3, #1
 974              	.LVL86:
 975 00c6 DBB2     		uxtb	r3, r3
 976              	.LVL87:
1221:Generated_Source\PSoC4/BLE.c ****                        (destBuffer[byteCounter] == CYBLE_COMPLETE_LOCAL_NAME))
 977              		.loc 1 1221 0
 978 00c8 3435     		add	r5, r5, #52
 979 00ca E95C     		ldrb	r1, [r5, r3]
 980 00cc 0839     		sub	r1, r1, #8
 981 00ce 0129     		cmp	r1, #1
 982 00d0 F0D8     		bhi	.L131
 983              	.LVL88:
1243:Generated_Source\PSoC4/BLE.c ****                 
 984              		.loc 1 1243 0
 985 00d2 1C19     		add	r4, r3, r4
 986              	.LVL89:
1246:Generated_Source\PSoC4/BLE.c ****                 
 987              		.loc 1 1246 0
 988 00d4 0133     		add	r3, r3, #1
 989              	.LVL90:
1243:Generated_Source\PSoC4/BLE.c ****                 
 990              		.loc 1 1243 0
 991 00d6 E4B2     		uxtb	r4, r4
 992              	.LVL91:
1246:Generated_Source\PSoC4/BLE.c ****                 
 993              		.loc 1 1246 0
 994 00d8 DBB2     		uxtb	r3, r3
 995              	.LVL92:
1248:Generated_Source\PSoC4/BLE.c ****                 {
 996              		.loc 1 1248 0
 997 00da 9C42     		cmp	r4, r3
 998 00dc 0FD9     		bls	.L96
 999 00de 0178     		ldrb	r1, [r0]
 1000 00e0 1E1C     		mov	r6, r3
 1001              	.LVL93:
 1002 00e2 0029     		cmp	r1, #0
 1003 00e4 04D1     		bne	.L98
 1004 00e6 10E0     		b	.L97
 1005              	.LVL94:
 1006              	.L132:
 1007 00e8 991B     		sub	r1, r3, r6
 1008 00ea 415C     		ldrb	r1, [r0, r1]
 1009 00ec 0029     		cmp	r1, #0
ARM GAS  C:\Users\ramanatg\AppData\Local\Temp\cciThAgf.s 			page 44


 1010 00ee 0CD0     		beq	.L97
 1011              	.L98:
1250:Generated_Source\PSoC4/BLE.c ****                 }
 1012              		.loc 1 1250 0
 1013 00f0 151C     		mov	r5, r2
 1014 00f2 3435     		add	r5, r5, #52
 1015 00f4 E954     		strb	r1, [r5, r3]
1248:Generated_Source\PSoC4/BLE.c ****                 {
 1016              		.loc 1 1248 0
 1017 00f6 0133     		add	r3, r3, #1
 1018              	.LVL95:
 1019 00f8 DBB2     		uxtb	r3, r3
 1020              	.LVL96:
 1021 00fa 9C42     		cmp	r4, r3
 1022 00fc F4D8     		bhi	.L132
 1023              	.LVL97:
 1024              	.L96:
 1025              	.LBE30:
 1026              	.LBE29:
1295:Generated_Source\PSoC4/BLE.c ****         uint8 i;
 1027              		.loc 1 1295 0
 1028 00fe 0020     		mov	r0, #0
 1029              	.LVL98:
 1030              	.L125:
1315:Generated_Source\PSoC4/BLE.c ****             }
1316:Generated_Source\PSoC4/BLE.c **** 
1317:Generated_Source\PSoC4/BLE.c ****             if(i < charLen)
1318:Generated_Source\PSoC4/BLE.c ****             {
1319:Generated_Source\PSoC4/BLE.c ****                 /* Terminate string */
1320:Generated_Source\PSoC4/BLE.c ****                 ptr[i] = CYBLE_NULL_CHARCTER;
1321:Generated_Source\PSoC4/BLE.c ****             }
1322:Generated_Source\PSoC4/BLE.c ****             
1323:Generated_Source\PSoC4/BLE.c ****             /* Set new actual length */
1324:Generated_Source\PSoC4/BLE.c ****             
1325:Generated_Source\PSoC4/BLE.c ****             /* Update device name in advertising and scan response structure */
1326:Generated_Source\PSoC4/BLE.c ****             #if(CYBLE_GAP_ROLE_PERIPHERAL)
1327:Generated_Source\PSoC4/BLE.c ****                 CyBle_ChangeAdLocalName(name, 0u);
1328:Generated_Source\PSoC4/BLE.c ****                 CyBle_ChangeAdLocalName(name, 1u);
1329:Generated_Source\PSoC4/BLE.c ****             #endif /* (CYBLE_GAP_ROLE_PERIPHERAL) */
1330:Generated_Source\PSoC4/BLE.c ****         }
1331:Generated_Source\PSoC4/BLE.c ****         else
1332:Generated_Source\PSoC4/BLE.c ****         {
1333:Generated_Source\PSoC4/BLE.c ****             apiResult = CYBLE_ERROR_INVALID_PARAMETER;
1334:Generated_Source\PSoC4/BLE.c ****         }
1335:Generated_Source\PSoC4/BLE.c ****         
1336:Generated_Source\PSoC4/BLE.c ****         return(apiResult);
1337:Generated_Source\PSoC4/BLE.c ****     }
 1031              		.loc 1 1337 0
 1032              		@ sp needed
 1033 0100 70BD     		pop	{r4, r5, r6, pc}
 1034              	.LVL99:
 1035              	.L106:
1312:Generated_Source\PSoC4/BLE.c ****             {
 1036              		.loc 1 1312 0
 1037 0102 0023     		mov	r3, #0
 1038              	.LVL100:
 1039              	.L77:
ARM GAS  C:\Users\ramanatg\AppData\Local\Temp\cciThAgf.s 			page 45


1320:Generated_Source\PSoC4/BLE.c ****             }
 1040              		.loc 1 1320 0
 1041 0104 0022     		mov	r2, #0
 1042 0106 E254     		strb	r2, [r4, r3]
 1043 0108 9AE7     		b	.L100
 1044              	.LVL101:
 1045              	.L97:
 1046              	.LBB32:
 1047              	.LBB31:
1258:Generated_Source\PSoC4/BLE.c ****                     i++;
 1048              		.loc 1 1258 0
 1049 010a 0020     		mov	r0, #0
 1050              	.LVL102:
 1051              	.L99:
 1052 010c 111C     		mov	r1, r2
 1053 010e 3431     		add	r1, r1, #52
 1054 0110 C854     		strb	r0, [r1, r3]
1259:Generated_Source\PSoC4/BLE.c ****                 }
 1055              		.loc 1 1259 0
 1056 0112 0133     		add	r3, r3, #1
 1057              	.LVL103:
 1058 0114 DBB2     		uxtb	r3, r3
 1059              	.LVL104:
1255:Generated_Source\PSoC4/BLE.c ****                 {
 1060              		.loc 1 1255 0
 1061 0116 9C42     		cmp	r4, r3
 1062 0118 F8D8     		bhi	.L99
 1063 011a F0E7     		b	.L96
 1064              	.LVL105:
 1065              	.L87:
 1066              	.LBE31:
 1067              	.LBE32:
 1068              	.LBB33:
 1069              	.LBB28:
1258:Generated_Source\PSoC4/BLE.c ****                     i++;
 1070              		.loc 1 1258 0
 1071 011c 0025     		mov	r5, #0
 1072              	.L89:
 1073 011e D118     		add	r1, r2, r3
1259:Generated_Source\PSoC4/BLE.c ****                 }
 1074              		.loc 1 1259 0
 1075 0120 0133     		add	r3, r3, #1
 1076              	.LVL106:
 1077 0122 DBB2     		uxtb	r3, r3
 1078              	.LVL107:
1258:Generated_Source\PSoC4/BLE.c ****                     i++;
 1079              		.loc 1 1258 0
 1080 0124 0D75     		strb	r5, [r1, #20]
1255:Generated_Source\PSoC4/BLE.c ****                 {
 1081              		.loc 1 1255 0
 1082 0126 9C42     		cmp	r4, r3
 1083 0128 F9D8     		bhi	.L89
 1084 012a B8E7     		b	.L80
 1085              	.LVL108:
 1086              	.L105:
 1087              	.LBE28:
 1088              	.LBE33:
ARM GAS  C:\Users\ramanatg\AppData\Local\Temp\cciThAgf.s 			page 46


1333:Generated_Source\PSoC4/BLE.c ****         }
 1089              		.loc 1 1333 0
 1090 012c 0120     		mov	r0, #1
 1091              	.LVL109:
 1092 012e E7E7     		b	.L125
 1093              	.L134:
 1094              		.align	2
 1095              	.L133:
 1096 0130 00000000 		.word	cyBle_gaps
 1097 0134 00000000 		.word	cyBle_gattDB
 1098 0138 00000000 		.word	.LANCHOR3
 1099              		.cfi_endproc
 1100              	.LFE12:
 1101              		.size	CyBle_GapSetLocalName, .-CyBle_GapSetLocalName
 1102              		.section	.text.CyBle_GapGetLocalName,"ax",%progbits
 1103              		.align	2
 1104              		.global	CyBle_GapGetLocalName
 1105              		.code	16
 1106              		.thumb_func
 1107              		.type	CyBle_GapGetLocalName, %function
 1108              	CyBle_GapGetLocalName:
 1109              	.LFB13:
1338:Generated_Source\PSoC4/BLE.c **** 
1339:Generated_Source\PSoC4/BLE.c **** 
1340:Generated_Source\PSoC4/BLE.c ****     /******************************************************************************
1341:Generated_Source\PSoC4/BLE.c ****     * Function Name: CyBle_GapGetLocalName
1342:Generated_Source\PSoC4/BLE.c ****     ***************************************************************************//**
1343:Generated_Source\PSoC4/BLE.c ****     *  
1344:Generated_Source\PSoC4/BLE.c ****     *  This API is used to read the local device name - a Characteristic of the 
1345:Generated_Source\PSoC4/BLE.c ****     *  GAP Service.
1346:Generated_Source\PSoC4/BLE.c ****     * 
1347:Generated_Source\PSoC4/BLE.c ****     * \param name: The local device name string. Used to read the local name to the
1348:Generated_Source\PSoC4/BLE.c ****     *             given string array. It represents a UTF-8 encoded User Friendly 
1349:Generated_Source\PSoC4/BLE.c ****     *             Descriptive Name for the device. The length of the local device
1350:Generated_Source\PSoC4/BLE.c ****     *             string is entered into the component customizer and it can be set
1351:Generated_Source\PSoC4/BLE.c ****     *             to a value from 0 to 248 bytes. If the name contained in the
1352:Generated_Source\PSoC4/BLE.c ****     *             parameter is shorter than the length from the customizer, the end
1353:Generated_Source\PSoC4/BLE.c ****     *             of the name is indicated by a NULL octet (0x00).
1354:Generated_Source\PSoC4/BLE.c ****     * 
1355:Generated_Source\PSoC4/BLE.c ****     * \return
1356:Generated_Source\PSoC4/BLE.c ****     *  CYBLE_API_RESULT_T : Return value indicates if the function succeeded or 
1357:Generated_Source\PSoC4/BLE.c ****     *  failed. Following are the possible error codes.
1358:Generated_Source\PSoC4/BLE.c ****     *
1359:Generated_Source\PSoC4/BLE.c ****     *   Errors codes                       | Description
1360:Generated_Source\PSoC4/BLE.c ****     *   ------------                       | -----------
1361:Generated_Source\PSoC4/BLE.c ****     *   CYBLE_ERROR_OK                     | Function completed successfully.
1362:Generated_Source\PSoC4/BLE.c ****     *   CYBLE_ERROR_INVALID_PARAMETER      | On specifying NULL as input parameter
1363:Generated_Source\PSoC4/BLE.c ****     *
1364:Generated_Source\PSoC4/BLE.c ****     *******************************************************************************/
1365:Generated_Source\PSoC4/BLE.c ****     CYBLE_API_RESULT_T CyBle_GapGetLocalName(char8 name[])
1366:Generated_Source\PSoC4/BLE.c ****     {
 1110              		.loc 1 1366 0
 1111              		.cfi_startproc
 1112              	.LVL110:
 1113 0000 70B5     		push	{r4, r5, r6, lr}
 1114              		.cfi_def_cfa_offset 16
 1115              		.cfi_offset 4, -16
ARM GAS  C:\Users\ramanatg\AppData\Local\Temp\cciThAgf.s 			page 47


 1116              		.cfi_offset 5, -12
 1117              		.cfi_offset 6, -8
 1118              		.cfi_offset 14, -4
1367:Generated_Source\PSoC4/BLE.c ****         CYBLE_API_RESULT_T apiResult = CYBLE_ERROR_OK;
1368:Generated_Source\PSoC4/BLE.c ****         uint8 charLen;
1369:Generated_Source\PSoC4/BLE.c ****         uint8 i;
1370:Generated_Source\PSoC4/BLE.c ****         char8 *ptr;
1371:Generated_Source\PSoC4/BLE.c **** 
1372:Generated_Source\PSoC4/BLE.c ****         if(NULL != name)
 1119              		.loc 1 1372 0
 1120 0002 0028     		cmp	r0, #0
 1121 0004 21D0     		beq	.L140
1373:Generated_Source\PSoC4/BLE.c ****         {
1374:Generated_Source\PSoC4/BLE.c ****             /* Get the pointer to the Device Name characteristic  */
1375:Generated_Source\PSoC4/BLE.c ****             ptr = (char8 *) CYBLE_GATT_DB_ATTR_GET_ATTR_GEN_PTR(cyBle_gaps.deviceNameCharHandle);
 1122              		.loc 1 1375 0
 1123 0006 134B     		ldr	r3, .L144
 1124 0008 5B88     		ldrh	r3, [r3, #2]
 1125 000a 013B     		sub	r3, r3, #1
 1126 000c 9A00     		lsl	r2, r3, #2
 1127 000e D318     		add	r3, r2, r3
 1128 0010 114A     		ldr	r2, .L144+4
 1129 0012 9B00     		lsl	r3, r3, #2
 1130 0014 D318     		add	r3, r2, r3
 1131 0016 1B69     		ldr	r3, [r3, #16]
1376:Generated_Source\PSoC4/BLE.c **** 
1377:Generated_Source\PSoC4/BLE.c ****             /* First need to get the length of the characteristic data in the GATT
1378:Generated_Source\PSoC4/BLE.c ****                 database to make sure there is enough place for the data. The length
1379:Generated_Source\PSoC4/BLE.c ****                 can't be longer than 248, so only the LSB of 16 bit of length is to
1380:Generated_Source\PSoC4/BLE.c ****                 be used. */
1381:Generated_Source\PSoC4/BLE.c ****             charLen = (uint8)CYBLE_GATT_DB_ATTR_GET_ATTR_GEN_LEN(cyBle_gaps.deviceNameCharHandle);
 1132              		.loc 1 1381 0
 1133 0018 1D78     		ldrb	r5, [r3]
1375:Generated_Source\PSoC4/BLE.c **** 
 1134              		.loc 1 1375 0
 1135 001a 5E68     		ldr	r6, [r3, #4]
 1136              	.LVL111:
1382:Generated_Source\PSoC4/BLE.c **** 
1383:Generated_Source\PSoC4/BLE.c ****             /* Copy name from characteristic */
1384:Generated_Source\PSoC4/BLE.c ****             for(i = 0u; ((i < charLen) && (CYBLE_NULL_CHARCTER != ptr[i])); i++)
 1137              		.loc 1 1384 0
 1138 001c 002D     		cmp	r5, #0
 1139 001e 16D0     		beq	.L142
 1140 0020 3278     		ldrb	r2, [r6]
 1141 0022 002A     		cmp	r2, #0
 1142 0024 13D0     		beq	.L142
 1143 0026 011C     		mov	r1, r0
 1144 0028 0123     		mov	r3, #1
 1145 002a 05E0     		b	.L139
 1146              	.LVL112:
 1147              	.L138:
 1148              		.loc 1 1384 0 is_stmt 0 discriminator 3
 1149 002c F25C     		ldrb	r2, [r6, r3]
 1150              	.LVL113:
 1151 002e 5C1C     		add	r4, r3, #1
 1152 0030 0131     		add	r1, r1, #1
 1153 0032 002A     		cmp	r2, #0
ARM GAS  C:\Users\ramanatg\AppData\Local\Temp\cciThAgf.s 			page 48


 1154 0034 05D0     		beq	.L137
 1155 0036 231C     		mov	r3, r4
 1156              	.LVL114:
 1157              	.L139:
1385:Generated_Source\PSoC4/BLE.c ****             {
1386:Generated_Source\PSoC4/BLE.c ****                 name[i] = ptr[i];
 1158              		.loc 1 1386 0 is_stmt 1 discriminator 4
 1159 0038 0A70     		strb	r2, [r1]
1384:Generated_Source\PSoC4/BLE.c ****             {
 1160              		.loc 1 1384 0 discriminator 4
 1161 003a DAB2     		uxtb	r2, r3
 1162              	.LVL115:
 1163 003c 9542     		cmp	r5, r2
 1164 003e F5D8     		bhi	.L138
 1165 0040 131C     		mov	r3, r2
 1166              	.LVL116:
 1167              	.L137:
1387:Generated_Source\PSoC4/BLE.c ****             }
1388:Generated_Source\PSoC4/BLE.c **** 
1389:Generated_Source\PSoC4/BLE.c ****             /* Terminate string */
1390:Generated_Source\PSoC4/BLE.c ****             name[i] = CYBLE_NULL_CHARCTER;
 1168              		.loc 1 1390 0
 1169 0042 0022     		mov	r2, #0
 1170 0044 C254     		strb	r2, [r0, r3]
1367:Generated_Source\PSoC4/BLE.c ****         uint8 charLen;
 1171              		.loc 1 1367 0
 1172 0046 0020     		mov	r0, #0
 1173              	.LVL117:
 1174              	.L136:
1391:Generated_Source\PSoC4/BLE.c ****         }
1392:Generated_Source\PSoC4/BLE.c ****         else
1393:Generated_Source\PSoC4/BLE.c ****         {
1394:Generated_Source\PSoC4/BLE.c ****             apiResult = CYBLE_ERROR_INVALID_PARAMETER;
1395:Generated_Source\PSoC4/BLE.c ****         }
1396:Generated_Source\PSoC4/BLE.c ****         
1397:Generated_Source\PSoC4/BLE.c ****         return(apiResult);
1398:Generated_Source\PSoC4/BLE.c ****     }
 1175              		.loc 1 1398 0
 1176              		@ sp needed
 1177 0048 70BD     		pop	{r4, r5, r6, pc}
 1178              	.LVL118:
 1179              	.L140:
1394:Generated_Source\PSoC4/BLE.c ****         }
 1180              		.loc 1 1394 0
 1181 004a 0120     		mov	r0, #1
 1182              	.LVL119:
 1183 004c FCE7     		b	.L136
 1184              	.LVL120:
 1185              	.L142:
1384:Generated_Source\PSoC4/BLE.c ****             {
 1186              		.loc 1 1384 0
 1187 004e 0023     		mov	r3, #0
 1188 0050 F7E7     		b	.L137
 1189              	.L145:
 1190 0052 C046     		.align	2
 1191              	.L144:
 1192 0054 00000000 		.word	cyBle_gaps
ARM GAS  C:\Users\ramanatg\AppData\Local\Temp\cciThAgf.s 			page 49


 1193 0058 00000000 		.word	cyBle_gattDB
 1194              		.cfi_endproc
 1195              	.LFE13:
 1196              		.size	CyBle_GapGetLocalName, .-CyBle_GapGetLocalName
 1197              		.section	.text.CyBle_Get16ByPtr,"ax",%progbits
 1198              		.align	2
 1199              		.global	CyBle_Get16ByPtr
 1200              		.code	16
 1201              		.thumb_func
 1202              		.type	CyBle_Get16ByPtr, %function
 1203              	CyBle_Get16ByPtr:
 1204              	.LFB14:
1399:Generated_Source\PSoC4/BLE.c **** 
1400:Generated_Source\PSoC4/BLE.c **** #endif /* (CYBLE_GATT_ROLE_SERVER) */
1401:Generated_Source\PSoC4/BLE.c **** 
1402:Generated_Source\PSoC4/BLE.c **** 
1403:Generated_Source\PSoC4/BLE.c **** /******************************************************************************
1404:Generated_Source\PSoC4/BLE.c **** * Function Name: CyBle_Get16ByPtr
1405:Generated_Source\PSoC4/BLE.c **** ***************************************************************************//**
1406:Generated_Source\PSoC4/BLE.c **** * 
1407:Generated_Source\PSoC4/BLE.c **** *  Returns the two-bytes value by using a pointer to the LSB.
1408:Generated_Source\PSoC4/BLE.c **** * 
1409:Generated_Source\PSoC4/BLE.c **** *  \param ptr: Pointer to the LSB of two-bytes data (little endian).
1410:Generated_Source\PSoC4/BLE.c **** * 
1411:Generated_Source\PSoC4/BLE.c **** *  \return
1412:Generated_Source\PSoC4/BLE.c **** *  uint16: Two-bytes data.
1413:Generated_Source\PSoC4/BLE.c **** * 
1414:Generated_Source\PSoC4/BLE.c **** ******************************************************************************/
1415:Generated_Source\PSoC4/BLE.c **** uint16 CyBle_Get16ByPtr(const uint8 ptr[])
1416:Generated_Source\PSoC4/BLE.c **** {
 1205              		.loc 1 1416 0
 1206              		.cfi_startproc
 1207              	.LVL121:
1417:Generated_Source\PSoC4/BLE.c ****     return ((uint16) ptr[0u] | ((uint16) (((uint16) ptr[1u]) << 8u)));
 1208              		.loc 1 1417 0
 1209 0000 4378     		ldrb	r3, [r0, #1]
 1210 0002 0078     		ldrb	r0, [r0]
 1211              	.LVL122:
 1212 0004 1B02     		lsl	r3, r3, #8
 1213 0006 1843     		orr	r0, r3
1418:Generated_Source\PSoC4/BLE.c **** }
 1214              		.loc 1 1418 0
 1215              		@ sp needed
 1216 0008 7047     		bx	lr
 1217              		.cfi_endproc
 1218              	.LFE14:
 1219              		.size	CyBle_Get16ByPtr, .-CyBle_Get16ByPtr
 1220 000a C046     		.section	.text.CyBle_Set16ByPtr,"ax",%progbits
 1221              		.align	2
 1222              		.global	CyBle_Set16ByPtr
 1223              		.code	16
 1224              		.thumb_func
 1225              		.type	CyBle_Set16ByPtr, %function
 1226              	CyBle_Set16ByPtr:
 1227              	.LFB15:
1419:Generated_Source\PSoC4/BLE.c **** 
1420:Generated_Source\PSoC4/BLE.c **** 
ARM GAS  C:\Users\ramanatg\AppData\Local\Temp\cciThAgf.s 			page 50


1421:Generated_Source\PSoC4/BLE.c **** /******************************************************************************
1422:Generated_Source\PSoC4/BLE.c **** * Function Name: CyBle_Set16ByPtr
1423:Generated_Source\PSoC4/BLE.c **** ***************************************************************************//**
1424:Generated_Source\PSoC4/BLE.c **** * 
1425:Generated_Source\PSoC4/BLE.c **** *  Sets the two-bytes value by using a pointer to the LSB.
1426:Generated_Source\PSoC4/BLE.c **** * 
1427:Generated_Source\PSoC4/BLE.c **** *  \param ptr:    Pointer to the LSB of two-bytes data (little endian).
1428:Generated_Source\PSoC4/BLE.c **** *  \param value:  Two-bytes data to be written.
1429:Generated_Source\PSoC4/BLE.c **** * 
1430:Generated_Source\PSoC4/BLE.c **** *  \return
1431:Generated_Source\PSoC4/BLE.c **** *  None
1432:Generated_Source\PSoC4/BLE.c **** * 
1433:Generated_Source\PSoC4/BLE.c **** ******************************************************************************/
1434:Generated_Source\PSoC4/BLE.c **** void CyBle_Set16ByPtr(uint8 ptr[], uint16 value)
1435:Generated_Source\PSoC4/BLE.c **** {
 1228              		.loc 1 1435 0
 1229              		.cfi_startproc
 1230              	.LVL123:
1436:Generated_Source\PSoC4/BLE.c ****     ptr[0u] = (uint8) value;
 1231              		.loc 1 1436 0
 1232 0000 0170     		strb	r1, [r0]
1437:Generated_Source\PSoC4/BLE.c ****     ptr[1u] = (uint8) (value >> 8u);
 1233              		.loc 1 1437 0
 1234 0002 090A     		lsr	r1, r1, #8
 1235              	.LVL124:
 1236 0004 4170     		strb	r1, [r0, #1]
1438:Generated_Source\PSoC4/BLE.c **** }
 1237              		.loc 1 1438 0
 1238              		@ sp needed
 1239 0006 7047     		bx	lr
 1240              		.cfi_endproc
 1241              	.LFE15:
 1242              		.size	CyBle_Set16ByPtr, .-CyBle_Set16ByPtr
 1243              		.global	cyBle_sflashDeviceAddress
 1244              		.global	cyBle_deviceAddress
 1245              		.comm	CyBle_ApplCallback,4,4
 1246              		.comm	cyBle_pendingFlashWrite,1,1
 1247              		.comm	cyBle_peerBonding,1,1
 1248              		.global	cyBle_discoveryModeInfo
 1249              		.global	cyBle_scanRspData
 1250              		.global	cyBle_discoveryData
 1251              		.global	cyBle_discoveryParam
 1252              		.global	cyBle_stackMemoryRam
 1253              		.global	cyBle_initVar
 1254              		.section	.rodata
 1255              		.align	2
 1256              		.set	.LANCHOR0,. + 0
 1257              	.LC0:
 1258 0000 2400     		.short	36
 1259 0002 03       		.byte	3
 1260 0003 00       		.space	1
 1261 0004 3000     		.short	48
 1262 0006 01       		.byte	1
 1263 0007 00       		.space	1
 1264 0008 2800     		.short	40
 1265 000a 02       		.byte	2
 1266 000b 00       		.space	1
ARM GAS  C:\Users\ramanatg\AppData\Local\Temp\cciThAgf.s 			page 51


 1267 000c 2400     		.short	36
 1268 000e 01       		.byte	1
 1269 000f 00       		.space	1
 1270 0010 2400     		.short	36
 1271 0012 01       		.byte	1
 1272 0013 00       		.space	1
 1273              		.data
 1274              		.align	2
 1275              		.set	.LANCHOR3,. + 0
 1276              		.type	cyBle_discoveryModeInfo, %object
 1277              		.size	cyBle_discoveryModeInfo, 20
 1278              	cyBle_discoveryModeInfo:
 1279 0000 02       		.byte	2
 1280 0001 000000   		.space	3
 1281 0004 00000000 		.word	cyBle_discoveryParam
 1282 0008 00000000 		.word	cyBle_discoveryData
 1283 000c 00000000 		.word	cyBle_scanRspData
 1284 0010 3C00     		.short	60
 1285 0012 0000     		.space	2
 1286              		.type	cyBle_discoveryData, %object
 1287              		.size	cyBle_discoveryData, 32
 1288              	cyBle_discoveryData:
 1289 0014 02       		.byte	2
 1290 0015 01       		.byte	1
 1291 0016 06       		.byte	6
 1292 0017 02       		.byte	2
 1293 0018 0A       		.byte	10
 1294 0019 FE       		.byte	-2
 1295 001a 11       		.byte	17
 1296 001b 07       		.byte	7
 1297 001c D8       		.byte	-40
 1298 001d 81       		.byte	-127
 1299 001e C9       		.byte	-55
 1300 001f 1A       		.byte	26
 1301 0020 B9       		.byte	-71
 1302 0021 99       		.byte	-103
 1303 0022 96       		.byte	-106
 1304 0023 AB       		.byte	-85
 1305 0024 BA       		.byte	-70
 1306 0025 40       		.byte	64
 1307 0026 86       		.byte	-122
 1308 0027 87       		.byte	-121
 1309 0028 80       		.byte	-128
 1310 0029 20       		.byte	32
 1311 002a 0C       		.byte	12
 1312 002b EE       		.byte	-18
 1313 002c 00       		.byte	0
 1314 002d 00       		.byte	0
 1315 002e 00       		.byte	0
 1316 002f 00       		.byte	0
 1317 0030 00       		.byte	0
 1318 0031 00       		.byte	0
 1319 0032 00       		.byte	0
 1320 0033 18       		.byte	24
 1321              		.type	cyBle_scanRspData, %object
 1322              		.size	cyBle_scanRspData, 32
 1323              	cyBle_scanRspData:
ARM GAS  C:\Users\ramanatg\AppData\Local\Temp\cciThAgf.s 			page 52


 1324 0034 11       		.byte	17
 1325 0035 09       		.byte	9
 1326 0036 53       		.byte	83
 1327 0037 6F       		.byte	111
 1328 0038 6C       		.byte	108
 1329 0039 61       		.byte	97
 1330 003a 72       		.byte	114
 1331 003b 20       		.byte	32
 1332 003c 42       		.byte	66
 1333 003d 4C       		.byte	76
 1334 003e 45       		.byte	69
 1335 003f 20       		.byte	32
 1336 0040 53       		.byte	83
 1337 0041 65       		.byte	101
 1338 0042 6E       		.byte	110
 1339 0043 73       		.byte	115
 1340 0044 6F       		.byte	111
 1341 0045 72       		.byte	114
 1342 0046 00       		.byte	0
 1343 0047 00       		.byte	0
 1344 0048 00       		.byte	0
 1345 0049 00       		.byte	0
 1346 004a 00       		.byte	0
 1347 004b 00       		.byte	0
 1348 004c 00       		.byte	0
 1349 004d 00       		.byte	0
 1350 004e 00       		.byte	0
 1351 004f 00       		.byte	0
 1352 0050 00       		.byte	0
 1353 0051 00       		.byte	0
 1354 0052 00       		.byte	0
 1355 0053 12       		.byte	18
 1356              		.type	cyBle_sflashDeviceAddress, %object
 1357              		.size	cyBle_sflashDeviceAddress, 4
 1358              	cyBle_sflashDeviceAddress:
 1359 0054 00F2FF0F 		.word	268431872
 1360              		.type	cyBle_deviceAddress, %object
 1361              		.size	cyBle_deviceAddress, 7
 1362              	cyBle_deviceAddress:
 1363 0058 00       		.byte	0
 1364 0059 00       		.byte	0
 1365 005a 00       		.byte	0
 1366 005b 50       		.byte	80
 1367 005c A0       		.byte	-96
 1368 005d 00       		.byte	0
 1369 005e 00       		.byte	0
 1370 005f 00       		.space	1
 1371              		.type	cyBle_discoveryParam, %object
 1372              		.size	cyBle_discoveryParam, 16
 1373              	cyBle_discoveryParam:
 1374 0060 5000     		.short	80
 1375 0062 5000     		.short	80
 1376 0064 00       		.byte	0
 1377 0065 00       		.byte	0
 1378 0066 00       		.byte	0
 1379 0067 00       		.byte	0
 1380 0068 00       		.byte	0
ARM GAS  C:\Users\ramanatg\AppData\Local\Temp\cciThAgf.s 			page 53


 1381 0069 00       		.byte	0
 1382 006a 50       		.byte	80
 1383 006b A0       		.byte	-96
 1384 006c 00       		.byte	0
 1385 006d 07       		.byte	7
 1386 006e 00       		.byte	0
 1387 006f 00       		.space	1
 1388              		.section	.noinit,"aw",%progbits
 1389              		.align	3
 1390              		.set	.LANCHOR2,. + 0
 1391              		.type	cyBle_stackMemoryRam, %object
 1392              		.size	cyBle_stackMemoryRam, 2784
 1393              	cyBle_stackMemoryRam:
 1394 0000 00000000 		.space	2784
 1394      00000000 
 1394      00000000 
 1394      00000000 
 1394      00000000 
 1395              		.bss
 1396              		.set	.LANCHOR1,. + 0
 1397              		.type	cyBle_initVar, %object
 1398              		.size	cyBle_initVar, 1
 1399              	cyBle_initVar:
 1400 0000 00       		.space	1
 1401              		.type	cyBle_pendingFlashClearCccdHandle, %object
 1402              		.size	cyBle_pendingFlashClearCccdHandle, 1
 1403              	cyBle_pendingFlashClearCccdHandle:
 1404 0001 00       		.space	1
 1405              		.text
 1406              	.Letext0:
 1407              		.file 2 "Generated_Source\\PSoC4\\cytypes.h"
 1408              		.file 3 "c:\\program files (x86)\\cypress\\psoc creator\\4.0\\psoc creator\\import\\gnu\\arm\\4.9.
 1409              		.file 4 "Generated_Source\\PSoC4\\BLE_Stack.h"
 1410              		.file 5 "Generated_Source\\PSoC4\\BLE_StackGap.h"
 1411              		.file 6 "Generated_Source\\PSoC4\\BLE_StackGatt.h"
 1412              		.file 7 "Generated_Source\\PSoC4\\BLE_StackGattDb.h"
 1413              		.file 8 "Generated_Source\\PSoC4\\BLE.h"
 1414              		.file 9 "Generated_Source\\PSoC4\\BLE_gatt.h"
 1415              		.file 10 "Generated_Source\\PSoC4\\BLE_eventHandler.h"
 1416              		.file 11 "Generated_Source\\PSoC4\\BLE_custom.h"
 1417              		.file 12 "Generated_Source\\PSoC4\\BLE_StackHostMain.h"
 1418              		.file 13 "c:\\program files (x86)\\cypress\\psoc creator\\4.0\\psoc creator\\import\\gnu\\arm\\4.9