ARM GAS  C:\Users\ramanatg\AppData\Local\Temp\cciThAgf.s 			page 1


   1              		.cpu cortex-m0
   2              		.fpu softvfp
   3              		.eabi_attribute 20, 1
   4              		.eabi_attribute 21, 1
   5              		.eabi_attribute 23, 3
   6              		.eabi_attribute 24, 1
   7              		.eabi_attribute 25, 1
   8              		.eabi_attribute 26, 1
   9              		.eabi_attribute 30, 2
  10              		.eabi_attribute 34, 0
  11              		.eabi_attribute 18, 4
  12              		.code	16
  13              		.file	"BLE.c"
  14              		.text
  15              	.Ltext0:
  16              		.cfi_sections	.debug_frame
  17              		.section	.text.CyBle_Init,"ax",%progbits
  18              		.align	2
  19              		.global	CyBle_Init
  20              		.code	16
  21              		.thumb_func
  22              		.type	CyBle_Init, %function
  23              	CyBle_Init:
  24              	.LFB2:
  25              		.file 1 "Generated_Source\\PSoC4\\BLE.c"
   1:Generated_Source\PSoC4/BLE.c **** /***************************************************************************//**
   2:Generated_Source\PSoC4/BLE.c **** * \file CYBLE.c
   3:Generated_Source\PSoC4/BLE.c **** * \version 3.30
   4:Generated_Source\PSoC4/BLE.c **** * 
   5:Generated_Source\PSoC4/BLE.c **** * \brief
   6:Generated_Source\PSoC4/BLE.c **** *  This file contains the source code for the Common APIs of the BLE Component.
   7:Generated_Source\PSoC4/BLE.c **** * 
   8:Generated_Source\PSoC4/BLE.c **** ********************************************************************************
   9:Generated_Source\PSoC4/BLE.c **** * \copyright
  10:Generated_Source\PSoC4/BLE.c **** * Copyright 2014-2016, Cypress Semiconductor Corporation.  All rights reserved.
  11:Generated_Source\PSoC4/BLE.c **** * You may use this file only in accordance with the license, terms, conditions,
  12:Generated_Source\PSoC4/BLE.c **** * disclaimers, and limitations in the end user license agreement accompanying
  13:Generated_Source\PSoC4/BLE.c **** * the software package with which this file was provided.
  14:Generated_Source\PSoC4/BLE.c **** *******************************************************************************/
  15:Generated_Source\PSoC4/BLE.c **** 
  16:Generated_Source\PSoC4/BLE.c **** #include "BLE_eventHandler.h"
  17:Generated_Source\PSoC4/BLE.c **** #include "BLE_HAL_PVT.h"
  18:Generated_Source\PSoC4/BLE.c **** #include <stdlib.h>
  19:Generated_Source\PSoC4/BLE.c **** 
  20:Generated_Source\PSoC4/BLE.c **** 
  21:Generated_Source\PSoC4/BLE.c **** /***************************************
  22:Generated_Source\PSoC4/BLE.c **** * Function Prototypes
  23:Generated_Source\PSoC4/BLE.c **** ***************************************/
  24:Generated_Source\PSoC4/BLE.c **** 
  25:Generated_Source\PSoC4/BLE.c **** #if(CYBLE_GATT_ROLE_SERVER)
  26:Generated_Source\PSoC4/BLE.c ****     #if(CYBLE_GAP_ROLE_PERIPHERAL)
  27:Generated_Source\PSoC4/BLE.c ****         static void CyBle_ChangeAdLocalName(const char8 name[], uint8 dest);
  28:Generated_Source\PSoC4/BLE.c ****     #endif /* (CYBLE_GAP_ROLE_PERIPHERAL) */
  29:Generated_Source\PSoC4/BLE.c **** #endif /* (CYBLE_GATT_ROLE_SERVER) */
  30:Generated_Source\PSoC4/BLE.c ****     
  31:Generated_Source\PSoC4/BLE.c **** 
  32:Generated_Source\PSoC4/BLE.c **** /***************************************
ARM GAS  C:\Users\ramanatg\AppData\Local\Temp\cciThAgf.s 			page 2


  33:Generated_Source\PSoC4/BLE.c **** * Global Variables
  34:Generated_Source\PSoC4/BLE.c **** ***************************************/
  35:Generated_Source\PSoC4/BLE.c **** 
  36:Generated_Source\PSoC4/BLE.c **** /* Indicates whether the BLE has been initialized. The variable is initialized to
  37:Generated_Source\PSoC4/BLE.c ****    0 and set to 1 the first time CyBle_Start() is called. This allows the component
  38:Generated_Source\PSoC4/BLE.c ****    to restart without reinitialization after the first call to the CyBle_Start() 
  39:Generated_Source\PSoC4/BLE.c ****    routine. If reinitialization of the component is required, the variable should 
  40:Generated_Source\PSoC4/BLE.c ****    be set to 0 before the CyBle_Start() routine is called. Alternatively, the BLE
  41:Generated_Source\PSoC4/BLE.c ****    can be reinitialized by calling the CyBle_Init() function.
  42:Generated_Source\PSoC4/BLE.c **** */
  43:Generated_Source\PSoC4/BLE.c **** uint8  cyBle_initVar = 0u;
  44:Generated_Source\PSoC4/BLE.c **** 
  45:Generated_Source\PSoC4/BLE.c **** /* Allocate RAM memory for stack. This buffer could be reused by application when 
  46:Generated_Source\PSoC4/BLE.c ****    BLE component is stopped. For export mode buffer is allocated in heap.
  47:Generated_Source\PSoC4/BLE.c **** */
  48:Generated_Source\PSoC4/BLE.c **** #if(CYBLE_SHARING_MODE_EXPORT)
  49:Generated_Source\PSoC4/BLE.c ****     
  50:Generated_Source\PSoC4/BLE.c **** uint8 *cyBle_stackMemoryRam = NULL;
  51:Generated_Source\PSoC4/BLE.c **** 
  52:Generated_Source\PSoC4/BLE.c **** #else
  53:Generated_Source\PSoC4/BLE.c **** 
  54:Generated_Source\PSoC4/BLE.c **** CYBLE_CYALIGNED_BEGIN CY_NOINIT uint8 cyBle_stackMemoryRam[CYBLE_STACK_RAM_SIZE] CYBLE_CYALIGNED_EN
  55:Generated_Source\PSoC4/BLE.c **** 
  56:Generated_Source\PSoC4/BLE.c **** #endif  /* CYBLE_SHARING_MODE_EXPORT */
  57:Generated_Source\PSoC4/BLE.c **** 
  58:Generated_Source\PSoC4/BLE.c **** #if(CYBLE_GAP_ROLE_PERIPHERAL || CYBLE_GAP_ROLE_BROADCASTER)
  59:Generated_Source\PSoC4/BLE.c **** 
  60:Generated_Source\PSoC4/BLE.c **** CYBLE_GAPP_DISC_PARAM_T cyBle_discoveryParam =
  61:Generated_Source\PSoC4/BLE.c **** {
  62:Generated_Source\PSoC4/BLE.c ****     0x0050u,    /* uint16 advertising_interval_min */
  63:Generated_Source\PSoC4/BLE.c ****     0x0050u,    /* uint16 advertising_interval_max */
  64:Generated_Source\PSoC4/BLE.c ****     CYBLE_GAPP_CONNECTABLE_UNDIRECTED_ADV, /* uint8 advertising_type */
  65:Generated_Source\PSoC4/BLE.c ****     0x00u,      /* uint8 own_addr_type */
  66:Generated_Source\PSoC4/BLE.c ****     0x00u,      /* uint8 direct_addr_type */
  67:Generated_Source\PSoC4/BLE.c ****     {0x00u, 0x00u, 0x00u, 0x50u, 0xA0u, 0x00u}, /* uint8* direct_addr */
  68:Generated_Source\PSoC4/BLE.c ****     0x07u,      /* uint8 advertising_channel_map */
  69:Generated_Source\PSoC4/BLE.c ****     0x00u,      /* uint8 advertising_filter_policy */
  70:Generated_Source\PSoC4/BLE.c **** };
  71:Generated_Source\PSoC4/BLE.c **** 
  72:Generated_Source\PSoC4/BLE.c **** CYBLE_GAPP_DISC_DATA_T cyBle_discoveryData =
  73:Generated_Source\PSoC4/BLE.c **** {
  74:Generated_Source\PSoC4/BLE.c ****     { 0x02u, 0x01u, 0x06u, 0x02u, 0x0Au, 0xFEu, 0x11u,
  75:Generated_Source\PSoC4/BLE.c ****     0x07u, 0xD8u, 0x81u, 0xC9u, 0x1Au, 0xB9u, 0x99u, 0x96u,
  76:Generated_Source\PSoC4/BLE.c ****     0xABu, 0xBAu, 0x40u, 0x86u, 0x87u, 0x80u, 0x20u, 0x0Cu,
  77:Generated_Source\PSoC4/BLE.c ****     0xEEu, 0x00u, 0x00u, 0x00u, 0x00u, 0x00u, 0x00u, 0x00u }, /* uint8 advertising_data[CYBLE_MAX_A
  78:Generated_Source\PSoC4/BLE.c ****     0x18u,      /* uint8 adv_data_length */
  79:Generated_Source\PSoC4/BLE.c **** };
  80:Generated_Source\PSoC4/BLE.c **** 
  81:Generated_Source\PSoC4/BLE.c **** CYBLE_GAPP_SCAN_RSP_DATA_T cyBle_scanRspData =
  82:Generated_Source\PSoC4/BLE.c **** {
  83:Generated_Source\PSoC4/BLE.c ****     { 0x11u, 0x09u, 0x53u, 0x6Fu, 0x6Cu, 0x61u, 0x72u,
  84:Generated_Source\PSoC4/BLE.c ****     0x20u, 0x42u, 0x4Cu, 0x45u, 0x20u, 0x53u, 0x65u, 0x6Eu,
  85:Generated_Source\PSoC4/BLE.c ****     0x73u, 0x6Fu, 0x72u, 0x00u, 0x00u, 0x00u, 0x00u, 0x00u,
  86:Generated_Source\PSoC4/BLE.c ****     0x00u, 0x00u, 0x00u, 0x00u, 0x00u, 0x00u, 0x00u, 0x00u }, /* uint8 scan_rsp_data[CYBLE_MAX_SCAN
  87:Generated_Source\PSoC4/BLE.c ****     0x12u,      /* uint8 scan_rsp_data_length */
  88:Generated_Source\PSoC4/BLE.c **** };
  89:Generated_Source\PSoC4/BLE.c **** 
ARM GAS  C:\Users\ramanatg\AppData\Local\Temp\cciThAgf.s 			page 3


  90:Generated_Source\PSoC4/BLE.c **** /* This variable of type CYBLE_GAPP_DISC_MODE_INFO_T is present only when 
  91:Generated_Source\PSoC4/BLE.c ****    the BLE component is configured for Peripheral GAP role or Central and 
  92:Generated_Source\PSoC4/BLE.c ****    Peripheral GAP role. It contains the Advertisement settings and also the 
  93:Generated_Source\PSoC4/BLE.c ****    Advertisement and Scan response data parameters entered in the customizer.
  94:Generated_Source\PSoC4/BLE.c ****    This variable can be used by advanced users to change Advertisement settings,
  95:Generated_Source\PSoC4/BLE.c ****    Advertisement or Scan response data in runtime. 
  96:Generated_Source\PSoC4/BLE.c **** */
  97:Generated_Source\PSoC4/BLE.c **** CYBLE_GAPP_DISC_MODE_INFO_T cyBle_discoveryModeInfo =
  98:Generated_Source\PSoC4/BLE.c **** {
  99:Generated_Source\PSoC4/BLE.c ****     0x02u,      /* uint8 discMode */
 100:Generated_Source\PSoC4/BLE.c ****     &cyBle_discoveryParam,
 101:Generated_Source\PSoC4/BLE.c ****     &cyBle_discoveryData,
 102:Generated_Source\PSoC4/BLE.c ****     &cyBle_scanRspData,
 103:Generated_Source\PSoC4/BLE.c ****     0x003Cu,    /* uint16 advTo */
 104:Generated_Source\PSoC4/BLE.c **** };
 105:Generated_Source\PSoC4/BLE.c **** 
 106:Generated_Source\PSoC4/BLE.c **** 
 107:Generated_Source\PSoC4/BLE.c **** #endif /* CYBLE_GAP_ROLE_PERIPHERAL || CYBLE_GAP_ROLE_BROADCASTER */
 108:Generated_Source\PSoC4/BLE.c **** 
 109:Generated_Source\PSoC4/BLE.c **** #if(CYBLE_GAP_ROLE_CENTRAL)
 110:Generated_Source\PSoC4/BLE.c ****     
 111:Generated_Source\PSoC4/BLE.c **** CYBLE_GAPC_CONN_PARAM_T cyBle_connectionParameters;
 112:Generated_Source\PSoC4/BLE.c **** 
 113:Generated_Source\PSoC4/BLE.c **** /* Connecting timeout is set to 30 seconds in CyBle_Init function. 
 114:Generated_Source\PSoC4/BLE.c ****    Not zero value starts timer in CyBle_GapcConnectDevice API.
 115:Generated_Source\PSoC4/BLE.c **** */
 116:Generated_Source\PSoC4/BLE.c **** uint16 cyBle_connectingTimeout;
 117:Generated_Source\PSoC4/BLE.c ****     
 118:Generated_Source\PSoC4/BLE.c **** #endif /* CYBLE_GAP_ROLE_CENTRAL */
 119:Generated_Source\PSoC4/BLE.c **** 
 120:Generated_Source\PSoC4/BLE.c **** #if(CYBLE_GAP_ROLE_CENTRAL || CYBLE_GAP_ROLE_OBSERVER)
 121:Generated_Source\PSoC4/BLE.c ****     
 122:Generated_Source\PSoC4/BLE.c **** 
 123:Generated_Source\PSoC4/BLE.c ****     
 124:Generated_Source\PSoC4/BLE.c **** #endif /* CYBLE_GAP_ROLE_CENTRAL || CYBLE_GAP_ROLE_OBSERVER */
 125:Generated_Source\PSoC4/BLE.c **** 
 126:Generated_Source\PSoC4/BLE.c **** #if((CYBLE_GAP_ROLE_PERIPHERAL || CYBLE_GAP_ROLE_CENTRAL) && (CYBLE_BONDING_REQUIREMENT == CYBLE_BO
 127:Generated_Source\PSoC4/BLE.c **** 
 128:Generated_Source\PSoC4/BLE.c **** uint8 cyBle_peerBonding;
 129:Generated_Source\PSoC4/BLE.c **** uint8 cyBle_pendingFlashWrite;
 130:Generated_Source\PSoC4/BLE.c ****     
 131:Generated_Source\PSoC4/BLE.c **** #if(CYBLE_GATT_DB_CCCD_COUNT != 0u)
 132:Generated_Source\PSoC4/BLE.c ****     static uint8 cyBle_pendingFlashClearCccdHandle;
 133:Generated_Source\PSoC4/BLE.c **** #endif /* CYBLE_GATT_DB_CCCD_COUNT != 0u */
 134:Generated_Source\PSoC4/BLE.c ****     
 135:Generated_Source\PSoC4/BLE.c **** #endif  /* (CYBLE_BONDING_REQUIREMENT == CYBLE_BONDING_YES) */
 136:Generated_Source\PSoC4/BLE.c **** 
 137:Generated_Source\PSoC4/BLE.c **** CYBLE_CALLBACK_T CyBle_ApplCallback;
 138:Generated_Source\PSoC4/BLE.c **** CYBLE_GAP_BD_ADDR_T cyBle_deviceAddress = {{0x00u, 0x00u, 0x00u, 0x50u, 0xA0u, 0x00u}, 0x00u };
 139:Generated_Source\PSoC4/BLE.c **** CYBLE_GAP_BD_ADDR_T * cyBle_sflashDeviceAddress = CYBLE_SFLASH_DEVICE_ADDRESS_PTR;
 140:Generated_Source\PSoC4/BLE.c **** 
 141:Generated_Source\PSoC4/BLE.c **** 
 142:Generated_Source\PSoC4/BLE.c **** /******************************************************************************
 143:Generated_Source\PSoC4/BLE.c **** * Function Name: CyBle_Init
 144:Generated_Source\PSoC4/BLE.c **** ***************************************************************************//**
 145:Generated_Source\PSoC4/BLE.c **** *
 146:Generated_Source\PSoC4/BLE.c **** *   Initializes the component with the parameters set in the customizer.
ARM GAS  C:\Users\ramanatg\AppData\Local\Temp\cciThAgf.s 			page 4


 147:Generated_Source\PSoC4/BLE.c **** * 
 148:Generated_Source\PSoC4/BLE.c **** *  \return
 149:Generated_Source\PSoC4/BLE.c **** *   None
 150:Generated_Source\PSoC4/BLE.c **** * 
 151:Generated_Source\PSoC4/BLE.c **** ******************************************************************************/
 152:Generated_Source\PSoC4/BLE.c **** void CyBle_Init(void)
 153:Generated_Source\PSoC4/BLE.c **** {
  26              		.loc 1 153 0
  27              		.cfi_startproc
  28 0000 10B5     		push	{r4, lr}
  29              		.cfi_def_cfa_offset 8
  30              		.cfi_offset 4, -8
  31              		.cfi_offset 14, -4
 154:Generated_Source\PSoC4/BLE.c ****     cyBle_eventHandlerFlag = 0u;
  32              		.loc 1 154 0
  33 0002 0024     		mov	r4, #0
  34 0004 064B     		ldr	r3, .L2
 155:Generated_Source\PSoC4/BLE.c ****     cyBle_busyStatus = CYBLE_STACK_STATE_FREE;
 156:Generated_Source\PSoC4/BLE.c **** 
 157:Generated_Source\PSoC4/BLE.c ****     #if(CYBLE_GAP_ROLE_PERIPHERAL || CYBLE_GAP_ROLE_BROADCASTER) 
 158:Generated_Source\PSoC4/BLE.c ****         cyBle_advertisingIntervalType = CYBLE_ADVERTISING_FAST; 
 159:Generated_Source\PSoC4/BLE.c ****     #endif /* (CYBLE_GAP_ROLE_PERIPHERAL || CYBLE_GAP_ROLE_BROADCASTER)  */
 160:Generated_Source\PSoC4/BLE.c ****     #if(CYBLE_GAP_ROLE_CENTRAL || CYBLE_GAP_ROLE_OBSERVER)
 161:Generated_Source\PSoC4/BLE.c ****         cyBle_scanningIntervalType = CYBLE_SCANNING_FAST; 
 162:Generated_Source\PSoC4/BLE.c ****     #endif /* (CYBLE_GAP_ROLE_CENTRAL || CYBLE_GAP_ROLE_OBSERVER) */
 163:Generated_Source\PSoC4/BLE.c ****         
 164:Generated_Source\PSoC4/BLE.c ****     /* Init default connection parameters. 
 165:Generated_Source\PSoC4/BLE.c ****        Application may change it before initiating a connection */
 166:Generated_Source\PSoC4/BLE.c ****     #if(CYBLE_GAP_ROLE_CENTRAL)
 167:Generated_Source\PSoC4/BLE.c ****         cyBle_connectionParameters.scanIntv = cyBle_discoveryInfo.scanIntv;
 168:Generated_Source\PSoC4/BLE.c ****         cyBle_connectionParameters.scanWindow = cyBle_discoveryInfo.scanWindow;
 169:Generated_Source\PSoC4/BLE.c ****         cyBle_connectionParameters.ownAddrType = cyBle_discoveryInfo.ownAddrType;
 170:Generated_Source\PSoC4/BLE.c ****         cyBle_connectionParameters.initiatorFilterPolicy = cyBle_discoveryInfo.scanFilterPolicy;
 171:Generated_Source\PSoC4/BLE.c ****         cyBle_connectionParameters.connIntvMin = CYBLE_GAPC_CONNECTION_INTERVAL_MIN;
 172:Generated_Source\PSoC4/BLE.c ****         cyBle_connectionParameters.connIntvMax = CYBLE_GAPC_CONNECTION_INTERVAL_MAX;
 173:Generated_Source\PSoC4/BLE.c ****         cyBle_connectionParameters.connLatency = CYBLE_GAPC_CONNECTION_SLAVE_LATENCY;
 174:Generated_Source\PSoC4/BLE.c ****         cyBle_connectionParameters.supervisionTO = CYBLE_GAPC_CONNECTION_TIME_OUT;
 175:Generated_Source\PSoC4/BLE.c ****         cyBle_connectionParameters.minCeLength = 0x0000u;
 176:Generated_Source\PSoC4/BLE.c ****         cyBle_connectionParameters.maxCeLength = 0xFFFFu;
 177:Generated_Source\PSoC4/BLE.c ****         
 178:Generated_Source\PSoC4/BLE.c ****         cyBle_connectingTimeout = CYBLE_GAPC_CONNECTING_TIMEOUT;
 179:Generated_Source\PSoC4/BLE.c ****     #endif /* CYBLE_GAP_ROLE_CENTRAL */
 180:Generated_Source\PSoC4/BLE.c **** 
 181:Generated_Source\PSoC4/BLE.c ****     CyBle_ServiceInit();
 182:Generated_Source\PSoC4/BLE.c **** 
 183:Generated_Source\PSoC4/BLE.c ****     #if((CYBLE_GAP_ROLE_PERIPHERAL || CYBLE_GAP_ROLE_CENTRAL) && (CYBLE_BONDING_REQUIREMENT == CYBL
 184:Generated_Source\PSoC4/BLE.c ****         cyBle_pendingFlashWrite = 0u;
 185:Generated_Source\PSoC4/BLE.c ****         cyBle_peerBonding = CYBLE_GAP_BONDING_NONE;
 186:Generated_Source\PSoC4/BLE.c ****     #endif  /* (CYBLE_BONDING_REQUIREMENT == CYBLE_BONDING_YES) */
 187:Generated_Source\PSoC4/BLE.c **** 
 188:Generated_Source\PSoC4/BLE.c **** }
  35              		.loc 1 188 0
  36              		@ sp needed
 154:Generated_Source\PSoC4/BLE.c ****     cyBle_eventHandlerFlag = 0u;
  37              		.loc 1 154 0
  38 0006 1C70     		strb	r4, [r3]
 155:Generated_Source\PSoC4/BLE.c ****     cyBle_busyStatus = CYBLE_STACK_STATE_FREE;
ARM GAS  C:\Users\ramanatg\AppData\Local\Temp\cciThAgf.s 			page 5


  39              		.loc 1 155 0
  40 0008 064B     		ldr	r3, .L2+4
  41 000a 1C70     		strb	r4, [r3]
 158:Generated_Source\PSoC4/BLE.c ****     #endif /* (CYBLE_GAP_ROLE_PERIPHERAL || CYBLE_GAP_ROLE_BROADCASTER)  */
  42              		.loc 1 158 0
  43 000c 064B     		ldr	r3, .L2+8
  44 000e 1C70     		strb	r4, [r3]
  45              	.LBB9:
  46              	.LBB10:
 189:Generated_Source\PSoC4/BLE.c **** 
 190:Generated_Source\PSoC4/BLE.c **** 
 191:Generated_Source\PSoC4/BLE.c **** /******************************************************************************
 192:Generated_Source\PSoC4/BLE.c **** * Function Name: CyBle_ServiceInit
 193:Generated_Source\PSoC4/BLE.c **** ***************************************************************************//**
 194:Generated_Source\PSoC4/BLE.c **** * 
 195:Generated_Source\PSoC4/BLE.c **** *  Initializes all included services.
 196:Generated_Source\PSoC4/BLE.c **** * 
 197:Generated_Source\PSoC4/BLE.c **** * \return
 198:Generated_Source\PSoC4/BLE.c **** *  None
 199:Generated_Source\PSoC4/BLE.c **** * 
 200:Generated_Source\PSoC4/BLE.c **** ******************************************************************************/
 201:Generated_Source\PSoC4/BLE.c **** void CyBle_ServiceInit(void)
 202:Generated_Source\PSoC4/BLE.c **** {
 203:Generated_Source\PSoC4/BLE.c ****     #if(CYBLE_GATT_ROLE_CLIENT)
 204:Generated_Source\PSoC4/BLE.c ****         /* Check service range before clearing to support partial discovery */
 205:Generated_Source\PSoC4/BLE.c ****         if(cyBle_serverInfo[CYBLE_SRVI_GAP].range.startHandle == CYBLE_GATT_INVALID_ATTR_HANDLE_VAL
 206:Generated_Source\PSoC4/BLE.c ****         {
 207:Generated_Source\PSoC4/BLE.c ****             (void)memset(&cyBle_gapc, 0, sizeof(cyBle_gapc));
 208:Generated_Source\PSoC4/BLE.c ****         }
 209:Generated_Source\PSoC4/BLE.c ****         if(cyBle_serverInfo[CYBLE_SRVI_GATT].range.startHandle == CYBLE_GATT_INVALID_ATTR_HANDLE_VA
 210:Generated_Source\PSoC4/BLE.c ****         {
 211:Generated_Source\PSoC4/BLE.c ****             (void)memset(&cyBle_gattc, 0, sizeof(cyBle_gattc));
 212:Generated_Source\PSoC4/BLE.c ****         }
 213:Generated_Source\PSoC4/BLE.c ****     #endif /* CYBLE_GATT_ROLE_CLIENT */
 214:Generated_Source\PSoC4/BLE.c **** 
 215:Generated_Source\PSoC4/BLE.c ****    	#ifdef CYBLE_AIOS
 216:Generated_Source\PSoC4/BLE.c ****         CyBle_AiosInit();
 217:Generated_Source\PSoC4/BLE.c ****     #endif /* CYBLE_AIOS */
 218:Generated_Source\PSoC4/BLE.c **** 
 219:Generated_Source\PSoC4/BLE.c **** 	#ifdef CYBLE_ANCS
 220:Generated_Source\PSoC4/BLE.c ****         CyBle_AncsInit();
 221:Generated_Source\PSoC4/BLE.c ****     #endif /* CYBLE_ANCS */
 222:Generated_Source\PSoC4/BLE.c **** 	
 223:Generated_Source\PSoC4/BLE.c ****     #ifdef CYBLE_ANS
 224:Generated_Source\PSoC4/BLE.c ****         CyBle_AnsInit();
 225:Generated_Source\PSoC4/BLE.c ****     #endif /* CYBLE_ANS */
 226:Generated_Source\PSoC4/BLE.c ****     
 227:Generated_Source\PSoC4/BLE.c ****     #ifdef CYBLE_BAS
 228:Generated_Source\PSoC4/BLE.c ****         CyBle_BasInit();
 229:Generated_Source\PSoC4/BLE.c ****     #endif /* CYBLE_BAS */
 230:Generated_Source\PSoC4/BLE.c ****     
 231:Generated_Source\PSoC4/BLE.c ****     #ifdef CYBLE_BCS
 232:Generated_Source\PSoC4/BLE.c ****         CyBle_BcsInit();
 233:Generated_Source\PSoC4/BLE.c ****     #endif /* CYBLE_BCS */
 234:Generated_Source\PSoC4/BLE.c **** 
 235:Generated_Source\PSoC4/BLE.c ****     #ifdef CYBLE_BLS
 236:Generated_Source\PSoC4/BLE.c ****         CyBle_BlsInit();
ARM GAS  C:\Users\ramanatg\AppData\Local\Temp\cciThAgf.s 			page 6


 237:Generated_Source\PSoC4/BLE.c ****     #endif /* CYBLE_BLS */
 238:Generated_Source\PSoC4/BLE.c ****     
 239:Generated_Source\PSoC4/BLE.c ****     #ifdef CYBLE_BMS
 240:Generated_Source\PSoC4/BLE.c ****         CyBle_BmsInit();
 241:Generated_Source\PSoC4/BLE.c ****     #endif /* CYBLE_BMS */
 242:Generated_Source\PSoC4/BLE.c ****     
 243:Generated_Source\PSoC4/BLE.c ****     #ifdef CYBLE_CGMS
 244:Generated_Source\PSoC4/BLE.c ****         CyBle_CgmsInit();
 245:Generated_Source\PSoC4/BLE.c ****     #endif /* CYBLE_CGMS */
 246:Generated_Source\PSoC4/BLE.c **** 
 247:Generated_Source\PSoC4/BLE.c ****     #ifdef CYBLE_CPS
 248:Generated_Source\PSoC4/BLE.c ****         CyBle_CpsInit();
 249:Generated_Source\PSoC4/BLE.c ****     #endif /* CYBLE_CPS */
 250:Generated_Source\PSoC4/BLE.c **** 
 251:Generated_Source\PSoC4/BLE.c ****     #ifdef CYBLE_CSCS
 252:Generated_Source\PSoC4/BLE.c ****         CyBle_CscsInit();
 253:Generated_Source\PSoC4/BLE.c ****     #endif /* CYBLE_CSCS */
 254:Generated_Source\PSoC4/BLE.c ****     
 255:Generated_Source\PSoC4/BLE.c ****     #ifdef CYBLE_CTS
 256:Generated_Source\PSoC4/BLE.c ****         CyBle_CtsInit();
 257:Generated_Source\PSoC4/BLE.c ****     #endif /* CYBLE_CTS */
 258:Generated_Source\PSoC4/BLE.c **** 
 259:Generated_Source\PSoC4/BLE.c ****     #ifdef CYBLE_CUSTOM
 260:Generated_Source\PSoC4/BLE.c ****         CyBle_CustomInit();
  47              		.loc 1 260 0
  48 0010 FFF7FEFF 		bl	CyBle_CustomInit
  49              	.LVL0:
  50              	.LBE10:
  51              	.LBE9:
 184:Generated_Source\PSoC4/BLE.c ****         cyBle_peerBonding = CYBLE_GAP_BONDING_NONE;
  52              		.loc 1 184 0
  53 0014 054B     		ldr	r3, .L2+12
  54 0016 1C70     		strb	r4, [r3]
 185:Generated_Source\PSoC4/BLE.c ****     #endif  /* (CYBLE_BONDING_REQUIREMENT == CYBLE_BONDING_YES) */
  55              		.loc 1 185 0
  56 0018 054B     		ldr	r3, .L2+16
  57 001a 1C70     		strb	r4, [r3]
 188:Generated_Source\PSoC4/BLE.c **** 
  58              		.loc 1 188 0
  59 001c 10BD     		pop	{r4, pc}
  60              	.L3:
  61 001e C046     		.align	2
  62              	.L2:
  63 0020 00000000 		.word	cyBle_eventHandlerFlag
  64 0024 00000000 		.word	cyBle_busyStatus
  65 0028 00000000 		.word	cyBle_advertisingIntervalType
  66 002c 00000000 		.word	cyBle_pendingFlashWrite
  67 0030 00000000 		.word	cyBle_peerBonding
  68              		.cfi_endproc
  69              	.LFE2:
  70              		.size	CyBle_Init, .-CyBle_Init
  71              		.section	.text.CyBle_ServiceInit,"ax",%progbits
  72              		.align	2
  73              		.global	CyBle_ServiceInit
  74              		.code	16
  75              		.thumb_func
  76              		.type	CyBle_ServiceInit, %function
ARM GAS  C:\Users\ramanatg\AppData\Local\Temp\cciThAgf.s 			page 7


  77              	CyBle_ServiceInit:
  78              	.LFB3:
 202:Generated_Source\PSoC4/BLE.c ****     #if(CYBLE_GATT_ROLE_CLIENT)
  79              		.loc 1 202 0
  80              		.cfi_startproc
  81 0000 08B5     		push	{r3, lr}
  82              		.cfi_def_cfa_offset 8
  83              		.cfi_offset 3, -8
  84              		.cfi_offset 14, -4
  85              		.loc 1 260 0
  86 0002 FFF7FEFF 		bl	CyBle_CustomInit
  87              	.LVL1:
 261:Generated_Source\PSoC4/BLE.c ****     #endif /* CYBLE_CUSTOM */
 262:Generated_Source\PSoC4/BLE.c **** 
 263:Generated_Source\PSoC4/BLE.c ****     #ifdef CYBLE_DIS
 264:Generated_Source\PSoC4/BLE.c ****         CyBle_DisInit();
 265:Generated_Source\PSoC4/BLE.c ****     #endif /* CYBLE_DIS */
 266:Generated_Source\PSoC4/BLE.c **** 
 267:Generated_Source\PSoC4/BLE.c ****     #ifdef CYBLE_ESS
 268:Generated_Source\PSoC4/BLE.c ****         CyBle_EssInit();
 269:Generated_Source\PSoC4/BLE.c ****     #endif /* CYBLE_ESS */
 270:Generated_Source\PSoC4/BLE.c ****     
 271:Generated_Source\PSoC4/BLE.c ****     #ifdef CYBLE_GLS
 272:Generated_Source\PSoC4/BLE.c ****         CyBle_GlsInit();
 273:Generated_Source\PSoC4/BLE.c ****     #endif /* CYBLE_GLS */
 274:Generated_Source\PSoC4/BLE.c ****     
 275:Generated_Source\PSoC4/BLE.c ****     #ifdef CYBLE_HIDS
 276:Generated_Source\PSoC4/BLE.c ****         CyBle_HidsInit();
 277:Generated_Source\PSoC4/BLE.c ****     #endif /* CYBLE_HIDS */
 278:Generated_Source\PSoC4/BLE.c **** 
 279:Generated_Source\PSoC4/BLE.c ****     #ifdef CYBLE_HPS
 280:Generated_Source\PSoC4/BLE.c ****         CyBle_HpsInit();
 281:Generated_Source\PSoC4/BLE.c ****     #endif /* CYBLE_HPS */
 282:Generated_Source\PSoC4/BLE.c **** 
 283:Generated_Source\PSoC4/BLE.c ****     #ifdef CYBLE_HRS
 284:Generated_Source\PSoC4/BLE.c ****         CyBle_HrsInit();
 285:Generated_Source\PSoC4/BLE.c ****     #endif /* CYBLE_HRS */
 286:Generated_Source\PSoC4/BLE.c ****     
 287:Generated_Source\PSoC4/BLE.c ****     #ifdef CYBLE_HTS
 288:Generated_Source\PSoC4/BLE.c ****         CyBle_HtsInit();
 289:Generated_Source\PSoC4/BLE.c ****     #endif /* CYBLE_RSCS */
 290:Generated_Source\PSoC4/BLE.c **** 
 291:Generated_Source\PSoC4/BLE.c ****     #ifdef CYBLE_IAS
 292:Generated_Source\PSoC4/BLE.c ****         CyBle_IasInit();
 293:Generated_Source\PSoC4/BLE.c ****     #endif /* CYBLE_IAS */
 294:Generated_Source\PSoC4/BLE.c **** 
 295:Generated_Source\PSoC4/BLE.c ****     #ifdef CYBLE_IPS
 296:Generated_Source\PSoC4/BLE.c ****         CyBle_IpsInit();
 297:Generated_Source\PSoC4/BLE.c ****     #endif /* CYBLE_IPS */
 298:Generated_Source\PSoC4/BLE.c ****     
 299:Generated_Source\PSoC4/BLE.c ****     #ifdef CYBLE_LLS
 300:Generated_Source\PSoC4/BLE.c ****         CyBle_LlsInit();
 301:Generated_Source\PSoC4/BLE.c ****     #endif /* CYBLE_LLS */
 302:Generated_Source\PSoC4/BLE.c **** 
 303:Generated_Source\PSoC4/BLE.c ****     #ifdef CYBLE_LNS
 304:Generated_Source\PSoC4/BLE.c ****         CyBle_LnsInit();
 305:Generated_Source\PSoC4/BLE.c ****     #endif /* CYBLE_LNS */
ARM GAS  C:\Users\ramanatg\AppData\Local\Temp\cciThAgf.s 			page 8


 306:Generated_Source\PSoC4/BLE.c ****     
 307:Generated_Source\PSoC4/BLE.c ****     #ifdef CYBLE_NDCS
 308:Generated_Source\PSoC4/BLE.c ****         CyBle_NdcsInit();
 309:Generated_Source\PSoC4/BLE.c ****     #endif /* CYBLE_NDCS */
 310:Generated_Source\PSoC4/BLE.c ****     
 311:Generated_Source\PSoC4/BLE.c ****     #ifdef CYBLE_PASS
 312:Generated_Source\PSoC4/BLE.c ****         CyBle_PassInit();
 313:Generated_Source\PSoC4/BLE.c ****     #endif /* CYBLE_PASS */
 314:Generated_Source\PSoC4/BLE.c ****     
 315:Generated_Source\PSoC4/BLE.c ****     #ifdef CYBLE_PLXS
 316:Generated_Source\PSoC4/BLE.c ****         CyBle_PlxsInit();
 317:Generated_Source\PSoC4/BLE.c ****     #endif /* CYBLE_PLXS */
 318:Generated_Source\PSoC4/BLE.c ****     
 319:Generated_Source\PSoC4/BLE.c ****     #ifdef CYBLE_RSCS
 320:Generated_Source\PSoC4/BLE.c ****         CyBle_RscsInit();
 321:Generated_Source\PSoC4/BLE.c ****     #endif /* CYBLE_RSCS */
 322:Generated_Source\PSoC4/BLE.c **** 
 323:Generated_Source\PSoC4/BLE.c ****     #ifdef CYBLE_RTUS
 324:Generated_Source\PSoC4/BLE.c ****         CyBle_RtusInit();
 325:Generated_Source\PSoC4/BLE.c ****     #endif /* CYBLE_RTUS */
 326:Generated_Source\PSoC4/BLE.c **** 
 327:Generated_Source\PSoC4/BLE.c ****     #ifdef CYBLE_SCPS
 328:Generated_Source\PSoC4/BLE.c ****         CyBle_ScpsInit();
 329:Generated_Source\PSoC4/BLE.c ****     #endif /* CYBLE_SCPS */
 330:Generated_Source\PSoC4/BLE.c ****     
 331:Generated_Source\PSoC4/BLE.c ****     #ifdef CYBLE_TPS
 332:Generated_Source\PSoC4/BLE.c ****         CyBle_TpsInit();
 333:Generated_Source\PSoC4/BLE.c ****     #endif /* CYBLE_TPS */
 334:Generated_Source\PSoC4/BLE.c ****     
 335:Generated_Source\PSoC4/BLE.c ****     #ifdef CYBLE_UDS
 336:Generated_Source\PSoC4/BLE.c ****         CyBle_UdsInit();
 337:Generated_Source\PSoC4/BLE.c ****     #endif /* CYBLE_UDS */
 338:Generated_Source\PSoC4/BLE.c **** 
 339:Generated_Source\PSoC4/BLE.c ****     #ifdef CYBLE_WPTS
 340:Generated_Source\PSoC4/BLE.c ****         CyBle_WptsInit();
 341:Generated_Source\PSoC4/BLE.c ****     #endif /* CYBLE_WPTS */
 342:Generated_Source\PSoC4/BLE.c **** 
 343:Generated_Source\PSoC4/BLE.c ****     #ifdef CYBLE_WSS
 344:Generated_Source\PSoC4/BLE.c ****         CyBle_WssInit();
 345:Generated_Source\PSoC4/BLE.c ****     #endif /* CYBLE_WSS */
 346:Generated_Source\PSoC4/BLE.c **** }
  88              		.loc 1 346 0
  89              		@ sp needed
  90 0006 08BD     		pop	{r3, pc}
  91              		.cfi_endproc
  92              	.LFE3:
  93              		.size	CyBle_ServiceInit, .-CyBle_ServiceInit
  94              		.section	.text.CyBle_Start,"ax",%progbits
  95              		.align	2
  96              		.global	CyBle_Start
  97              		.code	16
  98              		.thumb_func
  99              		.type	CyBle_Start, %function
 100              	CyBle_Start:
 101              	.LFB4:
 347:Generated_Source\PSoC4/BLE.c **** 
 348:Generated_Source\PSoC4/BLE.c **** 
ARM GAS  C:\Users\ramanatg\AppData\Local\Temp\cciThAgf.s 			page 9


 349:Generated_Source\PSoC4/BLE.c **** /******************************************************************************
 350:Generated_Source\PSoC4/BLE.c **** * Function Name: CyBle_Start
 351:Generated_Source\PSoC4/BLE.c **** ***************************************************************************//**
 352:Generated_Source\PSoC4/BLE.c **** * 
 353:Generated_Source\PSoC4/BLE.c **** *  This function initializes the BLE Stack, which consists of the BLE Stack 
 354:Generated_Source\PSoC4/BLE.c **** *  Manager, BLE Controller, and BLE Host modules. It takes care of initializing
 355:Generated_Source\PSoC4/BLE.c **** *  the Profile layer, schedulers, Timer and other platform related
 356:Generated_Source\PSoC4/BLE.c **** *  resources required for the BLE component. It also registers the callback 
 357:Generated_Source\PSoC4/BLE.c **** *  function for BLE events that will be registered in the BLE stack.
 358:Generated_Source\PSoC4/BLE.c **** * 
 359:Generated_Source\PSoC4/BLE.c **** *  Note that this function does not reset the BLE Stack.
 360:Generated_Source\PSoC4/BLE.c **** * 
 361:Generated_Source\PSoC4/BLE.c **** *  For HCI-Mode of operation, this function will not initialize the BLE Host 
 362:Generated_Source\PSoC4/BLE.c **** *  module.
 363:Generated_Source\PSoC4/BLE.c **** * 
 364:Generated_Source\PSoC4/BLE.c **** *  Calling this function results in the generation of CYBLE_EVT_STACK_ON event
 365:Generated_Source\PSoC4/BLE.c **** *  on successful initialization of the BLE Stack.
 366:Generated_Source\PSoC4/BLE.c **** * 
 367:Generated_Source\PSoC4/BLE.c **** *  \param callbackFunc: Event callback function to receive events from BLE stack.
 368:Generated_Source\PSoC4/BLE.c **** *   CYBLE_CALLBACK_T is a function pointer type.
 369:Generated_Source\PSoC4/BLE.c **** * 
 370:Generated_Source\PSoC4/BLE.c **** * \return
 371:Generated_Source\PSoC4/BLE.c **** *  CYBLE_API_RESULT_T : Return value indicates if the function succeeded or 
 372:Generated_Source\PSoC4/BLE.c **** *  failed. Following are the possible error codes.
 373:Generated_Source\PSoC4/BLE.c **** * 
 374:Generated_Source\PSoC4/BLE.c **** *   <table>
 375:Generated_Source\PSoC4/BLE.c **** *  	  <tr>
 376:Generated_Source\PSoC4/BLE.c **** *       <th>Error codes</th>
 377:Generated_Source\PSoC4/BLE.c **** *       <th>Description</th>
 378:Generated_Source\PSoC4/BLE.c **** *     </tr>
 379:Generated_Source\PSoC4/BLE.c **** *     <tr>
 380:Generated_Source\PSoC4/BLE.c **** *       <td>CYBLE_ERROR_OK</td>
 381:Generated_Source\PSoC4/BLE.c **** *       <td>On successful operation.</td>
 382:Generated_Source\PSoC4/BLE.c **** *     </tr>
 383:Generated_Source\PSoC4/BLE.c **** *     <tr>
 384:Generated_Source\PSoC4/BLE.c **** *       <td>CYBLE_ERROR_INVALID_PARAMETER</td>
 385:Generated_Source\PSoC4/BLE.c **** *       <td>On passing a NULL pointer to the function. 
 386:Generated_Source\PSoC4/BLE.c **** *		</td>
 387:Generated_Source\PSoC4/BLE.c **** *     </tr>
 388:Generated_Source\PSoC4/BLE.c **** *     <tr>
 389:Generated_Source\PSoC4/BLE.c **** *       <td>CYBLE_ERROR_REPEATED_ATTEMPTS</td>
 390:Generated_Source\PSoC4/BLE.c **** *       <td>On invoking this function more than once without calling CyBle_Shutdown() 
 391:Generated_Source\PSoC4/BLE.c **** *           function between calls to this function.</td>
 392:Generated_Source\PSoC4/BLE.c **** *     </tr>
 393:Generated_Source\PSoC4/BLE.c **** *     <tr>
 394:Generated_Source\PSoC4/BLE.c **** *       <td>CYBLE_ERROR_MEMORY_ALLOCATION_FAILED</td>
 395:Generated_Source\PSoC4/BLE.c **** *       <td>There is insufficient memory available.</td>
 396:Generated_Source\PSoC4/BLE.c **** *     </tr>
 397:Generated_Source\PSoC4/BLE.c **** *   </table>
 398:Generated_Source\PSoC4/BLE.c **** * 
 399:Generated_Source\PSoC4/BLE.c **** *  \globalvars
 400:Generated_Source\PSoC4/BLE.c **** *   The CyBle_initVar variable is used to indicate initial
 401:Generated_Source\PSoC4/BLE.c **** *   configuration of this component. The variable is initialized to zero (0u)
 402:Generated_Source\PSoC4/BLE.c **** *   and set to one (1u) the first time CyBle_Start() is called. This
 403:Generated_Source\PSoC4/BLE.c **** *   allows for component initialization without re-initialization in all
 404:Generated_Source\PSoC4/BLE.c **** *   subsequent calls to the CyBle_Start() routine.
 405:Generated_Source\PSoC4/BLE.c **** * 
ARM GAS  C:\Users\ramanatg\AppData\Local\Temp\cciThAgf.s 			page 10


 406:Generated_Source\PSoC4/BLE.c **** ******************************************************************************/
 407:Generated_Source\PSoC4/BLE.c **** CYBLE_API_RESULT_T CyBle_Start(CYBLE_CALLBACK_T callbackFunc)
 408:Generated_Source\PSoC4/BLE.c **** {
 102              		.loc 1 408 0
 103              		.cfi_startproc
 104              	.LVL2:
 105 0000 70B5     		push	{r4, r5, r6, lr}
 106              		.cfi_def_cfa_offset 16
 107              		.cfi_offset 4, -16
 108              		.cfi_offset 5, -12
 109              		.cfi_offset 6, -8
 110              		.cfi_offset 14, -4
 111 0002 90B0     		sub	sp, sp, #64
 112              		.cfi_def_cfa_offset 80
 113              		.loc 1 408 0
 114 0004 051C     		mov	r5, r0
 409:Generated_Source\PSoC4/BLE.c ****     CYBLE_API_RESULT_T apiResult = CYBLE_ERROR_OK;
 410:Generated_Source\PSoC4/BLE.c ****     
 411:Generated_Source\PSoC4/BLE.c ****     #if(CYBLE_MODE_PROFILE)
 412:Generated_Source\PSoC4/BLE.c ****     
 413:Generated_Source\PSoC4/BLE.c ****     CYBLE_STK_APP_DATA_BUFF_T cyBle_stackDataBuff[CYBLE_STACK_APP_MIN_POOL] = 
 115              		.loc 1 413 0
 116 0006 2649     		ldr	r1, .L13
 117 0008 0BA8     		add	r0, sp, #44
 118              	.LVL3:
 119 000a 1422     		mov	r2, #20
 120 000c FFF7FEFF 		bl	memcpy
 121              	.LVL4:
 414:Generated_Source\PSoC4/BLE.c ****     {
 415:Generated_Source\PSoC4/BLE.c ****         {CYBLE_GATT_MTU_PLUS_L2CAP_MEM_EXT, CYBLE_GATT_MTU_BUFF_COUNT + CYBLE_GATT_MAX_ATTR_BUFF_CO
 416:Generated_Source\PSoC4/BLE.c ****         {CYBLE_L2CAP_PSM_PLUS_L2CAP_MEM_EXT, CYBLE_L2CAP_PSM_COUNT},
 417:Generated_Source\PSoC4/BLE.c ****         {CYBLE_L2CAP_CBFC_PLUS_L2CAP_MEM_EXT, 2u * CYBLE_L2CAP_LOGICAL_CHANNEL_COUNT},
 418:Generated_Source\PSoC4/BLE.c ****         {CYBLE_L2CAP_MTU_PLUS_L2CAP_MEM_EXT, CYBLE_L2CAP_LOGICAL_CHANNEL_COUNT},
 419:Generated_Source\PSoC4/BLE.c ****         {CYBLE_L2CAP_MPS_PLUS_L2CAP_MEM_EXT, CYBLE_L2CAP_LOGICAL_CHANNEL_COUNT * (CYBLE_L2CAP_MTU_M
 420:Generated_Source\PSoC4/BLE.c ****     }; 
 421:Generated_Source\PSoC4/BLE.c **** 
 422:Generated_Source\PSoC4/BLE.c ****     #endif /* CYBLE_MODE_PROFILE */
 423:Generated_Source\PSoC4/BLE.c ****     
 424:Generated_Source\PSoC4/BLE.c ****     /* If not initialized then initialize all the required hardware and software */
 425:Generated_Source\PSoC4/BLE.c ****     if(cyBle_initVar == 0u)
 122              		.loc 1 425 0
 123 0010 244E     		ldr	r6, .L13+4
 124 0012 3478     		ldrb	r4, [r6]
 125 0014 002C     		cmp	r4, #0
 126 0016 31D0     		beq	.L10
 426:Generated_Source\PSoC4/BLE.c ****     {
 427:Generated_Source\PSoC4/BLE.c ****         CyBle_Init();
 428:Generated_Source\PSoC4/BLE.c ****         cyBle_initVar = 1u;
 429:Generated_Source\PSoC4/BLE.c ****     }
 430:Generated_Source\PSoC4/BLE.c ****     
 431:Generated_Source\PSoC4/BLE.c ****     if(callbackFunc != NULL)
 127              		.loc 1 431 0
 128 0018 002D     		cmp	r5, #0
 129 001a 3FD0     		beq	.L8
 130              	.L12:
 131              	.LBB11:
 432:Generated_Source\PSoC4/BLE.c ****     {
ARM GAS  C:\Users\ramanatg\AppData\Local\Temp\cciThAgf.s 			page 11


 433:Generated_Source\PSoC4/BLE.c ****         CyBle_ApplCallback = callbackFunc;
 434:Generated_Source\PSoC4/BLE.c ****         
 435:Generated_Source\PSoC4/BLE.c ****     #if(CYBLE_SHARING_MODE_EXPORT)
 436:Generated_Source\PSoC4/BLE.c ****         if(cyBle_stackMemoryRam == NULL)
 437:Generated_Source\PSoC4/BLE.c ****         {
 438:Generated_Source\PSoC4/BLE.c ****             cyBle_stackMemoryRam = (uint8 *)malloc(CYBLE_STACK_RAM_SIZE);
 439:Generated_Source\PSoC4/BLE.c ****             if(cyBle_stackMemoryRam == NULL)
 440:Generated_Source\PSoC4/BLE.c ****             {
 441:Generated_Source\PSoC4/BLE.c ****                 apiResult = CYBLE_ERROR_MEMORY_ALLOCATION_FAILED;
 442:Generated_Source\PSoC4/BLE.c ****             }
 443:Generated_Source\PSoC4/BLE.c ****         }
 444:Generated_Source\PSoC4/BLE.c ****     #endif /* CYBLE_SHARING_MODE_EXPORT */
 445:Generated_Source\PSoC4/BLE.c ****         if(apiResult == CYBLE_ERROR_OK)
 446:Generated_Source\PSoC4/BLE.c ****         {
 447:Generated_Source\PSoC4/BLE.c ****             CYBLE_DLE_CONFIG_PARAM_T dleConfigParams;
 448:Generated_Source\PSoC4/BLE.c ****             CYBLE_PRIVACY_1_2_CONFIG_PARAM_T privacyConfigParams;
 449:Generated_Source\PSoC4/BLE.c ****             CYBLE_STACK_CONFIG_PARAM_T stackConfig;
 450:Generated_Source\PSoC4/BLE.c ****             uint16 featureHeapReq;
 451:Generated_Source\PSoC4/BLE.c ****             
 452:Generated_Source\PSoC4/BLE.c ****             stackConfig.privacyConfig = &privacyConfigParams;
 453:Generated_Source\PSoC4/BLE.c ****             stackConfig.dleConfig = &dleConfigParams;
 454:Generated_Source\PSoC4/BLE.c ****             
 455:Generated_Source\PSoC4/BLE.c ****             /* Configure default BLE 4.1 features and enabled 4.2 features */
 456:Generated_Source\PSoC4/BLE.c ****             stackConfig.feature_mask = CYBLE_DLE_FEATURE | CYBLE_LL_PRIVACY_FEATURE | 
 132              		.loc 1 456 0
 133 001c 0021     		mov	r1, #0
 134              	.LBE11:
 433:Generated_Source\PSoC4/BLE.c ****         
 135              		.loc 1 433 0
 136 001e 224B     		ldr	r3, .L13+8
 137              	.LBB12:
 452:Generated_Source\PSoC4/BLE.c ****             stackConfig.dleConfig = &dleConfigParams;
 138              		.loc 1 452 0
 139 0020 08A8     		add	r0, sp, #32
 140              	.LBE12:
 433:Generated_Source\PSoC4/BLE.c ****         
 141              		.loc 1 433 0
 142 0022 1D60     		str	r5, [r3]
 143              	.LBB13:
 144              		.loc 1 456 0
 145 0024 0181     		strh	r1, [r0, #8]
 453:Generated_Source\PSoC4/BLE.c ****             
 146              		.loc 1 453 0
 147 0026 06AB     		add	r3, sp, #24
 457:Generated_Source\PSoC4/BLE.c ****                                        CYBLE_SECURE_CONN_FEATURE;
 458:Generated_Source\PSoC4/BLE.c **** 
 459:Generated_Source\PSoC4/BLE.c ****             /* Configure DLE */
 460:Generated_Source\PSoC4/BLE.c ****             dleConfigParams.dleMaxTxCapability = CYBLE_LL_MAX_TX_PAYLOAD_SIZE;
 148              		.loc 1 460 0
 149 0028 1B31     		add	r1, r1, #27
 150 002a 1980     		strh	r1, [r3]
 461:Generated_Source\PSoC4/BLE.c ****             dleConfigParams.dleMaxRxCapability = CYBLE_LL_MAX_RX_PAYLOAD_SIZE;
 151              		.loc 1 461 0
 152 002c 5980     		strh	r1, [r3, #2]
 462:Generated_Source\PSoC4/BLE.c ****             dleConfigParams.dleNumTxBuffer = CYBLE_LL_DEFAULT_NUM_ACL_TX_PACKETS;
 153              		.loc 1 462 0
 154 002e 1739     		sub	r1, r1, #23
ARM GAS  C:\Users\ramanatg\AppData\Local\Temp\cciThAgf.s 			page 12


 155 0030 1971     		strb	r1, [r3, #4]
 453:Generated_Source\PSoC4/BLE.c ****             
 156              		.loc 1 453 0
 157 0032 0893     		str	r3, [sp, #32]
 463:Generated_Source\PSoC4/BLE.c ****         #if(CYBLE_DLE_FEATURE_ENABLED)
 464:Generated_Source\PSoC4/BLE.c ****             CyBle_EnableDleFeature();              /* Enable DLE code in stack */
 465:Generated_Source\PSoC4/BLE.c ****         #endif /* CYBLE_DLE_FEATURE_ENABLED */
 466:Generated_Source\PSoC4/BLE.c ****         
 467:Generated_Source\PSoC4/BLE.c ****             /* Configure LL Privacy */
 468:Generated_Source\PSoC4/BLE.c ****             privacyConfigParams.resolvingListSize = CYBLE_MAX_RESOLVABLE_DEVICES;
 158              		.loc 1 468 0
 159 0034 0023     		mov	r3, #0
 469:Generated_Source\PSoC4/BLE.c ****         #if(CYBLE_LL_PRIVACY_FEATURE_ENABLED)
 470:Generated_Source\PSoC4/BLE.c ****             CyBle_EnablePrivacyFeature();          /* Enable LL Privacy code in stack */
 471:Generated_Source\PSoC4/BLE.c ****         #endif /* CYBLE_LL_PRIVACY_FEATURE_ENABLED */
 472:Generated_Source\PSoC4/BLE.c **** 
 473:Generated_Source\PSoC4/BLE.c ****             apiResult = CyBle_StackSetFeatureConfig(&stackConfig, &featureHeapReq);
 160              		.loc 1 473 0
 161 0036 1231     		add	r1, r1, #18
 452:Generated_Source\PSoC4/BLE.c ****             stackConfig.dleConfig = &dleConfigParams;
 162              		.loc 1 452 0
 163 0038 05AA     		add	r2, sp, #20
 164              		.loc 1 473 0
 165 003a 6944     		add	r1, r1, sp
 452:Generated_Source\PSoC4/BLE.c ****             stackConfig.dleConfig = &dleConfigParams;
 166              		.loc 1 452 0
 167 003c 4260     		str	r2, [r0, #4]
 468:Generated_Source\PSoC4/BLE.c ****         #if(CYBLE_LL_PRIVACY_FEATURE_ENABLED)
 168              		.loc 1 468 0
 169 003e 1370     		strb	r3, [r2]
 170              		.loc 1 473 0
 171 0040 FFF7FEFF 		bl	CyBle_StackSetFeatureConfig
 172              	.LVL5:
 173              	.LBE13:
 474:Generated_Source\PSoC4/BLE.c ****             }
 475:Generated_Source\PSoC4/BLE.c ****     
 476:Generated_Source\PSoC4/BLE.c ****         if(apiResult == CYBLE_ERROR_OK)
 174              		.loc 1 476 0
 175 0044 0028     		cmp	r0, #0
 176 0046 01D0     		beq	.L11
 177              	.LVL6:
 178              	.L7:
 477:Generated_Source\PSoC4/BLE.c ****         {
 478:Generated_Source\PSoC4/BLE.c ****         
 479:Generated_Source\PSoC4/BLE.c ****         #if(CYBLE_MODE_PROFILE)
 480:Generated_Source\PSoC4/BLE.c ****             #if(CYBLE_BONDING_REQUIREMENT == CYBLE_BONDING_YES)
 481:Generated_Source\PSoC4/BLE.c ****                 apiResult = CyBle_StackInit(&CyBle_EventHandler, cyBle_stackMemoryRam, 
 482:Generated_Source\PSoC4/BLE.c ****                     CYBLE_STACK_RAM_SIZE - CYBLE_GATT_PREPARE_WRITE_BUFF_LEN, cyBle_stackDataBuff, 
 483:Generated_Source\PSoC4/BLE.c ****                     CYBLE_STACK_APP_MIN_POOL, cyBle_flashStorage.stackFlashptr, CYBLE_STACK_FLASH_S
 484:Generated_Source\PSoC4/BLE.c ****             #else
 485:Generated_Source\PSoC4/BLE.c ****                 apiResult = CyBle_StackInit(&CyBle_EventHandler, cyBle_stackMemoryRam, 
 486:Generated_Source\PSoC4/BLE.c ****                     CYBLE_STACK_RAM_SIZE - CYBLE_GATT_PREPARE_WRITE_BUFF_LEN, cyBle_stackDataBuff, 
 487:Generated_Source\PSoC4/BLE.c ****                     CYBLE_STACK_APP_MIN_POOL, NULL, 0u);
 488:Generated_Source\PSoC4/BLE.c ****             #endif  /* CYBLE_BONDING_REQUIREMENT == CYBLE_BONDING_YES */
 489:Generated_Source\PSoC4/BLE.c ****         #else /* HCI mode */
 490:Generated_Source\PSoC4/BLE.c ****             /* The following will perform preparation to use HCI over UART or over
 491:Generated_Source\PSoC4/BLE.c ****                software. But the following fucntions will not initialize the HCI
ARM GAS  C:\Users\ramanatg\AppData\Local\Temp\cciThAgf.s 			page 13


 492:Generated_Source\PSoC4/BLE.c ****                Transport. This will be done as part of Stack initialization, so
 493:Generated_Source\PSoC4/BLE.c ****                the functions should be called prior CyBle_StackInit().
 494:Generated_Source\PSoC4/BLE.c ****             */
 495:Generated_Source\PSoC4/BLE.c ****             #if (CYBLE_HCI_TYPE == CYBLE_HCI_OVER_UART)
 496:Generated_Source\PSoC4/BLE.c ****                 CyBle_HciUartTransportEnable();
 497:Generated_Source\PSoC4/BLE.c ****             #else
 498:Generated_Source\PSoC4/BLE.c ****                 CyBle_HciSoftTransportEnable();
 499:Generated_Source\PSoC4/BLE.c ****             #endif /* (CYBLE_HCI_TYPE == CYBLE_HCI_OVER_UART) */
 500:Generated_Source\PSoC4/BLE.c ****             /* This will initialize BLE stack for HCI mode operation */
 501:Generated_Source\PSoC4/BLE.c ****             apiResult = CyBle_StackInit(&CyBle_EventHandler, cyBle_stackMemoryRam, CYBLE_STACK_RAM_
 502:Generated_Source\PSoC4/BLE.c ****                 NULL, 0u, NULL, 0u);
 503:Generated_Source\PSoC4/BLE.c ****         #endif /* CYBLE_MODE_PROFILE */
 504:Generated_Source\PSoC4/BLE.c **** 
 505:Generated_Source\PSoC4/BLE.c ****             if(apiResult == CYBLE_ERROR_OK)
 506:Generated_Source\PSoC4/BLE.c ****             {
 507:Generated_Source\PSoC4/BLE.c ****                 CyBle_SetState(CYBLE_STATE_INITIALIZING);
 508:Generated_Source\PSoC4/BLE.c ****                 
 509:Generated_Source\PSoC4/BLE.c ****             #if (CYBLE_GATT_ROLE_CLIENT)
 510:Generated_Source\PSoC4/BLE.c ****                 CyBle_SetClientState(CYBLE_CLIENT_STATE_DISCONNECTED);
 511:Generated_Source\PSoC4/BLE.c ****             #endif /* CYBLE_GATT_ROLE_CLIENT */
 512:Generated_Source\PSoC4/BLE.c ****                 
 513:Generated_Source\PSoC4/BLE.c ****             #if(CYBLE_GATT_ROLE_SERVER)
 514:Generated_Source\PSoC4/BLE.c ****                 apiResult = CyBle_GattsDbRegister(cyBle_gattDB, CYBLE_GATT_DB_INDEX_COUNT, CYBLE_GA
 515:Generated_Source\PSoC4/BLE.c ****             #endif /* CYBLE_GATT_ROLE_SERVER */
 516:Generated_Source\PSoC4/BLE.c ****             }
 517:Generated_Source\PSoC4/BLE.c ****         }
 518:Generated_Source\PSoC4/BLE.c ****     }
 519:Generated_Source\PSoC4/BLE.c ****     else
 520:Generated_Source\PSoC4/BLE.c ****     {
 521:Generated_Source\PSoC4/BLE.c ****         apiResult = CYBLE_ERROR_INVALID_PARAMETER;
 522:Generated_Source\PSoC4/BLE.c ****     }
 523:Generated_Source\PSoC4/BLE.c **** 
 524:Generated_Source\PSoC4/BLE.c ****     return (apiResult);
 525:Generated_Source\PSoC4/BLE.c **** }
 179              		.loc 1 525 0
 180 0048 10B0     		add	sp, sp, #64
 181              		@ sp needed
 182              	.LVL7:
 183 004a 70BD     		pop	{r4, r5, r6, pc}
 184              	.LVL8:
 185              	.L11:
 481:Generated_Source\PSoC4/BLE.c ****                     CYBLE_STACK_RAM_SIZE - CYBLE_GATT_PREPARE_WRITE_BUFF_LEN, cyBle_stackDataBuff, 
 186              		.loc 1 481 0
 187 004c 0523     		mov	r3, #5
 188 004e AE22     		mov	r2, #174
 189 0050 0093     		str	r3, [sp]
 190 0052 164B     		ldr	r3, .L13+12
 191 0054 1648     		ldr	r0, .L13+16
 192              	.LVL9:
 193 0056 0193     		str	r3, [sp, #4]
 194 0058 164B     		ldr	r3, .L13+20
 195 005a 1749     		ldr	r1, .L13+24
 196 005c 0293     		str	r3, [sp, #8]
 197 005e 1201     		lsl	r2, r2, #4
 198 0060 0BAB     		add	r3, sp, #44
 199 0062 FFF7FEFF 		bl	CyBle_StackInit
 200              	.LVL10:
ARM GAS  C:\Users\ramanatg\AppData\Local\Temp\cciThAgf.s 			page 14


 505:Generated_Source\PSoC4/BLE.c ****             {
 201              		.loc 1 505 0
 202 0066 0028     		cmp	r0, #0
 203 0068 EED1     		bne	.L7
 507:Generated_Source\PSoC4/BLE.c ****                 
 204              		.loc 1 507 0
 205 006a 0122     		mov	r2, #1
 206 006c 134B     		ldr	r3, .L13+28
 514:Generated_Source\PSoC4/BLE.c ****             #endif /* CYBLE_GATT_ROLE_SERVER */
 207              		.loc 1 514 0
 208 006e 1E21     		mov	r1, #30
 507:Generated_Source\PSoC4/BLE.c ****                 
 209              		.loc 1 507 0
 210 0070 1A70     		strb	r2, [r3]
 514:Generated_Source\PSoC4/BLE.c ****             #endif /* CYBLE_GATT_ROLE_SERVER */
 211              		.loc 1 514 0
 212 0072 1348     		ldr	r0, .L13+32
 213              	.LVL11:
 214 0074 1132     		add	r2, r2, #17
 215 0076 FFF7FEFF 		bl	CyBle_GattsDbRegister
 216              	.LVL12:
 217 007a E5E7     		b	.L7
 218              	.LVL13:
 219              	.L10:
 220              	.LBB14:
 221              	.LBB15:
 154:Generated_Source\PSoC4/BLE.c ****     cyBle_busyStatus = CYBLE_STACK_STATE_FREE;
 222              		.loc 1 154 0
 223 007c 114B     		ldr	r3, .L13+36
 224 007e 1C70     		strb	r4, [r3]
 155:Generated_Source\PSoC4/BLE.c **** 
 225              		.loc 1 155 0
 226 0080 114B     		ldr	r3, .L13+40
 227 0082 1C70     		strb	r4, [r3]
 158:Generated_Source\PSoC4/BLE.c ****     #endif /* (CYBLE_GAP_ROLE_PERIPHERAL || CYBLE_GAP_ROLE_BROADCASTER)  */
 228              		.loc 1 158 0
 229 0084 114B     		ldr	r3, .L13+44
 230 0086 1C70     		strb	r4, [r3]
 231              	.LBB16:
 232              	.LBB17:
 260:Generated_Source\PSoC4/BLE.c ****     #endif /* CYBLE_CUSTOM */
 233              		.loc 1 260 0
 234 0088 FFF7FEFF 		bl	CyBle_CustomInit
 235              	.LVL14:
 236              	.LBE17:
 237              	.LBE16:
 184:Generated_Source\PSoC4/BLE.c ****         cyBle_peerBonding = CYBLE_GAP_BONDING_NONE;
 238              		.loc 1 184 0
 239 008c 104B     		ldr	r3, .L13+48
 240 008e 1C70     		strb	r4, [r3]
 185:Generated_Source\PSoC4/BLE.c ****     #endif  /* (CYBLE_BONDING_REQUIREMENT == CYBLE_BONDING_YES) */
 241              		.loc 1 185 0
 242 0090 104B     		ldr	r3, .L13+52
 243 0092 1C70     		strb	r4, [r3]
 244              	.LBE15:
 245              	.LBE14:
 428:Generated_Source\PSoC4/BLE.c ****     }
ARM GAS  C:\Users\ramanatg\AppData\Local\Temp\cciThAgf.s 			page 15


 246              		.loc 1 428 0
 247 0094 0123     		mov	r3, #1
 248 0096 3370     		strb	r3, [r6]
 431:Generated_Source\PSoC4/BLE.c ****     {
 249              		.loc 1 431 0
 250 0098 002D     		cmp	r5, #0
 251 009a BFD1     		bne	.L12
 252              	.L8:
 521:Generated_Source\PSoC4/BLE.c ****     }
 253              		.loc 1 521 0
 254 009c 0120     		mov	r0, #1
 255 009e D3E7     		b	.L7
 256              	.L14:
 257              		.align	2
 258              	.L13:
 259 00a0 00000000 		.word	.LANCHOR0
 260 00a4 00000000 		.word	.LANCHOR1
 261 00a8 00000000 		.word	CyBle_ApplCallback
 262 00ac 00000000 		.word	cyBle_flashStorage
 263 00b0 00000000 		.word	CyBle_EventHandler
 264 00b4 79020000 		.word	633
 265 00b8 00000000 		.word	.LANCHOR2
 266 00bc 00000000 		.word	cyBle_state
 267 00c0 00000000 		.word	cyBle_gattDB
 268 00c4 00000000 		.word	cyBle_eventHandlerFlag
 269 00c8 00000000 		.word	cyBle_busyStatus
 270 00cc 00000000 		.word	cyBle_advertisingIntervalType
 271 00d0 00000000 		.word	cyBle_pendingFlashWrite
 272 00d4 00000000 		.word	cyBle_peerBonding
 273              		.cfi_endproc
 274              	.LFE4:
 275              		.size	CyBle_Start, .-CyBle_Start
 276              		.section	.text.CyBle_Stop,"ax",%progbits
 277              		.align	2
 278              		.global	CyBle_Stop
 279              		.code	16
 280              		.thumb_func
 281              		.type	CyBle_Stop, %function
 282              	CyBle_Stop:
 283              	.LFB5:
 526:Generated_Source\PSoC4/BLE.c **** 
 527:Generated_Source\PSoC4/BLE.c **** 
 528:Generated_Source\PSoC4/BLE.c **** /******************************************************************************
 529:Generated_Source\PSoC4/BLE.c **** * Function Name: CyBle_Stop
 530:Generated_Source\PSoC4/BLE.c **** ***************************************************************************//**
 531:Generated_Source\PSoC4/BLE.c **** * 
 532:Generated_Source\PSoC4/BLE.c **** *  This function stops any ongoing operation in the BLE Stack and forces the 
 533:Generated_Source\PSoC4/BLE.c **** *  BLE Stack to shut down. The only function that can be called after calling
 534:Generated_Source\PSoC4/BLE.c **** *  this function is CyBle_Start(). 
 535:Generated_Source\PSoC4/BLE.c **** * 
 536:Generated_Source\PSoC4/BLE.c **** * \return
 537:Generated_Source\PSoC4/BLE.c **** *  None
 538:Generated_Source\PSoC4/BLE.c **** * 
 539:Generated_Source\PSoC4/BLE.c **** ******************************************************************************/
 540:Generated_Source\PSoC4/BLE.c **** void CyBle_Stop(void)
 541:Generated_Source\PSoC4/BLE.c **** {
 284              		.loc 1 541 0
ARM GAS  C:\Users\ramanatg\AppData\Local\Temp\cciThAgf.s 			page 16


 285              		.cfi_startproc
 286 0000 08B5     		push	{r3, lr}
 287              		.cfi_def_cfa_offset 8
 288              		.cfi_offset 3, -8
 289              		.cfi_offset 14, -4
 542:Generated_Source\PSoC4/BLE.c ****     CyBle_Shutdown();                         /* Stop all ongoing activities */
 290              		.loc 1 542 0
 291 0002 FFF7FEFF 		bl	CyBle_Shutdown
 292              	.LVL15:
 543:Generated_Source\PSoC4/BLE.c ****     CyBle_SetState(CYBLE_STATE_STOPPED);
 293              		.loc 1 543 0
 294 0006 0022     		mov	r2, #0
 295 0008 014B     		ldr	r3, .L16
 544:Generated_Source\PSoC4/BLE.c ****     #if(CYBLE_SHARING_MODE_EXPORT)
 545:Generated_Source\PSoC4/BLE.c ****         if(cyBle_stackMemoryRam != NULL)
 546:Generated_Source\PSoC4/BLE.c ****         {
 547:Generated_Source\PSoC4/BLE.c ****             free(cyBle_stackMemoryRam);
 548:Generated_Source\PSoC4/BLE.c ****         }
 549:Generated_Source\PSoC4/BLE.c ****     #endif /* CYBLE_SHARING_MODE_EXPORT */
 550:Generated_Source\PSoC4/BLE.c **** }
 296              		.loc 1 550 0
 297              		@ sp needed
 543:Generated_Source\PSoC4/BLE.c ****     CyBle_SetState(CYBLE_STATE_STOPPED);
 298              		.loc 1 543 0
 299 000a 1A70     		strb	r2, [r3]
 300              		.loc 1 550 0
 301 000c 08BD     		pop	{r3, pc}
 302              	.L17:
 303 000e C046     		.align	2
 304              	.L16:
 305 0010 00000000 		.word	cyBle_state
 306              		.cfi_endproc
 307              	.LFE5:
 308              		.size	CyBle_Stop, .-CyBle_Stop
 309              		.section	.text.CyBle_StoreBondingData,"ax",%progbits
 310              		.align	2
 311              		.global	CyBle_StoreBondingData
 312              		.code	16
 313              		.thumb_func
 314              		.type	CyBle_StoreBondingData, %function
 315              	CyBle_StoreBondingData:
 316              	.LFB6:
 551:Generated_Source\PSoC4/BLE.c **** 
 552:Generated_Source\PSoC4/BLE.c **** 
 553:Generated_Source\PSoC4/BLE.c **** #if((CYBLE_GAP_ROLE_PERIPHERAL || CYBLE_GAP_ROLE_CENTRAL) && (CYBLE_BONDING_REQUIREMENT == CYBLE_BO
 554:Generated_Source\PSoC4/BLE.c **** 
 555:Generated_Source\PSoC4/BLE.c ****     
 556:Generated_Source\PSoC4/BLE.c **** /******************************************************************************
 557:Generated_Source\PSoC4/BLE.c **** * Function Name: CyBle_StoreBondingData
 558:Generated_Source\PSoC4/BLE.c **** ***************************************************************************//**
 559:Generated_Source\PSoC4/BLE.c **** * 
 560:Generated_Source\PSoC4/BLE.c **** *  This function writes the new bonding data from RAM to the dedicated Flash 
 561:Generated_Source\PSoC4/BLE.c **** *  location as defined by the component. It performs data comparing between RAM
 562:Generated_Source\PSoC4/BLE.c **** *  and Flash before writing to Flash. If there is no change between RAM and Flash
 563:Generated_Source\PSoC4/BLE.c **** *  data, then no write is performed. It writes only one flash row in one call.
 564:Generated_Source\PSoC4/BLE.c **** *  Application should keep calling this function till API return CYBLE_ERROR_OK. 
 565:Generated_Source\PSoC4/BLE.c **** *  This function is available only when Bonding requirement is selected in
ARM GAS  C:\Users\ramanatg\AppData\Local\Temp\cciThAgf.s 			page 17


 566:Generated_Source\PSoC4/BLE.c **** *  Security settings.    
 567:Generated_Source\PSoC4/BLE.c **** * 
 568:Generated_Source\PSoC4/BLE.c **** *  \param isForceWrite:  If value is set to 0, then stack will check if flash write 
 569:Generated_Source\PSoC4/BLE.c **** *                 is permissible. 
 570:Generated_Source\PSoC4/BLE.c **** *  
 571:Generated_Source\PSoC4/BLE.c **** * \return
 572:Generated_Source\PSoC4/BLE.c **** *  Return value is of type CYBLE_API_RESULT_T.
 573:Generated_Source\PSoC4/BLE.c **** *
 574:Generated_Source\PSoC4/BLE.c **** *   Errors codes                         | Description
 575:Generated_Source\PSoC4/BLE.c **** *   ----------------------------------   | ------------------------------------
 576:Generated_Source\PSoC4/BLE.c **** *   CYBLE_ERROR_OK                       | On successful operation
 577:Generated_Source\PSoC4/BLE.c **** *   CYBLE_ERROR_FLASH_WRITE_NOT_PERMITED | Flash Write is not complete
 578:Generated_Source\PSoC4/BLE.c **** *   CYBLE_ERROR_INVALID_PARAMETER        | Invalid input parameter  
 579:Generated_Source\PSoC4/BLE.c **** *   CYBLE_ERROR_FLASH_WRITE              | Error in flash Write	
 580:Generated_Source\PSoC4/BLE.c ****     
 581:Generated_Source\PSoC4/BLE.c **** *  \sideeffect
 582:Generated_Source\PSoC4/BLE.c **** *   For BLE devices with 128K of Flash memory this API will automatically 
 583:Generated_Source\PSoC4/BLE.c **** *   modify the clock settings for the device.
 584:Generated_Source\PSoC4/BLE.c **** *   Writing to flash requires changes to be done to the IMO (set to 48 MHz)
 585:Generated_Source\PSoC4/BLE.c **** *   and HFCLK (source set to IMO) settings. The configuration is restored before
 586:Generated_Source\PSoC4/BLE.c **** *   returning. This will impact the operation of most of the hardware in the
 587:Generated_Source\PSoC4/BLE.c **** *   device.
 588:Generated_Source\PSoC4/BLE.c **** * 
 589:Generated_Source\PSoC4/BLE.c **** *  \globalvars
 590:Generated_Source\PSoC4/BLE.c **** *   The cyBle_pendingFlashWrite variable is used to detect status
 591:Generated_Source\PSoC4/BLE.c **** *   of pending write to flash operation for stack data and CCCD.
 592:Generated_Source\PSoC4/BLE.c **** *   This API automatically clears pending bits after write operation complete.
 593:Generated_Source\PSoC4/BLE.c **** *     
 594:Generated_Source\PSoC4/BLE.c **** ******************************************************************************/
 595:Generated_Source\PSoC4/BLE.c **** CYBLE_API_RESULT_T CyBle_StoreBondingData(uint8 isForceWrite)
 596:Generated_Source\PSoC4/BLE.c **** {
 317              		.loc 1 596 0
 318              		.cfi_startproc
 319              	.LVL16:
 320 0000 70B5     		push	{r4, r5, r6, lr}
 321              		.cfi_def_cfa_offset 16
 322              		.cfi_offset 4, -16
 323              		.cfi_offset 5, -12
 324              		.cfi_offset 6, -8
 325              		.cfi_offset 14, -4
 597:Generated_Source\PSoC4/BLE.c ****     CYBLE_API_RESULT_T apiResult = CYBLE_ERROR_OK;
 598:Generated_Source\PSoC4/BLE.c ****     
 599:Generated_Source\PSoC4/BLE.c ****     /* Store Stack data */
 600:Generated_Source\PSoC4/BLE.c ****     if((cyBle_pendingFlashWrite & CYBLE_PENDING_STACK_FLASH_WRITE_BIT) != 0u)
 326              		.loc 1 600 0
 327 0002 0126     		mov	r6, #1
 328 0004 314C     		ldr	r4, .L46
 596:Generated_Source\PSoC4/BLE.c ****     CYBLE_API_RESULT_T apiResult = CYBLE_ERROR_OK;
 329              		.loc 1 596 0
 330 0006 84B0     		sub	sp, sp, #16
 331              		.cfi_def_cfa_offset 32
 332              		.loc 1 600 0
 333 0008 2378     		ldrb	r3, [r4]
 596:Generated_Source\PSoC4/BLE.c ****     CYBLE_API_RESULT_T apiResult = CYBLE_ERROR_OK;
 334              		.loc 1 596 0
 335 000a 051C     		mov	r5, r0
 336              		.loc 1 600 0
ARM GAS  C:\Users\ramanatg\AppData\Local\Temp\cciThAgf.s 			page 18


 337 000c 1E42     		tst	r6, r3
 338 000e 2FD1     		bne	.L45
 339              	.LVL17:
 340              	.L19:
 601:Generated_Source\PSoC4/BLE.c ****     {
 602:Generated_Source\PSoC4/BLE.c ****         apiResult = CyBle_StoreStackData(isForceWrite);
 603:Generated_Source\PSoC4/BLE.c ****         if(apiResult == CYBLE_ERROR_OK)
 604:Generated_Source\PSoC4/BLE.c ****         {
 605:Generated_Source\PSoC4/BLE.c ****             cyBle_pendingFlashWrite &= (uint8)~CYBLE_PENDING_STACK_FLASH_WRITE_BIT;
 606:Generated_Source\PSoC4/BLE.c ****             /* Change apiResult if there are more pending data to store */
 607:Generated_Source\PSoC4/BLE.c ****             if((cyBle_pendingFlashWrite & CYBLE_PENDING_CCCD_FLASH_WRITE_BIT) != 0u)
 608:Generated_Source\PSoC4/BLE.c ****             {
 609:Generated_Source\PSoC4/BLE.c ****                 apiResult = CYBLE_ERROR_FLASH_WRITE_NOT_PERMITED;
 610:Generated_Source\PSoC4/BLE.c ****             }
 611:Generated_Source\PSoC4/BLE.c ****         }
 612:Generated_Source\PSoC4/BLE.c ****     }
 613:Generated_Source\PSoC4/BLE.c **** #if(CYBLE_GATT_DB_CCCD_COUNT != 0u)
 614:Generated_Source\PSoC4/BLE.c ****     /* Store CCCD values */
 615:Generated_Source\PSoC4/BLE.c ****     if( ((apiResult == CYBLE_ERROR_OK) || (isForceWrite != 0u)) && 
 341              		.loc 1 615 0
 342 0010 9A07     		lsl	r2, r3, #30
 343 0012 17D4     		bmi	.L30
 344              	.L43:
 616:Generated_Source\PSoC4/BLE.c ****         ((cyBle_pendingFlashWrite & CYBLE_PENDING_CCCD_FLASH_WRITE_BIT) != 0u) &&
 345              		.loc 1 616 0
 346 0014 0020     		mov	r0, #0
 347              	.LVL18:
 348              	.L24:
 617:Generated_Source\PSoC4/BLE.c ****         (cyBle_connHandle.bdHandle <= CYBLE_GAP_MAX_BONDED_DEVICE))
 618:Generated_Source\PSoC4/BLE.c ****     {
 619:Generated_Source\PSoC4/BLE.c ****         apiResult = CyBle_StoreAppData(cyBle_attValuesCCCD, cyBle_flashStorage.attValuesCCCDFlashMe
 620:Generated_Source\PSoC4/BLE.c ****                         cyBle_connHandle.bdHandle], CYBLE_GATT_DB_CCCD_COUNT, isForceWrite);
 621:Generated_Source\PSoC4/BLE.c ****         if(apiResult == CYBLE_ERROR_OK)
 622:Generated_Source\PSoC4/BLE.c ****         {
 623:Generated_Source\PSoC4/BLE.c ****             cyBle_pendingFlashWrite &= (uint8)~CYBLE_PENDING_CCCD_FLASH_WRITE_BIT;
 624:Generated_Source\PSoC4/BLE.c ****         }
 625:Generated_Source\PSoC4/BLE.c ****     }
 626:Generated_Source\PSoC4/BLE.c ****     /* Clear requested CCCD values */
 627:Generated_Source\PSoC4/BLE.c ****     if( ((apiResult == CYBLE_ERROR_OK) || (isForceWrite != 0u)) && 
 349              		.loc 1 627 0 discriminator 3
 350 0016 0C22     		mov	r2, #12
 351 0018 1A42     		tst	r2, r3
 352 001a 11D0     		beq	.L36
 628:Generated_Source\PSoC4/BLE.c ****         ((cyBle_pendingFlashWrite & CYBLE_PENDING_CCCD_FLASH_CLEAR_MASK) != 0u) )
 629:Generated_Source\PSoC4/BLE.c ****     {
 630:Generated_Source\PSoC4/BLE.c ****         if((cyBle_pendingFlashWrite & CYBLE_PENDING_CCCD_FLASH_CLEAR_ALL_BIT) != 0u)
 353              		.loc 1 630 0
 354 001c 0826     		mov	r6, #8
 355              	.LBB18:
 631:Generated_Source\PSoC4/BLE.c ****         {
 632:Generated_Source\PSoC4/BLE.c ****             /* Remove cccd values for all bonded devices */
 633:Generated_Source\PSoC4/BLE.c ****             uint8 defaultValuesCCCD[CYBLE_GAP_MAX_BONDED_DEVICE + 1u][CYBLE_GATT_DB_CCCD_COUNT];
 634:Generated_Source\PSoC4/BLE.c ****             
 635:Generated_Source\PSoC4/BLE.c ****             (void)memset(defaultValuesCCCD, 0, sizeof(defaultValuesCCCD));
 356              		.loc 1 635 0
 357 001e 01A8     		add	r0, sp, #4
 358              	.LBE18:
ARM GAS  C:\Users\ramanatg\AppData\Local\Temp\cciThAgf.s 			page 19


 630:Generated_Source\PSoC4/BLE.c ****         {
 359              		.loc 1 630 0
 360 0020 3340     		and	r3, r6
 361 0022 3BD0     		beq	.L26
 362              	.LBB19:
 363              		.loc 1 635 0
 364 0024 0023     		mov	r3, #0
 636:Generated_Source\PSoC4/BLE.c **** 
 637:Generated_Source\PSoC4/BLE.c ****             apiResult = CyBle_StoreAppData((uint8 *)defaultValuesCCCD, 
 365              		.loc 1 637 0
 366 0026 2A49     		ldr	r1, .L46+4
 635:Generated_Source\PSoC4/BLE.c **** 
 367              		.loc 1 635 0
 368 0028 0193     		str	r3, [sp, #4]
 369              		.loc 1 637 0
 370 002a 023A     		sub	r2, r2, #2
 635:Generated_Source\PSoC4/BLE.c **** 
 371              		.loc 1 635 0
 372 002c 4360     		str	r3, [r0, #4]
 373 002e 0381     		strh	r3, [r0, #8]
 374              		.loc 1 637 0
 375 0030 2B1C     		mov	r3, r5
 376 0032 FFF7FEFF 		bl	CyBle_StoreAppData
 377              	.LVL19:
 638:Generated_Source\PSoC4/BLE.c ****                 (const uint8 *)cyBle_flashStorage.attValuesCCCDFlashMemory, sizeof(defaultValuesCCC
 639:Generated_Source\PSoC4/BLE.c ****             if(apiResult == CYBLE_ERROR_OK)
 378              		.loc 1 639 0
 379 0036 0028     		cmp	r0, #0
 380 0038 02D1     		bne	.L36
 640:Generated_Source\PSoC4/BLE.c ****             {
 641:Generated_Source\PSoC4/BLE.c ****                 cyBle_pendingFlashWrite &= (uint8)~CYBLE_PENDING_CCCD_FLASH_CLEAR_ALL_BIT;
 381              		.loc 1 641 0
 382 003a 2378     		ldrb	r3, [r4]
 383 003c B343     		bic	r3, r6
 384 003e 2370     		strb	r3, [r4]
 385              	.LVL20:
 386              	.L36:
 387              	.LBE19:
 642:Generated_Source\PSoC4/BLE.c ****             }
 643:Generated_Source\PSoC4/BLE.c ****         }
 644:Generated_Source\PSoC4/BLE.c ****         else /* Remove cccd values for particular device */
 645:Generated_Source\PSoC4/BLE.c ****         {
 646:Generated_Source\PSoC4/BLE.c ****             uint8 defaultValuesCCCD[CYBLE_GATT_DB_CCCD_COUNT] = {0u};
 647:Generated_Source\PSoC4/BLE.c ****             
 648:Generated_Source\PSoC4/BLE.c ****             apiResult = CyBle_StoreAppData(defaultValuesCCCD, cyBle_flashStorage.attValuesCCCDFlash
 649:Generated_Source\PSoC4/BLE.c ****                                     cyBle_pendingFlashClearCccdHandle], CYBLE_GATT_DB_CCCD_COUNT, i
 650:Generated_Source\PSoC4/BLE.c ****             if(apiResult == CYBLE_ERROR_OK)
 651:Generated_Source\PSoC4/BLE.c ****             {
 652:Generated_Source\PSoC4/BLE.c ****                 cyBle_pendingFlashWrite &= (uint8)~CYBLE_PENDING_CCCD_FLASH_CLEAR_BIT;
 653:Generated_Source\PSoC4/BLE.c ****             }
 654:Generated_Source\PSoC4/BLE.c ****         }
 655:Generated_Source\PSoC4/BLE.c ****     }
 656:Generated_Source\PSoC4/BLE.c **** #endif /* CYBLE_GATT_DB_CCCD_COUNT != 0u */
 657:Generated_Source\PSoC4/BLE.c ****     return(apiResult);
 658:Generated_Source\PSoC4/BLE.c **** }
 388              		.loc 1 658 0
 389 0040 04B0     		add	sp, sp, #16
ARM GAS  C:\Users\ramanatg\AppData\Local\Temp\cciThAgf.s 			page 20


 390              		@ sp needed
 391 0042 70BD     		pop	{r4, r5, r6, pc}
 392              	.LVL21:
 393              	.L30:
 617:Generated_Source\PSoC4/BLE.c ****     {
 394              		.loc 1 617 0
 395 0044 234A     		ldr	r2, .L46+8
 396 0046 1278     		ldrb	r2, [r2]
 616:Generated_Source\PSoC4/BLE.c ****         (cyBle_connHandle.bdHandle <= CYBLE_GAP_MAX_BONDED_DEVICE))
 397              		.loc 1 616 0
 398 0048 042A     		cmp	r2, #4
 399 004a E3D8     		bhi	.L43
 400              	.LVL22:
 401              	.L31:
 619:Generated_Source\PSoC4/BLE.c ****                         cyBle_connHandle.bdHandle], CYBLE_GATT_DB_CCCD_COUNT, isForceWrite);
 402              		.loc 1 619 0
 403 004c 3D32     		add	r2, r2, #61
 404 004e FF32     		add	r2, r2, #255
 405 0050 2149     		ldr	r1, .L46+12
 406 0052 5200     		lsl	r2, r2, #1
 407 0054 5118     		add	r1, r2, r1
 408 0056 0131     		add	r1, r1, #1
 409 0058 2048     		ldr	r0, .L46+16
 410 005a 0222     		mov	r2, #2
 411 005c 2B1C     		mov	r3, r5
 412 005e FFF7FEFF 		bl	CyBle_StoreAppData
 413              	.LVL23:
 621:Generated_Source\PSoC4/BLE.c ****         {
 414              		.loc 1 621 0
 415 0062 0028     		cmp	r0, #0
 416 0064 2ED1     		bne	.L23
 623:Generated_Source\PSoC4/BLE.c ****         }
 417              		.loc 1 623 0
 418 0066 0222     		mov	r2, #2
 419 0068 2378     		ldrb	r3, [r4]
 420 006a 9343     		bic	r3, r2
 421 006c 2370     		strb	r3, [r4]
 422              	.LVL24:
 423 006e D2E7     		b	.L24
 424              	.LVL25:
 425              	.L45:
 602:Generated_Source\PSoC4/BLE.c ****         if(apiResult == CYBLE_ERROR_OK)
 426              		.loc 1 602 0
 427 0070 FFF7FEFF 		bl	CyBle_StoreStackData
 428              	.LVL26:
 603:Generated_Source\PSoC4/BLE.c ****         {
 429              		.loc 1 603 0
 430 0074 0028     		cmp	r0, #0
 431 0076 06D1     		bne	.L20
 605:Generated_Source\PSoC4/BLE.c ****             /* Change apiResult if there are more pending data to store */
 432              		.loc 1 605 0
 433 0078 2278     		ldrb	r2, [r4]
 434 007a 131C     		mov	r3, r2
 435 007c B343     		bic	r3, r6
 436 007e 2370     		strb	r3, [r4]
 607:Generated_Source\PSoC4/BLE.c ****             {
 437              		.loc 1 607 0
ARM GAS  C:\Users\ramanatg\AppData\Local\Temp\cciThAgf.s 			page 21


 438 0080 9207     		lsl	r2, r2, #30
 439 0082 C5D5     		bpl	.L19
 609:Generated_Source\PSoC4/BLE.c ****             }
 440              		.loc 1 609 0
 441 0084 2820     		mov	r0, #40
 442              	.LVL27:
 443              	.L20:
 615:Generated_Source\PSoC4/BLE.c ****         ((cyBle_pendingFlashWrite & CYBLE_PENDING_CCCD_FLASH_WRITE_BIT) != 0u) &&
 444              		.loc 1 615 0
 445 0086 002D     		cmp	r5, #0
 446 0088 DAD0     		beq	.L36
 616:Generated_Source\PSoC4/BLE.c ****         (cyBle_connHandle.bdHandle <= CYBLE_GAP_MAX_BONDED_DEVICE))
 447              		.loc 1 616 0 discriminator 3
 448 008a 2378     		ldrb	r3, [r4]
 615:Generated_Source\PSoC4/BLE.c ****         ((cyBle_pendingFlashWrite & CYBLE_PENDING_CCCD_FLASH_WRITE_BIT) != 0u) &&
 449              		.loc 1 615 0 discriminator 3
 450 008c 9B07     		lsl	r3, r3, #30
 451 008e 03D5     		bpl	.L21
 617:Generated_Source\PSoC4/BLE.c ****     {
 452              		.loc 1 617 0
 453 0090 104B     		ldr	r3, .L46+8
 454 0092 1A78     		ldrb	r2, [r3]
 616:Generated_Source\PSoC4/BLE.c ****         (cyBle_connHandle.bdHandle <= CYBLE_GAP_MAX_BONDED_DEVICE))
 455              		.loc 1 616 0
 456 0094 042A     		cmp	r2, #4
 457 0096 D9D9     		bls	.L31
 458              	.L21:
 459 0098 2378     		ldrb	r3, [r4]
 460 009a BCE7     		b	.L24
 461              	.LVL28:
 462              	.L26:
 463              	.LBB20:
 646:Generated_Source\PSoC4/BLE.c ****             
 464              		.loc 1 646 0
 465 009c 0380     		strh	r3, [r0]
 648:Generated_Source\PSoC4/BLE.c ****                                     cyBle_pendingFlashClearCccdHandle], CYBLE_GATT_DB_CCCD_COUNT, i
 466              		.loc 1 648 0
 467 009e 104B     		ldr	r3, .L46+20
 468 00a0 0222     		mov	r2, #2
 469 00a2 5978     		ldrb	r1, [r3, #1]
 470 00a4 0C4B     		ldr	r3, .L46+12
 471 00a6 3D31     		add	r1, r1, #61
 472 00a8 FF31     		add	r1, r1, #255
 473 00aa 4900     		lsl	r1, r1, #1
 474 00ac C918     		add	r1, r1, r3
 475 00ae 0131     		add	r1, r1, #1
 476 00b0 2B1C     		mov	r3, r5
 477 00b2 FFF7FEFF 		bl	CyBle_StoreAppData
 478              	.LVL29:
 650:Generated_Source\PSoC4/BLE.c ****             {
 479              		.loc 1 650 0
 480 00b6 0028     		cmp	r0, #0
 481 00b8 C2D1     		bne	.L36
 652:Generated_Source\PSoC4/BLE.c ****             }
 482              		.loc 1 652 0
 483 00ba 0422     		mov	r2, #4
 484 00bc 2378     		ldrb	r3, [r4]
ARM GAS  C:\Users\ramanatg\AppData\Local\Temp\cciThAgf.s 			page 22


 485 00be 9343     		bic	r3, r2
 486 00c0 2370     		strb	r3, [r4]
 487 00c2 BDE7     		b	.L36
 488              	.L23:
 489              	.LBE20:
 627:Generated_Source\PSoC4/BLE.c ****         ((cyBle_pendingFlashWrite & CYBLE_PENDING_CCCD_FLASH_CLEAR_MASK) != 0u) )
 490              		.loc 1 627 0
 491 00c4 002D     		cmp	r5, #0
 492 00c6 BBD0     		beq	.L36
 493 00c8 2378     		ldrb	r3, [r4]
 494 00ca A4E7     		b	.L24
 495              	.L47:
 496              		.align	2
 497              	.L46:
 498 00cc 00000000 		.word	cyBle_pendingFlashWrite
 499 00d0 79020000 		.word	cyBle_flashStorage+633
 500 00d4 00000000 		.word	cyBle_connHandle
 501 00d8 00000000 		.word	cyBle_flashStorage
 502 00dc 00000000 		.word	cyBle_attValuesCCCD
 503 00e0 00000000 		.word	.LANCHOR1
 504              		.cfi_endproc
 505              	.LFE6:
 506              		.size	CyBle_StoreBondingData, .-CyBle_StoreBondingData
 507              		.section	.text.CyBle_GapRemoveBondedDevice,"ax",%progbits
 508              		.align	2
 509              		.global	CyBle_GapRemoveBondedDevice
 510              		.code	16
 511              		.thumb_func
 512              		.type	CyBle_GapRemoveBondedDevice, %function
 513              	CyBle_GapRemoveBondedDevice:
 514              	.LFB7:
 659:Generated_Source\PSoC4/BLE.c **** 
 660:Generated_Source\PSoC4/BLE.c **** 
 661:Generated_Source\PSoC4/BLE.c **** /******************************************************************************
 662:Generated_Source\PSoC4/BLE.c **** * Function Name: CyBle_GapRemoveBondedDevice
 663:Generated_Source\PSoC4/BLE.c **** ***************************************************************************//**
 664:Generated_Source\PSoC4/BLE.c **** * 
 665:Generated_Source\PSoC4/BLE.c **** *  This function marks the device untrusted. It removes the bonding information
 666:Generated_Source\PSoC4/BLE.c **** *  of the device including CCCD values. This function removes device from the
 667:Generated_Source\PSoC4/BLE.c **** *  white list also when autopopulate white list with bonded devices option is
 668:Generated_Source\PSoC4/BLE.c **** *  enabled.
 669:Generated_Source\PSoC4/BLE.c **** * 
 670:Generated_Source\PSoC4/BLE.c **** *  This function is available only when Bonding requirement is selected in
 671:Generated_Source\PSoC4/BLE.c **** *  Security settings.    
 672:Generated_Source\PSoC4/BLE.c **** *
 673:Generated_Source\PSoC4/BLE.c **** *  \param bdAddr: Pointer to peer device address, of type CYBLE_GAP_BD_ADDR_T.
 674:Generated_Source\PSoC4/BLE.c **** *                 If device address is set to 0, then all devices shall be
 675:Generated_Source\PSoC4/BLE.c **** *                 removed from trusted list and white list.
 676:Generated_Source\PSoC4/BLE.c **** *
 677:Generated_Source\PSoC4/BLE.c **** * \return
 678:Generated_Source\PSoC4/BLE.c **** *  CYBLE_API_RESULT_T : Return value indicates if the function succeeded or
 679:Generated_Source\PSoC4/BLE.c **** *  failed. Following are the possible error codes.
 680:Generated_Source\PSoC4/BLE.c **** *
 681:Generated_Source\PSoC4/BLE.c **** *   Errors codes                     | Description
 682:Generated_Source\PSoC4/BLE.c **** *   ---------------------------------| ------------------------------------
 683:Generated_Source\PSoC4/BLE.c **** *   CYBLE_ERROR_OK                   | On successful operation.
 684:Generated_Source\PSoC4/BLE.c **** *   CYBLE_ERROR_INVALID_PARAMETER    | On specifying NULL as input parameter for 'bdAddr'.
ARM GAS  C:\Users\ramanatg\AppData\Local\Temp\cciThAgf.s 			page 23


 685:Generated_Source\PSoC4/BLE.c **** *   CYBLE_ERROR_INVALID_OPERATION    | Whitelist is already in use or there is pending write to fla
 686:Generated_Source\PSoC4/BLE.c **** *   CYBLE_ERROR_NO_DEVICE_ENTITY     | Device does not exist in the bond list.
 687:Generated_Source\PSoC4/BLE.c **** *
 688:Generated_Source\PSoC4/BLE.c **** *  \globalvars
 689:Generated_Source\PSoC4/BLE.c **** *   The bdHandle is set in cyBle_pendingFlashWrite variable to indicate that
 690:Generated_Source\PSoC4/BLE.c **** *   data should be stored to flash by CyBle_StoreBondingData afterwards. 
 691:Generated_Source\PSoC4/BLE.c **** *     
 692:Generated_Source\PSoC4/BLE.c **** ******************************************************************************/
 693:Generated_Source\PSoC4/BLE.c **** CYBLE_API_RESULT_T CyBle_GapRemoveBondedDevice(CYBLE_GAP_BD_ADDR_T* bdAddr)
 694:Generated_Source\PSoC4/BLE.c **** {
 515              		.loc 1 694 0
 516              		.cfi_startproc
 517              	.LVL30:
 518 0000 30B5     		push	{r4, r5, lr}
 519              		.cfi_def_cfa_offset 12
 520              		.cfi_offset 4, -12
 521              		.cfi_offset 5, -8
 522              		.cfi_offset 14, -4
 695:Generated_Source\PSoC4/BLE.c ****     CYBLE_API_RESULT_T apiResult = CYBLE_ERROR_OK;
 696:Generated_Source\PSoC4/BLE.c ****     
 697:Generated_Source\PSoC4/BLE.c ****     if(cyBle_pendingFlashWrite == 0u)
 523              		.loc 1 697 0
 524 0002 174D     		ldr	r5, .L56
 694:Generated_Source\PSoC4/BLE.c ****     CYBLE_API_RESULT_T apiResult = CYBLE_ERROR_OK;
 525              		.loc 1 694 0
 526 0004 011C     		mov	r1, r0
 527              		.loc 1 697 0
 528 0006 2B78     		ldrb	r3, [r5]
 694:Generated_Source\PSoC4/BLE.c ****     CYBLE_API_RESULT_T apiResult = CYBLE_ERROR_OK;
 529              		.loc 1 694 0
 530 0008 85B0     		sub	sp, sp, #20
 531              		.cfi_def_cfa_offset 32
 698:Generated_Source\PSoC4/BLE.c ****     {
 699:Generated_Source\PSoC4/BLE.c ****         
 700:Generated_Source\PSoC4/BLE.c ****     #if(CYBLE_GATT_DB_CCCD_COUNT != 0u)
 701:Generated_Source\PSoC4/BLE.c ****         /* Request to clear CCCD values which will be done by CyBle_StoreBondingData API */
 702:Generated_Source\PSoC4/BLE.c ****         uint8 bDevHandle;
 703:Generated_Source\PSoC4/BLE.c ****         CYBLE_GAP_BD_ADDR_T invalidBdAddr = {{0u,0u,0u,0u,0u,0u}, 0u};
 704:Generated_Source\PSoC4/BLE.c **** 
 705:Generated_Source\PSoC4/BLE.c ****         if(memcmp(((uint8 *) &(bdAddr->bdAddr)), ((uint8 *) &(invalidBdAddr.bdAddr)), CYBLE_GAP_BD_
 706:Generated_Source\PSoC4/BLE.c **** 	    {
 707:Generated_Source\PSoC4/BLE.c ****             /* Request to remove all bonded devices by cyBle_StoreBondingData API */
 708:Generated_Source\PSoC4/BLE.c ****             cyBle_pendingFlashWrite |= CYBLE_PENDING_CCCD_FLASH_CLEAR_ALL_BIT;
 709:Generated_Source\PSoC4/BLE.c ****         }
 710:Generated_Source\PSoC4/BLE.c ****         else
 711:Generated_Source\PSoC4/BLE.c ****         {
 712:Generated_Source\PSoC4/BLE.c ****             /* Get the BD handle from Address */
 713:Generated_Source\PSoC4/BLE.c ****             apiResult = CyBle_GapGetPeerBdHandle(&bDevHandle, bdAddr);
 714:Generated_Source\PSoC4/BLE.c ****             if(apiResult == CYBLE_ERROR_OK)
 715:Generated_Source\PSoC4/BLE.c ****             {
 716:Generated_Source\PSoC4/BLE.c ****                 /* Store BD handle to clear cccd values by CyBle_StoreBondingData API */
 717:Generated_Source\PSoC4/BLE.c ****                 cyBle_pendingFlashWrite |= CYBLE_PENDING_CCCD_FLASH_CLEAR_BIT;
 718:Generated_Source\PSoC4/BLE.c ****                 cyBle_pendingFlashClearCccdHandle = bDevHandle;
 719:Generated_Source\PSoC4/BLE.c ****             }
 720:Generated_Source\PSoC4/BLE.c ****         }
 721:Generated_Source\PSoC4/BLE.c ****     #endif /* CYBLE_GATT_DB_CCCD_COUNT != 0u */
 722:Generated_Source\PSoC4/BLE.c ****         if(apiResult == CYBLE_ERROR_OK)
ARM GAS  C:\Users\ramanatg\AppData\Local\Temp\cciThAgf.s 			page 24


 723:Generated_Source\PSoC4/BLE.c ****         {
 724:Generated_Source\PSoC4/BLE.c ****             apiResult = CyBle_GapRemoveDeviceFromWhiteList(bdAddr);
 725:Generated_Source\PSoC4/BLE.c ****         }
 726:Generated_Source\PSoC4/BLE.c ****     }
 727:Generated_Source\PSoC4/BLE.c ****     else
 728:Generated_Source\PSoC4/BLE.c ****     {
 729:Generated_Source\PSoC4/BLE.c ****         apiResult = CYBLE_ERROR_INVALID_OPERATION;
 532              		.loc 1 729 0
 533 000a 0220     		mov	r0, #2
 534              	.LVL31:
 697:Generated_Source\PSoC4/BLE.c ****     {
 535              		.loc 1 697 0
 536 000c 002B     		cmp	r3, #0
 537 000e 01D0     		beq	.L55
 538              	.LVL32:
 539              	.L54:
 730:Generated_Source\PSoC4/BLE.c ****     }
 731:Generated_Source\PSoC4/BLE.c ****     
 732:Generated_Source\PSoC4/BLE.c ****     return(apiResult);
 733:Generated_Source\PSoC4/BLE.c **** }
 540              		.loc 1 733 0
 541 0010 05B0     		add	sp, sp, #20
 542              		@ sp needed
 543 0012 30BD     		pop	{r4, r5, pc}
 544              	.LVL33:
 545              	.L55:
 546 0014 0C1C     		mov	r4, r1
 547              	.LBB21:
 705:Generated_Source\PSoC4/BLE.c **** 	    {
 548              		.loc 1 705 0
 549 0016 0622     		mov	r2, #6
 703:Generated_Source\PSoC4/BLE.c **** 
 550              		.loc 1 703 0
 551 0018 02A9     		add	r1, sp, #8
 552              	.LVL34:
 705:Generated_Source\PSoC4/BLE.c **** 	    {
 553              		.loc 1 705 0
 554 001a 201C     		mov	r0, r4
 703:Generated_Source\PSoC4/BLE.c **** 
 555              		.loc 1 703 0
 556 001c 0B70     		strb	r3, [r1]
 557 001e 4B70     		strb	r3, [r1, #1]
 558 0020 8B70     		strb	r3, [r1, #2]
 559 0022 CB70     		strb	r3, [r1, #3]
 560 0024 0B71     		strb	r3, [r1, #4]
 561 0026 4B71     		strb	r3, [r1, #5]
 562 0028 8B71     		strb	r3, [r1, #6]
 705:Generated_Source\PSoC4/BLE.c **** 	    {
 563              		.loc 1 705 0
 564 002a FFF7FEFF 		bl	memcmp
 565              	.LVL35:
 566 002e 0028     		cmp	r0, #0
 567 0030 05D1     		bne	.L50
 708:Generated_Source\PSoC4/BLE.c ****         }
 568              		.loc 1 708 0
 569 0032 0823     		mov	r3, #8
 570 0034 2B70     		strb	r3, [r5]
ARM GAS  C:\Users\ramanatg\AppData\Local\Temp\cciThAgf.s 			page 25


 571              	.LVL36:
 572              	.L51:
 724:Generated_Source\PSoC4/BLE.c ****         }
 573              		.loc 1 724 0
 574 0036 201C     		mov	r0, r4
 575 0038 FFF7FEFF 		bl	CyBle_GapRemoveDeviceFromWhiteList
 576              	.LVL37:
 577 003c E8E7     		b	.L54
 578              	.LVL38:
 579              	.L50:
 713:Generated_Source\PSoC4/BLE.c ****             if(apiResult == CYBLE_ERROR_OK)
 580              		.loc 1 713 0
 581 003e 6B46     		mov	r3, sp
 582 0040 211C     		mov	r1, r4
 583 0042 D81D     		add	r0, r3, #7
 584 0044 FFF7FEFF 		bl	CyBle_GapGetPeerBdHandle
 585              	.LVL39:
 714:Generated_Source\PSoC4/BLE.c ****             {
 586              		.loc 1 714 0
 587 0048 0028     		cmp	r0, #0
 588 004a E1D1     		bne	.L54
 717:Generated_Source\PSoC4/BLE.c ****                 cyBle_pendingFlashClearCccdHandle = bDevHandle;
 589              		.loc 1 717 0
 590 004c 0423     		mov	r3, #4
 591 004e 2A78     		ldrb	r2, [r5]
 592 0050 1343     		orr	r3, r2
 593 0052 2B70     		strb	r3, [r5]
 718:Generated_Source\PSoC4/BLE.c ****             }
 594              		.loc 1 718 0
 595 0054 6B46     		mov	r3, sp
 596 0056 DA79     		ldrb	r2, [r3, #7]
 597 0058 024B     		ldr	r3, .L56+4
 598 005a 5A70     		strb	r2, [r3, #1]
 599 005c EBE7     		b	.L51
 600              	.L57:
 601 005e C046     		.align	2
 602              	.L56:
 603 0060 00000000 		.word	cyBle_pendingFlashWrite
 604 0064 00000000 		.word	.LANCHOR1
 605              	.LBE21:
 606              		.cfi_endproc
 607              	.LFE7:
 608              		.size	CyBle_GapRemoveBondedDevice, .-CyBle_GapRemoveBondedDevice
 609              		.section	.text.CyBle_GappStartAdvertisement,"ax",%progbits
 610              		.align	2
 611              		.global	CyBle_GappStartAdvertisement
 612              		.code	16
 613              		.thumb_func
 614              		.type	CyBle_GappStartAdvertisement, %function
 615              	CyBle_GappStartAdvertisement:
 616              	.LFB8:
 734:Generated_Source\PSoC4/BLE.c **** 
 735:Generated_Source\PSoC4/BLE.c **** 
 736:Generated_Source\PSoC4/BLE.c **** #endif /* (CYBLE_GAP_ROLE_PERIPHERAL || CYBLE_GAP_ROLE_CENTRAL) && (CYBLE_BONDING_REQUIREMENT == CY
 737:Generated_Source\PSoC4/BLE.c **** 
 738:Generated_Source\PSoC4/BLE.c **** 
 739:Generated_Source\PSoC4/BLE.c **** #if(CYBLE_GAP_ROLE_PERIPHERAL || CYBLE_GAP_ROLE_BROADCASTER)
ARM GAS  C:\Users\ramanatg\AppData\Local\Temp\cciThAgf.s 			page 26


 740:Generated_Source\PSoC4/BLE.c **** 
 741:Generated_Source\PSoC4/BLE.c ****     /******************************************************************************
 742:Generated_Source\PSoC4/BLE.c ****     *  Function Name: CyBle_GappStartAdvertisement
 743:Generated_Source\PSoC4/BLE.c ****     ***************************************************************************//**
 744:Generated_Source\PSoC4/BLE.c ****     *     
 745:Generated_Source\PSoC4/BLE.c ****     *  This function is used to start the advertisement using the advertisement data 
 746:Generated_Source\PSoC4/BLE.c ****     *  set in the component customizer's GUI. After invoking this API, the device 
 747:Generated_Source\PSoC4/BLE.c ****     *  will be available for connection by the devices configured for GAP central 
 748:Generated_Source\PSoC4/BLE.c ****     *  role. It is only included if the device is configured for GAP Peripheral or 
 749:Generated_Source\PSoC4/BLE.c ****     *  GAP Peripheral + Central role.
 750:Generated_Source\PSoC4/BLE.c ****     *  
 751:Generated_Source\PSoC4/BLE.c ****     *  On start of advertisement, GAP Peripheral receives the
 752:Generated_Source\PSoC4/BLE.c ****     *  CYBLE_EVT_GAPP_ADVERTISEMENT_START_STOP event. The following events are 
 753:Generated_Source\PSoC4/BLE.c ****     *  possible on invoking this function:
 754:Generated_Source\PSoC4/BLE.c ****     *  
 755:Generated_Source\PSoC4/BLE.c ****     *  * CYBLE_EVT_GAP_DEVICE_CONNECTED - If the device connects to a GAP Central and 
 756:Generated_Source\PSoC4/BLE.c ****     *    Link Layer Privacy is disabled in component customizer.
 757:Generated_Source\PSoC4/BLE.c ****     *  * CYBLE_EVT_GAP_ENHANCE_CONN_COMPLETE - If the device connects to a GAP Central and 
 758:Generated_Source\PSoC4/BLE.c ****     *    Link Layer Privacy is enabled in component customizer.
 759:Generated_Source\PSoC4/BLE.c ****     *  * CYBLE_EVT_TIMEOUT: If no device in GAP Central mode connects to this 
 760:Generated_Source\PSoC4/BLE.c ****     *                       device within the specified timeout limit. Stack 
 761:Generated_Source\PSoC4/BLE.c ****     *                       automatically initiate stop advertising when Slow 
 762:Generated_Source\PSoC4/BLE.c ****     *                       advertising was initiated, or starts Slow advertising
 763:Generated_Source\PSoC4/BLE.c ****     *                       after Fast advertising timeout occur.
 764:Generated_Source\PSoC4/BLE.c ****     *  * CYBLE_EVT_GAPP_ADVERTISEMENT_START_STOP: If device started or stopped
 765:Generated_Source\PSoC4/BLE.c ****     *                                               advertising. Use CyBle_GetState()
 766:Generated_Source\PSoC4/BLE.c ****     *                                               to determine the state. Sequential 
 767:Generated_Source\PSoC4/BLE.c ****     *                                               advertising could be started when
 768:Generated_Source\PSoC4/BLE.c ****     *                                               CYBLE_STATE_DISCONNECTED state is
 769:Generated_Source\PSoC4/BLE.c ****     *                                               returned.
 770:Generated_Source\PSoC4/BLE.c ****     * 
 771:Generated_Source\PSoC4/BLE.c ****     *  \param advertisingIntervalType: Fast or slow advertising interval with timings
 772:Generated_Source\PSoC4/BLE.c ****     *                                 entered in Advertising settings section of the
 773:Generated_Source\PSoC4/BLE.c ****     *                                 customizer.
 774:Generated_Source\PSoC4/BLE.c ****     *  * CYBLE_ADVERTISING_FAST   0x00u
 775:Generated_Source\PSoC4/BLE.c ****     *  * CYBLE_ADVERTISING_SLOW   0x01u
 776:Generated_Source\PSoC4/BLE.c ****     *  * CYBLE_ADVERTISING_CUSTOM 0x02u
 777:Generated_Source\PSoC4/BLE.c ****     * 
 778:Generated_Source\PSoC4/BLE.c ****     * \return
 779:Generated_Source\PSoC4/BLE.c ****     *  CYBLE_API_RESULT_T : Return value indicates if the function succeeded or
 780:Generated_Source\PSoC4/BLE.c ****     *  failed. Following are the possible error codes.
 781:Generated_Source\PSoC4/BLE.c ****     * 
 782:Generated_Source\PSoC4/BLE.c ****     *   Errors codes                      |  Description
 783:Generated_Source\PSoC4/BLE.c ****     *   --------------------------------- |  --------------------------------
 784:Generated_Source\PSoC4/BLE.c ****     *   CYBLE_ERROR_OK                    |  On successful operation.
 785:Generated_Source\PSoC4/BLE.c ****     *   CYBLE_ERROR_INVALID_PARAMETER     |  On passing an invalid parameter.
 786:Generated_Source\PSoC4/BLE.c ****     *   CYBLE_ERROR_INVALID_STATE         |  On calling this API not in Disconnected state.
 787:Generated_Source\PSoC4/BLE.c ****     *
 788:Generated_Source\PSoC4/BLE.c ****     * 
 789:Generated_Source\PSoC4/BLE.c ****     *******************************************************************************/
 790:Generated_Source\PSoC4/BLE.c ****     CYBLE_API_RESULT_T CyBle_GappStartAdvertisement(uint8 advertisingIntervalType)
 791:Generated_Source\PSoC4/BLE.c ****     {
 617              		.loc 1 791 0
 618              		.cfi_startproc
 619              	.LVL40:
 620 0000 031C     		mov	r3, r0
 621 0002 10B5     		push	{r4, lr}
ARM GAS  C:\Users\ramanatg\AppData\Local\Temp\cciThAgf.s 			page 27


 622              		.cfi_def_cfa_offset 8
 623              		.cfi_offset 4, -8
 624              		.cfi_offset 14, -4
 792:Generated_Source\PSoC4/BLE.c ****         CYBLE_API_RESULT_T apiResult;
 793:Generated_Source\PSoC4/BLE.c ****         
 794:Generated_Source\PSoC4/BLE.c ****         if(advertisingIntervalType > CYBLE_ADVERTISING_CUSTOM)
 795:Generated_Source\PSoC4/BLE.c ****         {
 796:Generated_Source\PSoC4/BLE.c ****             apiResult = CYBLE_ERROR_INVALID_PARAMETER;
 625              		.loc 1 796 0
 626 0004 0120     		mov	r0, #1
 627              	.LVL41:
 794:Generated_Source\PSoC4/BLE.c ****         {
 628              		.loc 1 794 0
 629 0006 022B     		cmp	r3, #2
 630 0008 05D8     		bhi	.L59
 797:Generated_Source\PSoC4/BLE.c ****         }
 798:Generated_Source\PSoC4/BLE.c ****         else if((CYBLE_STATE_DISCONNECTED == CyBle_GetState()) && ((cyBle_eventHandlerFlag & CYBLE_
 631              		.loc 1 798 0
 632 000a 154A     		ldr	r2, .L68
 633 000c 1278     		ldrb	r2, [r2]
 634 000e 042A     		cmp	r2, #4
 635 0010 02D0     		beq	.L67
 636              	.L64:
 799:Generated_Source\PSoC4/BLE.c ****         {   
 800:Generated_Source\PSoC4/BLE.c ****             if(advertisingIntervalType == CYBLE_ADVERTISING_FAST)
 801:Generated_Source\PSoC4/BLE.c ****             {
 802:Generated_Source\PSoC4/BLE.c ****                 cyBle_discoveryModeInfo.advTo = CYBLE_FAST_ADV_TIMEOUT;
 803:Generated_Source\PSoC4/BLE.c ****                 cyBle_discoveryModeInfo.advParam->advIntvMin = CYBLE_FAST_ADV_INT_MIN;
 804:Generated_Source\PSoC4/BLE.c ****                 cyBle_discoveryModeInfo.advParam->advIntvMax = CYBLE_FAST_ADV_INT_MAX;
 805:Generated_Source\PSoC4/BLE.c ****             }
 806:Generated_Source\PSoC4/BLE.c ****             else if(advertisingIntervalType == CYBLE_ADVERTISING_SLOW)
 807:Generated_Source\PSoC4/BLE.c ****             {
 808:Generated_Source\PSoC4/BLE.c ****                 cyBle_discoveryModeInfo.advTo = CYBLE_SLOW_ADV_TIMEOUT;
 809:Generated_Source\PSoC4/BLE.c ****                 cyBle_discoveryModeInfo.advParam->advIntvMin = CYBLE_SLOW_ADV_INT_MIN;
 810:Generated_Source\PSoC4/BLE.c ****                 cyBle_discoveryModeInfo.advParam->advIntvMax = CYBLE_SLOW_ADV_INT_MAX;
 811:Generated_Source\PSoC4/BLE.c ****             }       
 812:Generated_Source\PSoC4/BLE.c ****             else /* Do not update advertising intervals */
 813:Generated_Source\PSoC4/BLE.c ****             {
 814:Generated_Source\PSoC4/BLE.c ****             }
 815:Generated_Source\PSoC4/BLE.c ****             cyBle_advertisingIntervalType = advertisingIntervalType;
 816:Generated_Source\PSoC4/BLE.c ****             apiResult = CyBle_GappEnterDiscoveryMode(&cyBle_discoveryModeInfo);
 817:Generated_Source\PSoC4/BLE.c ****         
 818:Generated_Source\PSoC4/BLE.c ****             if(apiResult == CYBLE_ERROR_OK)
 819:Generated_Source\PSoC4/BLE.c ****             {
 820:Generated_Source\PSoC4/BLE.c ****                 cyBle_eventHandlerFlag |= CYBLE_START_FLAG;
 821:Generated_Source\PSoC4/BLE.c ****             }
 822:Generated_Source\PSoC4/BLE.c ****         }
 823:Generated_Source\PSoC4/BLE.c ****         else
 824:Generated_Source\PSoC4/BLE.c ****         {
 825:Generated_Source\PSoC4/BLE.c ****             apiResult = CYBLE_ERROR_INVALID_STATE;
 637              		.loc 1 825 0
 638 0012 0420     		mov	r0, #4
 639 0014 FF30     		add	r0, r0, #255
 640              	.L59:
 641              	.LVL42:
 826:Generated_Source\PSoC4/BLE.c ****         }
 827:Generated_Source\PSoC4/BLE.c **** 
ARM GAS  C:\Users\ramanatg\AppData\Local\Temp\cciThAgf.s 			page 28


 828:Generated_Source\PSoC4/BLE.c ****         return (apiResult);
 829:Generated_Source\PSoC4/BLE.c ****     }
 642              		.loc 1 829 0
 643              		@ sp needed
 644 0016 10BD     		pop	{r4, pc}
 645              	.LVL43:
 646              	.L67:
 798:Generated_Source\PSoC4/BLE.c ****         {   
 647              		.loc 1 798 0 discriminator 1
 648 0018 124C     		ldr	r4, .L68+4
 649 001a 2178     		ldrb	r1, [r4]
 650 001c 0A42     		tst	r2, r1
 651 001e F8D1     		bne	.L64
 802:Generated_Source\PSoC4/BLE.c ****                 cyBle_discoveryModeInfo.advParam->advIntvMin = CYBLE_FAST_ADV_INT_MIN;
 652              		.loc 1 802 0
 653 0020 1148     		ldr	r0, .L68+8
 800:Generated_Source\PSoC4/BLE.c ****             {
 654              		.loc 1 800 0
 655 0022 002B     		cmp	r3, #0
 656 0024 10D1     		bne	.L60
 803:Generated_Source\PSoC4/BLE.c ****                 cyBle_discoveryModeInfo.advParam->advIntvMax = CYBLE_FAST_ADV_INT_MAX;
 657              		.loc 1 803 0
 658 0026 5021     		mov	r1, #80
 802:Generated_Source\PSoC4/BLE.c ****                 cyBle_discoveryModeInfo.advParam->advIntvMin = CYBLE_FAST_ADV_INT_MIN;
 659              		.loc 1 802 0
 660 0028 3832     		add	r2, r2, #56
 661 002a 0282     		strh	r2, [r0, #16]
 803:Generated_Source\PSoC4/BLE.c ****                 cyBle_discoveryModeInfo.advParam->advIntvMax = CYBLE_FAST_ADV_INT_MAX;
 662              		.loc 1 803 0
 663 002c 4268     		ldr	r2, [r0, #4]
 664 002e 1180     		strh	r1, [r2]
 804:Generated_Source\PSoC4/BLE.c ****             }
 665              		.loc 1 804 0
 666 0030 5180     		strh	r1, [r2, #2]
 667              	.L61:
 815:Generated_Source\PSoC4/BLE.c ****             apiResult = CyBle_GappEnterDiscoveryMode(&cyBle_discoveryModeInfo);
 668              		.loc 1 815 0
 669 0032 0E4A     		ldr	r2, .L68+12
 670 0034 1370     		strb	r3, [r2]
 816:Generated_Source\PSoC4/BLE.c ****         
 671              		.loc 1 816 0
 672 0036 FFF7FEFF 		bl	CyBle_GappEnterDiscoveryMode
 673              	.LVL44:
 818:Generated_Source\PSoC4/BLE.c ****             {
 674              		.loc 1 818 0
 675 003a 0028     		cmp	r0, #0
 676 003c EBD1     		bne	.L59
 820:Generated_Source\PSoC4/BLE.c ****             }
 677              		.loc 1 820 0
 678 003e 0423     		mov	r3, #4
 679 0040 2278     		ldrb	r2, [r4]
 680 0042 1343     		orr	r3, r2
 681 0044 2370     		strb	r3, [r4]
 682 0046 E6E7     		b	.L59
 683              	.LVL45:
 684              	.L60:
 806:Generated_Source\PSoC4/BLE.c ****             {
ARM GAS  C:\Users\ramanatg\AppData\Local\Temp\cciThAgf.s 			page 29


 685              		.loc 1 806 0
 686 0048 012B     		cmp	r3, #1
 687 004a F2D1     		bne	.L61
 808:Generated_Source\PSoC4/BLE.c ****                 cyBle_discoveryModeInfo.advParam->advIntvMin = CYBLE_SLOW_ADV_INT_MIN;
 688              		.loc 1 808 0
 689 004c 9622     		mov	r2, #150
 809:Generated_Source\PSoC4/BLE.c ****                 cyBle_discoveryModeInfo.advParam->advIntvMax = CYBLE_SLOW_ADV_INT_MAX;
 690              		.loc 1 809 0
 691 004e C821     		mov	r1, #200
 808:Generated_Source\PSoC4/BLE.c ****                 cyBle_discoveryModeInfo.advParam->advIntvMin = CYBLE_SLOW_ADV_INT_MIN;
 692              		.loc 1 808 0
 693 0050 0282     		strh	r2, [r0, #16]
 809:Generated_Source\PSoC4/BLE.c ****                 cyBle_discoveryModeInfo.advParam->advIntvMax = CYBLE_SLOW_ADV_INT_MAX;
 694              		.loc 1 809 0
 695 0052 4268     		ldr	r2, [r0, #4]
 696 0054 C900     		lsl	r1, r1, #3
 697 0056 1180     		strh	r1, [r2]
 810:Generated_Source\PSoC4/BLE.c ****             }       
 698              		.loc 1 810 0
 699 0058 8021     		mov	r1, #128
 700 005a C901     		lsl	r1, r1, #7
 701 005c 5180     		strh	r1, [r2, #2]
 702 005e E8E7     		b	.L61
 703              	.L69:
 704              		.align	2
 705              	.L68:
 706 0060 00000000 		.word	cyBle_state
 707 0064 00000000 		.word	cyBle_eventHandlerFlag
 708 0068 00000000 		.word	.LANCHOR3
 709 006c 00000000 		.word	cyBle_advertisingIntervalType
 710              		.cfi_endproc
 711              	.LFE8:
 712              		.size	CyBle_GappStartAdvertisement, .-CyBle_GappStartAdvertisement
 713              		.section	.text.CyBle_GappStopAdvertisement,"ax",%progbits
 714              		.align	2
 715              		.global	CyBle_GappStopAdvertisement
 716              		.code	16
 717              		.thumb_func
 718              		.type	CyBle_GappStopAdvertisement, %function
 719              	CyBle_GappStopAdvertisement:
 720              	.LFB9:
 830:Generated_Source\PSoC4/BLE.c **** 
 831:Generated_Source\PSoC4/BLE.c ****     
 832:Generated_Source\PSoC4/BLE.c ****     /******************************************************************************
 833:Generated_Source\PSoC4/BLE.c ****     * Function Name: CyBle_GappStopAdvertisement
 834:Generated_Source\PSoC4/BLE.c ****     ***************************************************************************//**
 835:Generated_Source\PSoC4/BLE.c ****     * 
 836:Generated_Source\PSoC4/BLE.c ****     *   This function can be used to exit from discovery mode. After the execution 
 837:Generated_Source\PSoC4/BLE.c ****     *   of this function, there will no longer be any advertisements. On stopping 
 838:Generated_Source\PSoC4/BLE.c ****     *   advertising, GAP Peripheral receives CYBLE_EVT_GAPP_ADVERTISEMENT_START_STOP
 839:Generated_Source\PSoC4/BLE.c ****     *   event. It is expected that the application layer tracks the function call 
 840:Generated_Source\PSoC4/BLE.c ****     *   performed before occurrence of this event as this event can occur on making 
 841:Generated_Source\PSoC4/BLE.c ****     *   a call to Cy_BleGappStartAdvertisement(), CyBle_GappEnterDiscoveryMode(), 
 842:Generated_Source\PSoC4/BLE.c ****     *   or CyBle_GappStartAdvertisement() functions as well.
 843:Generated_Source\PSoC4/BLE.c ****     *   
 844:Generated_Source\PSoC4/BLE.c ****     *   The following event occurs on invoking this function:
 845:Generated_Source\PSoC4/BLE.c ****     *   * CYBLE_EVT_GAPP_ADVERTISEMENT_START_STOP
ARM GAS  C:\Users\ramanatg\AppData\Local\Temp\cciThAgf.s 			page 30


 846:Generated_Source\PSoC4/BLE.c ****     * 
 847:Generated_Source\PSoC4/BLE.c ****     *  \return
 848:Generated_Source\PSoC4/BLE.c ****     *   None
 849:Generated_Source\PSoC4/BLE.c ****     * 
 850:Generated_Source\PSoC4/BLE.c ****     *******************************************************************************/
 851:Generated_Source\PSoC4/BLE.c ****     void CyBle_GappStopAdvertisement(void)
 852:Generated_Source\PSoC4/BLE.c ****     {
 721              		.loc 1 852 0
 722              		.cfi_startproc
 723 0000 08B5     		push	{r3, lr}
 724              		.cfi_def_cfa_offset 8
 725              		.cfi_offset 3, -8
 726              		.cfi_offset 14, -4
 853:Generated_Source\PSoC4/BLE.c ****         CyBle_GappExitDiscoveryMode();
 727              		.loc 1 853 0
 728 0002 FFF7FEFF 		bl	CyBle_GappExitDiscoveryMode
 729              	.LVL46:
 854:Generated_Source\PSoC4/BLE.c ****         cyBle_eventHandlerFlag |= CYBLE_STOP_FLAG;
 730              		.loc 1 854 0
 731 0006 0823     		mov	r3, #8
 732 0008 024A     		ldr	r2, .L71
 855:Generated_Source\PSoC4/BLE.c ****     }
 733              		.loc 1 855 0
 734              		@ sp needed
 854:Generated_Source\PSoC4/BLE.c ****         cyBle_eventHandlerFlag |= CYBLE_STOP_FLAG;
 735              		.loc 1 854 0
 736 000a 1178     		ldrb	r1, [r2]
 737 000c 0B43     		orr	r3, r1
 738 000e 1370     		strb	r3, [r2]
 739              		.loc 1 855 0
 740 0010 08BD     		pop	{r3, pc}
 741              	.L72:
 742 0012 C046     		.align	2
 743              	.L71:
 744 0014 00000000 		.word	cyBle_eventHandlerFlag
 745              		.cfi_endproc
 746              	.LFE9:
 747              		.size	CyBle_GappStopAdvertisement, .-CyBle_GappStopAdvertisement
 748              		.section	.text.CyBle_ChangeAdDeviceAddress,"ax",%progbits
 749              		.align	2
 750              		.global	CyBle_ChangeAdDeviceAddress
 751              		.code	16
 752              		.thumb_func
 753              		.type	CyBle_ChangeAdDeviceAddress, %function
 754              	CyBle_ChangeAdDeviceAddress:
 755              	.LFB10:
 856:Generated_Source\PSoC4/BLE.c ****     
 857:Generated_Source\PSoC4/BLE.c ****     
 858:Generated_Source\PSoC4/BLE.c ****     /******************************************************************************
 859:Generated_Source\PSoC4/BLE.c ****     * Function Name: CyBle_ChangeAdDeviceAddress
 860:Generated_Source\PSoC4/BLE.c ****     ***************************************************************************//**
 861:Generated_Source\PSoC4/BLE.c ****     * 
 862:Generated_Source\PSoC4/BLE.c ****     *  This API is used to set the Bluetooth device address into the advertisement 
 863:Generated_Source\PSoC4/BLE.c ****     *  or scan response data structure.
 864:Generated_Source\PSoC4/BLE.c ****     * 
 865:Generated_Source\PSoC4/BLE.c ****     *  \param bdAddr: Bluetooth Device address. The variable is of type CYBLE_GAP_BD_ADDR_T
 866:Generated_Source\PSoC4/BLE.c ****     *  \param dest: 0 - selects advertisement structure, not zero value selects scan 
ARM GAS  C:\Users\ramanatg\AppData\Local\Temp\cciThAgf.s 			page 31


 867:Generated_Source\PSoC4/BLE.c ****     *               response structure.
 868:Generated_Source\PSoC4/BLE.c ****     * 
 869:Generated_Source\PSoC4/BLE.c ****     * \return
 870:Generated_Source\PSoC4/BLE.c ****     *  None
 871:Generated_Source\PSoC4/BLE.c ****     *  
 872:Generated_Source\PSoC4/BLE.c ****     *******************************************************************************/
 873:Generated_Source\PSoC4/BLE.c ****     void CyBle_ChangeAdDeviceAddress(const CYBLE_GAP_BD_ADDR_T* bdAddr, uint8 dest)
 874:Generated_Source\PSoC4/BLE.c ****     {
 756              		.loc 1 874 0
 757              		.cfi_startproc
 758              	.LVL47:
 875:Generated_Source\PSoC4/BLE.c ****         uint8 i;
 876:Generated_Source\PSoC4/BLE.c ****         uint8 *destBuffer = NULL;
 877:Generated_Source\PSoC4/BLE.c ****         
 878:Generated_Source\PSoC4/BLE.c ****         if(dest == 0u)      /* Destination - advertising structure */
 879:Generated_Source\PSoC4/BLE.c ****         {
 880:Generated_Source\PSoC4/BLE.c ****             #ifdef CYBLE_ADV_PKT_INDEX_BLUETOOTH_DEVICE_ADDRESS
 881:Generated_Source\PSoC4/BLE.c ****                 destBuffer = &cyBle_discoveryData.advData[CYBLE_ADV_PKT_INDEX_BLUETOOTH_DEVICE_ADDR
 882:Generated_Source\PSoC4/BLE.c ****             #endif /* CYBLE_ADV_PKT_INDEX_BLUETOOTH_DEVICE_ADDRESS */
 883:Generated_Source\PSoC4/BLE.c ****         }
 884:Generated_Source\PSoC4/BLE.c ****         else                /* Destination - scan response structure */
 885:Generated_Source\PSoC4/BLE.c ****         {
 886:Generated_Source\PSoC4/BLE.c ****             #ifdef CYBLE_SCN_PKT_INDEX_BLUETOOTH_DEVICE_ADDRESS
 887:Generated_Source\PSoC4/BLE.c ****                 destBuffer = &cyBle_scanRspData.scanRspData[CYBLE_SCN_PKT_INDEX_BLUETOOTH_DEVICE_AD
 888:Generated_Source\PSoC4/BLE.c ****             #endif /* CYBLE_SCN_PKT_INDEX_BLUETOOTH_DEVICE_ADDRESS */    
 889:Generated_Source\PSoC4/BLE.c ****         }
 890:Generated_Source\PSoC4/BLE.c ****         
 891:Generated_Source\PSoC4/BLE.c ****         if(destBuffer != NULL)
 892:Generated_Source\PSoC4/BLE.c ****         {
 893:Generated_Source\PSoC4/BLE.c ****             /* Update Device Address type */
 894:Generated_Source\PSoC4/BLE.c ****             destBuffer[0u] = bdAddr->type;
 895:Generated_Source\PSoC4/BLE.c ****             
 896:Generated_Source\PSoC4/BLE.c ****             for(i = 0u; i < CYBLE_GAP_BD_ADDR_SIZE; i++)
 897:Generated_Source\PSoC4/BLE.c ****             {
 898:Generated_Source\PSoC4/BLE.c ****                 destBuffer[i + 1u] = bdAddr->bdAddr[i];
 899:Generated_Source\PSoC4/BLE.c ****             }
 900:Generated_Source\PSoC4/BLE.c ****         }
 901:Generated_Source\PSoC4/BLE.c ****     }
 759              		.loc 1 901 0
 760              		@ sp needed
 761 0000 7047     		bx	lr
 762              		.cfi_endproc
 763              	.LFE10:
 764              		.size	CyBle_ChangeAdDeviceAddress, .-CyBle_ChangeAdDeviceAddress
 765 0002 C046     		.section	.text.CyBle_GapSetLocalName,"ax",%progbits
 766              		.align	2
 767              		.global	CyBle_GapSetLocalName
 768              		.code	16
 769              		.thumb_func
 770              		.type	CyBle_GapSetLocalName, %function
 771              	CyBle_GapSetLocalName:
 772              	.LFB12:
 902:Generated_Source\PSoC4/BLE.c ****   
 903:Generated_Source\PSoC4/BLE.c **** #endif /* CYBLE_GAP_ROLE_PERIPHERAL || CYBLE_GAP_ROLE_BROADCASTER */
 904:Generated_Source\PSoC4/BLE.c **** 
 905:Generated_Source\PSoC4/BLE.c **** 
 906:Generated_Source\PSoC4/BLE.c **** #if(CYBLE_GAP_ROLE_CENTRAL || CYBLE_GAP_ROLE_OBSERVER)
ARM GAS  C:\Users\ramanatg\AppData\Local\Temp\cciThAgf.s 			page 32


 907:Generated_Source\PSoC4/BLE.c **** 
 908:Generated_Source\PSoC4/BLE.c ****     /******************************************************************************
 909:Generated_Source\PSoC4/BLE.c ****     * Function Name: CyBle_GapcStartScan
 910:Generated_Source\PSoC4/BLE.c ****     ***************************************************************************//**
 911:Generated_Source\PSoC4/BLE.c ****     * 
 912:Generated_Source\PSoC4/BLE.c ****     *   This function is used for discovering GAP peripheral devices that are 
 913:Generated_Source\PSoC4/BLE.c ****     *   available for connection. It performs the scanning routine using the 
 914:Generated_Source\PSoC4/BLE.c ****     *   parameters entered in the component's customizer.
 915:Generated_Source\PSoC4/BLE.c ****     *   
 916:Generated_Source\PSoC4/BLE.c ****     *   As soon as the discovery operation starts, CYBLE_EVT_GAPC_SCAN_START_STOP 
 917:Generated_Source\PSoC4/BLE.c ****     *   event is generated. The CYBLE_EVT_GAPC_SCAN_PROGRESS_RESULT event is 
 918:Generated_Source\PSoC4/BLE.c ****     *   generated when a GAP peripheral device is located. There are three discovery
 919:Generated_Source\PSoC4/BLE.c ****     *   procedures can be selected in the customizer's GUI:
 920:Generated_Source\PSoC4/BLE.c ****     *   
 921:Generated_Source\PSoC4/BLE.c ****     *   * Observation procedure: A device performing the observer role receives only
 922:Generated_Source\PSoC4/BLE.c ****     *                            advertisement data from devices irrespective of 
 923:Generated_Source\PSoC4/BLE.c ****     *                            their discoverable mode settings. Advertisement 
 924:Generated_Source\PSoC4/BLE.c ****     *                            data received is provided by the event,      
 925:Generated_Source\PSoC4/BLE.c ****     *                            CYBLE_EVT_GAPC_SCAN_PROGRESS_RESULT. This procedure
 926:Generated_Source\PSoC4/BLE.c ****     *                            requires the scanType sub parameter to be passive
 927:Generated_Source\PSoC4/BLE.c ****     *                            scanning. 
 928:Generated_Source\PSoC4/BLE.c ****     *   
 929:Generated_Source\PSoC4/BLE.c ****     *   * Limited Discovery procedure: A device performing the limited discovery
 930:Generated_Source\PSoC4/BLE.c ****     *                                  procedure receives advertisement data and 
 931:Generated_Source\PSoC4/BLE.c ****     *                                  scan# response data from devices in the 
 932:Generated_Source\PSoC4/BLE.c ****     *                                  limited discoverable mode only. Received data
 933:Generated_Source\PSoC4/BLE.c ****     *                                  is provided by the event, 
 934:Generated_Source\PSoC4/BLE.c ****     *                                  CYBLE_EVT_GAPC_SCAN_PROGRESS_RESULT. This 
 935:Generated_Source\PSoC4/BLE.c ****     *                                  procedure requires the scanType sub-parameter 
 936:Generated_Source\PSoC4/BLE.c ****     *                                  to be active scanning.
 937:Generated_Source\PSoC4/BLE.c ****     *   
 938:Generated_Source\PSoC4/BLE.c ****     *   * General Discovery procedure: A device performing the general discovery 
 939:Generated_Source\PSoC4/BLE.c ****     *                                  procedure receives the advertisement data and
 940:Generated_Source\PSoC4/BLE.c ****     *                                  scan response data from devices in both 
 941:Generated_Source\PSoC4/BLE.c ****     *                                  limited discoverable mode and the general 
 942:Generated_Source\PSoC4/BLE.c ****     *                                  discoverable mode. Received data is provided
 943:Generated_Source\PSoC4/BLE.c ****     *                                  by the event,
 944:Generated_Source\PSoC4/BLE.c ****     *                                  CYBLE_EVT_GAPC_SCAN_PROGRESS_RESULT. This 
 945:Generated_Source\PSoC4/BLE.c ****     *                                  procedure requires the scanType sub-parameter
 946:Generated_Source\PSoC4/BLE.c ****     *                                  to be active scanning.
 947:Generated_Source\PSoC4/BLE.c ****     *   
 948:Generated_Source\PSoC4/BLE.c ****     *   Every Advertisement / Scan response packet received results in a new event, 
 949:Generated_Source\PSoC4/BLE.c ****     *   CYBLE_EVT_GAPC_SCAN_PROGRESS_RESULT.
 950:Generated_Source\PSoC4/BLE.c ****     *   If 'scanTo' sub-parameter is a non-zero value, then upon commencement of 
 951:Generated_Source\PSoC4/BLE.c ****     *   discovery procedure and elapsed time = 'scanTo', CYBLE_EVT_TIMEOUT event
 952:Generated_Source\PSoC4/BLE.c ****     *   is generated with the event parameter indicating CYBLE_GAP_SCAN_TO.
 953:Generated_Source\PSoC4/BLE.c ****     *   Possible generated events are:
 954:Generated_Source\PSoC4/BLE.c ****     *   * CYBLE_EVT_GAPC_SCAN_START_STOP: If a device started or stopped scanning. 
 955:Generated_Source\PSoC4/BLE.c ****     *                                     Use CyBle_GetState() to determine the 
 956:Generated_Source\PSoC4/BLE.c ****     *                                     state. Sequential scanning could be 
 957:Generated_Source\PSoC4/BLE.c ****     *                                     started when CYBLE_STATE_DISCONNECTED 
 958:Generated_Source\PSoC4/BLE.c ****     *                                     state is returned. 
 959:Generated_Source\PSoC4/BLE.c ****     *   * CYBLE_EVT_GAPC_SCAN_PROGRESS_RESULT 
 960:Generated_Source\PSoC4/BLE.c ****     *   * CYBLE_EVT_TIMEOUT (CYBLE_GAP_SCAN_TO)
 961:Generated_Source\PSoC4/BLE.c ****     * 
 962:Generated_Source\PSoC4/BLE.c ****     *   \param scanningIntervalType:  Fast or slow scanning interval with
 963:Generated_Source\PSoC4/BLE.c ****     *       timings entered in Scan settings section of the customizer.
ARM GAS  C:\Users\ramanatg\AppData\Local\Temp\cciThAgf.s 			page 33


 964:Generated_Source\PSoC4/BLE.c ****     * 	  * CYBLE_SCANNING_FAST   0x00u
 965:Generated_Source\PSoC4/BLE.c ****     * 	  * CYBLE_SCANNING_SLOW   0x01u
 966:Generated_Source\PSoC4/BLE.c ****     * 	  * CYBLE_SCANNING_CUSTOM 0x02u
 967:Generated_Source\PSoC4/BLE.c ****     * 
 968:Generated_Source\PSoC4/BLE.c ****     * \return
 969:Generated_Source\PSoC4/BLE.c ****     *  CYBLE_API_RESULT_T : Return value indicates if the function succeeded or
 970:Generated_Source\PSoC4/BLE.c ****     *  failed. Following are the possible error codes.
 971:Generated_Source\PSoC4/BLE.c ****     *
 972:Generated_Source\PSoC4/BLE.c ****     *   Errors codes                       | Description
 973:Generated_Source\PSoC4/BLE.c ****     *   ---------------------------------- | -----------------------------------
 974:Generated_Source\PSoC4/BLE.c ****     *   CYBLE_ERROR_OK                     | On successful operation.
 975:Generated_Source\PSoC4/BLE.c ****     *   CYBLE_ERROR_STACK_INTERNAL         | An error occurred in the BLE stack.
 976:Generated_Source\PSoC4/BLE.c ****     *   CYBLE_ERROR_INVALID_PARAMETER      | On passing an invalid parameter.
 977:Generated_Source\PSoC4/BLE.c ****     *  
 978:Generated_Source\PSoC4/BLE.c ****     *******************************************************************************/
 979:Generated_Source\PSoC4/BLE.c ****     CYBLE_API_RESULT_T CyBle_GapcStartScan(uint8 scanningIntervalType)
 980:Generated_Source\PSoC4/BLE.c ****     {
 981:Generated_Source\PSoC4/BLE.c ****         CYBLE_API_RESULT_T apiResult;
 982:Generated_Source\PSoC4/BLE.c **** 
 983:Generated_Source\PSoC4/BLE.c ****         if(scanningIntervalType > CYBLE_SCANNING_CUSTOM)
 984:Generated_Source\PSoC4/BLE.c ****         {
 985:Generated_Source\PSoC4/BLE.c ****             apiResult = CYBLE_ERROR_INVALID_PARAMETER;
 986:Generated_Source\PSoC4/BLE.c ****         }
 987:Generated_Source\PSoC4/BLE.c ****         else
 988:Generated_Source\PSoC4/BLE.c ****         {
 989:Generated_Source\PSoC4/BLE.c ****             if(scanningIntervalType == CYBLE_SCANNING_FAST)
 990:Generated_Source\PSoC4/BLE.c ****             {
 991:Generated_Source\PSoC4/BLE.c ****                 cyBle_discoveryInfo.scanTo = CYBLE_FAST_SCAN_TIMEOUT;
 992:Generated_Source\PSoC4/BLE.c ****                 cyBle_discoveryInfo.scanIntv = CYBLE_FAST_SCAN_INTERVAL;
 993:Generated_Source\PSoC4/BLE.c ****                 cyBle_discoveryInfo.scanWindow = CYBLE_FAST_SCAN_WINDOW;
 994:Generated_Source\PSoC4/BLE.c ****             }
 995:Generated_Source\PSoC4/BLE.c ****             else if(scanningIntervalType == CYBLE_SCANNING_SLOW)
 996:Generated_Source\PSoC4/BLE.c ****             {
 997:Generated_Source\PSoC4/BLE.c ****                 cyBle_discoveryInfo.scanTo = CYBLE_SLOW_SCAN_TIMEOUT;
 998:Generated_Source\PSoC4/BLE.c ****                 cyBle_discoveryInfo.scanIntv = CYBLE_SLOW_SCAN_INTERVAL;
 999:Generated_Source\PSoC4/BLE.c ****                 cyBle_discoveryInfo.scanWindow = CYBLE_SLOW_SCAN_WINDOW;
1000:Generated_Source\PSoC4/BLE.c ****             }       
1001:Generated_Source\PSoC4/BLE.c ****             else /* Do not update scanning intervals */
1002:Generated_Source\PSoC4/BLE.c ****             {
1003:Generated_Source\PSoC4/BLE.c ****             }
1004:Generated_Source\PSoC4/BLE.c ****             
1005:Generated_Source\PSoC4/BLE.c ****             cyBle_scanningIntervalType = scanningIntervalType;
1006:Generated_Source\PSoC4/BLE.c ****             apiResult = CyBle_GapcStartDiscovery(&cyBle_discoveryInfo);
1007:Generated_Source\PSoC4/BLE.c ****         
1008:Generated_Source\PSoC4/BLE.c ****             if(apiResult == CYBLE_ERROR_OK)
1009:Generated_Source\PSoC4/BLE.c ****             {
1010:Generated_Source\PSoC4/BLE.c ****                 cyBle_eventHandlerFlag |= CYBLE_START_FLAG;
1011:Generated_Source\PSoC4/BLE.c ****             }
1012:Generated_Source\PSoC4/BLE.c ****         }
1013:Generated_Source\PSoC4/BLE.c ****        
1014:Generated_Source\PSoC4/BLE.c ****         return (apiResult);
1015:Generated_Source\PSoC4/BLE.c ****     }
1016:Generated_Source\PSoC4/BLE.c ****     
1017:Generated_Source\PSoC4/BLE.c ****     
1018:Generated_Source\PSoC4/BLE.c ****     /******************************************************************************
1019:Generated_Source\PSoC4/BLE.c ****     * Function Name: CyBle_GapcStopScan
1020:Generated_Source\PSoC4/BLE.c ****     ***************************************************************************//**
ARM GAS  C:\Users\ramanatg\AppData\Local\Temp\cciThAgf.s 			page 34


1021:Generated_Source\PSoC4/BLE.c ****     * 
1022:Generated_Source\PSoC4/BLE.c ****     *   This function used to stop the discovery of devices. On stopping discovery
1023:Generated_Source\PSoC4/BLE.c ****     *   operation, CYBLE_EVT_GAPC_SCAN_START_STOP event is generated. Application
1024:Generated_Source\PSoC4/BLE.c ****     *   layer needs to keep track of the function call made before receiving this
1025:Generated_Source\PSoC4/BLE.c ****     *   event to associate this event with either the start or stop discovery
1026:Generated_Source\PSoC4/BLE.c ****     *   function.
1027:Generated_Source\PSoC4/BLE.c ****     * 
1028:Generated_Source\PSoC4/BLE.c ****     *   Possible events generated are:
1029:Generated_Source\PSoC4/BLE.c ****     *    * CYBLE_EVT_GAPC_SCAN_START_STOP
1030:Generated_Source\PSoC4/BLE.c ****     * 
1031:Generated_Source\PSoC4/BLE.c ****     *  \return
1032:Generated_Source\PSoC4/BLE.c ****     *   None
1033:Generated_Source\PSoC4/BLE.c ****     * 
1034:Generated_Source\PSoC4/BLE.c ****     *******************************************************************************/
1035:Generated_Source\PSoC4/BLE.c ****     void CyBle_GapcStopScan(void)
1036:Generated_Source\PSoC4/BLE.c ****     {
1037:Generated_Source\PSoC4/BLE.c ****         CyBle_GapcStopDiscovery();
1038:Generated_Source\PSoC4/BLE.c ****         
1039:Generated_Source\PSoC4/BLE.c ****         cyBle_eventHandlerFlag |= CYBLE_STOP_FLAG;
1040:Generated_Source\PSoC4/BLE.c ****     }
1041:Generated_Source\PSoC4/BLE.c **** 
1042:Generated_Source\PSoC4/BLE.c ****     
1043:Generated_Source\PSoC4/BLE.c **** #endif /* CYBLE_GAP_ROLE_CENTRAL || CYBLE_GAP_ROLE_OBSERVER */
1044:Generated_Source\PSoC4/BLE.c **** 
1045:Generated_Source\PSoC4/BLE.c **** 
1046:Generated_Source\PSoC4/BLE.c **** #if(CYBLE_GAP_ROLE_CENTRAL)
1047:Generated_Source\PSoC4/BLE.c **** 
1048:Generated_Source\PSoC4/BLE.c ****     /******************************************************************************
1049:Generated_Source\PSoC4/BLE.c ****     * Function Name: CyBle_GapcConnectDevice
1050:Generated_Source\PSoC4/BLE.c ****     ***************************************************************************//**
1051:Generated_Source\PSoC4/BLE.c ****     * 
1052:Generated_Source\PSoC4/BLE.c ****     *  This function is used to send a connection request to the remote device with
1053:Generated_Source\PSoC4/BLE.c ****     *  the connection parameters set in the component customizer. This function needs
1054:Generated_Source\PSoC4/BLE.c ****     *  to be called only once after the target device is discovered by 
1055:Generated_Source\PSoC4/BLE.c ****     *  CyBle_GapcStartScan() and further scanning has stopped. Scanning is 
1056:Generated_Source\PSoC4/BLE.c ****     *  successfully stopped on invoking CyBle_GapcStopScan() and then receiving the
1057:Generated_Source\PSoC4/BLE.c ****     *  event CYBLE_EVT_GAPC_SCAN_START_STOP with sub-parameter 'success' = 0x01u.
1058:Generated_Source\PSoC4/BLE.c ****     *  
1059:Generated_Source\PSoC4/BLE.c ****     *  On successful connection, the following events are generated at the GAP 
1060:Generated_Source\PSoC4/BLE.c ****     *  Central device (as well as the GAP Peripheral device), in the following order.
1061:Generated_Source\PSoC4/BLE.c ****     *  * CYBLE_EVT_GATT_CONNECT_IND
1062:Generated_Source\PSoC4/BLE.c ****     *  * CYBLE_EVT_GAP_DEVICE_CONNECTED - If the device connects to a GAP Central and 
1063:Generated_Source\PSoC4/BLE.c ****     *    Link Layer Privacy is disabled in component customizer.
1064:Generated_Source\PSoC4/BLE.c ****     *  * CYBLE_EVT_GAP_ENHANCE_CONN_COMPLETE - If the device connects to a GAP Central and 
1065:Generated_Source\PSoC4/BLE.c ****     *    Link Layer Privacy is enabled in component customizer.
1066:Generated_Source\PSoC4/BLE.c ****     *  * CYBLE_EVT_GAP_DEVICE_CONNECTED
1067:Generated_Source\PSoC4/BLE.c ****     *  
1068:Generated_Source\PSoC4/BLE.c ****     *  A procedure is considered to have timed out if a connection response packet is 
1069:Generated_Source\PSoC4/BLE.c ****     *  not received within time set by cyBle_connectingTimeout global variable
1070:Generated_Source\PSoC4/BLE.c ****     *  (30 seconds by default). CYBLE_EVT_TIMEOUT event with CYBLE_GENERIC_TO parameter
1071:Generated_Source\PSoC4/BLE.c ****     *  will indicate about connection procedure timeout. Connection will automatically
1072:Generated_Source\PSoC4/BLE.c ****     *  be canceled and state will be changed to CYBLE_STATE_DISCONNECTED.
1073:Generated_Source\PSoC4/BLE.c ****     * 
1074:Generated_Source\PSoC4/BLE.c ****     *  \param address: The device address of the remote device to connect to. 
1075:Generated_Source\PSoC4/BLE.c ****     *  
1076:Generated_Source\PSoC4/BLE.c ****     * \return
1077:Generated_Source\PSoC4/BLE.c ****     *  CYBLE_API_RESULT_T : Return value indicates if the function succeeded or 
ARM GAS  C:\Users\ramanatg\AppData\Local\Temp\cciThAgf.s 			page 35


1078:Generated_Source\PSoC4/BLE.c ****     *  failed. Following are the possible error codes.
1079:Generated_Source\PSoC4/BLE.c ****     *
1080:Generated_Source\PSoC4/BLE.c ****     *   Errors codes                       | Description
1081:Generated_Source\PSoC4/BLE.c ****     *   ------------                       | -----------
1082:Generated_Source\PSoC4/BLE.c ****     *   CYBLE_ERROR_OK                     | On successful operation.
1083:Generated_Source\PSoC4/BLE.c ****     *   CYBLE_ERROR_STACK_INTERNAL         | On error occurred in the BLE stack.
1084:Generated_Source\PSoC4/BLE.c ****     *   CYBLE_ERROR_INVALID_PARAMETER      | On passing an invalid parameter.
1085:Generated_Source\PSoC4/BLE.c ****     *   CYBLE_ERROR_INVALID_STATE          | On calling this API not in Disconnected state.
1086:Generated_Source\PSoC4/BLE.c ****     *  
1087:Generated_Source\PSoC4/BLE.c ****     ******************************************************************************/
1088:Generated_Source\PSoC4/BLE.c ****     CYBLE_API_RESULT_T CyBle_GapcConnectDevice(const CYBLE_GAP_BD_ADDR_T * address)
1089:Generated_Source\PSoC4/BLE.c ****     {
1090:Generated_Source\PSoC4/BLE.c ****         CYBLE_API_RESULT_T apiResult;
1091:Generated_Source\PSoC4/BLE.c ****         uint8 i;
1092:Generated_Source\PSoC4/BLE.c **** 
1093:Generated_Source\PSoC4/BLE.c ****         if(CyBle_GetState() != CYBLE_STATE_DISCONNECTED)
1094:Generated_Source\PSoC4/BLE.c ****         {
1095:Generated_Source\PSoC4/BLE.c ****             apiResult = CYBLE_ERROR_INVALID_STATE;
1096:Generated_Source\PSoC4/BLE.c ****         }
1097:Generated_Source\PSoC4/BLE.c ****         else if(address == NULL)
1098:Generated_Source\PSoC4/BLE.c ****         {
1099:Generated_Source\PSoC4/BLE.c ****             apiResult = CYBLE_ERROR_INVALID_PARAMETER;
1100:Generated_Source\PSoC4/BLE.c ****         }
1101:Generated_Source\PSoC4/BLE.c ****         else
1102:Generated_Source\PSoC4/BLE.c ****         {
1103:Generated_Source\PSoC4/BLE.c ****             for(i = 0u; i < CYBLE_GAP_BD_ADDR_SIZE; i++)
1104:Generated_Source\PSoC4/BLE.c ****             {
1105:Generated_Source\PSoC4/BLE.c ****                 cyBle_connectionParameters.peerBdAddr[i] = address->bdAddr[i];
1106:Generated_Source\PSoC4/BLE.c ****             }
1107:Generated_Source\PSoC4/BLE.c ****             cyBle_connectionParameters.peerAddrType = address -> type;
1108:Generated_Source\PSoC4/BLE.c ****             apiResult = CyBle_GapcInitConnection(&cyBle_connectionParameters);
1109:Generated_Source\PSoC4/BLE.c ****             
1110:Generated_Source\PSoC4/BLE.c ****             if(apiResult == CYBLE_ERROR_OK)
1111:Generated_Source\PSoC4/BLE.c ****             {
1112:Generated_Source\PSoC4/BLE.c ****                 CyBle_SetState(CYBLE_STATE_CONNECTING);
1113:Generated_Source\PSoC4/BLE.c ****                 if(cyBle_connectingTimeout != 0u)
1114:Generated_Source\PSoC4/BLE.c ****                 {
1115:Generated_Source\PSoC4/BLE.c ****                     (void)CyBle_StartTimer(cyBle_connectingTimeout);
1116:Generated_Source\PSoC4/BLE.c ****                 }
1117:Generated_Source\PSoC4/BLE.c ****             }
1118:Generated_Source\PSoC4/BLE.c ****         }
1119:Generated_Source\PSoC4/BLE.c ****         return (apiResult);
1120:Generated_Source\PSoC4/BLE.c ****     }
1121:Generated_Source\PSoC4/BLE.c ****     
1122:Generated_Source\PSoC4/BLE.c **** 
1123:Generated_Source\PSoC4/BLE.c ****     /******************************************************************************
1124:Generated_Source\PSoC4/BLE.c ****     * Function Name: CyBle_GapcCancelDeviceConnection
1125:Generated_Source\PSoC4/BLE.c ****     ***************************************************************************//**
1126:Generated_Source\PSoC4/BLE.c ****     * 
1127:Generated_Source\PSoC4/BLE.c ****     *  This function cancels a previously initiated connection with the remote 
1128:Generated_Source\PSoC4/BLE.c ****     *  device. It is a blocking function. No event is generated on calling this 
1129:Generated_Source\PSoC4/BLE.c ****     *  function. If the devices are already connected then this function should not
1130:Generated_Source\PSoC4/BLE.c ****     *  be used. If you intend to disconnect from an existing connection, the function
1131:Generated_Source\PSoC4/BLE.c ****     *  CyBle_GapDisconnect() should be used.
1132:Generated_Source\PSoC4/BLE.c ****     * 
1133:Generated_Source\PSoC4/BLE.c ****     * \return
1134:Generated_Source\PSoC4/BLE.c ****     *  CYBLE_API_RESULT_T : Return value indicates if the function succeeded or 
ARM GAS  C:\Users\ramanatg\AppData\Local\Temp\cciThAgf.s 			page 36


1135:Generated_Source\PSoC4/BLE.c ****     *  failed. Following are the possible error codes.
1136:Generated_Source\PSoC4/BLE.c ****     *
1137:Generated_Source\PSoC4/BLE.c ****     *   Errors codes                       | Description
1138:Generated_Source\PSoC4/BLE.c ****     *   ---------------------------------- | --------------------------------------
1139:Generated_Source\PSoC4/BLE.c ****     *   CYBLE_ERROR_OK                     | On successful operation.
1140:Generated_Source\PSoC4/BLE.c ****     *   CYBLE_ERROR_STACK_INTERNAL         | An error occurred in the BLE stack.
1141:Generated_Source\PSoC4/BLE.c ****     *   CYBLE_ERROR_INVALID_STATE          | On calling this API not in Connecting state.
1142:Generated_Source\PSoC4/BLE.c ****     *  
1143:Generated_Source\PSoC4/BLE.c ****     *******************************************************************************/
1144:Generated_Source\PSoC4/BLE.c ****     CYBLE_API_RESULT_T CyBle_GapcCancelDeviceConnection(void)
1145:Generated_Source\PSoC4/BLE.c ****     {
1146:Generated_Source\PSoC4/BLE.c ****         CYBLE_API_RESULT_T apiResult;
1147:Generated_Source\PSoC4/BLE.c ****         
1148:Generated_Source\PSoC4/BLE.c ****         if(CyBle_GetState() != CYBLE_STATE_CONNECTING)
1149:Generated_Source\PSoC4/BLE.c ****         {
1150:Generated_Source\PSoC4/BLE.c ****             apiResult = CYBLE_ERROR_INVALID_STATE;
1151:Generated_Source\PSoC4/BLE.c ****         }
1152:Generated_Source\PSoC4/BLE.c ****         else 
1153:Generated_Source\PSoC4/BLE.c ****         {
1154:Generated_Source\PSoC4/BLE.c ****             apiResult = CyBle_GapcCancelConnection();
1155:Generated_Source\PSoC4/BLE.c ****             
1156:Generated_Source\PSoC4/BLE.c ****             if(cyBle_connectingTimeout != 0u)
1157:Generated_Source\PSoC4/BLE.c ****             {
1158:Generated_Source\PSoC4/BLE.c ****                 (void)CyBle_StopTimer();
1159:Generated_Source\PSoC4/BLE.c ****             }
1160:Generated_Source\PSoC4/BLE.c **** 
1161:Generated_Source\PSoC4/BLE.c ****             if(apiResult == CYBLE_ERROR_OK)
1162:Generated_Source\PSoC4/BLE.c ****             {
1163:Generated_Source\PSoC4/BLE.c ****                 CyBle_SetState(CYBLE_STATE_DISCONNECTED);
1164:Generated_Source\PSoC4/BLE.c ****             }
1165:Generated_Source\PSoC4/BLE.c ****         }
1166:Generated_Source\PSoC4/BLE.c ****         return (apiResult);
1167:Generated_Source\PSoC4/BLE.c ****     }    
1168:Generated_Source\PSoC4/BLE.c **** 
1169:Generated_Source\PSoC4/BLE.c ****     
1170:Generated_Source\PSoC4/BLE.c **** #endif /* CYBLE_GAP_ROLE_CENTRAL */
1171:Generated_Source\PSoC4/BLE.c **** 
1172:Generated_Source\PSoC4/BLE.c **** 
1173:Generated_Source\PSoC4/BLE.c **** #if(CYBLE_GATT_ROLE_SERVER)
1174:Generated_Source\PSoC4/BLE.c **** 
1175:Generated_Source\PSoC4/BLE.c **** #if(CYBLE_GAP_ROLE_PERIPHERAL)
1176:Generated_Source\PSoC4/BLE.c **** 
1177:Generated_Source\PSoC4/BLE.c ****         /******************************************************************************
1178:Generated_Source\PSoC4/BLE.c ****         * Function Name: CyBle_ChangeAdLocalName
1179:Generated_Source\PSoC4/BLE.c ****         ***************************************************************************//**
1180:Generated_Source\PSoC4/BLE.c ****         *  This API is used to set the local device name in the advertisement or scan 
1181:Generated_Source\PSoC4/BLE.c ****         *  response data structure.
1182:Generated_Source\PSoC4/BLE.c ****         * 
1183:Generated_Source\PSoC4/BLE.c ****         *  \param name: The local device name string to be set in advertisement data 
1184:Generated_Source\PSoC4/BLE.c ****         *            structure.
1185:Generated_Source\PSoC4/BLE.c ****         *  \param dest: 0 - advertisement structure, not zero value selects scan response
1186:Generated_Source\PSoC4/BLE.c ****         *              structure.
1187:Generated_Source\PSoC4/BLE.c ****         * 
1188:Generated_Source\PSoC4/BLE.c ****         * \return
1189:Generated_Source\PSoC4/BLE.c ****         *  None
1190:Generated_Source\PSoC4/BLE.c ****         *  
1191:Generated_Source\PSoC4/BLE.c ****         *******************************************************************************/
ARM GAS  C:\Users\ramanatg\AppData\Local\Temp\cciThAgf.s 			page 37


1192:Generated_Source\PSoC4/BLE.c ****         static void CyBle_ChangeAdLocalName(const char8 name[], uint8 dest)
1193:Generated_Source\PSoC4/BLE.c ****         {
1194:Generated_Source\PSoC4/BLE.c ****             uint8 i;
1195:Generated_Source\PSoC4/BLE.c ****             uint8 flag = 0u;
1196:Generated_Source\PSoC4/BLE.c ****             uint8 adLength = 0u;
1197:Generated_Source\PSoC4/BLE.c ****             uint8 byteCounter = 0u;
1198:Generated_Source\PSoC4/BLE.c ****             uint8 *destBuffer;
1199:Generated_Source\PSoC4/BLE.c ****             uint8 maxLength;
1200:Generated_Source\PSoC4/BLE.c ****             
1201:Generated_Source\PSoC4/BLE.c ****             if(dest == 0u)      /* Destination - advertising structure */
1202:Generated_Source\PSoC4/BLE.c ****             {
1203:Generated_Source\PSoC4/BLE.c ****                 destBuffer = cyBle_discoveryData.advData;
1204:Generated_Source\PSoC4/BLE.c ****                 maxLength = cyBle_discoveryData.advDataLen;
1205:Generated_Source\PSoC4/BLE.c ****             }
1206:Generated_Source\PSoC4/BLE.c ****             else                /* Destination - scan response structure */
1207:Generated_Source\PSoC4/BLE.c ****             {
1208:Generated_Source\PSoC4/BLE.c ****                 destBuffer = cyBle_scanRspData.scanRspData;
1209:Generated_Source\PSoC4/BLE.c ****                 maxLength = cyBle_scanRspData.scanRspDataLen;
1210:Generated_Source\PSoC4/BLE.c ****             }
1211:Generated_Source\PSoC4/BLE.c ****             
1212:Generated_Source\PSoC4/BLE.c ****             while((byteCounter < maxLength) && (flag == 0u))
1213:Generated_Source\PSoC4/BLE.c ****             {
1214:Generated_Source\PSoC4/BLE.c ****                 adLength = destBuffer[byteCounter];
1215:Generated_Source\PSoC4/BLE.c ****                 
1216:Generated_Source\PSoC4/BLE.c ****                 if(0u != adLength)
1217:Generated_Source\PSoC4/BLE.c ****                 {
1218:Generated_Source\PSoC4/BLE.c ****                     /* Increment byte counter so it can point to AD type */
1219:Generated_Source\PSoC4/BLE.c ****                     byteCounter++;
1220:Generated_Source\PSoC4/BLE.c ****                     
1221:Generated_Source\PSoC4/BLE.c ****                     if((destBuffer[byteCounter] == CYBLE_SHORT_LOCAL_NAME) || 
1222:Generated_Source\PSoC4/BLE.c ****                        (destBuffer[byteCounter] == CYBLE_COMPLETE_LOCAL_NAME))
1223:Generated_Source\PSoC4/BLE.c ****                     {
1224:Generated_Source\PSoC4/BLE.c ****                         /* Start of the Local Name AD type was fount. Set flag and exit the loop. *
1225:Generated_Source\PSoC4/BLE.c ****                         flag = 1u;
1226:Generated_Source\PSoC4/BLE.c ****                     }
1227:Generated_Source\PSoC4/BLE.c ****                     else
1228:Generated_Source\PSoC4/BLE.c ****                     {
1229:Generated_Source\PSoC4/BLE.c ****                         byteCounter += adLength;
1230:Generated_Source\PSoC4/BLE.c ****                     }
1231:Generated_Source\PSoC4/BLE.c ****                 }
1232:Generated_Source\PSoC4/BLE.c ****                 else
1233:Generated_Source\PSoC4/BLE.c ****                 {
1234:Generated_Source\PSoC4/BLE.c ****                     /* The end of advertisement data structure was encountered though exit the loop
1235:Generated_Source\PSoC4/BLE.c ****                     break;
1236:Generated_Source\PSoC4/BLE.c ****                 }
1237:Generated_Source\PSoC4/BLE.c ****             }
1238:Generated_Source\PSoC4/BLE.c ****             
1239:Generated_Source\PSoC4/BLE.c ****             if(0u != flag)
1240:Generated_Source\PSoC4/BLE.c ****             {
1241:Generated_Source\PSoC4/BLE.c ****                 /* Reuse "adLength" to hold location of the last character of local name in 
1242:Generated_Source\PSoC4/BLE.c ****                    AD structure. */
1243:Generated_Source\PSoC4/BLE.c ****                 adLength += byteCounter;
1244:Generated_Source\PSoC4/BLE.c ****                 
1245:Generated_Source\PSoC4/BLE.c ****                 /* Increment byte counter to point to start of the local Name string */
1246:Generated_Source\PSoC4/BLE.c ****                 byteCounter++;
1247:Generated_Source\PSoC4/BLE.c ****                 
1248:Generated_Source\PSoC4/BLE.c ****                 for(i = byteCounter; ((i < (adLength)) && (CYBLE_NULL_CHARCTER != name[i - byteCoun
ARM GAS  C:\Users\ramanatg\AppData\Local\Temp\cciThAgf.s 			page 38


1249:Generated_Source\PSoC4/BLE.c ****                 {
1250:Generated_Source\PSoC4/BLE.c ****                     destBuffer[i] = (uint8)name[i - byteCounter];
1251:Generated_Source\PSoC4/BLE.c ****                 }
1252:Generated_Source\PSoC4/BLE.c ****                 
1253:Generated_Source\PSoC4/BLE.c ****                 /* This loop handles the case when new local name is shorted than old one.
1254:Generated_Source\PSoC4/BLE.c ****                    In this case all remaining characters should be null characters. */
1255:Generated_Source\PSoC4/BLE.c ****                 while(adLength > i)
1256:Generated_Source\PSoC4/BLE.c ****                 {
1257:Generated_Source\PSoC4/BLE.c ****                     /* Terminate string */
1258:Generated_Source\PSoC4/BLE.c ****                     destBuffer[i] = (uint8)CYBLE_NULL_CHARCTER;
1259:Generated_Source\PSoC4/BLE.c ****                     i++;
1260:Generated_Source\PSoC4/BLE.c ****                 }
1261:Generated_Source\PSoC4/BLE.c ****             }
1262:Generated_Source\PSoC4/BLE.c ****         }
1263:Generated_Source\PSoC4/BLE.c ****         
1264:Generated_Source\PSoC4/BLE.c **** #endif /* (CYBLE_GAP_ROLE_PERIPHERAL) */  
1265:Generated_Source\PSoC4/BLE.c ****     
1266:Generated_Source\PSoC4/BLE.c ****     
1267:Generated_Source\PSoC4/BLE.c ****     /******************************************************************************
1268:Generated_Source\PSoC4/BLE.c ****     * Function Name: CyBle_GapSetLocalName
1269:Generated_Source\PSoC4/BLE.c ****     ***************************************************************************//**
1270:Generated_Source\PSoC4/BLE.c ****     *  This API is used to set the local device name - a Characteristic of the 
1271:Generated_Source\PSoC4/BLE.c ****     *  GAP Service. If the characteristic length entered in the component customizer
1272:Generated_Source\PSoC4/BLE.c ****     *  is shorter than the string specified by the "name" parameter, the local device
1273:Generated_Source\PSoC4/BLE.c ****     *  name will be cut to the length specified in the customizer.
1274:Generated_Source\PSoC4/BLE.c ****     * 
1275:Generated_Source\PSoC4/BLE.c ****     *  \param name: The local device name string. The name string to be written as
1276:Generated_Source\PSoC4/BLE.c ****     *              the local device name. It represents a UTF-8 encoded User
1277:Generated_Source\PSoC4/BLE.c ****     *              Friendly Descriptive Name for the device. The length of the local
1278:Generated_Source\PSoC4/BLE.c ****     *              device string is entered into the component customizer and it can
1279:Generated_Source\PSoC4/BLE.c ****     *              be set to a value from 0 to 248 bytes. If the name contained in
1280:Generated_Source\PSoC4/BLE.c ****     *              the parameter is shorter than the length from the customizer, the
1281:Generated_Source\PSoC4/BLE.c ****     *              end of the name is indicated by a NULL octet (0x00).
1282:Generated_Source\PSoC4/BLE.c ****     * 
1283:Generated_Source\PSoC4/BLE.c ****     * \return
1284:Generated_Source\PSoC4/BLE.c ****     *  CYBLE_API_RESULT_T : Return value indicates if the function succeeded or 
1285:Generated_Source\PSoC4/BLE.c ****     *  failed. Following are the possible error codes.
1286:Generated_Source\PSoC4/BLE.c ****     *
1287:Generated_Source\PSoC4/BLE.c ****     *   Errors codes                       | Description
1288:Generated_Source\PSoC4/BLE.c ****     *   ------------                       | -----------
1289:Generated_Source\PSoC4/BLE.c ****     *   CYBLE_ERROR_OK                     | Function completed successfully.
1290:Generated_Source\PSoC4/BLE.c ****     *   CYBLE_ERROR_INVALID_PARAMETER      | On specifying NULL as input parameter
1291:Generated_Source\PSoC4/BLE.c ****     *  
1292:Generated_Source\PSoC4/BLE.c ****     *******************************************************************************/
1293:Generated_Source\PSoC4/BLE.c ****     CYBLE_API_RESULT_T CyBle_GapSetLocalName(const char8 name[])
1294:Generated_Source\PSoC4/BLE.c ****     {
 773              		.loc 1 1294 0
 774              		.cfi_startproc
 775              	.LVL48:
 776 0000 70B5     		push	{r4, r5, r6, lr}
 777              		.cfi_def_cfa_offset 16
 778              		.cfi_offset 4, -16
 779              		.cfi_offset 5, -12
 780              		.cfi_offset 6, -8
 781              		.cfi_offset 14, -4
1295:Generated_Source\PSoC4/BLE.c ****         CYBLE_API_RESULT_T apiResult = CYBLE_ERROR_OK;
1296:Generated_Source\PSoC4/BLE.c ****         uint8 i;
ARM GAS  C:\Users\ramanatg\AppData\Local\Temp\cciThAgf.s 			page 39


1297:Generated_Source\PSoC4/BLE.c ****         char8 *ptr;
1298:Generated_Source\PSoC4/BLE.c ****         uint8 charLen;
1299:Generated_Source\PSoC4/BLE.c **** 
1300:Generated_Source\PSoC4/BLE.c ****         if(NULL != name)
 782              		.loc 1 1300 0
 783 0002 0028     		cmp	r0, #0
 784 0004 00D1     		bne	.LCB682
 785 0006 91E0     		b	.L105	@long jump
 786              	.LCB682:
1301:Generated_Source\PSoC4/BLE.c ****         {
1302:Generated_Source\PSoC4/BLE.c ****             /* Get the pointer to the Device Name characteristic  */
1303:Generated_Source\PSoC4/BLE.c ****             ptr = (char8 *) CYBLE_GATT_DB_ATTR_GET_ATTR_GEN_PTR(cyBle_gaps.deviceNameCharHandle);
 787              		.loc 1 1303 0
 788 0008 494B     		ldr	r3, .L133
 789 000a 5B88     		ldrh	r3, [r3, #2]
 790 000c 013B     		sub	r3, r3, #1
 791 000e 9A00     		lsl	r2, r3, #2
 792 0010 D318     		add	r3, r2, r3
 793 0012 484A     		ldr	r2, .L133+4
 794 0014 9B00     		lsl	r3, r3, #2
 795 0016 D318     		add	r3, r2, r3
 796 0018 1A69     		ldr	r2, [r3, #16]
1304:Generated_Source\PSoC4/BLE.c **** 
1305:Generated_Source\PSoC4/BLE.c ****             /* First need to get the maximum length of the characteristic data in the GATT
1306:Generated_Source\PSoC4/BLE.c ****                 database to make sure there is enough place for the data. The length
1307:Generated_Source\PSoC4/BLE.c ****                 can't be longer than 248, so only the LSB of 16 bit of length is to
1308:Generated_Source\PSoC4/BLE.c ****                 be used. */
1309:Generated_Source\PSoC4/BLE.c ****             charLen = (uint8)CYBLE_GATT_DB_ATTR_GET_ATTR_GEN_MAX_LEN(cyBle_gaps.deviceNameCharHandl
 797              		.loc 1 1309 0
 798 001a 197B     		ldrb	r1, [r3, #12]
1303:Generated_Source\PSoC4/BLE.c **** 
 799              		.loc 1 1303 0
 800 001c 5468     		ldr	r4, [r2, #4]
 801              	.LVL49:
1310:Generated_Source\PSoC4/BLE.c **** 
1311:Generated_Source\PSoC4/BLE.c ****             /* Copy name into characteristic */
1312:Generated_Source\PSoC4/BLE.c ****             for(i = 0u; ((i < charLen) && (CYBLE_NULL_CHARCTER != name[i])); i++)
 802              		.loc 1 1312 0
 803 001e 0029     		cmp	r1, #0
 804 0020 0ED0     		beq	.L100
 805 0022 0278     		ldrb	r2, [r0]
 806 0024 002A     		cmp	r2, #0
 807 0026 00D1     		bne	.LCB702
 808 0028 6BE0     		b	.L106	@long jump
 809              	.LCB702:
 810 002a 0139     		sub	r1, r1, #1
 811              	.LVL50:
 812 002c C9B2     		uxtb	r1, r1
 813              	.LVL51:
 814 002e 0023     		mov	r3, #0
 815              	.LVL52:
 816 0030 03E0     		b	.L78
 817              	.LVL53:
 818              	.L128:
 819 0032 0133     		add	r3, r3, #1
 820              	.LVL54:
 821              		.loc 1 1312 0 is_stmt 0 discriminator 3
ARM GAS  C:\Users\ramanatg\AppData\Local\Temp\cciThAgf.s 			page 40


 822 0034 C25C     		ldrb	r2, [r0, r3]
 823 0036 002A     		cmp	r2, #0
 824 0038 64D0     		beq	.L77
 825              	.L78:
 826              	.LVL55:
1313:Generated_Source\PSoC4/BLE.c ****             {
1314:Generated_Source\PSoC4/BLE.c ****                 ptr[i] = name[i];
 827              		.loc 1 1314 0 is_stmt 1 discriminator 4
 828 003a E254     		strb	r2, [r4, r3]
 829              	.LVL56:
1312:Generated_Source\PSoC4/BLE.c ****             {
 830              		.loc 1 1312 0 discriminator 4
 831 003c 8B42     		cmp	r3, r1
 832 003e F8D1     		bne	.L128
 833              	.LVL57:
 834              	.L100:
 835              	.LBB26:
 836              	.LBB27:
1204:Generated_Source\PSoC4/BLE.c ****             }
 837              		.loc 1 1204 0
 838 0040 3323     		mov	r3, #51
 839 0042 3D4A     		ldr	r2, .L133+8
 840 0044 D65C     		ldrb	r6, [r2, r3]
 841              	.LVL58:
1212:Generated_Source\PSoC4/BLE.c ****             {
 842              		.loc 1 1212 0
 843 0046 002E     		cmp	r6, #0
 844 0048 29D0     		beq	.L80
1214:Generated_Source\PSoC4/BLE.c ****                 
 845              		.loc 1 1214 0
 846 004a 147D     		ldrb	r4, [r2, #20]
 847              	.LVL59:
1216:Generated_Source\PSoC4/BLE.c ****                 {
 848              		.loc 1 1216 0
 849 004c 0023     		mov	r3, #0
1221:Generated_Source\PSoC4/BLE.c ****                        (destBuffer[byteCounter] == CYBLE_COMPLETE_LOCAL_NAME))
 850              		.loc 1 1221 0
 851 004e 151C     		mov	r5, r2
1216:Generated_Source\PSoC4/BLE.c ****                 {
 852              		.loc 1 1216 0
 853 0050 002C     		cmp	r4, #0
 854 0052 08D1     		bne	.L114
 855 0054 23E0     		b	.L80
 856              	.LVL60:
 857              	.L129:
1229:Generated_Source\PSoC4/BLE.c ****                     }
 858              		.loc 1 1229 0
 859 0056 E318     		add	r3, r4, r3
 860              	.LVL61:
 861 0058 DBB2     		uxtb	r3, r3
 862              	.LVL62:
1212:Generated_Source\PSoC4/BLE.c ****             {
 863              		.loc 1 1212 0
 864 005a 9E42     		cmp	r6, r3
 865 005c 1FD9     		bls	.L80
1214:Generated_Source\PSoC4/BLE.c ****                 
 866              		.loc 1 1214 0
ARM GAS  C:\Users\ramanatg\AppData\Local\Temp\cciThAgf.s 			page 41


 867 005e E918     		add	r1, r5, r3
 868              	.LVL63:
 869 0060 0C7D     		ldrb	r4, [r1, #20]
 870              	.LVL64:
1216:Generated_Source\PSoC4/BLE.c ****                 {
 871              		.loc 1 1216 0
 872 0062 002C     		cmp	r4, #0
 873 0064 1BD0     		beq	.L80
 874              	.LVL65:
 875              	.L114:
1219:Generated_Source\PSoC4/BLE.c ****                     
 876              		.loc 1 1219 0
 877 0066 0133     		add	r3, r3, #1
 878              	.LVL66:
 879 0068 DBB2     		uxtb	r3, r3
 880              	.LVL67:
1221:Generated_Source\PSoC4/BLE.c ****                        (destBuffer[byteCounter] == CYBLE_COMPLETE_LOCAL_NAME))
 881              		.loc 1 1221 0
 882 006a D118     		add	r1, r2, r3
 883 006c 097D     		ldrb	r1, [r1, #20]
 884 006e 0839     		sub	r1, r1, #8
 885 0070 0129     		cmp	r1, #1
 886 0072 F0D8     		bhi	.L129
 887              	.LVL68:
1243:Generated_Source\PSoC4/BLE.c ****                 
 888              		.loc 1 1243 0
 889 0074 E418     		add	r4, r4, r3
 890              	.LVL69:
1246:Generated_Source\PSoC4/BLE.c ****                 
 891              		.loc 1 1246 0
 892 0076 0133     		add	r3, r3, #1
 893              	.LVL70:
1243:Generated_Source\PSoC4/BLE.c ****                 
 894              		.loc 1 1243 0
 895 0078 E4B2     		uxtb	r4, r4
 896              	.LVL71:
1246:Generated_Source\PSoC4/BLE.c ****                 
 897              		.loc 1 1246 0
 898 007a DBB2     		uxtb	r3, r3
 899              	.LVL72:
1248:Generated_Source\PSoC4/BLE.c ****                 {
 900              		.loc 1 1248 0
 901 007c 9C42     		cmp	r4, r3
 902 007e 0ED9     		bls	.L80
 903 0080 0178     		ldrb	r1, [r0]
 904 0082 1E1C     		mov	r6, r3
 905              	.LVL73:
 906 0084 0029     		cmp	r1, #0
 907 0086 04D1     		bne	.L88
 908 0088 48E0     		b	.L87
 909              	.LVL74:
 910              	.L130:
 911 008a 991B     		sub	r1, r3, r6
 912 008c 415C     		ldrb	r1, [r0, r1]
 913 008e 0029     		cmp	r1, #0
 914 0090 44D0     		beq	.L87
 915              	.L88:
ARM GAS  C:\Users\ramanatg\AppData\Local\Temp\cciThAgf.s 			page 42


1250:Generated_Source\PSoC4/BLE.c ****                 }
 916              		.loc 1 1250 0
 917 0092 D518     		add	r5, r2, r3
1248:Generated_Source\PSoC4/BLE.c ****                 {
 918              		.loc 1 1248 0
 919 0094 0133     		add	r3, r3, #1
 920              	.LVL75:
 921 0096 DBB2     		uxtb	r3, r3
 922              	.LVL76:
1250:Generated_Source\PSoC4/BLE.c ****                 }
 923              		.loc 1 1250 0
 924 0098 2975     		strb	r1, [r5, #20]
1248:Generated_Source\PSoC4/BLE.c ****                 {
 925              		.loc 1 1248 0
 926 009a 9C42     		cmp	r4, r3
 927 009c F5D8     		bhi	.L130
 928              	.LVL77:
 929              	.L80:
 930              	.LBE27:
 931              	.LBE26:
 932              	.LBB29:
 933              	.LBB30:
1209:Generated_Source\PSoC4/BLE.c ****             }
 934              		.loc 1 1209 0
 935 009e 131C     		mov	r3, r2
 936 00a0 3433     		add	r3, r3, #52
 937 00a2 DE7F     		ldrb	r6, [r3, #31]
 938              	.LVL78:
1212:Generated_Source\PSoC4/BLE.c ****             {
 939              		.loc 1 1212 0
 940 00a4 002E     		cmp	r6, #0
 941 00a6 2AD0     		beq	.L96
1214:Generated_Source\PSoC4/BLE.c ****                 
 942              		.loc 1 1214 0
 943 00a8 3423     		mov	r3, #52
 944 00aa D45C     		ldrb	r4, [r2, r3]
 945              	.LVL79:
1216:Generated_Source\PSoC4/BLE.c ****                 {
 946              		.loc 1 1216 0
 947 00ac 0023     		mov	r3, #0
 948 00ae 002C     		cmp	r4, #0
 949 00b0 07D1     		bne	.L113
 950 00b2 24E0     		b	.L96
 951              	.LVL80:
 952              	.L131:
1229:Generated_Source\PSoC4/BLE.c ****                     }
 953              		.loc 1 1229 0
 954 00b4 E318     		add	r3, r4, r3
 955              	.LVL81:
 956 00b6 DBB2     		uxtb	r3, r3
 957              	.LVL82:
1212:Generated_Source\PSoC4/BLE.c ****             {
 958              		.loc 1 1212 0
 959 00b8 9E42     		cmp	r6, r3
 960 00ba 20D9     		bls	.L96
 961              	.LVL83:
1214:Generated_Source\PSoC4/BLE.c ****                 
ARM GAS  C:\Users\ramanatg\AppData\Local\Temp\cciThAgf.s 			page 43


 962              		.loc 1 1214 0
 963 00bc EC5C     		ldrb	r4, [r5, r3]
 964              	.LVL84:
1216:Generated_Source\PSoC4/BLE.c ****                 {
 965              		.loc 1 1216 0
 966 00be 002C     		cmp	r4, #0
 967 00c0 1DD0     		beq	.L96
 968              	.LVL85:
 969              	.L113:
1221:Generated_Source\PSoC4/BLE.c ****                        (destBuffer[byteCounter] == CYBLE_COMPLETE_LOCAL_NAME))
 970              		.loc 1 1221 0
 971 00c2 151C     		mov	r5, r2
1219:Generated_Source\PSoC4/BLE.c ****                     
 972              		.loc 1 1219 0
 973 00c4 0133     		add	r3, r3, #1
 974              	.LVL86:
 975 00c6 DBB2     		uxtb	r3, r3
 976              	.LVL87:
1221:Generated_Source\PSoC4/BLE.c ****                        (destBuffer[byteCounter] == CYBLE_COMPLETE_LOCAL_NAME))
 977              		.loc 1 1221 0
 978 00c8 3435     		add	r5, r5, #52
 979 00ca E95C     		ldrb	r1, [r5, r3]
 980 00cc 0839     		sub	r1, r1, #8
 981 00ce 0129     		cmp	r1, #1
 982 00d0 F0D8     		bhi	.L131
 983              	.LVL88:
1243:Generated_Source\PSoC4/BLE.c ****                 
 984              		.loc 1 1243 0
 985 00d2 1C19     		add	r4, r3, r4
 986              	.LVL89:
1246:Generated_Source\PSoC4/BLE.c ****                 
 987              		.loc 1 1246 0
 988 00d4 0133     		add	r3, r3, #1
 989              	.LVL90:
1243:Generated_Source\PSoC4/BLE.c ****                 
 990              		.loc 1 1243 0
 991 00d6 E4B2     		uxtb	r4, r4
 992              	.LVL91:
1246:Generated_Source\PSoC4/BLE.c ****                 
 993              		.loc 1 1246 0
 994 00d8 DBB2     		uxtb	r3, r3
 995              	.LVL92:
1248:Generated_Source\PSoC4/BLE.c ****                 {
 996              		.loc 1 1248 0
 997 00da 9C42     		cmp	r4, r3
 998 00dc 0FD9     		bls	.L96
 999 00de 0178     		ldrb	r1, [r0]
 1000 00e0 1E1C     		mov	r6, r3
 1001              	.LVL93:
 1002 00e2 0029     		cmp	r1, #0
 1003 00e4 04D1     		bne	.L98
 1004 00e6 10E0     		b	.L97
 1005              	.LVL94:
 1006              	.L132:
 1007 00e8 991B     		sub	r1, r3, r6
 1008 00ea 415C     		ldrb	r1, [r0, r1]
 1009 00ec 0029     		cmp	r1, #0
ARM GAS  C:\Users\ramanatg\AppData\Local\Temp\cciThAgf.s 			page 44


 1010 00ee 0CD0     		beq	.L97
 1011              	.L98:
1250:Generated_Source\PSoC4/BLE.c ****                 }
 1012              		.loc 1 1250 0
 1013 00f0 151C     		mov	r5, r2
 1014 00f2 3435     		add	r5, r5, #52
 1015 00f4 E954     		strb	r1, [r5, r3]
1248:Generated_Source\PSoC4/BLE.c ****                 {
 1016              		.loc 1 1248 0
 1017 00f6 0133     		add	r3, r3, #1
 1018              	.LVL95:
 1019 00f8 DBB2     		uxtb	r3, r3
 1020              	.LVL96:
 1021 00fa 9C42     		cmp	r4, r3
 1022 00fc F4D8     		bhi	.L132
 1023              	.LVL97:
 1024              	.L96:
 1025              	.LBE30:
 1026              	.LBE29:
1295:Generated_Source\PSoC4/BLE.c ****         uint8 i;
 1027              		.loc 1 1295 0
 1028 00fe 0020     		mov	r0, #0
 1029              	.LVL98:
 1030              	.L125:
1315:Generated_Source\PSoC4/BLE.c ****             }
1316:Generated_Source\PSoC4/BLE.c **** 
1317:Generated_Source\PSoC4/BLE.c ****             if(i < charLen)
1318:Generated_Source\PSoC4/BLE.c ****             {
1319:Generated_Source\PSoC4/BLE.c ****                 /* Terminate string */
1320:Generated_Source\PSoC4/BLE.c ****                 ptr[i] = CYBLE_NULL_CHARCTER;
1321:Generated_Source\PSoC4/BLE.c ****             }
1322:Generated_Source\PSoC4/BLE.c ****             
1323:Generated_Source\PSoC4/BLE.c ****             /* Set new actual length */
1324:Generated_Source\PSoC4/BLE.c ****             
1325:Generated_Source\PSoC4/BLE.c ****             /* Update device name in advertising and scan response structure */
1326:Generated_Source\PSoC4/BLE.c ****             #if(CYBLE_GAP_ROLE_PERIPHERAL)
1327:Generated_Source\PSoC4/BLE.c ****                 CyBle_ChangeAdLocalName(name, 0u);
1328:Generated_Source\PSoC4/BLE.c ****                 CyBle_ChangeAdLocalName(name, 1u);
1329:Generated_Source\PSoC4/BLE.c ****             #endif /* (CYBLE_GAP_ROLE_PERIPHERAL) */
1330:Generated_Source\PSoC4/BLE.c ****         }
1331:Generated_Source\PSoC4/BLE.c ****         else
1332:Generated_Source\PSoC4/BLE.c ****         {
1333:Generated_Source\PSoC4/BLE.c ****             apiResult = CYBLE_ERROR_INVALID_PARAMETER;
1334:Generated_Source\PSoC4/BLE.c ****         }
1335:Generated_Source\PSoC4/BLE.c ****         
1336:Generated_Source\PSoC4/BLE.c ****         return(apiResult);
1337:Generated_Source\PSoC4/BLE.c ****     }
 1031              		.loc 1 1337 0
 1032              		@ sp needed
 1033 0100 70BD     		pop	{r4, r5, r6, pc}
 1034              	.LVL99:
 1035              	.L106:
1312:Generated_Source\PSoC4/BLE.c ****             {
 1036              		.loc 1 1312 0
 1037 0102 0023     		mov	r3, #0
 1038              	.LVL100:
 1039              	.L77:
ARM GAS  C:\Users\ramanatg\AppData\Local\Temp\cciThAgf.s 			page 45


1320:Generated_Source\PSoC4/BLE.c ****             }
 1040              		.loc 1 1320 0
 1041 0104 0022     		mov	r2, #0
 1042 0106 E254     		strb	r2, [r4, r3]
 1043 0108 9AE7     		b	.L100
 1044              	.LVL101:
 1045              	.L97:
 1046              	.LBB32:
 1047              	.LBB31:
1258:Generated_Source\PSoC4/BLE.c ****                     i++;
 1048              		.loc 1 1258 0
 1049 010a 0020     		mov	r0, #0
 1050              	.LVL102:
 1051              	.L99:
 1052 010c 111C     		mov	r1, r2
 1053 010e 3431     		add	r1, r1, #52
 1054 0110 C854     		strb	r0, [r1, r3]
1259:Generated_Source\PSoC4/BLE.c ****                 }
 1055              		.loc 1 1259 0
 1056 0112 0133     		add	r3, r3, #1
 1057              	.LVL103:
 1058 0114 DBB2     		uxtb	r3, r3
 1059              	.LVL104:
1255:Generated_Source\PSoC4/BLE.c ****                 {
 1060              		.loc 1 1255 0
 1061 0116 9C42     		cmp	r4, r3
 1062 0118 F8D8     		bhi	.L99
 1063 011a F0E7     		b	.L96
 1064              	.LVL105:
 1065              	.L87:
 1066              	.LBE31:
 1067              	.LBE32:
 1068              	.LBB33:
 1069              	.LBB28:
1258:Generated_Source\PSoC4/BLE.c ****                     i++;
 1070              		.loc 1 1258 0
 1071 011c 0025     		mov	r5, #0
 1072              	.L89:
 1073 011e D118     		add	r1, r2, r3
1259:Generated_Source\PSoC4/BLE.c ****                 }
 1074              		.loc 1 1259 0
 1075 0120 0133     		add	r3, r3, #1
 1076              	.LVL106:
 1077 0122 DBB2     		uxtb	r3, r3
 1078              	.LVL107:
1258:Generated_Source\PSoC4/BLE.c ****                     i++;
 1079              		.loc 1 1258 0
 1080 0124 0D75     		strb	r5, [r1, #20]
1255:Generated_Source\PSoC4/BLE.c ****                 {
 1081              		.loc 1 1255 0
 1082 0126 9C42     		cmp	r4, r3
 1083 0128 F9D8     		bhi	.L89
 1084 012a B8E7     		b	.L80
 1085              	.LVL108:
 1086              	.L105:
 1087              	.LBE28:
 1088              	.LBE33:
ARM GAS  C:\Users\ramanatg\AppData\Local\Temp\cciThAgf.s 			page 46


1333:Generated_Source\PSoC4/BLE.c ****         }
 1089              		.loc 1 1333 0
 1090 012c 0120     		mov	r0, #1
 1091              	.LVL109:
 1092 012e E7E7     		b	.L125
 1093              	.L134:
 1094              		.align	2
 1095              	.L133:
 1096 0130 00000000 		.word	cyBle_gaps
 1097 0134 00000000 		.word	cyBle_gattDB
 1098 0138 00000000 		.word	.LANCHOR3
 1099              		.cfi_endproc
 1100              	.LFE12:
 1101              		.size	CyBle_GapSetLocalName, .-CyBle_GapSetLocalName
 1102              		.section	.text.CyBle_GapGetLocalName,"ax",%progbits
 1103              		.align	2
 1104              		.global	CyBle_GapGetLocalName
 1105              		.code	16
 1106              		.thumb_func
 1107              		.type	CyBle_GapGetLocalName, %function
 1108              	CyBle_GapGetLocalName:
 1109              	.LFB13:
1338:Generated_Source\PSoC4/BLE.c **** 
1339:Generated_Source\PSoC4/BLE.c **** 
1340:Generated_Source\PSoC4/BLE.c ****     /******************************************************************************
1341:Generated_Source\PSoC4/BLE.c ****     * Function Name: CyBle_GapGetLocalName
1342:Generated_Source\PSoC4/BLE.c ****     ***************************************************************************//**
1343:Generated_Source\PSoC4/BLE.c ****     *  
1344:Generated_Source\PSoC4/BLE.c ****     *  This API is used to read the local device name - a Characteristic of the 
1345:Generated_Source\PSoC4/BLE.c ****     *  GAP Service.
1346:Generated_Source\PSoC4/BLE.c ****     * 
1347:Generated_Source\PSoC4/BLE.c ****     * \param name: The local device name string. Used to read the local name to the
1348:Generated_Source\PSoC4/BLE.c ****     *             given string array. It represents a UTF-8 encoded User Friendly 
1349:Generated_Source\PSoC4/BLE.c ****     *             Descriptive Name for the device. The length of the local device
1350:Generated_Source\PSoC4/BLE.c ****     *             string is entered into the component customizer and it can be set
1351:Generated_Source\PSoC4/BLE.c ****     *             to a value from 0 to 248 bytes. If the name contained in the
1352:Generated_Source\PSoC4/BLE.c ****     *             parameter is shorter than the length from the customizer, the end
1353:Generated_Source\PSoC4/BLE.c ****     *             of the name is indicated by a NULL octet (0x00).
1354:Generated_Source\PSoC4/BLE.c ****     * 
1355:Generated_Source\PSoC4/BLE.c ****     * \return
1356:Generated_Source\PSoC4/BLE.c ****     *  CYBLE_API_RESULT_T : Return value indicates if the function succeeded or 
1357:Generated_Source\PSoC4/BLE.c ****     *  failed. Following are the possible error codes.
1358:Generated_Source\PSoC4/BLE.c ****     *
1359:Generated_Source\PSoC4/BLE.c ****     *   Errors codes                       | Description
1360:Generated_Source\PSoC4/BLE.c ****     *   ------------                       | -----------
1361:Generated_Source\PSoC4/BLE.c ****     *   CYBLE_ERROR_OK                     | Function completed successfully.
1362:Generated_Source\PSoC4/BLE.c ****     *   CYBLE_ERROR_INVALID_PARAMETER      | On specifying NULL as input parameter
1363:Generated_Source\PSoC4/BLE.c ****     *
1364:Generated_Source\PSoC4/BLE.c ****     *******************************************************************************/
1365:Generated_Source\PSoC4/BLE.c ****     CYBLE_API_RESULT_T CyBle_GapGetLocalName(char8 name[])
1366:Generated_Source\PSoC4/BLE.c ****     {
 1110              		.loc 1 1366 0
 1111              		.cfi_startproc
 1112              	.LVL110:
 1113 0000 70B5     		push	{r4, r5, r6, lr}
 1114              		.cfi_def_cfa_offset 16
 1115              		.cfi_offset 4, -16
ARM GAS  C:\Users\ramanatg\AppData\Local\Temp\cciThAgf.s 			page 47


 1116              		.cfi_offset 5, -12
 1117              		.cfi_offset 6, -8
 1118              		.cfi_offset 14, -4
1367:Generated_Source\PSoC4/BLE.c ****         CYBLE_API_RESULT_T apiResult = CYBLE_ERROR_OK;
1368:Generated_Source\PSoC4/BLE.c ****         uint8 charLen;
1369:Generated_Source\PSoC4/BLE.c ****         uint8 i;
1370:Generated_Source\PSoC4/BLE.c ****         char8 *ptr;
1371:Generated_Source\PSoC4/BLE.c **** 
1372:Generated_Source\PSoC4/BLE.c ****         if(NULL != name)
 1119              		.loc 1 1372 0
 1120 0002 0028     		cmp	r0, #0
 1121 0004 21D0     		beq	.L140
1373:Generated_Source\PSoC4/BLE.c ****         {
1374:Generated_Source\PSoC4/BLE.c ****             /* Get the pointer to the Device Name characteristic  */
1375:Generated_Source\PSoC4/BLE.c ****             ptr = (char8 *) CYBLE_GATT_DB_ATTR_GET_ATTR_GEN_PTR(cyBle_gaps.deviceNameCharHandle);
 1122              		.loc 1 1375 0
 1123 0006 134B     		ldr	r3, .L144
 1124 0008 5B88     		ldrh	r3, [r3, #2]
 1125 000a 013B     		sub	r3, r3, #1
 1126 000c 9A00     		lsl	r2, r3, #2
 1127 000e D318     		add	r3, r2, r3
 1128 0010 114A     		ldr	r2, .L144+4
 1129 0012 9B00     		lsl	r3, r3, #2
 1130 0014 D318     		add	r3, r2, r3
 1131 0016 1B69     		ldr	r3, [r3, #16]
1376:Generated_Source\PSoC4/BLE.c **** 
1377:Generated_Source\PSoC4/BLE.c ****             /* First need to get the length of the characteristic data in the GATT
1378:Generated_Source\PSoC4/BLE.c ****                 database to make sure there is enough place for the data. The length
1379:Generated_Source\PSoC4/BLE.c ****                 can't be longer than 248, so only the LSB of 16 bit of length is to
1380:Generated_Source\PSoC4/BLE.c ****                 be used. */
1381:Generated_Source\PSoC4/BLE.c ****             charLen = (uint8)CYBLE_GATT_DB_ATTR_GET_ATTR_GEN_LEN(cyBle_gaps.deviceNameCharHandle);
 1132              		.loc 1 1381 0
 1133 0018 1D78     		ldrb	r5, [r3]
1375:Generated_Source\PSoC4/BLE.c **** 
 1134              		.loc 1 1375 0
 1135 001a 5E68     		ldr	r6, [r3, #4]
 1136              	.LVL111:
1382:Generated_Source\PSoC4/BLE.c **** 
1383:Generated_Source\PSoC4/BLE.c ****             /* Copy name from characteristic */
1384:Generated_Source\PSoC4/BLE.c ****             for(i = 0u; ((i < charLen) && (CYBLE_NULL_CHARCTER != ptr[i])); i++)
 1137              		.loc 1 1384 0
 1138 001c 002D     		cmp	r5, #0
 1139 001e 16D0     		beq	.L142
 1140 0020 3278     		ldrb	r2, [r6]
 1141 0022 002A     		cmp	r2, #0
 1142 0024 13D0     		beq	.L142
 1143 0026 011C     		mov	r1, r0
 1144 0028 0123     		mov	r3, #1
 1145 002a 05E0     		b	.L139
 1146              	.LVL112:
 1147              	.L138:
 1148              		.loc 1 1384 0 is_stmt 0 discriminator 3
 1149 002c F25C     		ldrb	r2, [r6, r3]
 1150              	.LVL113:
 1151 002e 5C1C     		add	r4, r3, #1
 1152 0030 0131     		add	r1, r1, #1
 1153 0032 002A     		cmp	r2, #0
ARM GAS  C:\Users\ramanatg\AppData\Local\Temp\cciThAgf.s 			page 48


 1154 0034 05D0     		beq	.L137
 1155 0036 231C     		mov	r3, r4
 1156              	.LVL114:
 1157              	.L139:
1385:Generated_Source\PSoC4/BLE.c ****             {
1386:Generated_Source\PSoC4/BLE.c ****                 name[i] = ptr[i];
 1158              		.loc 1 1386 0 is_stmt 1 discriminator 4
 1159 0038 0A70     		strb	r2, [r1]
1384:Generated_Source\PSoC4/BLE.c ****             {
 1160              		.loc 1 1384 0 discriminator 4
 1161 003a DAB2     		uxtb	r2, r3
 1162              	.LVL115:
 1163 003c 9542     		cmp	r5, r2
 1164 003e F5D8     		bhi	.L138
 1165 0040 131C     		mov	r3, r2
 1166              	.LVL116:
 1167              	.L137:
1387:Generated_Source\PSoC4/BLE.c ****             }
1388:Generated_Source\PSoC4/BLE.c **** 
1389:Generated_Source\PSoC4/BLE.c ****             /* Terminate string */
1390:Generated_Source\PSoC4/BLE.c ****             name[i] = CYBLE_NULL_CHARCTER;
 1168              		.loc 1 1390 0
 1169 0042 0022     		mov	r2, #0
 1170 0044 C254     		strb	r2, [r0, r3]
1367:Generated_Source\PSoC4/BLE.c ****         uint8 charLen;
 1171              		.loc 1 1367 0
 1172 0046 0020     		mov	r0, #0
 1173              	.LVL117:
 1174              	.L136:
1391:Generated_Source\PSoC4/BLE.c ****         }
1392:Generated_Source\PSoC4/BLE.c ****         else
1393:Generated_Source\PSoC4/BLE.c ****         {
1394:Generated_Source\PSoC4/BLE.c ****             apiResult = CYBLE_ERROR_INVALID_PARAMETER;
1395:Generated_Source\PSoC4/BLE.c ****         }
1396:Generated_Source\PSoC4/BLE.c ****         
1397:Generated_Source\PSoC4/BLE.c ****         return(apiResult);
1398:Generated_Source\PSoC4/BLE.c ****     }
 1175              		.loc 1 1398 0
 1176              		@ sp needed
 1177 0048 70BD     		pop	{r4, r5, r6, pc}
 1178              	.LVL118:
 1179              	.L140:
1394:Generated_Source\PSoC4/BLE.c ****         }
 1180              		.loc 1 1394 0
 1181 004a 0120     		mov	r0, #1
 1182              	.LVL119:
 1183 004c FCE7     		b	.L136
 1184              	.LVL120:
 1185              	.L142:
1384:Generated_Source\PSoC4/BLE.c ****             {
 1186              		.loc 1 1384 0
 1187 004e 0023     		mov	r3, #0
 1188 0050 F7E7     		b	.L137
 1189              	.L145:
 1190 0052 C046     		.align	2
 1191              	.L144:
 1192 0054 00000000 		.word	cyBle_gaps
ARM GAS  C:\Users\ramanatg\AppData\Local\Temp\cciThAgf.s 			page 49


 1193 0058 00000000 		.word	cyBle_gattDB
 1194              		.cfi_endproc
 1195              	.LFE13:
 1196              		.size	CyBle_GapGetLocalName, .-CyBle_GapGetLocalName
 1197              		.section	.text.CyBle_Get16ByPtr,"ax",%progbits
 1198              		.align	2
 1199              		.global	CyBle_Get16ByPtr
 1200              		.code	16
 1201              		.thumb_func
 1202              		.type	CyBle_Get16ByPtr, %function
 1203              	CyBle_Get16ByPtr:
 1204              	.LFB14:
1399:Generated_Source\PSoC4/BLE.c **** 
1400:Generated_Source\PSoC4/BLE.c **** #endif /* (CYBLE_GATT_ROLE_SERVER) */
1401:Generated_Source\PSoC4/BLE.c **** 
1402:Generated_Source\PSoC4/BLE.c **** 
1403:Generated_Source\PSoC4/BLE.c **** /******************************************************************************
1404:Generated_Source\PSoC4/BLE.c **** * Function Name: CyBle_Get16ByPtr
1405:Generated_Source\PSoC4/BLE.c **** ***************************************************************************//**
1406:Generated_Source\PSoC4/BLE.c **** * 
1407:Generated_Source\PSoC4/BLE.c **** *  Returns the two-bytes value by using a pointer to the LSB.
1408:Generated_Source\PSoC4/BLE.c **** * 
1409:Generated_Source\PSoC4/BLE.c **** *  \param ptr: Pointer to the LSB of two-bytes data (little endian).
1410:Generated_Source\PSoC4/BLE.c **** * 
1411:Generated_Source\PSoC4/BLE.c **** *  \return
1412:Generated_Source\PSoC4/BLE.c **** *  uint16: Two-bytes data.
1413:Generated_Source\PSoC4/BLE.c **** * 
1414:Generated_Source\PSoC4/BLE.c **** ******************************************************************************/
1415:Generated_Source\PSoC4/BLE.c **** uint16 CyBle_Get16ByPtr(const uint8 ptr[])
1416:Generated_Source\PSoC4/BLE.c **** {
 1205              		.loc 1 1416 0
 1206              		.cfi_startproc
 1207              	.LVL121:
1417:Generated_Source\PSoC4/BLE.c ****     return ((uint16) ptr[0u] | ((uint16) (((uint16) ptr[1u]) << 8u)));
 1208              		.loc 1 1417 0
 1209 0000 4378     		ldrb	r3, [r0, #1]
 1210 0002 0078     		ldrb	r0, [r0]
 1211              	.LVL122:
 1212 0004 1B02     		lsl	r3, r3, #8
 1213 0006 1843     		orr	r0, r3
1418:Generated_Source\PSoC4/BLE.c **** }
 1214              		.loc 1 1418 0
 1215              		@ sp needed
 1216 0008 7047     		bx	lr
 1217              		.cfi_endproc
 1218              	.LFE14:
 1219              		.size	CyBle_Get16ByPtr, .-CyBle_Get16ByPtr
 1220 000a C046     		.section	.text.CyBle_Set16ByPtr,"ax",%progbits
 1221              		.align	2
 1222              		.global	CyBle_Set16ByPtr
 1223              		.code	16
 1224              		.thumb_func
 1225              		.type	CyBle_Set16ByPtr, %function
 1226              	CyBle_Set16ByPtr:
 1227              	.LFB15:
1419:Generated_Source\PSoC4/BLE.c **** 
1420:Generated_Source\PSoC4/BLE.c **** 
ARM GAS  C:\Users\ramanatg\AppData\Local\Temp\cciThAgf.s 			page 50


1421:Generated_Source\PSoC4/BLE.c **** /******************************************************************************
1422:Generated_Source\PSoC4/BLE.c **** * Function Name: CyBle_Set16ByPtr
1423:Generated_Source\PSoC4/BLE.c **** ***************************************************************************//**
1424:Generated_Source\PSoC4/BLE.c **** * 
1425:Generated_Source\PSoC4/BLE.c **** *  Sets the two-bytes value by using a pointer to the LSB.
1426:Generated_Source\PSoC4/BLE.c **** * 
1427:Generated_Source\PSoC4/BLE.c **** *  \param ptr:    Pointer to the LSB of two-bytes data (little endian).
1428:Generated_Source\PSoC4/BLE.c **** *  \param value:  Two-bytes data to be written.
1429:Generated_Source\PSoC4/BLE.c **** * 
1430:Generated_Source\PSoC4/BLE.c **** *  \return
1431:Generated_Source\PSoC4/BLE.c **** *  None
1432:Generated_Source\PSoC4/BLE.c **** * 
1433:Generated_Source\PSoC4/BLE.c **** ******************************************************************************/
1434:Generated_Source\PSoC4/BLE.c **** void CyBle_Set16ByPtr(uint8 ptr[], uint16 value)
1435:Generated_Source\PSoC4/BLE.c **** {
 1228              		.loc 1 1435 0
 1229              		.cfi_startproc
 1230              	.LVL123:
1436:Generated_Source\PSoC4/BLE.c ****     ptr[0u] = (uint8) value;
 1231              		.loc 1 1436 0
 1232 0000 0170     		strb	r1, [r0]
1437:Generated_Source\PSoC4/BLE.c ****     ptr[1u] = (uint8) (value >> 8u);
 1233              		.loc 1 1437 0
 1234 0002 090A     		lsr	r1, r1, #8
 1235              	.LVL124:
 1236 0004 4170     		strb	r1, [r0, #1]
1438:Generated_Source\PSoC4/BLE.c **** }
 1237              		.loc 1 1438 0
 1238              		@ sp needed
 1239 0006 7047     		bx	lr
 1240              		.cfi_endproc
 1241              	.LFE15:
 1242              		.size	CyBle_Set16ByPtr, .-CyBle_Set16ByPtr
 1243              		.global	cyBle_sflashDeviceAddress
 1244              		.global	cyBle_deviceAddress
 1245              		.comm	CyBle_ApplCallback,4,4
 1246              		.comm	cyBle_pendingFlashWrite,1,1
 1247              		.comm	cyBle_peerBonding,1,1
 1248              		.global	cyBle_discoveryModeInfo
 1249              		.global	cyBle_scanRspData
 1250              		.global	cyBle_discoveryData
 1251              		.global	cyBle_discoveryParam
 1252              		.global	cyBle_stackMemoryRam
 1253              		.global	cyBle_initVar
 1254              		.section	.rodata
 1255              		.align	2
 1256              		.set	.LANCHOR0,. + 0
 1257              	.LC0:
 1258 0000 2400     		.short	36
 1259 0002 03       		.byte	3
 1260 0003 00       		.space	1
 1261 0004 3000     		.short	48
 1262 0006 01       		.byte	1
 1263 0007 00       		.space	1
 1264 0008 2800     		.short	40
 1265 000a 02       		.byte	2
 1266 000b 00       		.space	1
ARM GAS  C:\Users\ramanatg\AppData\Local\Temp\cciThAgf.s 			page 51


 1267 000c 2400     		.short	36
 1268 000e 01       		.byte	1
 1269 000f 00       		.space	1
 1270 0010 2400     		.short	36
 1271 0012 01       		.byte	1
 1272 0013 00       		.space	1
 1273              		.data
 1274              		.align	2
 1275              		.set	.LANCHOR3,. + 0
 1276              		.type	cyBle_discoveryModeInfo, %object
 1277              		.size	cyBle_discoveryModeInfo, 20
 1278              	cyBle_discoveryModeInfo:
 1279 0000 02       		.byte	2
 1280 0001 000000   		.space	3
 1281 0004 00000000 		.word	cyBle_discoveryParam
 1282 0008 00000000 		.word	cyBle_discoveryData
 1283 000c 00000000 		.word	cyBle_scanRspData
 1284 0010 3C00     		.short	60
 1285 0012 0000     		.space	2
 1286              		.type	cyBle_discoveryData, %object
 1287              		.size	cyBle_discoveryData, 32
 1288              	cyBle_discoveryData:
 1289 0014 02       		.byte	2
 1290 0015 01       		.byte	1
 1291 0016 06       		.byte	6
 1292 0017 02       		.byte	2
 1293 0018 0A       		.byte	10
 1294 0019 FE       		.byte	-2
 1295 001a 11       		.byte	17
 1296 001b 07       		.byte	7
 1297 001c D8       		.byte	-40
 1298 001d 81       		.byte	-127
 1299 001e C9       		.byte	-55
 1300 001f 1A       		.byte	26
 1301 0020 B9       		.byte	-71
 1302 0021 99       		.byte	-103
 1303 0022 96       		.byte	-106
 1304 0023 AB       		.byte	-85
 1305 0024 BA       		.byte	-70
 1306 0025 40       		.byte	64
 1307 0026 86       		.byte	-122
 1308 0027 87       		.byte	-121
 1309 0028 80       		.byte	-128
 1310 0029 20       		.byte	32
 1311 002a 0C       		.byte	12
 1312 002b EE       		.byte	-18
 1313 002c 00       		.byte	0
 1314 002d 00       		.byte	0
 1315 002e 00       		.byte	0
 1316 002f 00       		.byte	0
 1317 0030 00       		.byte	0
 1318 0031 00       		.byte	0
 1319 0032 00       		.byte	0
 1320 0033 18       		.byte	24
 1321              		.type	cyBle_scanRspData, %object
 1322              		.size	cyBle_scanRspData, 32
 1323              	cyBle_scanRspData:
ARM GAS  C:\Users\ramanatg\AppData\Local\Temp\cciThAgf.s 			page 52


 1324 0034 11       		.byte	17
 1325 0035 09       		.byte	9
 1326 0036 53       		.byte	83
 1327 0037 6F       		.byte	111
 1328 0038 6C       		.byte	108
 1329 0039 61       		.byte	97
 1330 003a 72       		.byte	114
 1331 003b 20       		.byte	32
 1332 003c 42       		.byte	66
 1333 003d 4C       		.byte	76
 1334 003e 45       		.byte	69
 1335 003f 20       		.byte	32
 1336 0040 53       		.byte	83
 1337 0041 65       		.byte	101
 1338 0042 6E       		.byte	110
 1339 0043 73       		.byte	115
 1340 0044 6F       		.byte	111
 1341 0045 72       		.byte	114
 1342 0046 00       		.byte	0
 1343 0047 00       		.byte	0
 1344 0048 00       		.byte	0
 1345 0049 00       		.byte	0
 1346 004a 00       		.byte	0
 1347 004b 00       		.byte	0
 1348 004c 00       		.byte	0
 1349 004d 00       		.byte	0
 1350 004e 00       		.byte	0
 1351 004f 00       		.byte	0
 1352 0050 00       		.byte	0
 1353 0051 00       		.byte	0
 1354 0052 00       		.byte	0
 1355 0053 12       		.byte	18
 1356              		.type	cyBle_sflashDeviceAddress, %object
 1357              		.size	cyBle_sflashDeviceAddress, 4
 1358              	cyBle_sflashDeviceAddress:
 1359 0054 00F2FF0F 		.word	268431872
 1360              		.type	cyBle_deviceAddress, %object
 1361              		.size	cyBle_deviceAddress, 7
 1362              	cyBle_deviceAddress:
 1363 0058 00       		.byte	0
 1364 0059 00       		.byte	0
 1365 005a 00       		.byte	0
 1366 005b 50       		.byte	80
 1367 005c A0       		.byte	-96
 1368 005d 00       		.byte	0
 1369 005e 00       		.byte	0
 1370 005f 00       		.space	1
 1371              		.type	cyBle_discoveryParam, %object
 1372              		.size	cyBle_discoveryParam, 16
 1373              	cyBle_discoveryParam:
 1374 0060 5000     		.short	80
 1375 0062 5000     		.short	80
 1376 0064 00       		.byte	0
 1377 0065 00       		.byte	0
 1378 0066 00       		.byte	0
 1379 0067 00       		.byte	0
 1380 0068 00       		.byte	0
ARM GAS  C:\Users\ramanatg\AppData\Local\Temp\cciThAgf.s 			page 53


 1381 0069 00       		.byte	0
 1382 006a 50       		.byte	80
 1383 006b A0       		.byte	-96
 1384 006c 00       		.byte	0
 1385 006d 07       		.byte	7
 1386 006e 00       		.byte	0
 1387 006f 00       		.space	1
 1388              		.section	.noinit,"aw",%progbits
 1389              		.align	3
 1390              		.set	.LANCHOR2,. + 0
 1391              		.type	cyBle_stackMemoryRam, %object
 1392              		.size	cyBle_stackMemoryRam, 2784
 1393              	cyBle_stackMemoryRam:
 1394 0000 00000000 		.space	2784
 1394      00000000 
 1394      00000000 
 1394      00000000 
 1394      00000000 
 1395              		.bss
 1396              		.set	.LANCHOR1,. + 0
 1397              		.type	cyBle_initVar, %object
 1398              		.size	cyBle_initVar, 1
 1399              	cyBle_initVar:
 1400 0000 00       		.space	1
 1401              		.type	cyBle_pendingFlashClearCccdHandle, %object
 1402              		.size	cyBle_pendingFlashClearCccdHandle, 1
 1403              	cyBle_pendingFlashClearCccdHandle:
 1404 0001 00       		.space	1
 1405              		.text
 1406              	.Letext0:
 1407              		.file 2 "Generated_Source\\PSoC4\\cytypes.h"
 1408              		.file 3 "c:\\program files (x86)\\cypress\\psoc creator\\4.0\\psoc creator\\import\\gnu\\arm\\4.9.
 1409              		.file 4 "Generated_Source\\PSoC4\\BLE_Stack.h"
 1410              		.file 5 "Generated_Source\\PSoC4\\BLE_StackGap.h"
 1411              		.file 6 "Generated_Source\\PSoC4\\BLE_StackGatt.h"
 1412              		.file 7 "Generated_Source\\PSoC4\\BLE_StackGattDb.h"
 1413              		.file 8 "Generated_Source\\PSoC4\\BLE.h"
 1414              		.file 9 "Generated_Source\\PSoC4\\BLE_gatt.h"
 1415              		.file 10 "Generated_Source\\PSoC4\\BLE_eventHandler.h"
 1416              		.file 11 "Generated_Source\\PSoC4\\BLE_custom.h"
 1417              		.file 12 "Generated_Source\\PSoC4\\BLE_StackHostMain.h"
 1418              		.file 13 "c:\\program files (x86)\\cypress\\psoc creator\\4.0\\psoc creator\\import\\gnu\\arm\\4.9
 1419              		.section	.debug_info,"",%progbits
 1420              	.Ldebug_info0:
 1421 0000 F3110000 		.4byte	0x11f3
 1422 0004 0400     		.2byte	0x4
 1423 0006 00000000 		.4byte	.Ldebug_abbrev0
 1424 000a 04       		.byte	0x4
 1425 000b 01       		.uleb128 0x1
 1426 000c FF010000 		.4byte	.LASF271
 1427 0010 01       		.byte	0x1
 1428 0011 6B110000 		.4byte	.LASF272
 1429 0015 EC160000 		.4byte	.LASF273
 1430 0019 68000000 		.4byte	.Ldebug_ranges0+0x68
 1431 001d 00000000 		.4byte	0
 1432 0021 00000000 		.4byte	.Ldebug_line0
 1433 0025 02       		.uleb128 0x2
ARM GAS  C:\Users\ramanatg\AppData\Local\Temp\cciThAgf.s 			page 54


 1434 0026 01       		.byte	0x1
 1435 0027 06       		.byte	0x6
 1436 0028 E7040000 		.4byte	.LASF0
 1437 002c 02       		.uleb128 0x2
 1438 002d 01       		.byte	0x1
 1439 002e 08       		.byte	0x8
 1440 002f 7E050000 		.4byte	.LASF1
 1441 0033 02       		.uleb128 0x2
 1442 0034 02       		.byte	0x2
 1443 0035 05       		.byte	0x5
 1444 0036 FB130000 		.4byte	.LASF2
 1445 003a 02       		.uleb128 0x2
 1446 003b 02       		.byte	0x2
 1447 003c 07       		.byte	0x7
 1448 003d C3170000 		.4byte	.LASF3
 1449 0041 02       		.uleb128 0x2
 1450 0042 04       		.byte	0x4
 1451 0043 05       		.byte	0x5
 1452 0044 52030000 		.4byte	.LASF4
 1453 0048 02       		.uleb128 0x2
 1454 0049 04       		.byte	0x4
 1455 004a 07       		.byte	0x7
 1456 004b 380A0000 		.4byte	.LASF5
 1457 004f 02       		.uleb128 0x2
 1458 0050 08       		.byte	0x8
 1459 0051 05       		.byte	0x5
 1460 0052 F70B0000 		.4byte	.LASF6
 1461 0056 02       		.uleb128 0x2
 1462 0057 08       		.byte	0x8
 1463 0058 07       		.byte	0x7
 1464 0059 FF100000 		.4byte	.LASF7
 1465 005d 03       		.uleb128 0x3
 1466 005e 04       		.byte	0x4
 1467 005f 05       		.byte	0x5
 1468 0060 696E7400 		.ascii	"int\000"
 1469 0064 02       		.uleb128 0x2
 1470 0065 04       		.byte	0x4
 1471 0066 07       		.byte	0x7
 1472 0067 E30D0000 		.4byte	.LASF8
 1473 006b 04       		.uleb128 0x4
 1474 006c B2130000 		.4byte	.LASF9
 1475 0070 02       		.byte	0x2
 1476 0071 B901     		.2byte	0x1b9
 1477 0073 2C000000 		.4byte	0x2c
 1478 0077 04       		.uleb128 0x4
 1479 0078 28190000 		.4byte	.LASF10
 1480 007c 02       		.byte	0x2
 1481 007d BA01     		.2byte	0x1ba
 1482 007f 3A000000 		.4byte	0x3a
 1483 0083 04       		.uleb128 0x4
 1484 0084 B3000000 		.4byte	.LASF11
 1485 0088 02       		.byte	0x2
 1486 0089 BB01     		.2byte	0x1bb
 1487 008b 48000000 		.4byte	0x48
 1488 008f 02       		.uleb128 0x2
 1489 0090 04       		.byte	0x4
 1490 0091 04       		.byte	0x4
ARM GAS  C:\Users\ramanatg\AppData\Local\Temp\cciThAgf.s 			page 55


 1491 0092 6E0D0000 		.4byte	.LASF12
 1492 0096 02       		.uleb128 0x2
 1493 0097 08       		.byte	0x8
 1494 0098 04       		.byte	0x4
 1495 0099 510C0000 		.4byte	.LASF13
 1496 009d 04       		.uleb128 0x4
 1497 009e 31010000 		.4byte	.LASF14
 1498 00a2 02       		.byte	0x2
 1499 00a3 CA01     		.2byte	0x1ca
 1500 00a5 A9000000 		.4byte	0xa9
 1501 00a9 02       		.uleb128 0x2
 1502 00aa 01       		.byte	0x1
 1503 00ab 08       		.byte	0x8
 1504 00ac 9B060000 		.4byte	.LASF15
 1505 00b0 05       		.uleb128 0x5
 1506 00b1 6B000000 		.4byte	0x6b
 1507 00b5 06       		.uleb128 0x6
 1508 00b6 1E000000 		.4byte	.LASF16
 1509 00ba 03       		.byte	0x3
 1510 00bb D4       		.byte	0xd4
 1511 00bc 64000000 		.4byte	0x64
 1512 00c0 02       		.uleb128 0x2
 1513 00c1 04       		.byte	0x4
 1514 00c2 07       		.byte	0x7
 1515 00c3 25000000 		.4byte	.LASF17
 1516 00c7 07       		.uleb128 0x7
 1517 00c8 04       		.byte	0x4
 1518 00c9 04       		.uleb128 0x4
 1519 00ca 30100000 		.4byte	.LASF18
 1520 00ce 04       		.byte	0x4
 1521 00cf 3701     		.2byte	0x137
 1522 00d1 D5000000 		.4byte	0xd5
 1523 00d5 08       		.uleb128 0x8
 1524 00d6 04       		.byte	0x4
 1525 00d7 DB000000 		.4byte	0xdb
 1526 00db 09       		.uleb128 0x9
 1527 00dc EB000000 		.4byte	0xeb
 1528 00e0 0A       		.uleb128 0xa
 1529 00e1 6B000000 		.4byte	0x6b
 1530 00e5 0A       		.uleb128 0xa
 1531 00e6 C7000000 		.4byte	0xc7
 1532 00ea 00       		.byte	0
 1533 00eb 08       		.uleb128 0x8
 1534 00ec 04       		.byte	0x4
 1535 00ed F1000000 		.4byte	0xf1
 1536 00f1 09       		.uleb128 0x9
 1537 00f2 01010000 		.4byte	0x101
 1538 00f6 0A       		.uleb128 0xa
 1539 00f7 83000000 		.4byte	0x83
 1540 00fb 0A       		.uleb128 0xa
 1541 00fc C7000000 		.4byte	0xc7
 1542 0100 00       		.byte	0
 1543 0101 0B       		.uleb128 0xb
 1544 0102 01       		.byte	0x1
 1545 0103 04       		.byte	0x4
 1546 0104 4D01     		.2byte	0x14d
 1547 0106 E4020000 		.4byte	0x2e4
ARM GAS  C:\Users\ramanatg\AppData\Local\Temp\cciThAgf.s 			page 56


 1548 010a 0C       		.uleb128 0xc
 1549 010b DD060000 		.4byte	.LASF19
 1550 010f 00       		.sleb128 0
 1551 0110 0C       		.uleb128 0xc
 1552 0111 CA030000 		.4byte	.LASF20
 1553 0115 01       		.sleb128 1
 1554 0116 0C       		.uleb128 0xc
 1555 0117 16110000 		.4byte	.LASF21
 1556 011b 02       		.sleb128 2
 1557 011c 0C       		.uleb128 0xc
 1558 011d 1B050000 		.4byte	.LASF22
 1559 0121 03       		.sleb128 3
 1560 0122 0C       		.uleb128 0xc
 1561 0123 6B180000 		.4byte	.LASF23
 1562 0127 04       		.sleb128 4
 1563 0128 0C       		.uleb128 0xc
 1564 0129 AC160000 		.4byte	.LASF24
 1565 012d 05       		.sleb128 5
 1566 012e 0C       		.uleb128 0xc
 1567 012f 50100000 		.4byte	.LASF25
 1568 0133 06       		.sleb128 6
 1569 0134 0C       		.uleb128 0xc
 1570 0135 06150000 		.4byte	.LASF26
 1571 0139 20       		.sleb128 32
 1572 013a 0C       		.uleb128 0xc
 1573 013b A7010000 		.4byte	.LASF27
 1574 013f 21       		.sleb128 33
 1575 0140 0C       		.uleb128 0xc
 1576 0141 920B0000 		.4byte	.LASF28
 1577 0145 22       		.sleb128 34
 1578 0146 0C       		.uleb128 0xc
 1579 0147 2B0F0000 		.4byte	.LASF29
 1580 014b 23       		.sleb128 35
 1581 014c 0C       		.uleb128 0xc
 1582 014d 94090000 		.4byte	.LASF30
 1583 0151 24       		.sleb128 36
 1584 0152 0C       		.uleb128 0xc
 1585 0153 C0090000 		.4byte	.LASF31
 1586 0157 25       		.sleb128 37
 1587 0158 0C       		.uleb128 0xc
 1588 0159 5C130000 		.4byte	.LASF32
 1589 015d 26       		.sleb128 38
 1590 015e 0C       		.uleb128 0xc
 1591 015f 61000000 		.4byte	.LASF33
 1592 0163 27       		.sleb128 39
 1593 0164 0C       		.uleb128 0xc
 1594 0165 E5180000 		.4byte	.LASF34
 1595 0169 28       		.sleb128 40
 1596 016a 0C       		.uleb128 0xc
 1597 016b 8F100000 		.4byte	.LASF35
 1598 016f 29       		.sleb128 41
 1599 0170 0C       		.uleb128 0xc
 1600 0171 F70A0000 		.4byte	.LASF36
 1601 0175 2A       		.sleb128 42
 1602 0176 0C       		.uleb128 0xc
 1603 0177 7A0E0000 		.4byte	.LASF37
 1604 017b 2B       		.sleb128 43
ARM GAS  C:\Users\ramanatg\AppData\Local\Temp\cciThAgf.s 			page 57


 1605 017c 0C       		.uleb128 0xc
 1606 017d C8160000 		.4byte	.LASF38
 1607 0181 2C       		.sleb128 44
 1608 0182 0C       		.uleb128 0xc
 1609 0183 2E000000 		.4byte	.LASF39
 1610 0187 2D       		.sleb128 45
 1611 0188 0C       		.uleb128 0xc
 1612 0189 C6130000 		.4byte	.LASF40
 1613 018d 2E       		.sleb128 46
 1614 018e 0C       		.uleb128 0xc
 1615 018f C6020000 		.4byte	.LASF41
 1616 0193 2F       		.sleb128 47
 1617 0194 0C       		.uleb128 0xc
 1618 0195 7A060000 		.4byte	.LASF42
 1619 0199 30       		.sleb128 48
 1620 019a 0C       		.uleb128 0xc
 1621 019b DA0C0000 		.4byte	.LASF43
 1622 019f 31       		.sleb128 49
 1623 01a0 0C       		.uleb128 0xc
 1624 01a1 26070000 		.4byte	.LASF44
 1625 01a5 32       		.sleb128 50
 1626 01a6 0C       		.uleb128 0xc
 1627 01a7 AA050000 		.4byte	.LASF45
 1628 01ab 33       		.sleb128 51
 1629 01ac 0C       		.uleb128 0xc
 1630 01ad D1050000 		.4byte	.LASF46
 1631 01b1 34       		.sleb128 52
 1632 01b2 0C       		.uleb128 0xc
 1633 01b3 76150000 		.4byte	.LASF47
 1634 01b7 35       		.sleb128 53
 1635 01b8 0C       		.uleb128 0xc
 1636 01b9 8D020000 		.4byte	.LASF48
 1637 01bd 36       		.sleb128 54
 1638 01be 0C       		.uleb128 0xc
 1639 01bf CA100000 		.4byte	.LASF49
 1640 01c3 37       		.sleb128 55
 1641 01c4 0C       		.uleb128 0xc
 1642 01c5 7D140000 		.4byte	.LASF50
 1643 01c9 C000     		.sleb128 64
 1644 01cb 0C       		.uleb128 0xc
 1645 01cc 80000000 		.4byte	.LASF51
 1646 01d0 C100     		.sleb128 65
 1647 01d2 0C       		.uleb128 0xc
 1648 01d3 80180000 		.4byte	.LASF52
 1649 01d7 C200     		.sleb128 66
 1650 01d9 0C       		.uleb128 0xc
 1651 01da AC100000 		.4byte	.LASF53
 1652 01de C300     		.sleb128 67
 1653 01e0 0C       		.uleb128 0xc
 1654 01e1 8C050000 		.4byte	.LASF54
 1655 01e5 C400     		.sleb128 68
 1656 01e7 0C       		.uleb128 0xc
 1657 01e8 43050000 		.4byte	.LASF55
 1658 01ec C500     		.sleb128 69
 1659 01ee 0C       		.uleb128 0xc
 1660 01ef 7F120000 		.4byte	.LASF56
 1661 01f3 C600     		.sleb128 70
ARM GAS  C:\Users\ramanatg\AppData\Local\Temp\cciThAgf.s 			page 58


 1662 01f5 0C       		.uleb128 0xc
 1663 01f6 61120000 		.4byte	.LASF57
 1664 01fa C700     		.sleb128 71
 1665 01fc 0C       		.uleb128 0xc
 1666 01fd 53060000 		.4byte	.LASF58
 1667 0201 C800     		.sleb128 72
 1668 0203 0C       		.uleb128 0xc
 1669 0204 830F0000 		.4byte	.LASF59
 1670 0208 C900     		.sleb128 73
 1671 020a 0C       		.uleb128 0xc
 1672 020b 64070000 		.4byte	.LASF60
 1673 020f CA00     		.sleb128 74
 1674 0211 0C       		.uleb128 0xc
 1675 0212 BE060000 		.4byte	.LASF61
 1676 0216 CB00     		.sleb128 75
 1677 0218 0C       		.uleb128 0xc
 1678 0219 BB0E0000 		.4byte	.LASF62
 1679 021d CC00     		.sleb128 76
 1680 021f 0C       		.uleb128 0xc
 1681 0220 F2120000 		.4byte	.LASF63
 1682 0224 CD00     		.sleb128 77
 1683 0226 0C       		.uleb128 0xc
 1684 0227 11030000 		.4byte	.LASF64
 1685 022b CE00     		.sleb128 78
 1686 022d 0C       		.uleb128 0xc
 1687 022e FD0D0000 		.4byte	.LASF65
 1688 0232 CF00     		.sleb128 79
 1689 0234 0C       		.uleb128 0xc
 1690 0235 E7140000 		.4byte	.LASF66
 1691 0239 D000     		.sleb128 80
 1692 023b 0C       		.uleb128 0xc
 1693 023c 82070000 		.4byte	.LASF67
 1694 0240 D100     		.sleb128 81
 1695 0242 0C       		.uleb128 0xc
 1696 0243 86010000 		.4byte	.LASF68
 1697 0247 D200     		.sleb128 82
 1698 0249 0C       		.uleb128 0xc
 1699 024a 66160000 		.4byte	.LASF69
 1700 024e D300     		.sleb128 83
 1701 0250 0C       		.uleb128 0xc
 1702 0251 07190000 		.4byte	.LASF70
 1703 0255 D400     		.sleb128 84
 1704 0257 0C       		.uleb128 0xc
 1705 0258 DD0E0000 		.4byte	.LASF71
 1706 025c D500     		.sleb128 85
 1707 025e 0C       		.uleb128 0xc
 1708 025f AC070000 		.4byte	.LASF72
 1709 0263 D600     		.sleb128 86
 1710 0265 0C       		.uleb128 0xc
 1711 0266 990D0000 		.4byte	.LASF73
 1712 026a D700     		.sleb128 87
 1713 026c 0C       		.uleb128 0xc
 1714 026d C2180000 		.4byte	.LASF74
 1715 0271 D800     		.sleb128 88
 1716 0273 0C       		.uleb128 0xc
 1717 0274 74170000 		.4byte	.LASF75
 1718 0278 F000     		.sleb128 112
ARM GAS  C:\Users\ramanatg\AppData\Local\Temp\cciThAgf.s 			page 59


 1719 027a 0C       		.uleb128 0xc
 1720 027b 2C090000 		.4byte	.LASF76
 1721 027f F100     		.sleb128 113
 1722 0281 0C       		.uleb128 0xc
 1723 0282 91040000 		.4byte	.LASF77
 1724 0286 F200     		.sleb128 114
 1725 0288 0C       		.uleb128 0xc
 1726 0289 C9140000 		.4byte	.LASF78
 1727 028d F300     		.sleb128 115
 1728 028f 0C       		.uleb128 0xc
 1729 0290 C80F0000 		.4byte	.LASF79
 1730 0294 F400     		.sleb128 116
 1731 0296 0C       		.uleb128 0xc
 1732 0297 660B0000 		.4byte	.LASF80
 1733 029b F500     		.sleb128 117
 1734 029d 0C       		.uleb128 0xc
 1735 029e 32060000 		.4byte	.LASF81
 1736 02a2 F600     		.sleb128 118
 1737 02a4 0C       		.uleb128 0xc
 1738 02a5 88110000 		.4byte	.LASF82
 1739 02a9 F700     		.sleb128 119
 1740 02ab 0C       		.uleb128 0xc
 1741 02ac 37010000 		.4byte	.LASF83
 1742 02b0 F800     		.sleb128 120
 1743 02b2 0C       		.uleb128 0xc
 1744 02b3 2F030000 		.4byte	.LASF84
 1745 02b7 F900     		.sleb128 121
 1746 02b9 0C       		.uleb128 0xc
 1747 02ba 9E180000 		.4byte	.LASF85
 1748 02be FA00     		.sleb128 122
 1749 02c0 0C       		.uleb128 0xc
 1750 02c1 7A0C0000 		.4byte	.LASF86
 1751 02c5 FA01     		.sleb128 250
 1752 02c7 0C       		.uleb128 0xc
 1753 02c8 20160000 		.4byte	.LASF87
 1754 02cc FB01     		.sleb128 251
 1755 02ce 0C       		.uleb128 0xc
 1756 02cf 52090000 		.4byte	.LASF88
 1757 02d3 FC01     		.sleb128 252
 1758 02d5 0C       		.uleb128 0xc
 1759 02d6 18100000 		.4byte	.LASF89
 1760 02da FD01     		.sleb128 253
 1761 02dc 0C       		.uleb128 0xc
 1762 02dd 6C0E0000 		.4byte	.LASF90
 1763 02e1 FF01     		.sleb128 255
 1764 02e3 00       		.byte	0
 1765 02e4 0B       		.uleb128 0xb
 1766 02e5 02       		.byte	0x2
 1767 02e6 04       		.byte	0x4
 1768 02e7 0204     		.2byte	0x402
 1769 02e9 BB030000 		.4byte	0x3bb
 1770 02ed 0C       		.uleb128 0xc
 1771 02ee 34050000 		.4byte	.LASF91
 1772 02f2 00       		.sleb128 0
 1773 02f3 0C       		.uleb128 0xc
 1774 02f4 48080000 		.4byte	.LASF92
 1775 02f8 01       		.sleb128 1
ARM GAS  C:\Users\ramanatg\AppData\Local\Temp\cciThAgf.s 			page 60


 1776 02f9 0C       		.uleb128 0xc
 1777 02fa 44180000 		.4byte	.LASF93
 1778 02fe 02       		.sleb128 2
 1779 02ff 0C       		.uleb128 0xc
 1780 0300 C4080000 		.4byte	.LASF94
 1781 0304 03       		.sleb128 3
 1782 0305 0C       		.uleb128 0xc
 1783 0306 150A0000 		.4byte	.LASF95
 1784 030a 04       		.sleb128 4
 1785 030b 0C       		.uleb128 0xc
 1786 030c 330C0000 		.4byte	.LASF96
 1787 0310 05       		.sleb128 5
 1788 0311 0C       		.uleb128 0xc
 1789 0312 F3150000 		.4byte	.LASF97
 1790 0316 06       		.sleb128 6
 1791 0317 0C       		.uleb128 0xc
 1792 0318 47070000 		.4byte	.LASF98
 1793 031c 07       		.sleb128 7
 1794 031d 0C       		.uleb128 0xc
 1795 031e 500D0000 		.4byte	.LASF99
 1796 0322 08       		.sleb128 8
 1797 0323 0C       		.uleb128 0xc
 1798 0324 4C150000 		.4byte	.LASF100
 1799 0328 09       		.sleb128 9
 1800 0329 0C       		.uleb128 0xc
 1801 032a 3B190000 		.4byte	.LASF101
 1802 032e 0A       		.sleb128 10
 1803 032f 0C       		.uleb128 0xc
 1804 0330 DF010000 		.4byte	.LASF102
 1805 0334 0B       		.sleb128 11
 1806 0335 0C       		.uleb128 0xc
 1807 0336 87160000 		.4byte	.LASF103
 1808 033a 0C       		.sleb128 12
 1809 033b 0C       		.uleb128 0xc
 1810 033c 3F0E0000 		.4byte	.LASF104
 1811 0340 0D       		.sleb128 13
 1812 0341 0C       		.uleb128 0xc
 1813 0342 A40A0000 		.4byte	.LASF105
 1814 0346 0E       		.sleb128 14
 1815 0347 0C       		.uleb128 0xc
 1816 0348 0E0C0000 		.4byte	.LASF106
 1817 034c 0F       		.sleb128 15
 1818 034d 0C       		.uleb128 0xc
 1819 034e CE000000 		.4byte	.LASF107
 1820 0352 10       		.sleb128 16
 1821 0353 0C       		.uleb128 0xc
 1822 0354 FE0C0000 		.4byte	.LASF108
 1823 0358 11       		.sleb128 17
 1824 0359 0C       		.uleb128 0xc
 1825 035a DD030000 		.4byte	.LASF109
 1826 035e 12       		.sleb128 18
 1827 035f 0C       		.uleb128 0xc
 1828 0360 BF040000 		.4byte	.LASF110
 1829 0364 13       		.sleb128 19
 1830 0365 0C       		.uleb128 0xc
 1831 0366 580C0000 		.4byte	.LASF111
 1832 036a 27       		.sleb128 39
ARM GAS  C:\Users\ramanatg\AppData\Local\Temp\cciThAgf.s 			page 61


 1833 036b 0C       		.uleb128 0xc
 1834 036c 740D0000 		.4byte	.LASF112
 1835 0370 28       		.sleb128 40
 1836 0371 0C       		.uleb128 0xc
 1837 0372 FC000000 		.4byte	.LASF113
 1838 0376 29       		.sleb128 41
 1839 0377 0C       		.uleb128 0xc
 1840 0378 4A140000 		.4byte	.LASF114
 1841 037c 2A       		.sleb128 42
 1842 037d 0C       		.uleb128 0xc
 1843 037e 4A0A0000 		.4byte	.LASF115
 1844 0382 2B       		.sleb128 43
 1845 0383 0C       		.uleb128 0xc
 1846 0384 C9110000 		.4byte	.LASF116
 1847 0388 2C       		.sleb128 44
 1848 0389 0C       		.uleb128 0xc
 1849 038a 2C080000 		.4byte	.LASF117
 1850 038e FE01     		.sleb128 254
 1851 0390 0C       		.uleb128 0xc
 1852 0391 1C090000 		.4byte	.LASF118
 1853 0395 FF01     		.sleb128 255
 1854 0397 0C       		.uleb128 0xc
 1855 0398 6A0F0000 		.4byte	.LASF119
 1856 039c 8002     		.sleb128 256
 1857 039e 0C       		.uleb128 0xc
 1858 039f 510F0000 		.4byte	.LASF120
 1859 03a3 8102     		.sleb128 257
 1860 03a5 0C       		.uleb128 0xc
 1861 03a6 3C040000 		.4byte	.LASF121
 1862 03aa 8202     		.sleb128 258
 1863 03ac 0C       		.uleb128 0xc
 1864 03ad 35110000 		.4byte	.LASF122
 1865 03b1 8302     		.sleb128 259
 1866 03b3 0C       		.uleb128 0xc
 1867 03b4 DA090000 		.4byte	.LASF123
 1868 03b8 8402     		.sleb128 260
 1869 03ba 00       		.byte	0
 1870 03bb 04       		.uleb128 0x4
 1871 03bc 3F160000 		.4byte	.LASF124
 1872 03c0 04       		.byte	0x4
 1873 03c1 7104     		.2byte	0x471
 1874 03c3 E4020000 		.4byte	0x2e4
 1875 03c7 0D       		.uleb128 0xd
 1876 03c8 07       		.byte	0x7
 1877 03c9 04       		.byte	0x4
 1878 03ca 3F05     		.2byte	0x53f
 1879 03cc EB030000 		.4byte	0x3eb
 1880 03d0 0E       		.uleb128 0xe
 1881 03d1 B3150000 		.4byte	.LASF125
 1882 03d5 04       		.byte	0x4
 1883 03d6 4205     		.2byte	0x542
 1884 03d8 EB030000 		.4byte	0x3eb
 1885 03dc 00       		.byte	0
 1886 03dd 0E       		.uleb128 0xe
 1887 03de 70010000 		.4byte	.LASF126
 1888 03e2 04       		.byte	0x4
 1889 03e3 4405     		.2byte	0x544
ARM GAS  C:\Users\ramanatg\AppData\Local\Temp\cciThAgf.s 			page 62


 1890 03e5 6B000000 		.4byte	0x6b
 1891 03e9 06       		.byte	0x6
 1892 03ea 00       		.byte	0
 1893 03eb 0F       		.uleb128 0xf
 1894 03ec 6B000000 		.4byte	0x6b
 1895 03f0 FB030000 		.4byte	0x3fb
 1896 03f4 10       		.uleb128 0x10
 1897 03f5 C0000000 		.4byte	0xc0
 1898 03f9 05       		.byte	0x5
 1899 03fa 00       		.byte	0
 1900 03fb 04       		.uleb128 0x4
 1901 03fc EE110000 		.4byte	.LASF127
 1902 0400 04       		.byte	0x4
 1903 0401 4505     		.2byte	0x545
 1904 0403 C7030000 		.4byte	0x3c7
 1905 0407 0D       		.uleb128 0xd
 1906 0408 04       		.byte	0x4
 1907 0409 04       		.byte	0x4
 1908 040a 4F05     		.2byte	0x54f
 1909 040c 2B040000 		.4byte	0x42b
 1910 0410 0E       		.uleb128 0xe
 1911 0411 45100000 		.4byte	.LASF128
 1912 0415 04       		.byte	0x4
 1913 0416 5205     		.2byte	0x552
 1914 0418 77000000 		.4byte	0x77
 1915 041c 00       		.byte	0
 1916 041d 0E       		.uleb128 0xe
 1917 041e 0F050000 		.4byte	.LASF129
 1918 0422 04       		.byte	0x4
 1919 0423 5405     		.2byte	0x554
 1920 0425 6B000000 		.4byte	0x6b
 1921 0429 02       		.byte	0x2
 1922 042a 00       		.byte	0
 1923 042b 04       		.uleb128 0x4
 1924 042c 85030000 		.4byte	.LASF130
 1925 0430 04       		.byte	0x4
 1926 0431 5505     		.2byte	0x555
 1927 0433 07040000 		.4byte	0x407
 1928 0437 0D       		.uleb128 0xd
 1929 0438 06       		.byte	0x6
 1930 0439 04       		.byte	0x4
 1931 043a 5905     		.2byte	0x559
 1932 043c 68040000 		.4byte	0x468
 1933 0440 0E       		.uleb128 0xe
 1934 0441 D10B0000 		.4byte	.LASF131
 1935 0445 04       		.byte	0x4
 1936 0446 5C05     		.2byte	0x55c
 1937 0448 77000000 		.4byte	0x77
 1938 044c 00       		.byte	0
 1939 044d 0E       		.uleb128 0xe
 1940 044e F7170000 		.4byte	.LASF132
 1941 0452 04       		.byte	0x4
 1942 0453 5F05     		.2byte	0x55f
 1943 0455 77000000 		.4byte	0x77
 1944 0459 02       		.byte	0x2
 1945 045a 0E       		.uleb128 0xe
 1946 045b D40D0000 		.4byte	.LASF133
ARM GAS  C:\Users\ramanatg\AppData\Local\Temp\cciThAgf.s 			page 63


 1947 045f 04       		.byte	0x4
 1948 0460 6205     		.2byte	0x562
 1949 0462 6B000000 		.4byte	0x6b
 1950 0466 04       		.byte	0x4
 1951 0467 00       		.byte	0
 1952 0468 04       		.uleb128 0x4
 1953 0469 F8020000 		.4byte	.LASF134
 1954 046d 04       		.byte	0x4
 1955 046e 6305     		.2byte	0x563
 1956 0470 37040000 		.4byte	0x437
 1957 0474 0D       		.uleb128 0xd
 1958 0475 01       		.byte	0x1
 1959 0476 04       		.byte	0x4
 1960 0477 6605     		.2byte	0x566
 1961 0479 8B040000 		.4byte	0x48b
 1962 047d 0E       		.uleb128 0xe
 1963 047e 920A0000 		.4byte	.LASF135
 1964 0482 04       		.byte	0x4
 1965 0483 6905     		.2byte	0x569
 1966 0485 6B000000 		.4byte	0x6b
 1967 0489 00       		.byte	0
 1968 048a 00       		.byte	0
 1969 048b 04       		.uleb128 0x4
 1970 048c 220D0000 		.4byte	.LASF136
 1971 0490 04       		.byte	0x4
 1972 0491 6A05     		.2byte	0x56a
 1973 0493 74040000 		.4byte	0x474
 1974 0497 0D       		.uleb128 0xd
 1975 0498 0C       		.byte	0xc
 1976 0499 04       		.byte	0x4
 1977 049a 7005     		.2byte	0x570
 1978 049c C8040000 		.4byte	0x4c8
 1979 04a0 0E       		.uleb128 0xe
 1980 04a1 9F030000 		.4byte	.LASF137
 1981 04a5 04       		.byte	0x4
 1982 04a6 7305     		.2byte	0x573
 1983 04a8 C8040000 		.4byte	0x4c8
 1984 04ac 00       		.byte	0
 1985 04ad 0E       		.uleb128 0xe
 1986 04ae 02120000 		.4byte	.LASF138
 1987 04b2 04       		.byte	0x4
 1988 04b3 7605     		.2byte	0x576
 1989 04b5 CE040000 		.4byte	0x4ce
 1990 04b9 04       		.byte	0x4
 1991 04ba 0E       		.uleb128 0xe
 1992 04bb F00D0000 		.4byte	.LASF139
 1993 04bf 04       		.byte	0x4
 1994 04c0 7C05     		.2byte	0x57c
 1995 04c2 77000000 		.4byte	0x77
 1996 04c6 08       		.byte	0x8
 1997 04c7 00       		.byte	0
 1998 04c8 08       		.uleb128 0x8
 1999 04c9 04       		.byte	0x4
 2000 04ca 68040000 		.4byte	0x468
 2001 04ce 08       		.uleb128 0x8
 2002 04cf 04       		.byte	0x4
 2003 04d0 8B040000 		.4byte	0x48b
ARM GAS  C:\Users\ramanatg\AppData\Local\Temp\cciThAgf.s 			page 64


 2004 04d4 04       		.uleb128 0x4
 2005 04d5 B60B0000 		.4byte	.LASF140
 2006 04d9 04       		.byte	0x4
 2007 04da 7D05     		.2byte	0x57d
 2008 04dc 97040000 		.4byte	0x497
 2009 04e0 08       		.uleb128 0x8
 2010 04e1 04       		.byte	0x4
 2011 04e2 6B000000 		.4byte	0x6b
 2012 04e6 11       		.uleb128 0x11
 2013 04e7 01       		.byte	0x1
 2014 04e8 05       		.byte	0x5
 2015 04e9 E0       		.byte	0xe0
 2016 04ea 0D050000 		.4byte	0x50d
 2017 04ee 0C       		.uleb128 0xc
 2018 04ef 18180000 		.4byte	.LASF141
 2019 04f3 00       		.sleb128 0
 2020 04f4 0C       		.uleb128 0xc
 2021 04f5 9C0F0000 		.4byte	.LASF142
 2022 04f9 01       		.sleb128 1
 2023 04fa 0C       		.uleb128 0xc
 2024 04fb A5140000 		.4byte	.LASF143
 2025 04ff 02       		.sleb128 2
 2026 0500 0C       		.uleb128 0xc
 2027 0501 67040000 		.4byte	.LASF144
 2028 0505 03       		.sleb128 3
 2029 0506 0C       		.uleb128 0xc
 2030 0507 99080000 		.4byte	.LASF145
 2031 050b 04       		.sleb128 4
 2032 050c 00       		.byte	0
 2033 050d 06       		.uleb128 0x6
 2034 050e AA0E0000 		.4byte	.LASF146
 2035 0512 05       		.byte	0x5
 2036 0513 F0       		.byte	0xf0
 2037 0514 E6040000 		.4byte	0x4e6
 2038 0518 0D       		.uleb128 0xd
 2039 0519 10       		.byte	0x10
 2040 051a 05       		.byte	0x5
 2041 051b 2102     		.2byte	0x221
 2042 051d 8A050000 		.4byte	0x58a
 2043 0521 0E       		.uleb128 0xe
 2044 0522 E9050000 		.4byte	.LASF147
 2045 0526 05       		.byte	0x5
 2046 0527 2702     		.2byte	0x227
 2047 0529 77000000 		.4byte	0x77
 2048 052d 00       		.byte	0
 2049 052e 0E       		.uleb128 0xe
 2050 052f 55190000 		.4byte	.LASF148
 2051 0533 05       		.byte	0x5
 2052 0534 2D02     		.2byte	0x22d
 2053 0536 77000000 		.4byte	0x77
 2054 053a 02       		.byte	0x2
 2055 053b 0E       		.uleb128 0xe
 2056 053c 0D0A0000 		.4byte	.LASF149
 2057 0540 05       		.byte	0x5
 2058 0541 3602     		.2byte	0x236
 2059 0543 0D050000 		.4byte	0x50d
 2060 0547 04       		.byte	0x4
ARM GAS  C:\Users\ramanatg\AppData\Local\Temp\cciThAgf.s 			page 65


 2061 0548 0E       		.uleb128 0xe
 2062 0549 2F190000 		.4byte	.LASF150
 2063 054d 05       		.byte	0x5
 2064 054e 3E02     		.2byte	0x23e
 2065 0550 6B000000 		.4byte	0x6b
 2066 0554 05       		.byte	0x5
 2067 0555 0E       		.uleb128 0xe
 2068 0556 CB0C0000 		.4byte	.LASF151
 2069 055a 05       		.byte	0x5
 2070 055b 4502     		.2byte	0x245
 2071 055d 6B000000 		.4byte	0x6b
 2072 0561 06       		.byte	0x6
 2073 0562 0E       		.uleb128 0xe
 2074 0563 D6170000 		.4byte	.LASF152
 2075 0567 05       		.byte	0x5
 2076 0568 4B02     		.2byte	0x24b
 2077 056a EB030000 		.4byte	0x3eb
 2078 056e 07       		.byte	0x7
 2079 056f 0E       		.uleb128 0xe
 2080 0570 0A180000 		.4byte	.LASF153
 2081 0574 05       		.byte	0x5
 2082 0575 5302     		.2byte	0x253
 2083 0577 6B000000 		.4byte	0x6b
 2084 057b 0D       		.byte	0xd
 2085 057c 0E       		.uleb128 0xe
 2086 057d B0090000 		.4byte	.LASF154
 2087 0581 05       		.byte	0x5
 2088 0582 5F02     		.2byte	0x25f
 2089 0584 6B000000 		.4byte	0x6b
 2090 0588 0E       		.byte	0xe
 2091 0589 00       		.byte	0
 2092 058a 04       		.uleb128 0x4
 2093 058b 72090000 		.4byte	.LASF155
 2094 058f 05       		.byte	0x5
 2095 0590 6102     		.2byte	0x261
 2096 0592 18050000 		.4byte	0x518
 2097 0596 0D       		.uleb128 0xd
 2098 0597 20       		.byte	0x20
 2099 0598 05       		.byte	0x5
 2100 0599 6402     		.2byte	0x264
 2101 059b BA050000 		.4byte	0x5ba
 2102 059f 0E       		.uleb128 0xe
 2103 05a0 D50E0000 		.4byte	.LASF156
 2104 05a4 05       		.byte	0x5
 2105 05a5 6702     		.2byte	0x267
 2106 05a7 BA050000 		.4byte	0x5ba
 2107 05ab 00       		.byte	0
 2108 05ac 0E       		.uleb128 0xe
 2109 05ad 1D120000 		.4byte	.LASF157
 2110 05b1 05       		.byte	0x5
 2111 05b2 6A02     		.2byte	0x26a
 2112 05b4 6B000000 		.4byte	0x6b
 2113 05b8 1F       		.byte	0x1f
 2114 05b9 00       		.byte	0
 2115 05ba 0F       		.uleb128 0xf
 2116 05bb 6B000000 		.4byte	0x6b
 2117 05bf CA050000 		.4byte	0x5ca
ARM GAS  C:\Users\ramanatg\AppData\Local\Temp\cciThAgf.s 			page 66


 2118 05c3 10       		.uleb128 0x10
 2119 05c4 C0000000 		.4byte	0xc0
 2120 05c8 1E       		.byte	0x1e
 2121 05c9 00       		.byte	0
 2122 05ca 04       		.uleb128 0x4
 2123 05cb 1B060000 		.4byte	.LASF158
 2124 05cf 05       		.byte	0x5
 2125 05d0 6C02     		.2byte	0x26c
 2126 05d2 96050000 		.4byte	0x596
 2127 05d6 0D       		.uleb128 0xd
 2128 05d7 20       		.byte	0x20
 2129 05d8 05       		.byte	0x5
 2130 05d9 6F02     		.2byte	0x26f
 2131 05db FA050000 		.4byte	0x5fa
 2132 05df 0E       		.uleb128 0xe
 2133 05e0 12000000 		.4byte	.LASF159
 2134 05e4 05       		.byte	0x5
 2135 05e5 7302     		.2byte	0x273
 2136 05e7 BA050000 		.4byte	0x5ba
 2137 05eb 00       		.byte	0
 2138 05ec 0E       		.uleb128 0xe
 2139 05ed 3B140000 		.4byte	.LASF160
 2140 05f1 05       		.byte	0x5
 2141 05f2 7602     		.2byte	0x276
 2142 05f4 6B000000 		.4byte	0x6b
 2143 05f8 1F       		.byte	0x1f
 2144 05f9 00       		.byte	0
 2145 05fa 04       		.uleb128 0x4
 2146 05fb 84130000 		.4byte	.LASF161
 2147 05ff 05       		.byte	0x5
 2148 0600 7802     		.2byte	0x278
 2149 0602 D6050000 		.4byte	0x5d6
 2150 0606 0D       		.uleb128 0xd
 2151 0607 14       		.byte	0x14
 2152 0608 05       		.byte	0x5
 2153 0609 7B02     		.2byte	0x27b
 2154 060b 51060000 		.4byte	0x651
 2155 060f 0E       		.uleb128 0xe
 2156 0610 C5000000 		.4byte	.LASF162
 2157 0614 05       		.byte	0x5
 2158 0615 8302     		.2byte	0x283
 2159 0617 6B000000 		.4byte	0x6b
 2160 061b 00       		.byte	0
 2161 061c 0E       		.uleb128 0xe
 2162 061d 050C0000 		.4byte	.LASF163
 2163 0621 05       		.byte	0x5
 2164 0622 8602     		.2byte	0x286
 2165 0624 51060000 		.4byte	0x651
 2166 0628 04       		.byte	0x4
 2167 0629 0E       		.uleb128 0xe
 2168 062a D50E0000 		.4byte	.LASF156
 2169 062e 05       		.byte	0x5
 2170 062f 8802     		.2byte	0x288
 2171 0631 57060000 		.4byte	0x657
 2172 0635 08       		.byte	0x8
 2173 0636 0E       		.uleb128 0xe
 2174 0637 12000000 		.4byte	.LASF159
ARM GAS  C:\Users\ramanatg\AppData\Local\Temp\cciThAgf.s 			page 67


 2175 063b 05       		.byte	0x5
 2176 063c 8A02     		.2byte	0x28a
 2177 063e 5D060000 		.4byte	0x65d
 2178 0642 0C       		.byte	0xc
 2179 0643 0E       		.uleb128 0xe
 2180 0644 3F100000 		.4byte	.LASF164
 2181 0648 05       		.byte	0x5
 2182 0649 9402     		.2byte	0x294
 2183 064b 77000000 		.4byte	0x77
 2184 064f 10       		.byte	0x10
 2185 0650 00       		.byte	0
 2186 0651 08       		.uleb128 0x8
 2187 0652 04       		.byte	0x4
 2188 0653 8A050000 		.4byte	0x58a
 2189 0657 08       		.uleb128 0x8
 2190 0658 04       		.byte	0x4
 2191 0659 CA050000 		.4byte	0x5ca
 2192 065d 08       		.uleb128 0x8
 2193 065e 04       		.byte	0x4
 2194 065f FA050000 		.4byte	0x5fa
 2195 0663 04       		.uleb128 0x4
 2196 0664 2D120000 		.4byte	.LASF165
 2197 0668 05       		.byte	0x5
 2198 0669 9602     		.2byte	0x296
 2199 066b 06060000 		.4byte	0x606
 2200 066f 04       		.uleb128 0x4
 2201 0670 4F110000 		.4byte	.LASF166
 2202 0674 06       		.byte	0x6
 2203 0675 8901     		.2byte	0x189
 2204 0677 77000000 		.4byte	0x77
 2205 067b 0D       		.uleb128 0xd
 2206 067c 02       		.byte	0x2
 2207 067d 06       		.byte	0x6
 2208 067e 9301     		.2byte	0x193
 2209 0680 9F060000 		.4byte	0x69f
 2210 0684 0E       		.uleb128 0xe
 2211 0685 EF020000 		.4byte	.LASF167
 2212 0689 06       		.byte	0x6
 2213 068a 9A01     		.2byte	0x19a
 2214 068c 6B000000 		.4byte	0x6b
 2215 0690 00       		.byte	0
 2216 0691 0E       		.uleb128 0xe
 2217 0692 3E180000 		.4byte	.LASF168
 2218 0696 06       		.byte	0x6
 2219 0697 A001     		.2byte	0x1a0
 2220 0699 6B000000 		.4byte	0x6b
 2221 069d 01       		.byte	0x1
 2222 069e 00       		.byte	0
 2223 069f 04       		.uleb128 0x4
 2224 06a0 BE010000 		.4byte	.LASF169
 2225 06a4 06       		.byte	0x6
 2226 06a5 A201     		.2byte	0x1a2
 2227 06a7 7B060000 		.4byte	0x67b
 2228 06ab 08       		.uleb128 0x8
 2229 06ac 04       		.byte	0x4
 2230 06ad 77000000 		.4byte	0x77
 2231 06b1 12       		.uleb128 0x12
ARM GAS  C:\Users\ramanatg\AppData\Local\Temp\cciThAgf.s 			page 68


 2232 06b2 08       		.byte	0x8
 2233 06b3 07       		.byte	0x7
 2234 06b4 C8       		.byte	0xc8
 2235 06b5 D2060000 		.4byte	0x6d2
 2236 06b9 13       		.uleb128 0x13
 2237 06ba 10120000 		.4byte	.LASF170
 2238 06be 07       		.byte	0x7
 2239 06bf CB       		.byte	0xcb
 2240 06c0 77000000 		.4byte	0x77
 2241 06c4 00       		.byte	0
 2242 06c5 13       		.uleb128 0x13
 2243 06c6 9F130000 		.4byte	.LASF171
 2244 06ca 07       		.byte	0x7
 2245 06cb D0       		.byte	0xd0
 2246 06cc C7000000 		.4byte	0xc7
 2247 06d0 04       		.byte	0x4
 2248 06d1 00       		.byte	0
 2249 06d2 06       		.uleb128 0x6
 2250 06d3 FA0F0000 		.4byte	.LASF172
 2251 06d7 07       		.byte	0x7
 2252 06d8 D2       		.byte	0xd2
 2253 06d9 B1060000 		.4byte	0x6b1
 2254 06dd 12       		.uleb128 0x12
 2255 06de 08       		.byte	0x8
 2256 06df 07       		.byte	0x7
 2257 06e0 D5       		.byte	0xd5
 2258 06e1 FE060000 		.4byte	0x6fe
 2259 06e5 13       		.uleb128 0x13
 2260 06e6 B0060000 		.4byte	.LASF173
 2261 06ea 07       		.byte	0x7
 2262 06eb D8       		.byte	0xd8
 2263 06ec 77000000 		.4byte	0x77
 2264 06f0 00       		.byte	0
 2265 06f1 13       		.uleb128 0x13
 2266 06f2 1B140000 		.4byte	.LASF174
 2267 06f6 07       		.byte	0x7
 2268 06f7 DD       		.byte	0xdd
 2269 06f8 FE060000 		.4byte	0x6fe
 2270 06fc 04       		.byte	0x4
 2271 06fd 00       		.byte	0
 2272 06fe 08       		.uleb128 0x8
 2273 06ff 04       		.byte	0x4
 2274 0700 D2060000 		.4byte	0x6d2
 2275 0704 06       		.uleb128 0x6
 2276 0705 3D130000 		.4byte	.LASF175
 2277 0709 07       		.byte	0x7
 2278 070a DF       		.byte	0xdf
 2279 070b DD060000 		.4byte	0x6dd
 2280 070f 14       		.uleb128 0x14
 2281 0710 08       		.byte	0x8
 2282 0711 07       		.byte	0x7
 2283 0712 E2       		.byte	0xe2
 2284 0713 2E070000 		.4byte	0x72e
 2285 0717 15       		.uleb128 0x15
 2286 0718 2C140000 		.4byte	.LASF176
 2287 071c 07       		.byte	0x7
 2288 071d E9       		.byte	0xe9
ARM GAS  C:\Users\ramanatg\AppData\Local\Temp\cciThAgf.s 			page 69


 2289 071e 04070000 		.4byte	0x704
 2290 0722 15       		.uleb128 0x15
 2291 0723 CD0A0000 		.4byte	.LASF177
 2292 0727 07       		.byte	0x7
 2293 0728 EC       		.byte	0xec
 2294 0729 77000000 		.4byte	0x77
 2295 072d 00       		.byte	0
 2296 072e 06       		.uleb128 0x6
 2297 072f 25130000 		.4byte	.LASF178
 2298 0733 07       		.byte	0x7
 2299 0734 EE       		.byte	0xee
 2300 0735 0F070000 		.4byte	0x70f
 2301 0739 12       		.uleb128 0x12
 2302 073a 14       		.byte	0x14
 2303 073b 07       		.byte	0x7
 2304 073c F1       		.byte	0xf1
 2305 073d 81070000 		.4byte	0x781
 2306 0741 13       		.uleb128 0x13
 2307 0742 F4050000 		.4byte	.LASF179
 2308 0746 07       		.byte	0x7
 2309 0747 F4       		.byte	0xf4
 2310 0748 77000000 		.4byte	0x77
 2311 074c 00       		.byte	0
 2312 074d 13       		.uleb128 0x13
 2313 074e 5F040000 		.4byte	.LASF180
 2314 0752 07       		.byte	0x7
 2315 0753 FA       		.byte	0xfa
 2316 0754 77000000 		.4byte	0x77
 2317 0758 02       		.byte	0x2
 2318 0759 0E       		.uleb128 0xe
 2319 075a 65010000 		.4byte	.LASF181
 2320 075e 07       		.byte	0x7
 2321 075f 0501     		.2byte	0x105
 2322 0761 83000000 		.4byte	0x83
 2323 0765 04       		.byte	0x4
 2324 0766 0E       		.uleb128 0xe
 2325 0767 1C0E0000 		.4byte	.LASF182
 2326 076b 07       		.byte	0x7
 2327 076c 0801     		.2byte	0x108
 2328 076e 77000000 		.4byte	0x77
 2329 0772 08       		.byte	0x8
 2330 0773 0E       		.uleb128 0xe
 2331 0774 AD110000 		.4byte	.LASF183
 2332 0778 07       		.byte	0x7
 2333 0779 1101     		.2byte	0x111
 2334 077b 2E070000 		.4byte	0x72e
 2335 077f 0C       		.byte	0xc
 2336 0780 00       		.byte	0
 2337 0781 04       		.uleb128 0x4
 2338 0782 CE070000 		.4byte	.LASF184
 2339 0786 07       		.byte	0x7
 2340 0787 1201     		.2byte	0x112
 2341 0789 39070000 		.4byte	0x739
 2342 078d 04       		.uleb128 0x4
 2343 078e 75010000 		.4byte	.LASF185
 2344 0792 08       		.byte	0x8
 2345 0793 0402     		.2byte	0x204
ARM GAS  C:\Users\ramanatg\AppData\Local\Temp\cciThAgf.s 			page 70


 2346 0795 EB000000 		.4byte	0xeb
 2347 0799 16       		.uleb128 0x16
 2348 079a 8502     		.2byte	0x285
 2349 079c 09       		.byte	0x9
 2350 079d 9C       		.byte	0x9c
 2351 079e D6070000 		.4byte	0x7d6
 2352 07a2 13       		.uleb128 0x13
 2353 07a3 64090000 		.4byte	.LASF186
 2354 07a7 09       		.byte	0x9
 2355 07a8 9F       		.byte	0x9f
 2356 07a9 D6070000 		.4byte	0x7d6
 2357 07ad 00       		.byte	0
 2358 07ae 17       		.uleb128 0x17
 2359 07af 03090000 		.4byte	.LASF187
 2360 07b3 09       		.byte	0x9
 2361 07b4 A2       		.byte	0xa2
 2362 07b5 E7070000 		.4byte	0x7e7
 2363 07b9 7902     		.2byte	0x279
 2364 07bb 17       		.uleb128 0x17
 2365 07bc 2A150000 		.4byte	.LASF188
 2366 07c0 09       		.byte	0x9
 2367 07c1 A5       		.byte	0xa5
 2368 07c2 6B000000 		.4byte	0x6b
 2369 07c6 8302     		.2byte	0x283
 2370 07c8 17       		.uleb128 0x17
 2371 07c9 7A080000 		.4byte	.LASF189
 2372 07cd 09       		.byte	0x9
 2373 07ce A8       		.byte	0xa8
 2374 07cf 6B000000 		.4byte	0x6b
 2375 07d3 8402     		.2byte	0x284
 2376 07d5 00       		.byte	0
 2377 07d6 0F       		.uleb128 0xf
 2378 07d7 6B000000 		.4byte	0x6b
 2379 07db E7070000 		.4byte	0x7e7
 2380 07df 18       		.uleb128 0x18
 2381 07e0 C0000000 		.4byte	0xc0
 2382 07e4 7802     		.2byte	0x278
 2383 07e6 00       		.byte	0
 2384 07e7 0F       		.uleb128 0xf
 2385 07e8 6B000000 		.4byte	0x6b
 2386 07ec FD070000 		.4byte	0x7fd
 2387 07f0 10       		.uleb128 0x10
 2388 07f1 C0000000 		.4byte	0xc0
 2389 07f5 04       		.byte	0x4
 2390 07f6 10       		.uleb128 0x10
 2391 07f7 C0000000 		.4byte	0xc0
 2392 07fb 01       		.byte	0x1
 2393 07fc 00       		.byte	0
 2394 07fd 06       		.uleb128 0x6
 2395 07fe 7D0A0000 		.4byte	.LASF190
 2396 0802 09       		.byte	0x9
 2397 0803 A9       		.byte	0xa9
 2398 0804 99070000 		.4byte	0x799
 2399 0808 0B       		.uleb128 0xb
 2400 0809 01       		.byte	0x1
 2401 080a 0A       		.byte	0xa
 2402 080b 5008     		.2byte	0x850
ARM GAS  C:\Users\ramanatg\AppData\Local\Temp\cciThAgf.s 			page 71


 2403 080d 30080000 		.4byte	0x830
 2404 0811 0C       		.uleb128 0xc
 2405 0812 6A050000 		.4byte	.LASF191
 2406 0816 00       		.sleb128 0
 2407 0817 0C       		.uleb128 0xc
 2408 0818 4D0B0000 		.4byte	.LASF192
 2409 081c 01       		.sleb128 1
 2410 081d 0C       		.uleb128 0xc
 2411 081e E1170000 		.4byte	.LASF193
 2412 0822 02       		.sleb128 2
 2413 0823 0C       		.uleb128 0xc
 2414 0824 AE020000 		.4byte	.LASF194
 2415 0828 03       		.sleb128 3
 2416 0829 0C       		.uleb128 0xc
 2417 082a 0C130000 		.4byte	.LASF195
 2418 082e 04       		.sleb128 4
 2419 082f 00       		.byte	0
 2420 0830 04       		.uleb128 0x4
 2421 0831 97140000 		.4byte	.LASF196
 2422 0835 0A       		.byte	0xa
 2423 0836 5E08     		.2byte	0x85e
 2424 0838 08080000 		.4byte	0x808
 2425 083c 0D       		.uleb128 0xd
 2426 083d 0C       		.byte	0xc
 2427 083e 0A       		.byte	0xa
 2428 083f 9909     		.2byte	0x999
 2429 0841 94080000 		.4byte	0x894
 2430 0845 0E       		.uleb128 0xe
 2431 0846 AE170000 		.4byte	.LASF197
 2432 084a 0A       		.byte	0xa
 2433 084b 9C09     		.2byte	0x99c
 2434 084d 6F060000 		.4byte	0x66f
 2435 0851 00       		.byte	0
 2436 0852 0E       		.uleb128 0xe
 2437 0853 B60C0000 		.4byte	.LASF198
 2438 0857 0A       		.byte	0xa
 2439 0858 9E09     		.2byte	0x99e
 2440 085a 6F060000 		.4byte	0x66f
 2441 085e 02       		.byte	0x2
 2442 085f 0E       		.uleb128 0xe
 2443 0860 7A100000 		.4byte	.LASF199
 2444 0864 0A       		.byte	0xa
 2445 0865 A009     		.2byte	0x9a0
 2446 0867 6F060000 		.4byte	0x66f
 2447 086b 04       		.byte	0x4
 2448 086c 0E       		.uleb128 0xe
 2449 086d 130F0000 		.4byte	.LASF200
 2450 0871 0A       		.byte	0xa
 2451 0872 A309     		.2byte	0x9a3
 2452 0874 6F060000 		.4byte	0x66f
 2453 0878 06       		.byte	0x6
 2454 0879 0E       		.uleb128 0xe
 2455 087a 93150000 		.4byte	.LASF201
 2456 087e 0A       		.byte	0xa
 2457 087f A509     		.2byte	0x9a5
 2458 0881 6F060000 		.4byte	0x66f
 2459 0885 08       		.byte	0x8
ARM GAS  C:\Users\ramanatg\AppData\Local\Temp\cciThAgf.s 			page 72


 2460 0886 0E       		.uleb128 0xe
 2461 0887 AD040000 		.4byte	.LASF202
 2462 088b 0A       		.byte	0xa
 2463 088c A709     		.2byte	0x9a7
 2464 088e 6F060000 		.4byte	0x66f
 2465 0892 0A       		.byte	0xa
 2466 0893 00       		.byte	0
 2467 0894 04       		.uleb128 0x4
 2468 0895 E1110000 		.4byte	.LASF203
 2469 0899 0A       		.byte	0xa
 2470 089a A809     		.2byte	0x9a8
 2471 089c 3C080000 		.4byte	0x83c
 2472 08a0 08       		.uleb128 0x8
 2473 08a1 04       		.byte	0x4
 2474 08a2 A6080000 		.4byte	0x8a6
 2475 08a6 19       		.uleb128 0x19
 2476 08a7 1A       		.uleb128 0x1a
 2477 08a8 5B030000 		.4byte	.LASF204
 2478 08ac 01       		.byte	0x1
 2479 08ad C9       		.byte	0xc9
 2480 08ae 01       		.byte	0x1
 2481 08af 1A       		.uleb128 0x1a
 2482 08b0 A1070000 		.4byte	.LASF205
 2483 08b4 01       		.byte	0x1
 2484 08b5 98       		.byte	0x98
 2485 08b6 01       		.byte	0x1
 2486 08b7 1B       		.uleb128 0x1b
 2487 08b8 AF080000 		.4byte	0x8af
 2488 08bc 00000000 		.4byte	.LFB2
 2489 08c0 34000000 		.4byte	.LFE2-.LFB2
 2490 08c4 01       		.uleb128 0x1
 2491 08c5 9C       		.byte	0x9c
 2492 08c6 E4080000 		.4byte	0x8e4
 2493 08ca 1C       		.uleb128 0x1c
 2494 08cb A7080000 		.4byte	0x8a7
 2495 08cf 10000000 		.4byte	.LBB9
 2496 08d3 04000000 		.4byte	.LBE9-.LBB9
 2497 08d7 01       		.byte	0x1
 2498 08d8 B5       		.byte	0xb5
 2499 08d9 1D       		.uleb128 0x1d
 2500 08da 14000000 		.4byte	.LVL0
 2501 08de 92100000 		.4byte	0x1092
 2502 08e2 00       		.byte	0
 2503 08e3 00       		.byte	0
 2504 08e4 1B       		.uleb128 0x1b
 2505 08e5 A7080000 		.4byte	0x8a7
 2506 08e9 00000000 		.4byte	.LFB3
 2507 08ed 08000000 		.4byte	.LFE3-.LFB3
 2508 08f1 01       		.uleb128 0x1
 2509 08f2 9C       		.byte	0x9c
 2510 08f3 01090000 		.4byte	0x901
 2511 08f7 1D       		.uleb128 0x1d
 2512 08f8 06000000 		.4byte	.LVL1
 2513 08fc 92100000 		.4byte	0x1092
 2514 0900 00       		.byte	0
 2515 0901 1E       		.uleb128 0x1e
 2516 0902 C3120000 		.4byte	.LASF212
ARM GAS  C:\Users\ramanatg\AppData\Local\Temp\cciThAgf.s 			page 73


 2517 0906 01       		.byte	0x1
 2518 0907 9701     		.2byte	0x197
 2519 0909 BB030000 		.4byte	0x3bb
 2520 090d 00000000 		.4byte	.LFB4
 2521 0911 D8000000 		.4byte	.LFE4-.LFB4
 2522 0915 01       		.uleb128 0x1
 2523 0916 9C       		.byte	0x9c
 2524 0917 3D0A0000 		.4byte	0xa3d
 2525 091b 1F       		.uleb128 0x1f
 2526 091c D2010000 		.4byte	.LASF214
 2527 0920 01       		.byte	0x1
 2528 0921 9701     		.2byte	0x197
 2529 0923 8D070000 		.4byte	0x78d
 2530 0927 00000000 		.4byte	.LLST0
 2531 092b 20       		.uleb128 0x20
 2532 092c 57000000 		.4byte	.LASF206
 2533 0930 01       		.byte	0x1
 2534 0931 9901     		.2byte	0x199
 2535 0933 BB030000 		.4byte	0x3bb
 2536 0937 37000000 		.4byte	.LLST1
 2537 093b 21       		.uleb128 0x21
 2538 093c 66080000 		.4byte	.LASF207
 2539 0940 01       		.byte	0x1
 2540 0941 9D01     		.2byte	0x19d
 2541 0943 3D0A0000 		.4byte	0xa3d
 2542 0947 02       		.uleb128 0x2
 2543 0948 91       		.byte	0x91
 2544 0949 5C       		.sleb128 -36
 2545 094a 22       		.uleb128 0x22
 2546 094b 00000000 		.4byte	.Ldebug_ranges0+0
 2547 094f A6090000 		.4byte	0x9a6
 2548 0953 21       		.uleb128 0x21
 2549 0954 DB120000 		.4byte	.LASF208
 2550 0958 01       		.byte	0x1
 2551 0959 BF01     		.2byte	0x1bf
 2552 095b 68040000 		.4byte	0x468
 2553 095f 02       		.uleb128 0x2
 2554 0960 91       		.byte	0x91
 2555 0961 48       		.sleb128 -56
 2556 0962 21       		.uleb128 0x21
 2557 0963 E60F0000 		.4byte	.LASF209
 2558 0967 01       		.byte	0x1
 2559 0968 C001     		.2byte	0x1c0
 2560 096a 8B040000 		.4byte	0x48b
 2561 096e 02       		.uleb128 0x2
 2562 096f 91       		.byte	0x91
 2563 0970 44       		.sleb128 -60
 2564 0971 21       		.uleb128 0x21
 2565 0972 BE030000 		.4byte	.LASF210
 2566 0976 01       		.byte	0x1
 2567 0977 C101     		.2byte	0x1c1
 2568 0979 D4040000 		.4byte	0x4d4
 2569 097d 02       		.uleb128 0x2
 2570 097e 91       		.byte	0x91
 2571 097f 50       		.sleb128 -48
 2572 0980 21       		.uleb128 0x21
 2573 0981 8A080000 		.4byte	.LASF211
ARM GAS  C:\Users\ramanatg\AppData\Local\Temp\cciThAgf.s 			page 74


 2574 0985 01       		.byte	0x1
 2575 0986 C201     		.2byte	0x1c2
 2576 0988 77000000 		.4byte	0x77
 2577 098c 02       		.uleb128 0x2
 2578 098d 91       		.byte	0x91
 2579 098e 46       		.sleb128 -58
 2580 098f 23       		.uleb128 0x23
 2581 0990 44000000 		.4byte	.LVL5
 2582 0994 99100000 		.4byte	0x1099
 2583 0998 24       		.uleb128 0x24
 2584 0999 01       		.uleb128 0x1
 2585 099a 51       		.byte	0x51
 2586 099b 02       		.uleb128 0x2
 2587 099c 91       		.byte	0x91
 2588 099d 46       		.sleb128 -58
 2589 099e 24       		.uleb128 0x24
 2590 099f 01       		.uleb128 0x1
 2591 09a0 50       		.byte	0x50
 2592 09a1 02       		.uleb128 0x2
 2593 09a2 91       		.byte	0x91
 2594 09a3 50       		.sleb128 -48
 2595 09a4 00       		.byte	0
 2596 09a5 00       		.byte	0
 2597 09a6 25       		.uleb128 0x25
 2598 09a7 AF080000 		.4byte	0x8af
 2599 09ab 7C000000 		.4byte	.LBB14
 2600 09af 18000000 		.4byte	.LBE14-.LBB14
 2601 09b3 01       		.byte	0x1
 2602 09b4 AB01     		.2byte	0x1ab
 2603 09b6 D4090000 		.4byte	0x9d4
 2604 09ba 1C       		.uleb128 0x1c
 2605 09bb A7080000 		.4byte	0x8a7
 2606 09bf 88000000 		.4byte	.LBB16
 2607 09c3 04000000 		.4byte	.LBE16-.LBB16
 2608 09c7 01       		.byte	0x1
 2609 09c8 B5       		.byte	0xb5
 2610 09c9 1D       		.uleb128 0x1d
 2611 09ca 8C000000 		.4byte	.LVL14
 2612 09ce 92100000 		.4byte	0x1092
 2613 09d2 00       		.byte	0
 2614 09d3 00       		.byte	0
 2615 09d4 26       		.uleb128 0x26
 2616 09d5 10000000 		.4byte	.LVL4
 2617 09d9 BF100000 		.4byte	0x10bf
 2618 09dd F6090000 		.4byte	0x9f6
 2619 09e1 24       		.uleb128 0x24
 2620 09e2 01       		.uleb128 0x1
 2621 09e3 52       		.byte	0x52
 2622 09e4 01       		.uleb128 0x1
 2623 09e5 44       		.byte	0x44
 2624 09e6 24       		.uleb128 0x24
 2625 09e7 01       		.uleb128 0x1
 2626 09e8 51       		.byte	0x51
 2627 09e9 05       		.uleb128 0x5
 2628 09ea 03       		.byte	0x3
 2629 09eb 00000000 		.4byte	.LANCHOR0
 2630 09ef 24       		.uleb128 0x24
ARM GAS  C:\Users\ramanatg\AppData\Local\Temp\cciThAgf.s 			page 75


 2631 09f0 01       		.uleb128 0x1
 2632 09f1 50       		.byte	0x50
 2633 09f2 02       		.uleb128 0x2
 2634 09f3 91       		.byte	0x91
 2635 09f4 5C       		.sleb128 -36
 2636 09f5 00       		.byte	0
 2637 09f6 26       		.uleb128 0x26
 2638 09f7 66000000 		.4byte	.LVL10
 2639 09fb DC100000 		.4byte	0x10dc
 2640 09ff 280A0000 		.4byte	0xa28
 2641 0a03 24       		.uleb128 0x24
 2642 0a04 01       		.uleb128 0x1
 2643 0a05 53       		.byte	0x53
 2644 0a06 02       		.uleb128 0x2
 2645 0a07 91       		.byte	0x91
 2646 0a08 5C       		.sleb128 -36
 2647 0a09 24       		.uleb128 0x24
 2648 0a0a 01       		.uleb128 0x1
 2649 0a0b 52       		.byte	0x52
 2650 0a0c 03       		.uleb128 0x3
 2651 0a0d 0A       		.byte	0xa
 2652 0a0e E00A     		.2byte	0xae0
 2653 0a10 24       		.uleb128 0x24
 2654 0a11 01       		.uleb128 0x1
 2655 0a12 51       		.byte	0x51
 2656 0a13 05       		.uleb128 0x5
 2657 0a14 03       		.byte	0x3
 2658 0a15 00000000 		.4byte	.LANCHOR2
 2659 0a19 24       		.uleb128 0x24
 2660 0a1a 02       		.uleb128 0x2
 2661 0a1b 7D       		.byte	0x7d
 2662 0a1c 08       		.sleb128 8
 2663 0a1d 03       		.uleb128 0x3
 2664 0a1e 0A       		.byte	0xa
 2665 0a1f 7902     		.2byte	0x279
 2666 0a21 24       		.uleb128 0x24
 2667 0a22 02       		.uleb128 0x2
 2668 0a23 7D       		.byte	0x7d
 2669 0a24 00       		.sleb128 0
 2670 0a25 01       		.uleb128 0x1
 2671 0a26 35       		.byte	0x35
 2672 0a27 00       		.byte	0
 2673 0a28 23       		.uleb128 0x23
 2674 0a29 7A000000 		.4byte	.LVL12
 2675 0a2d 16110000 		.4byte	0x1116
 2676 0a31 24       		.uleb128 0x24
 2677 0a32 01       		.uleb128 0x1
 2678 0a33 52       		.byte	0x52
 2679 0a34 01       		.uleb128 0x1
 2680 0a35 42       		.byte	0x42
 2681 0a36 24       		.uleb128 0x24
 2682 0a37 01       		.uleb128 0x1
 2683 0a38 51       		.byte	0x51
 2684 0a39 01       		.uleb128 0x1
 2685 0a3a 4E       		.byte	0x4e
 2686 0a3b 00       		.byte	0
 2687 0a3c 00       		.byte	0
ARM GAS  C:\Users\ramanatg\AppData\Local\Temp\cciThAgf.s 			page 76


 2688 0a3d 0F       		.uleb128 0xf
 2689 0a3e 2B040000 		.4byte	0x42b
 2690 0a42 4D0A0000 		.4byte	0xa4d
 2691 0a46 10       		.uleb128 0x10
 2692 0a47 C0000000 		.4byte	0xc0
 2693 0a4b 04       		.byte	0x4
 2694 0a4c 00       		.byte	0
 2695 0a4d 27       		.uleb128 0x27
 2696 0a4e 870B0000 		.4byte	.LASF222
 2697 0a52 01       		.byte	0x1
 2698 0a53 1C02     		.2byte	0x21c
 2699 0a55 00000000 		.4byte	.LFB5
 2700 0a59 14000000 		.4byte	.LFE5-.LFB5
 2701 0a5d 01       		.uleb128 0x1
 2702 0a5e 9C       		.byte	0x9c
 2703 0a5f 6D0A0000 		.4byte	0xa6d
 2704 0a63 1D       		.uleb128 0x1d
 2705 0a64 06000000 		.4byte	.LVL15
 2706 0a68 41110000 		.4byte	0x1141
 2707 0a6c 00       		.byte	0
 2708 0a6d 1E       		.uleb128 0x1e
 2709 0a6e DC150000 		.4byte	.LASF213
 2710 0a72 01       		.byte	0x1
 2711 0a73 5302     		.2byte	0x253
 2712 0a75 BB030000 		.4byte	0x3bb
 2713 0a79 00000000 		.4byte	.LFB6
 2714 0a7d E4000000 		.4byte	.LFE6-.LFB6
 2715 0a81 01       		.uleb128 0x1
 2716 0a82 9C       		.byte	0x9c
 2717 0a83 360B0000 		.4byte	0xb36
 2718 0a87 1F       		.uleb128 0x1f
 2719 0a88 28110000 		.4byte	.LASF215
 2720 0a8c 01       		.byte	0x1
 2721 0a8d 5302     		.2byte	0x253
 2722 0a8f 6B000000 		.4byte	0x6b
 2723 0a93 78000000 		.4byte	.LLST2
 2724 0a97 20       		.uleb128 0x20
 2725 0a98 57000000 		.4byte	.LASF206
 2726 0a9c 01       		.byte	0x1
 2727 0a9d 5502     		.2byte	0x255
 2728 0a9f BB030000 		.4byte	0x3bb
 2729 0aa3 B2000000 		.4byte	.LLST3
 2730 0aa7 22       		.uleb128 0x22
 2731 0aa8 20000000 		.4byte	.Ldebug_ranges0+0x20
 2732 0aac DB0A0000 		.4byte	0xadb
 2733 0ab0 21       		.uleb128 0x21
 2734 0ab1 C20D0000 		.4byte	.LASF216
 2735 0ab5 01       		.byte	0x1
 2736 0ab6 7902     		.2byte	0x279
 2737 0ab8 E7070000 		.4byte	0x7e7
 2738 0abc 02       		.uleb128 0x2
 2739 0abd 91       		.byte	0x91
 2740 0abe 64       		.sleb128 -28
 2741 0abf 23       		.uleb128 0x23
 2742 0ac0 36000000 		.4byte	.LVL19
 2743 0ac4 49110000 		.4byte	0x1149
 2744 0ac8 24       		.uleb128 0x24
ARM GAS  C:\Users\ramanatg\AppData\Local\Temp\cciThAgf.s 			page 77


 2745 0ac9 01       		.uleb128 0x1
 2746 0aca 53       		.byte	0x53
 2747 0acb 02       		.uleb128 0x2
 2748 0acc 75       		.byte	0x75
 2749 0acd 00       		.sleb128 0
 2750 0ace 24       		.uleb128 0x24
 2751 0acf 01       		.uleb128 0x1
 2752 0ad0 52       		.byte	0x52
 2753 0ad1 01       		.uleb128 0x1
 2754 0ad2 3A       		.byte	0x3a
 2755 0ad3 24       		.uleb128 0x24
 2756 0ad4 01       		.uleb128 0x1
 2757 0ad5 50       		.byte	0x50
 2758 0ad6 02       		.uleb128 0x2
 2759 0ad7 91       		.byte	0x91
 2760 0ad8 64       		.sleb128 -28
 2761 0ad9 00       		.byte	0
 2762 0ada 00       		.byte	0
 2763 0adb 28       		.uleb128 0x28
 2764 0adc 9C000000 		.4byte	.LBB20
 2765 0ae0 28000000 		.4byte	.LBE20-.LBB20
 2766 0ae4 130B0000 		.4byte	0xb13
 2767 0ae8 21       		.uleb128 0x21
 2768 0ae9 C20D0000 		.4byte	.LASF216
 2769 0aed 01       		.byte	0x1
 2770 0aee 8602     		.2byte	0x286
 2771 0af0 360B0000 		.4byte	0xb36
 2772 0af4 02       		.uleb128 0x2
 2773 0af5 91       		.byte	0x91
 2774 0af6 64       		.sleb128 -28
 2775 0af7 23       		.uleb128 0x23
 2776 0af8 B6000000 		.4byte	.LVL29
 2777 0afc 49110000 		.4byte	0x1149
 2778 0b00 24       		.uleb128 0x24
 2779 0b01 01       		.uleb128 0x1
 2780 0b02 53       		.byte	0x53
 2781 0b03 02       		.uleb128 0x2
 2782 0b04 75       		.byte	0x75
 2783 0b05 00       		.sleb128 0
 2784 0b06 24       		.uleb128 0x24
 2785 0b07 01       		.uleb128 0x1
 2786 0b08 52       		.byte	0x52
 2787 0b09 01       		.uleb128 0x1
 2788 0b0a 32       		.byte	0x32
 2789 0b0b 24       		.uleb128 0x24
 2790 0b0c 01       		.uleb128 0x1
 2791 0b0d 50       		.byte	0x50
 2792 0b0e 02       		.uleb128 0x2
 2793 0b0f 91       		.byte	0x91
 2794 0b10 64       		.sleb128 -28
 2795 0b11 00       		.byte	0
 2796 0b12 00       		.byte	0
 2797 0b13 26       		.uleb128 0x26
 2798 0b14 62000000 		.4byte	.LVL23
 2799 0b18 49110000 		.4byte	0x1149
 2800 0b1c 2C0B0000 		.4byte	0xb2c
 2801 0b20 24       		.uleb128 0x24
ARM GAS  C:\Users\ramanatg\AppData\Local\Temp\cciThAgf.s 			page 78


 2802 0b21 01       		.uleb128 0x1
 2803 0b22 53       		.byte	0x53
 2804 0b23 02       		.uleb128 0x2
 2805 0b24 75       		.byte	0x75
 2806 0b25 00       		.sleb128 0
 2807 0b26 24       		.uleb128 0x24
 2808 0b27 01       		.uleb128 0x1
 2809 0b28 52       		.byte	0x52
 2810 0b29 01       		.uleb128 0x1
 2811 0b2a 32       		.byte	0x32
 2812 0b2b 00       		.byte	0
 2813 0b2c 1D       		.uleb128 0x1d
 2814 0b2d 74000000 		.4byte	.LVL26
 2815 0b31 6D110000 		.4byte	0x116d
 2816 0b35 00       		.byte	0
 2817 0b36 0F       		.uleb128 0xf
 2818 0b37 6B000000 		.4byte	0x6b
 2819 0b3b 460B0000 		.4byte	0xb46
 2820 0b3f 10       		.uleb128 0x10
 2821 0b40 C0000000 		.4byte	0xc0
 2822 0b44 01       		.byte	0x1
 2823 0b45 00       		.byte	0
 2824 0b46 1E       		.uleb128 0x1e
 2825 0b47 F3040000 		.4byte	.LASF217
 2826 0b4b 01       		.byte	0x1
 2827 0b4c B502     		.2byte	0x2b5
 2828 0b4e BB030000 		.4byte	0x3bb
 2829 0b52 00000000 		.4byte	.LFB7
 2830 0b56 68000000 		.4byte	.LFE7-.LFB7
 2831 0b5a 01       		.uleb128 0x1
 2832 0b5b 9C       		.byte	0x9c
 2833 0b5c F20B0000 		.4byte	0xbf2
 2834 0b60 1F       		.uleb128 0x1f
 2835 0b61 B3150000 		.4byte	.LASF125
 2836 0b65 01       		.byte	0x1
 2837 0b66 B502     		.2byte	0x2b5
 2838 0b68 F20B0000 		.4byte	0xbf2
 2839 0b6c 0A010000 		.4byte	.LLST4
 2840 0b70 20       		.uleb128 0x20
 2841 0b71 57000000 		.4byte	.LASF206
 2842 0b75 01       		.byte	0x1
 2843 0b76 B702     		.2byte	0x2b7
 2844 0b78 BB030000 		.4byte	0x3bb
 2845 0b7c 4C010000 		.4byte	.LLST5
 2846 0b80 29       		.uleb128 0x29
 2847 0b81 16000000 		.4byte	.LBB21
 2848 0b85 52000000 		.4byte	.LBE21-.LBB21
 2849 0b89 21       		.uleb128 0x21
 2850 0b8a 5A010000 		.4byte	.LASF218
 2851 0b8e 01       		.byte	0x1
 2852 0b8f BE02     		.2byte	0x2be
 2853 0b91 6B000000 		.4byte	0x6b
 2854 0b95 02       		.uleb128 0x2
 2855 0b96 91       		.byte	0x91
 2856 0b97 67       		.sleb128 -25
 2857 0b98 21       		.uleb128 0x21
 2858 0b99 9E160000 		.4byte	.LASF219
ARM GAS  C:\Users\ramanatg\AppData\Local\Temp\cciThAgf.s 			page 79


 2859 0b9d 01       		.byte	0x1
 2860 0b9e BF02     		.2byte	0x2bf
 2861 0ba0 FB030000 		.4byte	0x3fb
 2862 0ba4 02       		.uleb128 0x2
 2863 0ba5 91       		.byte	0x91
 2864 0ba6 68       		.sleb128 -24
 2865 0ba7 26       		.uleb128 0x26
 2866 0ba8 2E000000 		.4byte	.LVL35
 2867 0bac 82110000 		.4byte	0x1182
 2868 0bb0 C60B0000 		.4byte	0xbc6
 2869 0bb4 24       		.uleb128 0x24
 2870 0bb5 01       		.uleb128 0x1
 2871 0bb6 52       		.byte	0x52
 2872 0bb7 01       		.uleb128 0x1
 2873 0bb8 36       		.byte	0x36
 2874 0bb9 24       		.uleb128 0x24
 2875 0bba 01       		.uleb128 0x1
 2876 0bbb 51       		.byte	0x51
 2877 0bbc 02       		.uleb128 0x2
 2878 0bbd 91       		.byte	0x91
 2879 0bbe 68       		.sleb128 -24
 2880 0bbf 24       		.uleb128 0x24
 2881 0bc0 01       		.uleb128 0x1
 2882 0bc1 50       		.byte	0x50
 2883 0bc2 02       		.uleb128 0x2
 2884 0bc3 74       		.byte	0x74
 2885 0bc4 00       		.sleb128 0
 2886 0bc5 00       		.byte	0
 2887 0bc6 26       		.uleb128 0x26
 2888 0bc7 3C000000 		.4byte	.LVL37
 2889 0bcb A1110000 		.4byte	0x11a1
 2890 0bcf DA0B0000 		.4byte	0xbda
 2891 0bd3 24       		.uleb128 0x24
 2892 0bd4 01       		.uleb128 0x1
 2893 0bd5 50       		.byte	0x50
 2894 0bd6 02       		.uleb128 0x2
 2895 0bd7 74       		.byte	0x74
 2896 0bd8 00       		.sleb128 0
 2897 0bd9 00       		.byte	0
 2898 0bda 23       		.uleb128 0x23
 2899 0bdb 48000000 		.4byte	.LVL39
 2900 0bdf B7110000 		.4byte	0x11b7
 2901 0be3 24       		.uleb128 0x24
 2902 0be4 01       		.uleb128 0x1
 2903 0be5 51       		.byte	0x51
 2904 0be6 02       		.uleb128 0x2
 2905 0be7 74       		.byte	0x74
 2906 0be8 00       		.sleb128 0
 2907 0be9 24       		.uleb128 0x24
 2908 0bea 01       		.uleb128 0x1
 2909 0beb 50       		.byte	0x50
 2910 0bec 02       		.uleb128 0x2
 2911 0bed 7D       		.byte	0x7d
 2912 0bee 07       		.sleb128 7
 2913 0bef 00       		.byte	0
 2914 0bf0 00       		.byte	0
 2915 0bf1 00       		.byte	0
ARM GAS  C:\Users\ramanatg\AppData\Local\Temp\cciThAgf.s 			page 80


 2916 0bf2 08       		.uleb128 0x8
 2917 0bf3 04       		.byte	0x4
 2918 0bf4 FB030000 		.4byte	0x3fb
 2919 0bf8 1E       		.uleb128 0x1e
 2920 0bf9 FE050000 		.4byte	.LASF220
 2921 0bfd 01       		.byte	0x1
 2922 0bfe 1603     		.2byte	0x316
 2923 0c00 BB030000 		.4byte	0x3bb
 2924 0c04 00000000 		.4byte	.LFB8
 2925 0c08 70000000 		.4byte	.LFE8-.LFB8
 2926 0c0c 01       		.uleb128 0x1
 2927 0c0d 9C       		.byte	0x9c
 2928 0c0e 3C0C0000 		.4byte	0xc3c
 2929 0c12 1F       		.uleb128 0x1f
 2930 0c13 6D030000 		.4byte	.LASF221
 2931 0c17 01       		.byte	0x1
 2932 0c18 1603     		.2byte	0x316
 2933 0c1a 6B000000 		.4byte	0x6b
 2934 0c1e 8E010000 		.4byte	.LLST6
 2935 0c22 20       		.uleb128 0x20
 2936 0c23 57000000 		.4byte	.LASF206
 2937 0c27 01       		.byte	0x1
 2938 0c28 1803     		.2byte	0x318
 2939 0c2a BB030000 		.4byte	0x3bb
 2940 0c2e AF010000 		.4byte	.LLST7
 2941 0c32 1D       		.uleb128 0x1d
 2942 0c33 3A000000 		.4byte	.LVL44
 2943 0c37 D2110000 		.4byte	0x11d2
 2944 0c3b 00       		.byte	0
 2945 0c3c 27       		.uleb128 0x27
 2946 0c3d 01080000 		.4byte	.LASF223
 2947 0c41 01       		.byte	0x1
 2948 0c42 5303     		.2byte	0x353
 2949 0c44 00000000 		.4byte	.LFB9
 2950 0c48 18000000 		.4byte	.LFE9-.LFB9
 2951 0c4c 01       		.uleb128 0x1
 2952 0c4d 9C       		.byte	0x9c
 2953 0c4e 5C0C0000 		.4byte	0xc5c
 2954 0c52 1D       		.uleb128 0x1d
 2955 0c53 06000000 		.4byte	.LVL46
 2956 0c57 EE110000 		.4byte	0x11ee
 2957 0c5b 00       		.byte	0
 2958 0c5c 27       		.uleb128 0x27
 2959 0c5d 310B0000 		.4byte	.LASF224
 2960 0c61 01       		.byte	0x1
 2961 0c62 6903     		.2byte	0x369
 2962 0c64 00000000 		.4byte	.LFB10
 2963 0c68 02000000 		.4byte	.LFE10-.LFB10
 2964 0c6c 01       		.uleb128 0x1
 2965 0c6d 9C       		.byte	0x9c
 2966 0c6e A60C0000 		.4byte	0xca6
 2967 0c72 2A       		.uleb128 0x2a
 2968 0c73 B3150000 		.4byte	.LASF125
 2969 0c77 01       		.byte	0x1
 2970 0c78 6903     		.2byte	0x369
 2971 0c7a A60C0000 		.4byte	0xca6
 2972 0c7e 01       		.uleb128 0x1
ARM GAS  C:\Users\ramanatg\AppData\Local\Temp\cciThAgf.s 			page 81


 2973 0c7f 50       		.byte	0x50
 2974 0c80 2A       		.uleb128 0x2a
 2975 0c81 28120000 		.4byte	.LASF225
 2976 0c85 01       		.byte	0x1
 2977 0c86 6903     		.2byte	0x369
 2978 0c88 6B000000 		.4byte	0x6b
 2979 0c8c 01       		.uleb128 0x1
 2980 0c8d 51       		.byte	0x51
 2981 0c8e 2B       		.uleb128 0x2b
 2982 0c8f 6900     		.ascii	"i\000"
 2983 0c91 01       		.byte	0x1
 2984 0c92 6B03     		.2byte	0x36b
 2985 0c94 6B000000 		.4byte	0x6b
 2986 0c98 2C       		.uleb128 0x2c
 2987 0c99 BA000000 		.4byte	.LASF226
 2988 0c9d 01       		.byte	0x1
 2989 0c9e 6C03     		.2byte	0x36c
 2990 0ca0 E0040000 		.4byte	0x4e0
 2991 0ca4 00       		.byte	0
 2992 0ca5 00       		.byte	0
 2993 0ca6 08       		.uleb128 0x8
 2994 0ca7 04       		.byte	0x4
 2995 0ca8 AC0C0000 		.4byte	0xcac
 2996 0cac 2D       		.uleb128 0x2d
 2997 0cad FB030000 		.4byte	0x3fb
 2998 0cb1 2E       		.uleb128 0x2e
 2999 0cb2 9B000000 		.4byte	.LASF274
 3000 0cb6 01       		.byte	0x1
 3001 0cb7 A804     		.2byte	0x4a8
 3002 0cb9 01       		.byte	0x1
 3003 0cba 1D0D0000 		.4byte	0xd1d
 3004 0cbe 2F       		.uleb128 0x2f
 3005 0cbf AD130000 		.4byte	.LASF227
 3006 0cc3 01       		.byte	0x1
 3007 0cc4 A804     		.2byte	0x4a8
 3008 0cc6 1D0D0000 		.4byte	0xd1d
 3009 0cca 2F       		.uleb128 0x2f
 3010 0ccb 28120000 		.4byte	.LASF225
 3011 0ccf 01       		.byte	0x1
 3012 0cd0 A804     		.2byte	0x4a8
 3013 0cd2 6B000000 		.4byte	0x6b
 3014 0cd6 2B       		.uleb128 0x2b
 3015 0cd7 6900     		.ascii	"i\000"
 3016 0cd9 01       		.byte	0x1
 3017 0cda AA04     		.2byte	0x4aa
 3018 0cdc 6B000000 		.4byte	0x6b
 3019 0ce0 30       		.uleb128 0x30
 3020 0ce1 290E0000 		.4byte	.LASF228
 3021 0ce5 01       		.byte	0x1
 3022 0ce6 AB04     		.2byte	0x4ab
 3023 0ce8 6B000000 		.4byte	0x6b
 3024 0cec 30       		.uleb128 0x30
 3025 0ced 62180000 		.4byte	.LASF229
 3026 0cf1 01       		.byte	0x1
 3027 0cf2 AC04     		.2byte	0x4ac
 3028 0cf4 6B000000 		.4byte	0x6b
 3029 0cf8 30       		.uleb128 0x30
ARM GAS  C:\Users\ramanatg\AppData\Local\Temp\cciThAgf.s 			page 82


 3030 0cf9 14160000 		.4byte	.LASF230
 3031 0cfd 01       		.byte	0x1
 3032 0cfe AD04     		.2byte	0x4ad
 3033 0d00 6B000000 		.4byte	0x6b
 3034 0d04 30       		.uleb128 0x30
 3035 0d05 BA000000 		.4byte	.LASF226
 3036 0d09 01       		.byte	0x1
 3037 0d0a AE04     		.2byte	0x4ae
 3038 0d0c E0040000 		.4byte	0x4e0
 3039 0d10 30       		.uleb128 0x30
 3040 0d11 8A090000 		.4byte	.LASF231
 3041 0d15 01       		.byte	0x1
 3042 0d16 AF04     		.2byte	0x4af
 3043 0d18 6B000000 		.4byte	0x6b
 3044 0d1c 00       		.byte	0
 3045 0d1d 08       		.uleb128 0x8
 3046 0d1e 04       		.byte	0x4
 3047 0d1f 230D0000 		.4byte	0xd23
 3048 0d23 2D       		.uleb128 0x2d
 3049 0d24 9D000000 		.4byte	0x9d
 3050 0d28 1E       		.uleb128 0x1e
 3051 0d29 05140000 		.4byte	.LASF232
 3052 0d2d 01       		.byte	0x1
 3053 0d2e 0D05     		.2byte	0x50d
 3054 0d30 BB030000 		.4byte	0x3bb
 3055 0d34 00000000 		.4byte	.LFB12
 3056 0d38 3C010000 		.4byte	.LFE12-.LFB12
 3057 0d3c 01       		.uleb128 0x1
 3058 0d3d 9C       		.byte	0x9c
 3059 0d3e 530E0000 		.4byte	0xe53
 3060 0d42 1F       		.uleb128 0x1f
 3061 0d43 AD130000 		.4byte	.LASF227
 3062 0d47 01       		.byte	0x1
 3063 0d48 0D05     		.2byte	0x50d
 3064 0d4a 1D0D0000 		.4byte	0xd1d
 3065 0d4e CD010000 		.4byte	.LLST8
 3066 0d52 20       		.uleb128 0x20
 3067 0d53 57000000 		.4byte	.LASF206
 3068 0d57 01       		.byte	0x1
 3069 0d58 0F05     		.2byte	0x50f
 3070 0d5a BB030000 		.4byte	0x3bb
 3071 0d5e 20020000 		.4byte	.LLST9
 3072 0d62 31       		.uleb128 0x31
 3073 0d63 6900     		.ascii	"i\000"
 3074 0d65 01       		.byte	0x1
 3075 0d66 1005     		.2byte	0x510
 3076 0d68 6B000000 		.4byte	0x6b
 3077 0d6c 40020000 		.4byte	.LLST10
 3078 0d70 31       		.uleb128 0x31
 3079 0d71 70747200 		.ascii	"ptr\000"
 3080 0d75 01       		.byte	0x1
 3081 0d76 1105     		.2byte	0x511
 3082 0d78 530E0000 		.4byte	0xe53
 3083 0d7c 85020000 		.4byte	.LLST11
 3084 0d80 20       		.uleb128 0x20
 3085 0d81 640E0000 		.4byte	.LASF233
 3086 0d85 01       		.byte	0x1
ARM GAS  C:\Users\ramanatg\AppData\Local\Temp\cciThAgf.s 			page 83


 3087 0d86 1205     		.2byte	0x512
 3088 0d88 6B000000 		.4byte	0x6b
 3089 0d8c A3020000 		.4byte	.LLST12
 3090 0d90 32       		.uleb128 0x32
 3091 0d91 B10C0000 		.4byte	0xcb1
 3092 0d95 40000000 		.4byte	.LBB26
 3093 0d99 38000000 		.4byte	.Ldebug_ranges0+0x38
 3094 0d9d 01       		.byte	0x1
 3095 0d9e 2F05     		.2byte	0x52f
 3096 0da0 F30D0000 		.4byte	0xdf3
 3097 0da4 33       		.uleb128 0x33
 3098 0da5 CA0C0000 		.4byte	0xcca
 3099 0da9 DA020000 		.4byte	.LLST13
 3100 0dad 33       		.uleb128 0x33
 3101 0dae BE0C0000 		.4byte	0xcbe
 3102 0db2 FA020000 		.4byte	.LLST14
 3103 0db6 34       		.uleb128 0x34
 3104 0db7 38000000 		.4byte	.Ldebug_ranges0+0x38
 3105 0dbb 35       		.uleb128 0x35
 3106 0dbc D60C0000 		.4byte	0xcd6
 3107 0dc0 3F030000 		.4byte	.LLST15
 3108 0dc4 35       		.uleb128 0x35
 3109 0dc5 E00C0000 		.4byte	0xce0
 3110 0dc9 73030000 		.4byte	.LLST16
 3111 0dcd 35       		.uleb128 0x35
 3112 0dce EC0C0000 		.4byte	0xcec
 3113 0dd2 9F030000 		.4byte	.LLST17
 3114 0dd6 35       		.uleb128 0x35
 3115 0dd7 F80C0000 		.4byte	0xcf8
 3116 0ddb EB030000 		.4byte	.LLST18
 3117 0ddf 35       		.uleb128 0x35
 3118 0de0 040D0000 		.4byte	0xd04
 3119 0de4 4E040000 		.4byte	.LLST19
 3120 0de8 35       		.uleb128 0x35
 3121 0de9 100D0000 		.4byte	0xd10
 3122 0ded 76040000 		.4byte	.LLST20
 3123 0df1 00       		.byte	0
 3124 0df2 00       		.byte	0
 3125 0df3 36       		.uleb128 0x36
 3126 0df4 B10C0000 		.4byte	0xcb1
 3127 0df8 9E000000 		.4byte	.LBB29
 3128 0dfc 50000000 		.4byte	.Ldebug_ranges0+0x50
 3129 0e00 01       		.byte	0x1
 3130 0e01 3005     		.2byte	0x530
 3131 0e03 33       		.uleb128 0x33
 3132 0e04 CA0C0000 		.4byte	0xcca
 3133 0e08 95040000 		.4byte	.LLST21
 3134 0e0c 33       		.uleb128 0x33
 3135 0e0d BE0C0000 		.4byte	0xcbe
 3136 0e11 B5040000 		.4byte	.LLST22
 3137 0e15 34       		.uleb128 0x34
 3138 0e16 50000000 		.4byte	.Ldebug_ranges0+0x50
 3139 0e1a 35       		.uleb128 0x35
 3140 0e1b D60C0000 		.4byte	0xcd6
 3141 0e1f EF040000 		.4byte	.LLST23
 3142 0e23 35       		.uleb128 0x35
 3143 0e24 E00C0000 		.4byte	0xce0
ARM GAS  C:\Users\ramanatg\AppData\Local\Temp\cciThAgf.s 			page 84


 3144 0e28 23050000 		.4byte	.LLST24
 3145 0e2c 35       		.uleb128 0x35
 3146 0e2d EC0C0000 		.4byte	0xcec
 3147 0e31 4F050000 		.4byte	.LLST25
 3148 0e35 35       		.uleb128 0x35
 3149 0e36 F80C0000 		.4byte	0xcf8
 3150 0e3a 9E050000 		.4byte	.LLST26
 3151 0e3e 35       		.uleb128 0x35
 3152 0e3f 040D0000 		.4byte	0xd04
 3153 0e43 01060000 		.4byte	.LLST27
 3154 0e47 35       		.uleb128 0x35
 3155 0e48 100D0000 		.4byte	0xd10
 3156 0e4c 29060000 		.4byte	.LLST28
 3157 0e50 00       		.byte	0
 3158 0e51 00       		.byte	0
 3159 0e52 00       		.byte	0
 3160 0e53 08       		.uleb128 0x8
 3161 0e54 04       		.byte	0x4
 3162 0e55 9D000000 		.4byte	0x9d
 3163 0e59 1E       		.uleb128 0x1e
 3164 0e5a 10070000 		.4byte	.LASF234
 3165 0e5e 01       		.byte	0x1
 3166 0e5f 5505     		.2byte	0x555
 3167 0e61 BB030000 		.4byte	0x3bb
 3168 0e65 00000000 		.4byte	.LFB13
 3169 0e69 5C000000 		.4byte	.LFE13-.LFB13
 3170 0e6d 01       		.uleb128 0x1
 3171 0e6e 9C       		.byte	0x9c
 3172 0e6f C20E0000 		.4byte	0xec2
 3173 0e73 1F       		.uleb128 0x1f
 3174 0e74 AD130000 		.4byte	.LASF227
 3175 0e78 01       		.byte	0x1
 3176 0e79 5505     		.2byte	0x555
 3177 0e7b 530E0000 		.4byte	0xe53
 3178 0e7f 49060000 		.4byte	.LLST29
 3179 0e83 20       		.uleb128 0x20
 3180 0e84 57000000 		.4byte	.LASF206
 3181 0e88 01       		.byte	0x1
 3182 0e89 5705     		.2byte	0x557
 3183 0e8b BB030000 		.4byte	0x3bb
 3184 0e8f 8E060000 		.4byte	.LLST30
 3185 0e93 20       		.uleb128 0x20
 3186 0e94 640E0000 		.4byte	.LASF233
 3187 0e98 01       		.byte	0x1
 3188 0e99 5805     		.2byte	0x558
 3189 0e9b 6B000000 		.4byte	0x6b
 3190 0e9f B9060000 		.4byte	.LLST31
 3191 0ea3 31       		.uleb128 0x31
 3192 0ea4 6900     		.ascii	"i\000"
 3193 0ea6 01       		.byte	0x1
 3194 0ea7 5905     		.2byte	0x559
 3195 0ea9 6B000000 		.4byte	0x6b
 3196 0ead D7060000 		.4byte	.LLST32
 3197 0eb1 31       		.uleb128 0x31
 3198 0eb2 70747200 		.ascii	"ptr\000"
 3199 0eb6 01       		.byte	0x1
 3200 0eb7 5A05     		.2byte	0x55a
ARM GAS  C:\Users\ramanatg\AppData\Local\Temp\cciThAgf.s 			page 85


 3201 0eb9 530E0000 		.4byte	0xe53
 3202 0ebd 25070000 		.4byte	.LLST33
 3203 0ec1 00       		.byte	0
 3204 0ec2 1E       		.uleb128 0x1e
 3205 0ec3 69100000 		.4byte	.LASF235
 3206 0ec7 01       		.byte	0x1
 3207 0ec8 8705     		.2byte	0x587
 3208 0eca 77000000 		.4byte	0x77
 3209 0ece 00000000 		.4byte	.LFB14
 3210 0ed2 0A000000 		.4byte	.LFE14-.LFB14
 3211 0ed6 01       		.uleb128 0x1
 3212 0ed7 9C       		.byte	0x9c
 3213 0ed8 ED0E0000 		.4byte	0xeed
 3214 0edc 37       		.uleb128 0x37
 3215 0edd 70747200 		.ascii	"ptr\000"
 3216 0ee1 01       		.byte	0x1
 3217 0ee2 8705     		.2byte	0x587
 3218 0ee4 ED0E0000 		.4byte	0xeed
 3219 0ee8 43070000 		.4byte	.LLST34
 3220 0eec 00       		.byte	0
 3221 0eed 08       		.uleb128 0x8
 3222 0eee 04       		.byte	0x4
 3223 0eef F30E0000 		.4byte	0xef3
 3224 0ef3 2D       		.uleb128 0x2d
 3225 0ef4 6B000000 		.4byte	0x6b
 3226 0ef8 27       		.uleb128 0x27
 3227 0ef9 2E0E0000 		.4byte	.LASF236
 3228 0efd 01       		.byte	0x1
 3229 0efe 9A05     		.2byte	0x59a
 3230 0f00 00000000 		.4byte	.LFB15
 3231 0f04 08000000 		.4byte	.LFE15-.LFB15
 3232 0f08 01       		.uleb128 0x1
 3233 0f09 9C       		.byte	0x9c
 3234 0f0a 2D0F0000 		.4byte	0xf2d
 3235 0f0e 38       		.uleb128 0x38
 3236 0f0f 70747200 		.ascii	"ptr\000"
 3237 0f13 01       		.byte	0x1
 3238 0f14 9A05     		.2byte	0x59a
 3239 0f16 E0040000 		.4byte	0x4e0
 3240 0f1a 01       		.uleb128 0x1
 3241 0f1b 50       		.byte	0x50
 3242 0f1c 1F       		.uleb128 0x1f
 3243 0f1d A7110000 		.4byte	.LASF237
 3244 0f21 01       		.byte	0x1
 3245 0f22 9A05     		.2byte	0x59a
 3246 0f24 77000000 		.4byte	0x77
 3247 0f28 64070000 		.4byte	.LLST35
 3248 0f2c 00       		.byte	0
 3249 0f2d 39       		.uleb128 0x39
 3250 0f2e DF070000 		.4byte	.LASF238
 3251 0f32 01       		.byte	0x1
 3252 0f33 84       		.byte	0x84
 3253 0f34 6B000000 		.4byte	0x6b
 3254 0f38 05       		.uleb128 0x5
 3255 0f39 03       		.byte	0x3
 3256 0f3a 01000000 		.4byte	cyBle_pendingFlashClearCccdHandle
 3257 0f3e 3A       		.uleb128 0x3a
ARM GAS  C:\Users\ramanatg\AppData\Local\Temp\cciThAgf.s 			page 86


 3258 0f3f B6110000 		.4byte	.LASF239
 3259 0f43 01       		.byte	0x1
 3260 0f44 89       		.byte	0x89
 3261 0f45 8D070000 		.4byte	0x78d
 3262 0f49 05       		.uleb128 0x5
 3263 0f4a 03       		.byte	0x3
 3264 0f4b 00000000 		.4byte	CyBle_ApplCallback
 3265 0f4f 3A       		.uleb128 0x3a
 3266 0f50 B8130000 		.4byte	.LASF240
 3267 0f54 01       		.byte	0x1
 3268 0f55 2B       		.byte	0x2b
 3269 0f56 6B000000 		.4byte	0x6b
 3270 0f5a 05       		.uleb128 0x5
 3271 0f5b 03       		.byte	0x3
 3272 0f5c 00000000 		.4byte	cyBle_initVar
 3273 0f60 0F       		.uleb128 0xf
 3274 0f61 6B000000 		.4byte	0x6b
 3275 0f65 710F0000 		.4byte	0xf71
 3276 0f69 18       		.uleb128 0x18
 3277 0f6a C0000000 		.4byte	0xc0
 3278 0f6e DF0A     		.2byte	0xadf
 3279 0f70 00       		.byte	0
 3280 0f71 3A       		.uleb128 0x3a
 3281 0f72 61150000 		.4byte	.LASF241
 3282 0f76 01       		.byte	0x1
 3283 0f77 36       		.byte	0x36
 3284 0f78 600F0000 		.4byte	0xf60
 3285 0f7c 05       		.uleb128 0x5
 3286 0f7d 03       		.byte	0x3
 3287 0f7e 00000000 		.4byte	cyBle_stackMemoryRam
 3288 0f82 3B       		.uleb128 0x3b
 3289 0f83 C5150000 		.4byte	.LASF242
 3290 0f87 08       		.byte	0x8
 3291 0f88 A402     		.2byte	0x2a4
 3292 0f8a B0000000 		.4byte	0xb0
 3293 0f8e 3A       		.uleb128 0x3a
 3294 0f8f 28040000 		.4byte	.LASF243
 3295 0f93 01       		.byte	0x1
 3296 0f94 8A       		.byte	0x8a
 3297 0f95 FB030000 		.4byte	0x3fb
 3298 0f99 05       		.uleb128 0x5
 3299 0f9a 03       		.byte	0x3
 3300 0f9b 00000000 		.4byte	cyBle_deviceAddress
 3301 0f9f 3A       		.uleb128 0x3a
 3302 0fa0 E9080000 		.4byte	.LASF244
 3303 0fa4 01       		.byte	0x1
 3304 0fa5 8B       		.byte	0x8b
 3305 0fa6 F20B0000 		.4byte	0xbf2
 3306 0faa 05       		.uleb128 0x5
 3307 0fab 03       		.byte	0x3
 3308 0fac 00000000 		.4byte	cyBle_sflashDeviceAddress
 3309 0fb0 3A       		.uleb128 0x3a
 3310 0fb1 00040000 		.4byte	.LASF245
 3311 0fb5 01       		.byte	0x1
 3312 0fb6 3C       		.byte	0x3c
 3313 0fb7 8A050000 		.4byte	0x58a
 3314 0fbb 05       		.uleb128 0x5
ARM GAS  C:\Users\ramanatg\AppData\Local\Temp\cciThAgf.s 			page 87


 3315 0fbc 03       		.byte	0x3
 3316 0fbd 00000000 		.4byte	cyBle_discoveryParam
 3317 0fc1 3A       		.uleb128 0x3a
 3318 0fc2 9A170000 		.4byte	.LASF246
 3319 0fc6 01       		.byte	0x1
 3320 0fc7 48       		.byte	0x48
 3321 0fc8 CA050000 		.4byte	0x5ca
 3322 0fcc 05       		.uleb128 0x5
 3323 0fcd 03       		.byte	0x3
 3324 0fce 00000000 		.4byte	cyBle_discoveryData
 3325 0fd2 3A       		.uleb128 0x3a
 3326 0fd3 010F0000 		.4byte	.LASF247
 3327 0fd7 01       		.byte	0x1
 3328 0fd8 51       		.byte	0x51
 3329 0fd9 FA050000 		.4byte	0x5fa
 3330 0fdd 05       		.uleb128 0x5
 3331 0fde 03       		.byte	0x3
 3332 0fdf 00000000 		.4byte	cyBle_scanRspData
 3333 0fe3 3A       		.uleb128 0x3a
 3334 0fe4 34150000 		.4byte	.LASF248
 3335 0fe8 01       		.byte	0x1
 3336 0fe9 61       		.byte	0x61
 3337 0fea 63060000 		.4byte	0x663
 3338 0fee 05       		.uleb128 0x5
 3339 0fef 03       		.byte	0x3
 3340 0ff0 00000000 		.4byte	cyBle_discoveryModeInfo
 3341 0ff4 3A       		.uleb128 0x3a
 3342 0ff5 49120000 		.4byte	.LASF249
 3343 0ff9 01       		.byte	0x1
 3344 0ffa 81       		.byte	0x81
 3345 0ffb 6B000000 		.4byte	0x6b
 3346 0fff 05       		.uleb128 0x5
 3347 1000 03       		.byte	0x3
 3348 1001 00000000 		.4byte	cyBle_pendingFlashWrite
 3349 1005 3A       		.uleb128 0x3a
 3350 1006 00000000 		.4byte	.LASF250
 3351 100a 01       		.byte	0x1
 3352 100b 80       		.byte	0x80
 3353 100c 6B000000 		.4byte	0x6b
 3354 1010 05       		.uleb128 0x5
 3355 1011 03       		.byte	0x3
 3356 1012 00000000 		.4byte	cyBle_peerBonding
 3357 1016 0F       		.uleb128 0xf
 3358 1017 81070000 		.4byte	0x781
 3359 101b 26100000 		.4byte	0x1026
 3360 101f 10       		.uleb128 0x10
 3361 1020 C0000000 		.4byte	0xc0
 3362 1024 1D       		.byte	0x1d
 3363 1025 00       		.byte	0
 3364 1026 3C       		.uleb128 0x3c
 3365 1027 430D0000 		.4byte	.LASF251
 3366 102b 09       		.byte	0x9
 3367 102c E8       		.byte	0xe8
 3368 102d 31100000 		.4byte	0x1031
 3369 1031 2D       		.uleb128 0x2d
 3370 1032 16100000 		.4byte	0x1016
 3371 1036 3C       		.uleb128 0x3c
ARM GAS  C:\Users\ramanatg\AppData\Local\Temp\cciThAgf.s 			page 88


 3372 1037 52160000 		.4byte	.LASF252
 3373 103b 09       		.byte	0x9
 3374 103c EC       		.byte	0xec
 3375 103d 360B0000 		.4byte	0xb36
 3376 1041 3C       		.uleb128 0x3c
 3377 1042 E40B0000 		.4byte	.LASF253
 3378 1046 09       		.byte	0x9
 3379 1047 F4       		.byte	0xf4
 3380 1048 4C100000 		.4byte	0x104c
 3381 104c 2D       		.uleb128 0x2d
 3382 104d FD070000 		.4byte	0x7fd
 3383 1051 3B       		.uleb128 0x3b
 3384 1052 CF120000 		.4byte	.LASF254
 3385 1056 0A       		.byte	0xa
 3386 1057 A90A     		.2byte	0xaa9
 3387 1059 30080000 		.4byte	0x830
 3388 105d 3B       		.uleb128 0x3b
 3389 105e EA130000 		.4byte	.LASF255
 3390 1062 0A       		.byte	0xa
 3391 1063 AA0A     		.2byte	0xaaa
 3392 1065 9F060000 		.4byte	0x69f
 3393 1069 3B       		.uleb128 0x3b
 3394 106a 200B0000 		.4byte	.LASF256
 3395 106e 0A       		.byte	0xa
 3396 106f AB0A     		.2byte	0xaab
 3397 1071 B0000000 		.4byte	0xb0
 3398 1075 3B       		.uleb128 0x3b
 3399 1076 BA150000 		.4byte	.LASF257
 3400 107a 0A       		.byte	0xa
 3401 107b AC0A     		.2byte	0xaac
 3402 107d 81100000 		.4byte	0x1081
 3403 1081 2D       		.uleb128 0x2d
 3404 1082 94080000 		.4byte	0x894
 3405 1086 3B       		.uleb128 0x3b
 3406 1087 980C0000 		.4byte	.LASF258
 3407 108b 0A       		.byte	0xa
 3408 108c AF0A     		.2byte	0xaaf
 3409 108e 6B000000 		.4byte	0x6b
 3410 1092 3D       		.uleb128 0x3d
 3411 1093 990E0000 		.4byte	.LASF259
 3412 1097 0B       		.byte	0xb
 3413 1098 B9       		.byte	0xb9
 3414 1099 3E       		.uleb128 0x3e
 3415 109a F1090000 		.4byte	.LASF260
 3416 109e 04       		.byte	0x4
 3417 109f 2306     		.2byte	0x623
 3418 10a1 BB030000 		.4byte	0x3bb
 3419 10a5 B4100000 		.4byte	0x10b4
 3420 10a9 0A       		.uleb128 0xa
 3421 10aa B4100000 		.4byte	0x10b4
 3422 10ae 0A       		.uleb128 0xa
 3423 10af AB060000 		.4byte	0x6ab
 3424 10b3 00       		.byte	0
 3425 10b4 08       		.uleb128 0x8
 3426 10b5 04       		.byte	0x4
 3427 10b6 BA100000 		.4byte	0x10ba
 3428 10ba 2D       		.uleb128 0x2d
ARM GAS  C:\Users\ramanatg\AppData\Local\Temp\cciThAgf.s 			page 89


 3429 10bb D4040000 		.4byte	0x4d4
 3430 10bf 3F       		.uleb128 0x3f
 3431 10c0 0D160000 		.4byte	.LASF275
 3432 10c4 C7000000 		.4byte	0xc7
 3433 10c8 DC100000 		.4byte	0x10dc
 3434 10cc 0A       		.uleb128 0xa
 3435 10cd C7000000 		.4byte	0xc7
 3436 10d1 0A       		.uleb128 0xa
 3437 10d2 A0080000 		.4byte	0x8a0
 3438 10d6 0A       		.uleb128 0xa
 3439 10d7 C0000000 		.4byte	0xc0
 3440 10db 00       		.byte	0
 3441 10dc 3E       		.uleb128 0x3e
 3442 10dd A0060000 		.4byte	.LASF261
 3443 10e1 04       		.byte	0x4
 3444 10e2 EB06     		.2byte	0x6eb
 3445 10e4 BB030000 		.4byte	0x3bb
 3446 10e8 10110000 		.4byte	0x1110
 3447 10ec 0A       		.uleb128 0xa
 3448 10ed C9000000 		.4byte	0xc9
 3449 10f1 0A       		.uleb128 0xa
 3450 10f2 E0040000 		.4byte	0x4e0
 3451 10f6 0A       		.uleb128 0xa
 3452 10f7 77000000 		.4byte	0x77
 3453 10fb 0A       		.uleb128 0xa
 3454 10fc 10110000 		.4byte	0x1110
 3455 1100 0A       		.uleb128 0xa
 3456 1101 6B000000 		.4byte	0x6b
 3457 1105 0A       		.uleb128 0xa
 3458 1106 ED0E0000 		.4byte	0xeed
 3459 110a 0A       		.uleb128 0xa
 3460 110b 83000000 		.4byte	0x83
 3461 110f 00       		.byte	0
 3462 1110 08       		.uleb128 0x8
 3463 1111 04       		.byte	0x4
 3464 1112 2B040000 		.4byte	0x42b
 3465 1116 3E       		.uleb128 0x3e
 3466 1117 67140000 		.4byte	.LASF262
 3467 111b 07       		.byte	0x7
 3468 111c 5401     		.2byte	0x154
 3469 111e BB030000 		.4byte	0x3bb
 3470 1122 36110000 		.4byte	0x1136
 3471 1126 0A       		.uleb128 0xa
 3472 1127 36110000 		.4byte	0x1136
 3473 112b 0A       		.uleb128 0xa
 3474 112c 77000000 		.4byte	0x77
 3475 1130 0A       		.uleb128 0xa
 3476 1131 77000000 		.4byte	0x77
 3477 1135 00       		.byte	0
 3478 1136 08       		.uleb128 0x8
 3479 1137 04       		.byte	0x4
 3480 1138 3C110000 		.4byte	0x113c
 3481 113c 2D       		.uleb128 0x2d
 3482 113d 81070000 		.4byte	0x781
 3483 1141 40       		.uleb128 0x40
 3484 1142 1D080000 		.4byte	.LASF263
 3485 1146 04       		.byte	0x4
ARM GAS  C:\Users\ramanatg\AppData\Local\Temp\cciThAgf.s 			page 90


 3486 1147 0607     		.2byte	0x706
 3487 1149 41       		.uleb128 0x41
 3488 114a 15040000 		.4byte	.LASF264
 3489 114e 0C       		.byte	0xc
 3490 114f 82       		.byte	0x82
 3491 1150 BB030000 		.4byte	0x3bb
 3492 1154 6D110000 		.4byte	0x116d
 3493 1158 0A       		.uleb128 0xa
 3494 1159 E0040000 		.4byte	0x4e0
 3495 115d 0A       		.uleb128 0xa
 3496 115e ED0E0000 		.4byte	0xeed
 3497 1162 0A       		.uleb128 0xa
 3498 1163 83000000 		.4byte	0x83
 3499 1167 0A       		.uleb128 0xa
 3500 1168 6B000000 		.4byte	0x6b
 3501 116c 00       		.byte	0
 3502 116d 41       		.uleb128 0x41
 3503 116e A9030000 		.4byte	.LASF265
 3504 1172 0C       		.byte	0xc
 3505 1173 64       		.byte	0x64
 3506 1174 BB030000 		.4byte	0x3bb
 3507 1178 82110000 		.4byte	0x1182
 3508 117c 0A       		.uleb128 0xa
 3509 117d 6B000000 		.4byte	0x6b
 3510 1181 00       		.byte	0
 3511 1182 41       		.uleb128 0x41
 3512 1183 EB120000 		.4byte	.LASF266
 3513 1187 0D       		.byte	0xd
 3514 1188 16       		.byte	0x16
 3515 1189 5D000000 		.4byte	0x5d
 3516 118d A1110000 		.4byte	0x11a1
 3517 1191 0A       		.uleb128 0xa
 3518 1192 A0080000 		.4byte	0x8a0
 3519 1196 0A       		.uleb128 0xa
 3520 1197 A0080000 		.4byte	0x8a0
 3521 119b 0A       		.uleb128 0xa
 3522 119c B5000000 		.4byte	0xb5
 3523 11a0 00       		.byte	0
 3524 11a1 3E       		.uleb128 0x3e
 3525 11a2 A0120000 		.4byte	.LASF267
 3526 11a6 05       		.byte	0x5
 3527 11a7 C108     		.2byte	0x8c1
 3528 11a9 BB030000 		.4byte	0x3bb
 3529 11ad B7110000 		.4byte	0x11b7
 3530 11b1 0A       		.uleb128 0xa
 3531 11b2 F20B0000 		.4byte	0xbf2
 3532 11b6 00       		.byte	0
 3533 11b7 3E       		.uleb128 0x3e
 3534 11b8 18010000 		.4byte	.LASF268
 3535 11bc 05       		.byte	0x5
 3536 11bd 9005     		.2byte	0x590
 3537 11bf BB030000 		.4byte	0x3bb
 3538 11c3 D2110000 		.4byte	0x11d2
 3539 11c7 0A       		.uleb128 0xa
 3540 11c8 E0040000 		.4byte	0x4e0
 3541 11cc 0A       		.uleb128 0xa
 3542 11cd F20B0000 		.4byte	0xbf2
ARM GAS  C:\Users\ramanatg\AppData\Local\Temp\cciThAgf.s 			page 91


 3543 11d1 00       		.byte	0
 3544 11d2 3E       		.uleb128 0x3e
 3545 11d3 DA0A0000 		.4byte	.LASF269
 3546 11d7 05       		.byte	0x5
 3547 11d8 EA05     		.2byte	0x5ea
 3548 11da BB030000 		.4byte	0x3bb
 3549 11de E8110000 		.4byte	0x11e8
 3550 11e2 0A       		.uleb128 0xa
 3551 11e3 E8110000 		.4byte	0x11e8
 3552 11e7 00       		.byte	0
 3553 11e8 08       		.uleb128 0x8
 3554 11e9 04       		.byte	0x4
 3555 11ea 63060000 		.4byte	0x663
 3556 11ee 40       		.uleb128 0x40
 3557 11ef F4060000 		.4byte	.LASF270
 3558 11f3 05       		.byte	0x5
 3559 11f4 FB05     		.2byte	0x5fb
 3560 11f6 00       		.byte	0
 3561              		.section	.debug_abbrev,"",%progbits
 3562              	.Ldebug_abbrev0:
 3563 0000 01       		.uleb128 0x1
 3564 0001 11       		.uleb128 0x11
 3565 0002 01       		.byte	0x1
 3566 0003 25       		.uleb128 0x25
 3567 0004 0E       		.uleb128 0xe
 3568 0005 13       		.uleb128 0x13
 3569 0006 0B       		.uleb128 0xb
 3570 0007 03       		.uleb128 0x3
 3571 0008 0E       		.uleb128 0xe
 3572 0009 1B       		.uleb128 0x1b
 3573 000a 0E       		.uleb128 0xe
 3574 000b 55       		.uleb128 0x55
 3575 000c 17       		.uleb128 0x17
 3576 000d 11       		.uleb128 0x11
 3577 000e 01       		.uleb128 0x1
 3578 000f 10       		.uleb128 0x10
 3579 0010 17       		.uleb128 0x17
 3580 0011 00       		.byte	0
 3581 0012 00       		.byte	0
 3582 0013 02       		.uleb128 0x2
 3583 0014 24       		.uleb128 0x24
 3584 0015 00       		.byte	0
 3585 0016 0B       		.uleb128 0xb
 3586 0017 0B       		.uleb128 0xb
 3587 0018 3E       		.uleb128 0x3e
 3588 0019 0B       		.uleb128 0xb
 3589 001a 03       		.uleb128 0x3
 3590 001b 0E       		.uleb128 0xe
 3591 001c 00       		.byte	0
 3592 001d 00       		.byte	0
 3593 001e 03       		.uleb128 0x3
 3594 001f 24       		.uleb128 0x24
 3595 0020 00       		.byte	0
 3596 0021 0B       		.uleb128 0xb
 3597 0022 0B       		.uleb128 0xb
 3598 0023 3E       		.uleb128 0x3e
 3599 0024 0B       		.uleb128 0xb
ARM GAS  C:\Users\ramanatg\AppData\Local\Temp\cciThAgf.s 			page 92


 3600 0025 03       		.uleb128 0x3
 3601 0026 08       		.uleb128 0x8
 3602 0027 00       		.byte	0
 3603 0028 00       		.byte	0
 3604 0029 04       		.uleb128 0x4
 3605 002a 16       		.uleb128 0x16
 3606 002b 00       		.byte	0
 3607 002c 03       		.uleb128 0x3
 3608 002d 0E       		.uleb128 0xe
 3609 002e 3A       		.uleb128 0x3a
 3610 002f 0B       		.uleb128 0xb
 3611 0030 3B       		.uleb128 0x3b
 3612 0031 05       		.uleb128 0x5
 3613 0032 49       		.uleb128 0x49
 3614 0033 13       		.uleb128 0x13
 3615 0034 00       		.byte	0
 3616 0035 00       		.byte	0
 3617 0036 05       		.uleb128 0x5
 3618 0037 35       		.uleb128 0x35
 3619 0038 00       		.byte	0
 3620 0039 49       		.uleb128 0x49
 3621 003a 13       		.uleb128 0x13
 3622 003b 00       		.byte	0
 3623 003c 00       		.byte	0
 3624 003d 06       		.uleb128 0x6
 3625 003e 16       		.uleb128 0x16
 3626 003f 00       		.byte	0
 3627 0040 03       		.uleb128 0x3
 3628 0041 0E       		.uleb128 0xe
 3629 0042 3A       		.uleb128 0x3a
 3630 0043 0B       		.uleb128 0xb
 3631 0044 3B       		.uleb128 0x3b
 3632 0045 0B       		.uleb128 0xb
 3633 0046 49       		.uleb128 0x49
 3634 0047 13       		.uleb128 0x13
 3635 0048 00       		.byte	0
 3636 0049 00       		.byte	0
 3637 004a 07       		.uleb128 0x7
 3638 004b 0F       		.uleb128 0xf
 3639 004c 00       		.byte	0
 3640 004d 0B       		.uleb128 0xb
 3641 004e 0B       		.uleb128 0xb
 3642 004f 00       		.byte	0
 3643 0050 00       		.byte	0
 3644 0051 08       		.uleb128 0x8
 3645 0052 0F       		.uleb128 0xf
 3646 0053 00       		.byte	0
 3647 0054 0B       		.uleb128 0xb
 3648 0055 0B       		.uleb128 0xb
 3649 0056 49       		.uleb128 0x49
 3650 0057 13       		.uleb128 0x13
 3651 0058 00       		.byte	0
 3652 0059 00       		.byte	0
 3653 005a 09       		.uleb128 0x9
 3654 005b 15       		.uleb128 0x15
 3655 005c 01       		.byte	0x1
 3656 005d 27       		.uleb128 0x27
ARM GAS  C:\Users\ramanatg\AppData\Local\Temp\cciThAgf.s 			page 93


 3657 005e 19       		.uleb128 0x19
 3658 005f 01       		.uleb128 0x1
 3659 0060 13       		.uleb128 0x13
 3660 0061 00       		.byte	0
 3661 0062 00       		.byte	0
 3662 0063 0A       		.uleb128 0xa
 3663 0064 05       		.uleb128 0x5
 3664 0065 00       		.byte	0
 3665 0066 49       		.uleb128 0x49
 3666 0067 13       		.uleb128 0x13
 3667 0068 00       		.byte	0
 3668 0069 00       		.byte	0
 3669 006a 0B       		.uleb128 0xb
 3670 006b 04       		.uleb128 0x4
 3671 006c 01       		.byte	0x1
 3672 006d 0B       		.uleb128 0xb
 3673 006e 0B       		.uleb128 0xb
 3674 006f 3A       		.uleb128 0x3a
 3675 0070 0B       		.uleb128 0xb
 3676 0071 3B       		.uleb128 0x3b
 3677 0072 05       		.uleb128 0x5
 3678 0073 01       		.uleb128 0x1
 3679 0074 13       		.uleb128 0x13
 3680 0075 00       		.byte	0
 3681 0076 00       		.byte	0
 3682 0077 0C       		.uleb128 0xc
 3683 0078 28       		.uleb128 0x28
 3684 0079 00       		.byte	0
 3685 007a 03       		.uleb128 0x3
 3686 007b 0E       		.uleb128 0xe
 3687 007c 1C       		.uleb128 0x1c
 3688 007d 0D       		.uleb128 0xd
 3689 007e 00       		.byte	0
 3690 007f 00       		.byte	0
 3691 0080 0D       		.uleb128 0xd
 3692 0081 13       		.uleb128 0x13
 3693 0082 01       		.byte	0x1
 3694 0083 0B       		.uleb128 0xb
 3695 0084 0B       		.uleb128 0xb
 3696 0085 3A       		.uleb128 0x3a
 3697 0086 0B       		.uleb128 0xb
 3698 0087 3B       		.uleb128 0x3b
 3699 0088 05       		.uleb128 0x5
 3700 0089 01       		.uleb128 0x1
 3701 008a 13       		.uleb128 0x13
 3702 008b 00       		.byte	0
 3703 008c 00       		.byte	0
 3704 008d 0E       		.uleb128 0xe
 3705 008e 0D       		.uleb128 0xd
 3706 008f 00       		.byte	0
 3707 0090 03       		.uleb128 0x3
 3708 0091 0E       		.uleb128 0xe
 3709 0092 3A       		.uleb128 0x3a
 3710 0093 0B       		.uleb128 0xb
 3711 0094 3B       		.uleb128 0x3b
 3712 0095 05       		.uleb128 0x5
 3713 0096 49       		.uleb128 0x49
ARM GAS  C:\Users\ramanatg\AppData\Local\Temp\cciThAgf.s 			page 94


 3714 0097 13       		.uleb128 0x13
 3715 0098 38       		.uleb128 0x38
 3716 0099 0B       		.uleb128 0xb
 3717 009a 00       		.byte	0
 3718 009b 00       		.byte	0
 3719 009c 0F       		.uleb128 0xf
 3720 009d 01       		.uleb128 0x1
 3721 009e 01       		.byte	0x1
 3722 009f 49       		.uleb128 0x49
 3723 00a0 13       		.uleb128 0x13
 3724 00a1 01       		.uleb128 0x1
 3725 00a2 13       		.uleb128 0x13
 3726 00a3 00       		.byte	0
 3727 00a4 00       		.byte	0
 3728 00a5 10       		.uleb128 0x10
 3729 00a6 21       		.uleb128 0x21
 3730 00a7 00       		.byte	0
 3731 00a8 49       		.uleb128 0x49
 3732 00a9 13       		.uleb128 0x13
 3733 00aa 2F       		.uleb128 0x2f
 3734 00ab 0B       		.uleb128 0xb
 3735 00ac 00       		.byte	0
 3736 00ad 00       		.byte	0
 3737 00ae 11       		.uleb128 0x11
 3738 00af 04       		.uleb128 0x4
 3739 00b0 01       		.byte	0x1
 3740 00b1 0B       		.uleb128 0xb
 3741 00b2 0B       		.uleb128 0xb
 3742 00b3 3A       		.uleb128 0x3a
 3743 00b4 0B       		.uleb128 0xb
 3744 00b5 3B       		.uleb128 0x3b
 3745 00b6 0B       		.uleb128 0xb
 3746 00b7 01       		.uleb128 0x1
 3747 00b8 13       		.uleb128 0x13
 3748 00b9 00       		.byte	0
 3749 00ba 00       		.byte	0
 3750 00bb 12       		.uleb128 0x12
 3751 00bc 13       		.uleb128 0x13
 3752 00bd 01       		.byte	0x1
 3753 00be 0B       		.uleb128 0xb
 3754 00bf 0B       		.uleb128 0xb
 3755 00c0 3A       		.uleb128 0x3a
 3756 00c1 0B       		.uleb128 0xb
 3757 00c2 3B       		.uleb128 0x3b
 3758 00c3 0B       		.uleb128 0xb
 3759 00c4 01       		.uleb128 0x1
 3760 00c5 13       		.uleb128 0x13
 3761 00c6 00       		.byte	0
 3762 00c7 00       		.byte	0
 3763 00c8 13       		.uleb128 0x13
 3764 00c9 0D       		.uleb128 0xd
 3765 00ca 00       		.byte	0
 3766 00cb 03       		.uleb128 0x3
 3767 00cc 0E       		.uleb128 0xe
 3768 00cd 3A       		.uleb128 0x3a
 3769 00ce 0B       		.uleb128 0xb
 3770 00cf 3B       		.uleb128 0x3b
ARM GAS  C:\Users\ramanatg\AppData\Local\Temp\cciThAgf.s 			page 95


 3771 00d0 0B       		.uleb128 0xb
 3772 00d1 49       		.uleb128 0x49
 3773 00d2 13       		.uleb128 0x13
 3774 00d3 38       		.uleb128 0x38
 3775 00d4 0B       		.uleb128 0xb
 3776 00d5 00       		.byte	0
 3777 00d6 00       		.byte	0
 3778 00d7 14       		.uleb128 0x14
 3779 00d8 17       		.uleb128 0x17
 3780 00d9 01       		.byte	0x1
 3781 00da 0B       		.uleb128 0xb
 3782 00db 0B       		.uleb128 0xb
 3783 00dc 3A       		.uleb128 0x3a
 3784 00dd 0B       		.uleb128 0xb
 3785 00de 3B       		.uleb128 0x3b
 3786 00df 0B       		.uleb128 0xb
 3787 00e0 01       		.uleb128 0x1
 3788 00e1 13       		.uleb128 0x13
 3789 00e2 00       		.byte	0
 3790 00e3 00       		.byte	0
 3791 00e4 15       		.uleb128 0x15
 3792 00e5 0D       		.uleb128 0xd
 3793 00e6 00       		.byte	0
 3794 00e7 03       		.uleb128 0x3
 3795 00e8 0E       		.uleb128 0xe
 3796 00e9 3A       		.uleb128 0x3a
 3797 00ea 0B       		.uleb128 0xb
 3798 00eb 3B       		.uleb128 0x3b
 3799 00ec 0B       		.uleb128 0xb
 3800 00ed 49       		.uleb128 0x49
 3801 00ee 13       		.uleb128 0x13
 3802 00ef 00       		.byte	0
 3803 00f0 00       		.byte	0
 3804 00f1 16       		.uleb128 0x16
 3805 00f2 13       		.uleb128 0x13
 3806 00f3 01       		.byte	0x1
 3807 00f4 0B       		.uleb128 0xb
 3808 00f5 05       		.uleb128 0x5
 3809 00f6 3A       		.uleb128 0x3a
 3810 00f7 0B       		.uleb128 0xb
 3811 00f8 3B       		.uleb128 0x3b
 3812 00f9 0B       		.uleb128 0xb
 3813 00fa 01       		.uleb128 0x1
 3814 00fb 13       		.uleb128 0x13
 3815 00fc 00       		.byte	0
 3816 00fd 00       		.byte	0
 3817 00fe 17       		.uleb128 0x17
 3818 00ff 0D       		.uleb128 0xd
 3819 0100 00       		.byte	0
 3820 0101 03       		.uleb128 0x3
 3821 0102 0E       		.uleb128 0xe
 3822 0103 3A       		.uleb128 0x3a
 3823 0104 0B       		.uleb128 0xb
 3824 0105 3B       		.uleb128 0x3b
 3825 0106 0B       		.uleb128 0xb
 3826 0107 49       		.uleb128 0x49
 3827 0108 13       		.uleb128 0x13
ARM GAS  C:\Users\ramanatg\AppData\Local\Temp\cciThAgf.s 			page 96


 3828 0109 38       		.uleb128 0x38
 3829 010a 05       		.uleb128 0x5
 3830 010b 00       		.byte	0
 3831 010c 00       		.byte	0
 3832 010d 18       		.uleb128 0x18
 3833 010e 21       		.uleb128 0x21
 3834 010f 00       		.byte	0
 3835 0110 49       		.uleb128 0x49
 3836 0111 13       		.uleb128 0x13
 3837 0112 2F       		.uleb128 0x2f
 3838 0113 05       		.uleb128 0x5
 3839 0114 00       		.byte	0
 3840 0115 00       		.byte	0
 3841 0116 19       		.uleb128 0x19
 3842 0117 26       		.uleb128 0x26
 3843 0118 00       		.byte	0
 3844 0119 00       		.byte	0
 3845 011a 00       		.byte	0
 3846 011b 1A       		.uleb128 0x1a
 3847 011c 2E       		.uleb128 0x2e
 3848 011d 00       		.byte	0
 3849 011e 3F       		.uleb128 0x3f
 3850 011f 19       		.uleb128 0x19
 3851 0120 03       		.uleb128 0x3
 3852 0121 0E       		.uleb128 0xe
 3853 0122 3A       		.uleb128 0x3a
 3854 0123 0B       		.uleb128 0xb
 3855 0124 3B       		.uleb128 0x3b
 3856 0125 0B       		.uleb128 0xb
 3857 0126 27       		.uleb128 0x27
 3858 0127 19       		.uleb128 0x19
 3859 0128 20       		.uleb128 0x20
 3860 0129 0B       		.uleb128 0xb
 3861 012a 00       		.byte	0
 3862 012b 00       		.byte	0
 3863 012c 1B       		.uleb128 0x1b
 3864 012d 2E       		.uleb128 0x2e
 3865 012e 01       		.byte	0x1
 3866 012f 31       		.uleb128 0x31
 3867 0130 13       		.uleb128 0x13
 3868 0131 11       		.uleb128 0x11
 3869 0132 01       		.uleb128 0x1
 3870 0133 12       		.uleb128 0x12
 3871 0134 06       		.uleb128 0x6
 3872 0135 40       		.uleb128 0x40
 3873 0136 18       		.uleb128 0x18
 3874 0137 9742     		.uleb128 0x2117
 3875 0139 19       		.uleb128 0x19
 3876 013a 01       		.uleb128 0x1
 3877 013b 13       		.uleb128 0x13
 3878 013c 00       		.byte	0
 3879 013d 00       		.byte	0
 3880 013e 1C       		.uleb128 0x1c
 3881 013f 1D       		.uleb128 0x1d
 3882 0140 01       		.byte	0x1
 3883 0141 31       		.uleb128 0x31
 3884 0142 13       		.uleb128 0x13
ARM GAS  C:\Users\ramanatg\AppData\Local\Temp\cciThAgf.s 			page 97


 3885 0143 11       		.uleb128 0x11
 3886 0144 01       		.uleb128 0x1
 3887 0145 12       		.uleb128 0x12
 3888 0146 06       		.uleb128 0x6
 3889 0147 58       		.uleb128 0x58
 3890 0148 0B       		.uleb128 0xb
 3891 0149 59       		.uleb128 0x59
 3892 014a 0B       		.uleb128 0xb
 3893 014b 00       		.byte	0
 3894 014c 00       		.byte	0
 3895 014d 1D       		.uleb128 0x1d
 3896 014e 898201   		.uleb128 0x4109
 3897 0151 00       		.byte	0
 3898 0152 11       		.uleb128 0x11
 3899 0153 01       		.uleb128 0x1
 3900 0154 31       		.uleb128 0x31
 3901 0155 13       		.uleb128 0x13
 3902 0156 00       		.byte	0
 3903 0157 00       		.byte	0
 3904 0158 1E       		.uleb128 0x1e
 3905 0159 2E       		.uleb128 0x2e
 3906 015a 01       		.byte	0x1
 3907 015b 3F       		.uleb128 0x3f
 3908 015c 19       		.uleb128 0x19
 3909 015d 03       		.uleb128 0x3
 3910 015e 0E       		.uleb128 0xe
 3911 015f 3A       		.uleb128 0x3a
 3912 0160 0B       		.uleb128 0xb
 3913 0161 3B       		.uleb128 0x3b
 3914 0162 05       		.uleb128 0x5
 3915 0163 27       		.uleb128 0x27
 3916 0164 19       		.uleb128 0x19
 3917 0165 49       		.uleb128 0x49
 3918 0166 13       		.uleb128 0x13
 3919 0167 11       		.uleb128 0x11
 3920 0168 01       		.uleb128 0x1
 3921 0169 12       		.uleb128 0x12
 3922 016a 06       		.uleb128 0x6
 3923 016b 40       		.uleb128 0x40
 3924 016c 18       		.uleb128 0x18
 3925 016d 9742     		.uleb128 0x2117
 3926 016f 19       		.uleb128 0x19
 3927 0170 01       		.uleb128 0x1
 3928 0171 13       		.uleb128 0x13
 3929 0172 00       		.byte	0
 3930 0173 00       		.byte	0
 3931 0174 1F       		.uleb128 0x1f
 3932 0175 05       		.uleb128 0x5
 3933 0176 00       		.byte	0
 3934 0177 03       		.uleb128 0x3
 3935 0178 0E       		.uleb128 0xe
 3936 0179 3A       		.uleb128 0x3a
 3937 017a 0B       		.uleb128 0xb
 3938 017b 3B       		.uleb128 0x3b
 3939 017c 05       		.uleb128 0x5
 3940 017d 49       		.uleb128 0x49
 3941 017e 13       		.uleb128 0x13
ARM GAS  C:\Users\ramanatg\AppData\Local\Temp\cciThAgf.s 			page 98


 3942 017f 02       		.uleb128 0x2
 3943 0180 17       		.uleb128 0x17
 3944 0181 00       		.byte	0
 3945 0182 00       		.byte	0
 3946 0183 20       		.uleb128 0x20
 3947 0184 34       		.uleb128 0x34
 3948 0185 00       		.byte	0
 3949 0186 03       		.uleb128 0x3
 3950 0187 0E       		.uleb128 0xe
 3951 0188 3A       		.uleb128 0x3a
 3952 0189 0B       		.uleb128 0xb
 3953 018a 3B       		.uleb128 0x3b
 3954 018b 05       		.uleb128 0x5
 3955 018c 49       		.uleb128 0x49
 3956 018d 13       		.uleb128 0x13
 3957 018e 02       		.uleb128 0x2
 3958 018f 17       		.uleb128 0x17
 3959 0190 00       		.byte	0
 3960 0191 00       		.byte	0
 3961 0192 21       		.uleb128 0x21
 3962 0193 34       		.uleb128 0x34
 3963 0194 00       		.byte	0
 3964 0195 03       		.uleb128 0x3
 3965 0196 0E       		.uleb128 0xe
 3966 0197 3A       		.uleb128 0x3a
 3967 0198 0B       		.uleb128 0xb
 3968 0199 3B       		.uleb128 0x3b
 3969 019a 05       		.uleb128 0x5
 3970 019b 49       		.uleb128 0x49
 3971 019c 13       		.uleb128 0x13
 3972 019d 02       		.uleb128 0x2
 3973 019e 18       		.uleb128 0x18
 3974 019f 00       		.byte	0
 3975 01a0 00       		.byte	0
 3976 01a1 22       		.uleb128 0x22
 3977 01a2 0B       		.uleb128 0xb
 3978 01a3 01       		.byte	0x1
 3979 01a4 55       		.uleb128 0x55
 3980 01a5 17       		.uleb128 0x17
 3981 01a6 01       		.uleb128 0x1
 3982 01a7 13       		.uleb128 0x13
 3983 01a8 00       		.byte	0
 3984 01a9 00       		.byte	0
 3985 01aa 23       		.uleb128 0x23
 3986 01ab 898201   		.uleb128 0x4109
 3987 01ae 01       		.byte	0x1
 3988 01af 11       		.uleb128 0x11
 3989 01b0 01       		.uleb128 0x1
 3990 01b1 31       		.uleb128 0x31
 3991 01b2 13       		.uleb128 0x13
 3992 01b3 00       		.byte	0
 3993 01b4 00       		.byte	0
 3994 01b5 24       		.uleb128 0x24
 3995 01b6 8A8201   		.uleb128 0x410a
 3996 01b9 00       		.byte	0
 3997 01ba 02       		.uleb128 0x2
 3998 01bb 18       		.uleb128 0x18
ARM GAS  C:\Users\ramanatg\AppData\Local\Temp\cciThAgf.s 			page 99


 3999 01bc 9142     		.uleb128 0x2111
 4000 01be 18       		.uleb128 0x18
 4001 01bf 00       		.byte	0
 4002 01c0 00       		.byte	0
 4003 01c1 25       		.uleb128 0x25
 4004 01c2 1D       		.uleb128 0x1d
 4005 01c3 01       		.byte	0x1
 4006 01c4 31       		.uleb128 0x31
 4007 01c5 13       		.uleb128 0x13
 4008 01c6 11       		.uleb128 0x11
 4009 01c7 01       		.uleb128 0x1
 4010 01c8 12       		.uleb128 0x12
 4011 01c9 06       		.uleb128 0x6
 4012 01ca 58       		.uleb128 0x58
 4013 01cb 0B       		.uleb128 0xb
 4014 01cc 59       		.uleb128 0x59
 4015 01cd 05       		.uleb128 0x5
 4016 01ce 01       		.uleb128 0x1
 4017 01cf 13       		.uleb128 0x13
 4018 01d0 00       		.byte	0
 4019 01d1 00       		.byte	0
 4020 01d2 26       		.uleb128 0x26
 4021 01d3 898201   		.uleb128 0x4109
 4022 01d6 01       		.byte	0x1
 4023 01d7 11       		.uleb128 0x11
 4024 01d8 01       		.uleb128 0x1
 4025 01d9 31       		.uleb128 0x31
 4026 01da 13       		.uleb128 0x13
 4027 01db 01       		.uleb128 0x1
 4028 01dc 13       		.uleb128 0x13
 4029 01dd 00       		.byte	0
 4030 01de 00       		.byte	0
 4031 01df 27       		.uleb128 0x27
 4032 01e0 2E       		.uleb128 0x2e
 4033 01e1 01       		.byte	0x1
 4034 01e2 3F       		.uleb128 0x3f
 4035 01e3 19       		.uleb128 0x19
 4036 01e4 03       		.uleb128 0x3
 4037 01e5 0E       		.uleb128 0xe
 4038 01e6 3A       		.uleb128 0x3a
 4039 01e7 0B       		.uleb128 0xb
 4040 01e8 3B       		.uleb128 0x3b
 4041 01e9 05       		.uleb128 0x5
 4042 01ea 27       		.uleb128 0x27
 4043 01eb 19       		.uleb128 0x19
 4044 01ec 11       		.uleb128 0x11
 4045 01ed 01       		.uleb128 0x1
 4046 01ee 12       		.uleb128 0x12
 4047 01ef 06       		.uleb128 0x6
 4048 01f0 40       		.uleb128 0x40
 4049 01f1 18       		.uleb128 0x18
 4050 01f2 9742     		.uleb128 0x2117
 4051 01f4 19       		.uleb128 0x19
 4052 01f5 01       		.uleb128 0x1
 4053 01f6 13       		.uleb128 0x13
 4054 01f7 00       		.byte	0
 4055 01f8 00       		.byte	0
ARM GAS  C:\Users\ramanatg\AppData\Local\Temp\cciThAgf.s 			page 100


 4056 01f9 28       		.uleb128 0x28
 4057 01fa 0B       		.uleb128 0xb
 4058 01fb 01       		.byte	0x1
 4059 01fc 11       		.uleb128 0x11
 4060 01fd 01       		.uleb128 0x1
 4061 01fe 12       		.uleb128 0x12
 4062 01ff 06       		.uleb128 0x6
 4063 0200 01       		.uleb128 0x1
 4064 0201 13       		.uleb128 0x13
 4065 0202 00       		.byte	0
 4066 0203 00       		.byte	0
 4067 0204 29       		.uleb128 0x29
 4068 0205 0B       		.uleb128 0xb
 4069 0206 01       		.byte	0x1
 4070 0207 11       		.uleb128 0x11
 4071 0208 01       		.uleb128 0x1
 4072 0209 12       		.uleb128 0x12
 4073 020a 06       		.uleb128 0x6
 4074 020b 00       		.byte	0
 4075 020c 00       		.byte	0
 4076 020d 2A       		.uleb128 0x2a
 4077 020e 05       		.uleb128 0x5
 4078 020f 00       		.byte	0
 4079 0210 03       		.uleb128 0x3
 4080 0211 0E       		.uleb128 0xe
 4081 0212 3A       		.uleb128 0x3a
 4082 0213 0B       		.uleb128 0xb
 4083 0214 3B       		.uleb128 0x3b
 4084 0215 05       		.uleb128 0x5
 4085 0216 49       		.uleb128 0x49
 4086 0217 13       		.uleb128 0x13
 4087 0218 02       		.uleb128 0x2
 4088 0219 18       		.uleb128 0x18
 4089 021a 00       		.byte	0
 4090 021b 00       		.byte	0
 4091 021c 2B       		.uleb128 0x2b
 4092 021d 34       		.uleb128 0x34
 4093 021e 00       		.byte	0
 4094 021f 03       		.uleb128 0x3
 4095 0220 08       		.uleb128 0x8
 4096 0221 3A       		.uleb128 0x3a
 4097 0222 0B       		.uleb128 0xb
 4098 0223 3B       		.uleb128 0x3b
 4099 0224 05       		.uleb128 0x5
 4100 0225 49       		.uleb128 0x49
 4101 0226 13       		.uleb128 0x13
 4102 0227 00       		.byte	0
 4103 0228 00       		.byte	0
 4104 0229 2C       		.uleb128 0x2c
 4105 022a 34       		.uleb128 0x34
 4106 022b 00       		.byte	0
 4107 022c 03       		.uleb128 0x3
 4108 022d 0E       		.uleb128 0xe
 4109 022e 3A       		.uleb128 0x3a
 4110 022f 0B       		.uleb128 0xb
 4111 0230 3B       		.uleb128 0x3b
 4112 0231 05       		.uleb128 0x5
ARM GAS  C:\Users\ramanatg\AppData\Local\Temp\cciThAgf.s 			page 101


 4113 0232 49       		.uleb128 0x49
 4114 0233 13       		.uleb128 0x13
 4115 0234 1C       		.uleb128 0x1c
 4116 0235 0B       		.uleb128 0xb
 4117 0236 00       		.byte	0
 4118 0237 00       		.byte	0
 4119 0238 2D       		.uleb128 0x2d
 4120 0239 26       		.uleb128 0x26
 4121 023a 00       		.byte	0
 4122 023b 49       		.uleb128 0x49
 4123 023c 13       		.uleb128 0x13
 4124 023d 00       		.byte	0
 4125 023e 00       		.byte	0
 4126 023f 2E       		.uleb128 0x2e
 4127 0240 2E       		.uleb128 0x2e
 4128 0241 01       		.byte	0x1
 4129 0242 03       		.uleb128 0x3
 4130 0243 0E       		.uleb128 0xe
 4131 0244 3A       		.uleb128 0x3a
 4132 0245 0B       		.uleb128 0xb
 4133 0246 3B       		.uleb128 0x3b
 4134 0247 05       		.uleb128 0x5
 4135 0248 27       		.uleb128 0x27
 4136 0249 19       		.uleb128 0x19
 4137 024a 20       		.uleb128 0x20
 4138 024b 0B       		.uleb128 0xb
 4139 024c 01       		.uleb128 0x1
 4140 024d 13       		.uleb128 0x13
 4141 024e 00       		.byte	0
 4142 024f 00       		.byte	0
 4143 0250 2F       		.uleb128 0x2f
 4144 0251 05       		.uleb128 0x5
 4145 0252 00       		.byte	0
 4146 0253 03       		.uleb128 0x3
 4147 0254 0E       		.uleb128 0xe
 4148 0255 3A       		.uleb128 0x3a
 4149 0256 0B       		.uleb128 0xb
 4150 0257 3B       		.uleb128 0x3b
 4151 0258 05       		.uleb128 0x5
 4152 0259 49       		.uleb128 0x49
 4153 025a 13       		.uleb128 0x13
 4154 025b 00       		.byte	0
 4155 025c 00       		.byte	0
 4156 025d 30       		.uleb128 0x30
 4157 025e 34       		.uleb128 0x34
 4158 025f 00       		.byte	0
 4159 0260 03       		.uleb128 0x3
 4160 0261 0E       		.uleb128 0xe
 4161 0262 3A       		.uleb128 0x3a
 4162 0263 0B       		.uleb128 0xb
 4163 0264 3B       		.uleb128 0x3b
 4164 0265 05       		.uleb128 0x5
 4165 0266 49       		.uleb128 0x49
 4166 0267 13       		.uleb128 0x13
 4167 0268 00       		.byte	0
 4168 0269 00       		.byte	0
 4169 026a 31       		.uleb128 0x31
ARM GAS  C:\Users\ramanatg\AppData\Local\Temp\cciThAgf.s 			page 102


 4170 026b 34       		.uleb128 0x34
 4171 026c 00       		.byte	0
 4172 026d 03       		.uleb128 0x3
 4173 026e 08       		.uleb128 0x8
 4174 026f 3A       		.uleb128 0x3a
 4175 0270 0B       		.uleb128 0xb
 4176 0271 3B       		.uleb128 0x3b
 4177 0272 05       		.uleb128 0x5
 4178 0273 49       		.uleb128 0x49
 4179 0274 13       		.uleb128 0x13
 4180 0275 02       		.uleb128 0x2
 4181 0276 17       		.uleb128 0x17
 4182 0277 00       		.byte	0
 4183 0278 00       		.byte	0
 4184 0279 32       		.uleb128 0x32
 4185 027a 1D       		.uleb128 0x1d
 4186 027b 01       		.byte	0x1
 4187 027c 31       		.uleb128 0x31
 4188 027d 13       		.uleb128 0x13
 4189 027e 52       		.uleb128 0x52
 4190 027f 01       		.uleb128 0x1
 4191 0280 55       		.uleb128 0x55
 4192 0281 17       		.uleb128 0x17
 4193 0282 58       		.uleb128 0x58
 4194 0283 0B       		.uleb128 0xb
 4195 0284 59       		.uleb128 0x59
 4196 0285 05       		.uleb128 0x5
 4197 0286 01       		.uleb128 0x1
 4198 0287 13       		.uleb128 0x13
 4199 0288 00       		.byte	0
 4200 0289 00       		.byte	0
 4201 028a 33       		.uleb128 0x33
 4202 028b 05       		.uleb128 0x5
 4203 028c 00       		.byte	0
 4204 028d 31       		.uleb128 0x31
 4205 028e 13       		.uleb128 0x13
 4206 028f 02       		.uleb128 0x2
 4207 0290 17       		.uleb128 0x17
 4208 0291 00       		.byte	0
 4209 0292 00       		.byte	0
 4210 0293 34       		.uleb128 0x34
 4211 0294 0B       		.uleb128 0xb
 4212 0295 01       		.byte	0x1
 4213 0296 55       		.uleb128 0x55
 4214 0297 17       		.uleb128 0x17
 4215 0298 00       		.byte	0
 4216 0299 00       		.byte	0
 4217 029a 35       		.uleb128 0x35
 4218 029b 34       		.uleb128 0x34
 4219 029c 00       		.byte	0
 4220 029d 31       		.uleb128 0x31
 4221 029e 13       		.uleb128 0x13
 4222 029f 02       		.uleb128 0x2
 4223 02a0 17       		.uleb128 0x17
 4224 02a1 00       		.byte	0
 4225 02a2 00       		.byte	0
 4226 02a3 36       		.uleb128 0x36
ARM GAS  C:\Users\ramanatg\AppData\Local\Temp\cciThAgf.s 			page 103


 4227 02a4 1D       		.uleb128 0x1d
 4228 02a5 01       		.byte	0x1
 4229 02a6 31       		.uleb128 0x31
 4230 02a7 13       		.uleb128 0x13
 4231 02a8 52       		.uleb128 0x52
 4232 02a9 01       		.uleb128 0x1
 4233 02aa 55       		.uleb128 0x55
 4234 02ab 17       		.uleb128 0x17
 4235 02ac 58       		.uleb128 0x58
 4236 02ad 0B       		.uleb128 0xb
 4237 02ae 59       		.uleb128 0x59
 4238 02af 05       		.uleb128 0x5
 4239 02b0 00       		.byte	0
 4240 02b1 00       		.byte	0
 4241 02b2 37       		.uleb128 0x37
 4242 02b3 05       		.uleb128 0x5
 4243 02b4 00       		.byte	0
 4244 02b5 03       		.uleb128 0x3
 4245 02b6 08       		.uleb128 0x8
 4246 02b7 3A       		.uleb128 0x3a
 4247 02b8 0B       		.uleb128 0xb
 4248 02b9 3B       		.uleb128 0x3b
 4249 02ba 05       		.uleb128 0x5
 4250 02bb 49       		.uleb128 0x49
 4251 02bc 13       		.uleb128 0x13
 4252 02bd 02       		.uleb128 0x2
 4253 02be 17       		.uleb128 0x17
 4254 02bf 00       		.byte	0
 4255 02c0 00       		.byte	0
 4256 02c1 38       		.uleb128 0x38
 4257 02c2 05       		.uleb128 0x5
 4258 02c3 00       		.byte	0
 4259 02c4 03       		.uleb128 0x3
 4260 02c5 08       		.uleb128 0x8
 4261 02c6 3A       		.uleb128 0x3a
 4262 02c7 0B       		.uleb128 0xb
 4263 02c8 3B       		.uleb128 0x3b
 4264 02c9 05       		.uleb128 0x5
 4265 02ca 49       		.uleb128 0x49
 4266 02cb 13       		.uleb128 0x13
 4267 02cc 02       		.uleb128 0x2
 4268 02cd 18       		.uleb128 0x18
 4269 02ce 00       		.byte	0
 4270 02cf 00       		.byte	0
 4271 02d0 39       		.uleb128 0x39
 4272 02d1 34       		.uleb128 0x34
 4273 02d2 00       		.byte	0
 4274 02d3 03       		.uleb128 0x3
 4275 02d4 0E       		.uleb128 0xe
 4276 02d5 3A       		.uleb128 0x3a
 4277 02d6 0B       		.uleb128 0xb
 4278 02d7 3B       		.uleb128 0x3b
 4279 02d8 0B       		.uleb128 0xb
 4280 02d9 49       		.uleb128 0x49
 4281 02da 13       		.uleb128 0x13
 4282 02db 02       		.uleb128 0x2
 4283 02dc 18       		.uleb128 0x18
ARM GAS  C:\Users\ramanatg\AppData\Local\Temp\cciThAgf.s 			page 104


 4284 02dd 00       		.byte	0
 4285 02de 00       		.byte	0
 4286 02df 3A       		.uleb128 0x3a
 4287 02e0 34       		.uleb128 0x34
 4288 02e1 00       		.byte	0
 4289 02e2 03       		.uleb128 0x3
 4290 02e3 0E       		.uleb128 0xe
 4291 02e4 3A       		.uleb128 0x3a
 4292 02e5 0B       		.uleb128 0xb
 4293 02e6 3B       		.uleb128 0x3b
 4294 02e7 0B       		.uleb128 0xb
 4295 02e8 49       		.uleb128 0x49
 4296 02e9 13       		.uleb128 0x13
 4297 02ea 3F       		.uleb128 0x3f
 4298 02eb 19       		.uleb128 0x19
 4299 02ec 02       		.uleb128 0x2
 4300 02ed 18       		.uleb128 0x18
 4301 02ee 00       		.byte	0
 4302 02ef 00       		.byte	0
 4303 02f0 3B       		.uleb128 0x3b
 4304 02f1 34       		.uleb128 0x34
 4305 02f2 00       		.byte	0
 4306 02f3 03       		.uleb128 0x3
 4307 02f4 0E       		.uleb128 0xe
 4308 02f5 3A       		.uleb128 0x3a
 4309 02f6 0B       		.uleb128 0xb
 4310 02f7 3B       		.uleb128 0x3b
 4311 02f8 05       		.uleb128 0x5
 4312 02f9 49       		.uleb128 0x49
 4313 02fa 13       		.uleb128 0x13
 4314 02fb 3F       		.uleb128 0x3f
 4315 02fc 19       		.uleb128 0x19
 4316 02fd 3C       		.uleb128 0x3c
 4317 02fe 19       		.uleb128 0x19
 4318 02ff 00       		.byte	0
 4319 0300 00       		.byte	0
 4320 0301 3C       		.uleb128 0x3c
 4321 0302 34       		.uleb128 0x34
 4322 0303 00       		.byte	0
 4323 0304 03       		.uleb128 0x3
 4324 0305 0E       		.uleb128 0xe
 4325 0306 3A       		.uleb128 0x3a
 4326 0307 0B       		.uleb128 0xb
 4327 0308 3B       		.uleb128 0x3b
 4328 0309 0B       		.uleb128 0xb
 4329 030a 49       		.uleb128 0x49
 4330 030b 13       		.uleb128 0x13
 4331 030c 3F       		.uleb128 0x3f
 4332 030d 19       		.uleb128 0x19
 4333 030e 3C       		.uleb128 0x3c
 4334 030f 19       		.uleb128 0x19
 4335 0310 00       		.byte	0
 4336 0311 00       		.byte	0
 4337 0312 3D       		.uleb128 0x3d
 4338 0313 2E       		.uleb128 0x2e
 4339 0314 00       		.byte	0
 4340 0315 3F       		.uleb128 0x3f
ARM GAS  C:\Users\ramanatg\AppData\Local\Temp\cciThAgf.s 			page 105


 4341 0316 19       		.uleb128 0x19
 4342 0317 03       		.uleb128 0x3
 4343 0318 0E       		.uleb128 0xe
 4344 0319 3A       		.uleb128 0x3a
 4345 031a 0B       		.uleb128 0xb
 4346 031b 3B       		.uleb128 0x3b
 4347 031c 0B       		.uleb128 0xb
 4348 031d 27       		.uleb128 0x27
 4349 031e 19       		.uleb128 0x19
 4350 031f 3C       		.uleb128 0x3c
 4351 0320 19       		.uleb128 0x19
 4352 0321 00       		.byte	0
 4353 0322 00       		.byte	0
 4354 0323 3E       		.uleb128 0x3e
 4355 0324 2E       		.uleb128 0x2e
 4356 0325 01       		.byte	0x1
 4357 0326 3F       		.uleb128 0x3f
 4358 0327 19       		.uleb128 0x19
 4359 0328 03       		.uleb128 0x3
 4360 0329 0E       		.uleb128 0xe
 4361 032a 3A       		.uleb128 0x3a
 4362 032b 0B       		.uleb128 0xb
 4363 032c 3B       		.uleb128 0x3b
 4364 032d 05       		.uleb128 0x5
 4365 032e 27       		.uleb128 0x27
 4366 032f 19       		.uleb128 0x19
 4367 0330 49       		.uleb128 0x49
 4368 0331 13       		.uleb128 0x13
 4369 0332 3C       		.uleb128 0x3c
 4370 0333 19       		.uleb128 0x19
 4371 0334 01       		.uleb128 0x1
 4372 0335 13       		.uleb128 0x13
 4373 0336 00       		.byte	0
 4374 0337 00       		.byte	0
 4375 0338 3F       		.uleb128 0x3f
 4376 0339 2E       		.uleb128 0x2e
 4377 033a 01       		.byte	0x1
 4378 033b 3F       		.uleb128 0x3f
 4379 033c 19       		.uleb128 0x19
 4380 033d 03       		.uleb128 0x3
 4381 033e 0E       		.uleb128 0xe
 4382 033f 27       		.uleb128 0x27
 4383 0340 19       		.uleb128 0x19
 4384 0341 49       		.uleb128 0x49
 4385 0342 13       		.uleb128 0x13
 4386 0343 34       		.uleb128 0x34
 4387 0344 19       		.uleb128 0x19
 4388 0345 3C       		.uleb128 0x3c
 4389 0346 19       		.uleb128 0x19
 4390 0347 01       		.uleb128 0x1
 4391 0348 13       		.uleb128 0x13
 4392 0349 00       		.byte	0
 4393 034a 00       		.byte	0
 4394 034b 40       		.uleb128 0x40
 4395 034c 2E       		.uleb128 0x2e
 4396 034d 00       		.byte	0
 4397 034e 3F       		.uleb128 0x3f
ARM GAS  C:\Users\ramanatg\AppData\Local\Temp\cciThAgf.s 			page 106


 4398 034f 19       		.uleb128 0x19
 4399 0350 03       		.uleb128 0x3
 4400 0351 0E       		.uleb128 0xe
 4401 0352 3A       		.uleb128 0x3a
 4402 0353 0B       		.uleb128 0xb
 4403 0354 3B       		.uleb128 0x3b
 4404 0355 05       		.uleb128 0x5
 4405 0356 27       		.uleb128 0x27
 4406 0357 19       		.uleb128 0x19
 4407 0358 3C       		.uleb128 0x3c
 4408 0359 19       		.uleb128 0x19
 4409 035a 00       		.byte	0
 4410 035b 00       		.byte	0
 4411 035c 41       		.uleb128 0x41
 4412 035d 2E       		.uleb128 0x2e
 4413 035e 01       		.byte	0x1
 4414 035f 3F       		.uleb128 0x3f
 4415 0360 19       		.uleb128 0x19
 4416 0361 03       		.uleb128 0x3
 4417 0362 0E       		.uleb128 0xe
 4418 0363 3A       		.uleb128 0x3a
 4419 0364 0B       		.uleb128 0xb
 4420 0365 3B       		.uleb128 0x3b
 4421 0366 0B       		.uleb128 0xb
 4422 0367 27       		.uleb128 0x27
 4423 0368 19       		.uleb128 0x19
 4424 0369 49       		.uleb128 0x49
 4425 036a 13       		.uleb128 0x13
 4426 036b 3C       		.uleb128 0x3c
 4427 036c 19       		.uleb128 0x19
 4428 036d 01       		.uleb128 0x1
 4429 036e 13       		.uleb128 0x13
 4430 036f 00       		.byte	0
 4431 0370 00       		.byte	0
 4432 0371 00       		.byte	0
 4433              		.section	.debug_loc,"",%progbits
 4434              	.Ldebug_loc0:
 4435              	.LLST0:
 4436 0000 00000000 		.4byte	.LVL2
 4437 0004 0A000000 		.4byte	.LVL3
 4438 0008 0100     		.2byte	0x1
 4439 000a 50       		.byte	0x50
 4440 000b 0A000000 		.4byte	.LVL3
 4441 000f 4A000000 		.4byte	.LVL7
 4442 0013 0100     		.2byte	0x1
 4443 0015 55       		.byte	0x55
 4444 0016 4A000000 		.4byte	.LVL7
 4445 001a 4C000000 		.4byte	.LVL8
 4446 001e 0400     		.2byte	0x4
 4447 0020 F3       		.byte	0xf3
 4448 0021 01       		.uleb128 0x1
 4449 0022 50       		.byte	0x50
 4450 0023 9F       		.byte	0x9f
 4451 0024 4C000000 		.4byte	.LVL8
 4452 0028 D8000000 		.4byte	.LFE4
 4453 002c 0100     		.2byte	0x1
 4454 002e 55       		.byte	0x55
ARM GAS  C:\Users\ramanatg\AppData\Local\Temp\cciThAgf.s 			page 107


 4455 002f 00000000 		.4byte	0
 4456 0033 00000000 		.4byte	0
 4457              	.LLST1:
 4458 0037 00000000 		.4byte	.LVL2
 4459 003b 44000000 		.4byte	.LVL5
 4460 003f 0200     		.2byte	0x2
 4461 0041 30       		.byte	0x30
 4462 0042 9F       		.byte	0x9f
 4463 0043 44000000 		.4byte	.LVL5
 4464 0047 56000000 		.4byte	.LVL9
 4465 004b 0100     		.2byte	0x1
 4466 004d 50       		.byte	0x50
 4467 004e 66000000 		.4byte	.LVL10
 4468 0052 74000000 		.4byte	.LVL11
 4469 0056 0100     		.2byte	0x1
 4470 0058 50       		.byte	0x50
 4471 0059 7A000000 		.4byte	.LVL12
 4472 005d 7C000000 		.4byte	.LVL13
 4473 0061 0100     		.2byte	0x1
 4474 0063 50       		.byte	0x50
 4475 0064 7C000000 		.4byte	.LVL13
 4476 0068 D8000000 		.4byte	.LFE4
 4477 006c 0200     		.2byte	0x2
 4478 006e 30       		.byte	0x30
 4479 006f 9F       		.byte	0x9f
 4480 0070 00000000 		.4byte	0
 4481 0074 00000000 		.4byte	0
 4482              	.LLST2:
 4483 0078 00000000 		.4byte	.LVL16
 4484 007c 10000000 		.4byte	.LVL17
 4485 0080 0100     		.2byte	0x1
 4486 0082 50       		.byte	0x50
 4487 0083 10000000 		.4byte	.LVL17
 4488 0087 70000000 		.4byte	.LVL25
 4489 008b 0400     		.2byte	0x4
 4490 008d F3       		.byte	0xf3
 4491 008e 01       		.uleb128 0x1
 4492 008f 50       		.byte	0x50
 4493 0090 9F       		.byte	0x9f
 4494 0091 70000000 		.4byte	.LVL25
 4495 0095 73000000 		.4byte	.LVL26-1
 4496 0099 0100     		.2byte	0x1
 4497 009b 50       		.byte	0x50
 4498 009c 73000000 		.4byte	.LVL26-1
 4499 00a0 E4000000 		.4byte	.LFE6
 4500 00a4 0400     		.2byte	0x4
 4501 00a6 F3       		.byte	0xf3
 4502 00a7 01       		.uleb128 0x1
 4503 00a8 50       		.byte	0x50
 4504 00a9 9F       		.byte	0x9f
 4505 00aa 00000000 		.4byte	0
 4506 00ae 00000000 		.4byte	0
 4507              	.LLST3:
 4508 00b2 00000000 		.4byte	.LVL16
 4509 00b6 16000000 		.4byte	.LVL18
 4510 00ba 0200     		.2byte	0x2
 4511 00bc 30       		.byte	0x30
ARM GAS  C:\Users\ramanatg\AppData\Local\Temp\cciThAgf.s 			page 108


 4512 00bd 9F       		.byte	0x9f
 4513 00be 36000000 		.4byte	.LVL19
 4514 00c2 40000000 		.4byte	.LVL20
 4515 00c6 0100     		.2byte	0x1
 4516 00c8 50       		.byte	0x50
 4517 00c9 44000000 		.4byte	.LVL21
 4518 00cd 4C000000 		.4byte	.LVL22
 4519 00d1 0200     		.2byte	0x2
 4520 00d3 30       		.byte	0x30
 4521 00d4 9F       		.byte	0x9f
 4522 00d5 62000000 		.4byte	.LVL23
 4523 00d9 6E000000 		.4byte	.LVL24
 4524 00dd 0100     		.2byte	0x1
 4525 00df 50       		.byte	0x50
 4526 00e0 6E000000 		.4byte	.LVL24
 4527 00e4 74000000 		.4byte	.LVL26
 4528 00e8 0200     		.2byte	0x2
 4529 00ea 30       		.byte	0x30
 4530 00eb 9F       		.byte	0x9f
 4531 00ec 74000000 		.4byte	.LVL26
 4532 00f0 9C000000 		.4byte	.LVL28
 4533 00f4 0100     		.2byte	0x1
 4534 00f6 50       		.byte	0x50
 4535 00f7 B6000000 		.4byte	.LVL29
 4536 00fb E4000000 		.4byte	.LFE6
 4537 00ff 0100     		.2byte	0x1
 4538 0101 50       		.byte	0x50
 4539 0102 00000000 		.4byte	0
 4540 0106 00000000 		.4byte	0
 4541              	.LLST4:
 4542 010a 00000000 		.4byte	.LVL30
 4543 010e 0C000000 		.4byte	.LVL31
 4544 0112 0100     		.2byte	0x1
 4545 0114 50       		.byte	0x50
 4546 0115 0C000000 		.4byte	.LVL31
 4547 0119 10000000 		.4byte	.LVL32
 4548 011d 0100     		.2byte	0x1
 4549 011f 51       		.byte	0x51
 4550 0120 10000000 		.4byte	.LVL32
 4551 0124 14000000 		.4byte	.LVL33
 4552 0128 0400     		.2byte	0x4
 4553 012a F3       		.byte	0xf3
 4554 012b 01       		.uleb128 0x1
 4555 012c 50       		.byte	0x50
 4556 012d 9F       		.byte	0x9f
 4557 012e 14000000 		.4byte	.LVL33
 4558 0132 1A000000 		.4byte	.LVL34
 4559 0136 0100     		.2byte	0x1
 4560 0138 51       		.byte	0x51
 4561 0139 1A000000 		.4byte	.LVL34
 4562 013d 68000000 		.4byte	.LFE7
 4563 0141 0100     		.2byte	0x1
 4564 0143 54       		.byte	0x54
 4565 0144 00000000 		.4byte	0
 4566 0148 00000000 		.4byte	0
 4567              	.LLST5:
 4568 014c 00000000 		.4byte	.LVL30
ARM GAS  C:\Users\ramanatg\AppData\Local\Temp\cciThAgf.s 			page 109


 4569 0150 10000000 		.4byte	.LVL32
 4570 0154 0200     		.2byte	0x2
 4571 0156 30       		.byte	0x30
 4572 0157 9F       		.byte	0x9f
 4573 0158 14000000 		.4byte	.LVL33
 4574 015c 3C000000 		.4byte	.LVL37
 4575 0160 0200     		.2byte	0x2
 4576 0162 30       		.byte	0x30
 4577 0163 9F       		.byte	0x9f
 4578 0164 3C000000 		.4byte	.LVL37
 4579 0168 3E000000 		.4byte	.LVL38
 4580 016c 0100     		.2byte	0x1
 4581 016e 50       		.byte	0x50
 4582 016f 3E000000 		.4byte	.LVL38
 4583 0173 48000000 		.4byte	.LVL39
 4584 0177 0200     		.2byte	0x2
 4585 0179 30       		.byte	0x30
 4586 017a 9F       		.byte	0x9f
 4587 017b 48000000 		.4byte	.LVL39
 4588 017f 68000000 		.4byte	.LFE7
 4589 0183 0100     		.2byte	0x1
 4590 0185 50       		.byte	0x50
 4591 0186 00000000 		.4byte	0
 4592 018a 00000000 		.4byte	0
 4593              	.LLST6:
 4594 018e 00000000 		.4byte	.LVL40
 4595 0192 06000000 		.4byte	.LVL41
 4596 0196 0100     		.2byte	0x1
 4597 0198 50       		.byte	0x50
 4598 0199 06000000 		.4byte	.LVL41
 4599 019d 70000000 		.4byte	.LFE8
 4600 01a1 0400     		.2byte	0x4
 4601 01a3 F3       		.byte	0xf3
 4602 01a4 01       		.uleb128 0x1
 4603 01a5 50       		.byte	0x50
 4604 01a6 9F       		.byte	0x9f
 4605 01a7 00000000 		.4byte	0
 4606 01ab 00000000 		.4byte	0
 4607              	.LLST7:
 4608 01af 16000000 		.4byte	.LVL42
 4609 01b3 18000000 		.4byte	.LVL43
 4610 01b7 0100     		.2byte	0x1
 4611 01b9 50       		.byte	0x50
 4612 01ba 3A000000 		.4byte	.LVL44
 4613 01be 48000000 		.4byte	.LVL45
 4614 01c2 0100     		.2byte	0x1
 4615 01c4 50       		.byte	0x50
 4616 01c5 00000000 		.4byte	0
 4617 01c9 00000000 		.4byte	0
 4618              	.LLST8:
 4619 01cd 00000000 		.4byte	.LVL48
 4620 01d1 FE000000 		.4byte	.LVL97
 4621 01d5 0100     		.2byte	0x1
 4622 01d7 50       		.byte	0x50
 4623 01d8 FE000000 		.4byte	.LVL97
 4624 01dc 02010000 		.4byte	.LVL99
 4625 01e0 0400     		.2byte	0x4
ARM GAS  C:\Users\ramanatg\AppData\Local\Temp\cciThAgf.s 			page 110


 4626 01e2 F3       		.byte	0xf3
 4627 01e3 01       		.uleb128 0x1
 4628 01e4 50       		.byte	0x50
 4629 01e5 9F       		.byte	0x9f
 4630 01e6 02010000 		.4byte	.LVL99
 4631 01ea 0C010000 		.4byte	.LVL102
 4632 01ee 0100     		.2byte	0x1
 4633 01f0 50       		.byte	0x50
 4634 01f1 0C010000 		.4byte	.LVL102
 4635 01f5 1C010000 		.4byte	.LVL105
 4636 01f9 0400     		.2byte	0x4
 4637 01fb F3       		.byte	0xf3
 4638 01fc 01       		.uleb128 0x1
 4639 01fd 50       		.byte	0x50
 4640 01fe 9F       		.byte	0x9f
 4641 01ff 1C010000 		.4byte	.LVL105
 4642 0203 2E010000 		.4byte	.LVL109
 4643 0207 0100     		.2byte	0x1
 4644 0209 50       		.byte	0x50
 4645 020a 2E010000 		.4byte	.LVL109
 4646 020e 3C010000 		.4byte	.LFE12
 4647 0212 0400     		.2byte	0x4
 4648 0214 F3       		.byte	0xf3
 4649 0215 01       		.uleb128 0x1
 4650 0216 50       		.byte	0x50
 4651 0217 9F       		.byte	0x9f
 4652 0218 00000000 		.4byte	0
 4653 021c 00000000 		.4byte	0
 4654              	.LLST9:
 4655 0220 00000000 		.4byte	.LVL48
 4656 0224 00010000 		.4byte	.LVL98
 4657 0228 0200     		.2byte	0x2
 4658 022a 30       		.byte	0x30
 4659 022b 9F       		.byte	0x9f
 4660 022c 02010000 		.4byte	.LVL99
 4661 0230 3C010000 		.4byte	.LFE12
 4662 0234 0200     		.2byte	0x2
 4663 0236 30       		.byte	0x30
 4664 0237 9F       		.byte	0x9f
 4665 0238 00000000 		.4byte	0
 4666 023c 00000000 		.4byte	0
 4667              	.LLST10:
 4668 0240 1E000000 		.4byte	.LVL49
 4669 0244 32000000 		.4byte	.LVL53
 4670 0248 0200     		.2byte	0x2
 4671 024a 30       		.byte	0x30
 4672 024b 9F       		.byte	0x9f
 4673 024c 32000000 		.4byte	.LVL53
 4674 0250 34000000 		.4byte	.LVL54
 4675 0254 0300     		.2byte	0x3
 4676 0256 73       		.byte	0x73
 4677 0257 01       		.sleb128 1
 4678 0258 9F       		.byte	0x9f
 4679 0259 3A000000 		.4byte	.LVL55
 4680 025d 3C000000 		.4byte	.LVL56
 4681 0261 0100     		.2byte	0x1
 4682 0263 53       		.byte	0x53
ARM GAS  C:\Users\ramanatg\AppData\Local\Temp\cciThAgf.s 			page 111


 4683 0264 3C000000 		.4byte	.LVL56
 4684 0268 40000000 		.4byte	.LVL57
 4685 026c 0300     		.2byte	0x3
 4686 026e 73       		.byte	0x73
 4687 026f 01       		.sleb128 1
 4688 0270 9F       		.byte	0x9f
 4689 0271 02010000 		.4byte	.LVL99
 4690 0275 04010000 		.4byte	.LVL100
 4691 0279 0200     		.2byte	0x2
 4692 027b 30       		.byte	0x30
 4693 027c 9F       		.byte	0x9f
 4694 027d 00000000 		.4byte	0
 4695 0281 00000000 		.4byte	0
 4696              	.LLST11:
 4697 0285 1E000000 		.4byte	.LVL49
 4698 0289 4C000000 		.4byte	.LVL59
 4699 028d 0100     		.2byte	0x1
 4700 028f 54       		.byte	0x54
 4701 0290 02010000 		.4byte	.LVL99
 4702 0294 0A010000 		.4byte	.LVL101
 4703 0298 0100     		.2byte	0x1
 4704 029a 54       		.byte	0x54
 4705 029b 00000000 		.4byte	0
 4706 029f 00000000 		.4byte	0
 4707              	.LLST12:
 4708 02a3 1E000000 		.4byte	.LVL49
 4709 02a7 2C000000 		.4byte	.LVL50
 4710 02ab 0100     		.2byte	0x1
 4711 02ad 51       		.byte	0x51
 4712 02ae 2C000000 		.4byte	.LVL50
 4713 02b2 2E000000 		.4byte	.LVL51
 4714 02b6 0300     		.2byte	0x3
 4715 02b8 71       		.byte	0x71
 4716 02b9 01       		.sleb128 1
 4717 02ba 9F       		.byte	0x9f
 4718 02bb 2E000000 		.4byte	.LVL51
 4719 02bf 30000000 		.4byte	.LVL52
 4720 02c3 0200     		.2byte	0x2
 4721 02c5 73       		.byte	0x73
 4722 02c6 0C       		.sleb128 12
 4723 02c7 02010000 		.4byte	.LVL99
 4724 02cb 04010000 		.4byte	.LVL100
 4725 02cf 0100     		.2byte	0x1
 4726 02d1 51       		.byte	0x51
 4727 02d2 00000000 		.4byte	0
 4728 02d6 00000000 		.4byte	0
 4729              	.LLST13:
 4730 02da 40000000 		.4byte	.LVL57
 4731 02de 00010000 		.4byte	.LVL98
 4732 02e2 0200     		.2byte	0x2
 4733 02e4 30       		.byte	0x30
 4734 02e5 9F       		.byte	0x9f
 4735 02e6 0A010000 		.4byte	.LVL101
 4736 02ea 2C010000 		.4byte	.LVL108
 4737 02ee 0200     		.2byte	0x2
 4738 02f0 30       		.byte	0x30
 4739 02f1 9F       		.byte	0x9f
ARM GAS  C:\Users\ramanatg\AppData\Local\Temp\cciThAgf.s 			page 112


 4740 02f2 00000000 		.4byte	0
 4741 02f6 00000000 		.4byte	0
 4742              	.LLST14:
 4743 02fa 40000000 		.4byte	.LVL57
 4744 02fe FE000000 		.4byte	.LVL97
 4745 0302 0100     		.2byte	0x1
 4746 0304 50       		.byte	0x50
 4747 0305 FE000000 		.4byte	.LVL97
 4748 0309 00010000 		.4byte	.LVL98
 4749 030d 0400     		.2byte	0x4
 4750 030f F3       		.byte	0xf3
 4751 0310 01       		.uleb128 0x1
 4752 0311 50       		.byte	0x50
 4753 0312 9F       		.byte	0x9f
 4754 0313 0A010000 		.4byte	.LVL101
 4755 0317 0C010000 		.4byte	.LVL102
 4756 031b 0100     		.2byte	0x1
 4757 031d 50       		.byte	0x50
 4758 031e 0C010000 		.4byte	.LVL102
 4759 0322 1C010000 		.4byte	.LVL105
 4760 0326 0400     		.2byte	0x4
 4761 0328 F3       		.byte	0xf3
 4762 0329 01       		.uleb128 0x1
 4763 032a 50       		.byte	0x50
 4764 032b 9F       		.byte	0x9f
 4765 032c 1C010000 		.4byte	.LVL105
 4766 0330 2C010000 		.4byte	.LVL108
 4767 0334 0100     		.2byte	0x1
 4768 0336 50       		.byte	0x50
 4769 0337 00000000 		.4byte	0
 4770 033b 00000000 		.4byte	0
 4771              	.LLST15:
 4772 033f 7C000000 		.4byte	.LVL72
 4773 0343 96000000 		.4byte	.LVL75
 4774 0347 0100     		.2byte	0x1
 4775 0349 53       		.byte	0x53
 4776 034a 98000000 		.4byte	.LVL76
 4777 034e 9E000000 		.4byte	.LVL77
 4778 0352 0100     		.2byte	0x1
 4779 0354 53       		.byte	0x53
 4780 0355 1C010000 		.4byte	.LVL105
 4781 0359 22010000 		.4byte	.LVL106
 4782 035d 0100     		.2byte	0x1
 4783 035f 53       		.byte	0x53
 4784 0360 24010000 		.4byte	.LVL107
 4785 0364 2C010000 		.4byte	.LVL108
 4786 0368 0100     		.2byte	0x1
 4787 036a 53       		.byte	0x53
 4788 036b 00000000 		.4byte	0
 4789 036f 00000000 		.4byte	0
 4790              	.LLST16:
 4791 0373 40000000 		.4byte	.LVL57
 4792 0377 74000000 		.4byte	.LVL68
 4793 037b 0200     		.2byte	0x2
 4794 037d 30       		.byte	0x30
 4795 037e 9F       		.byte	0x9f
 4796 037f 74000000 		.4byte	.LVL68
ARM GAS  C:\Users\ramanatg\AppData\Local\Temp\cciThAgf.s 			page 113


 4797 0383 9E000000 		.4byte	.LVL77
 4798 0387 0200     		.2byte	0x2
 4799 0389 31       		.byte	0x31
 4800 038a 9F       		.byte	0x9f
 4801 038b 1C010000 		.4byte	.LVL105
 4802 038f 2C010000 		.4byte	.LVL108
 4803 0393 0200     		.2byte	0x2
 4804 0395 31       		.byte	0x31
 4805 0396 9F       		.byte	0x9f
 4806 0397 00000000 		.4byte	0
 4807 039b 00000000 		.4byte	0
 4808              	.LLST17:
 4809 039f 40000000 		.4byte	.LVL57
 4810 03a3 4C000000 		.4byte	.LVL59
 4811 03a7 0200     		.2byte	0x2
 4812 03a9 30       		.byte	0x30
 4813 03aa 9F       		.byte	0x9f
 4814 03ab 4C000000 		.4byte	.LVL59
 4815 03af 60000000 		.4byte	.LVL63
 4816 03b3 0100     		.2byte	0x1
 4817 03b5 54       		.byte	0x54
 4818 03b6 60000000 		.4byte	.LVL63
 4819 03ba 62000000 		.4byte	.LVL64
 4820 03be 0200     		.2byte	0x2
 4821 03c0 71       		.byte	0x71
 4822 03c1 14       		.sleb128 20
 4823 03c2 62000000 		.4byte	.LVL64
 4824 03c6 76000000 		.4byte	.LVL69
 4825 03ca 0100     		.2byte	0x1
 4826 03cc 54       		.byte	0x54
 4827 03cd 7A000000 		.4byte	.LVL71
 4828 03d1 9E000000 		.4byte	.LVL77
 4829 03d5 0100     		.2byte	0x1
 4830 03d7 54       		.byte	0x54
 4831 03d8 1C010000 		.4byte	.LVL105
 4832 03dc 2C010000 		.4byte	.LVL108
 4833 03e0 0100     		.2byte	0x1
 4834 03e2 54       		.byte	0x54
 4835 03e3 00000000 		.4byte	0
 4836 03e7 00000000 		.4byte	0
 4837              	.LLST18:
 4838 03eb 40000000 		.4byte	.LVL57
 4839 03ef 56000000 		.4byte	.LVL60
 4840 03f3 0200     		.2byte	0x2
 4841 03f5 30       		.byte	0x30
 4842 03f6 9F       		.byte	0x9f
 4843 03f7 56000000 		.4byte	.LVL60
 4844 03fb 58000000 		.4byte	.LVL61
 4845 03ff 0100     		.2byte	0x1
 4846 0401 53       		.byte	0x53
 4847 0402 5A000000 		.4byte	.LVL62
 4848 0406 68000000 		.4byte	.LVL66
 4849 040a 0100     		.2byte	0x1
 4850 040c 53       		.byte	0x53
 4851 040d 6A000000 		.4byte	.LVL67
 4852 0411 78000000 		.4byte	.LVL70
 4853 0415 0100     		.2byte	0x1
ARM GAS  C:\Users\ramanatg\AppData\Local\Temp\cciThAgf.s 			page 114


 4854 0417 53       		.byte	0x53
 4855 0418 78000000 		.4byte	.LVL70
 4856 041c 7C000000 		.4byte	.LVL72
 4857 0420 0300     		.2byte	0x3
 4858 0422 73       		.byte	0x73
 4859 0423 7F       		.sleb128 -1
 4860 0424 9F       		.byte	0x9f
 4861 0425 7C000000 		.4byte	.LVL72
 4862 0429 8A000000 		.4byte	.LVL74
 4863 042d 0100     		.2byte	0x1
 4864 042f 53       		.byte	0x53
 4865 0430 8A000000 		.4byte	.LVL74
 4866 0434 9E000000 		.4byte	.LVL77
 4867 0438 0100     		.2byte	0x1
 4868 043a 56       		.byte	0x56
 4869 043b 1C010000 		.4byte	.LVL105
 4870 043f 2C010000 		.4byte	.LVL108
 4871 0443 0100     		.2byte	0x1
 4872 0445 56       		.byte	0x56
 4873 0446 00000000 		.4byte	0
 4874 044a 00000000 		.4byte	0
 4875              	.LLST19:
 4876 044e 40000000 		.4byte	.LVL57
 4877 0452 00010000 		.4byte	.LVL98
 4878 0456 0600     		.2byte	0x6
 4879 0458 03       		.byte	0x3
 4880 0459 00000000 		.4byte	cyBle_discoveryData
 4881 045d 9F       		.byte	0x9f
 4882 045e 0A010000 		.4byte	.LVL101
 4883 0462 2C010000 		.4byte	.LVL108
 4884 0466 0600     		.2byte	0x6
 4885 0468 03       		.byte	0x3
 4886 0469 00000000 		.4byte	cyBle_discoveryData
 4887 046d 9F       		.byte	0x9f
 4888 046e 00000000 		.4byte	0
 4889 0472 00000000 		.4byte	0
 4890              	.LLST20:
 4891 0476 46000000 		.4byte	.LVL58
 4892 047a 84000000 		.4byte	.LVL73
 4893 047e 0100     		.2byte	0x1
 4894 0480 56       		.byte	0x56
 4895 0481 84000000 		.4byte	.LVL73
 4896 0485 8A000000 		.4byte	.LVL74
 4897 0489 0200     		.2byte	0x2
 4898 048b 72       		.byte	0x72
 4899 048c 33       		.sleb128 51
 4900 048d 00000000 		.4byte	0
 4901 0491 00000000 		.4byte	0
 4902              	.LLST21:
 4903 0495 9E000000 		.4byte	.LVL77
 4904 0499 00010000 		.4byte	.LVL98
 4905 049d 0200     		.2byte	0x2
 4906 049f 31       		.byte	0x31
 4907 04a0 9F       		.byte	0x9f
 4908 04a1 0A010000 		.4byte	.LVL101
 4909 04a5 1C010000 		.4byte	.LVL105
 4910 04a9 0200     		.2byte	0x2
ARM GAS  C:\Users\ramanatg\AppData\Local\Temp\cciThAgf.s 			page 115


 4911 04ab 31       		.byte	0x31
 4912 04ac 9F       		.byte	0x9f
 4913 04ad 00000000 		.4byte	0
 4914 04b1 00000000 		.4byte	0
 4915              	.LLST22:
 4916 04b5 9E000000 		.4byte	.LVL77
 4917 04b9 FE000000 		.4byte	.LVL97
 4918 04bd 0100     		.2byte	0x1
 4919 04bf 50       		.byte	0x50
 4920 04c0 FE000000 		.4byte	.LVL97
 4921 04c4 00010000 		.4byte	.LVL98
 4922 04c8 0400     		.2byte	0x4
 4923 04ca F3       		.byte	0xf3
 4924 04cb 01       		.uleb128 0x1
 4925 04cc 50       		.byte	0x50
 4926 04cd 9F       		.byte	0x9f
 4927 04ce 0A010000 		.4byte	.LVL101
 4928 04d2 0C010000 		.4byte	.LVL102
 4929 04d6 0100     		.2byte	0x1
 4930 04d8 50       		.byte	0x50
 4931 04d9 0C010000 		.4byte	.LVL102
 4932 04dd 1C010000 		.4byte	.LVL105
 4933 04e1 0400     		.2byte	0x4
 4934 04e3 F3       		.byte	0xf3
 4935 04e4 01       		.uleb128 0x1
 4936 04e5 50       		.byte	0x50
 4937 04e6 9F       		.byte	0x9f
 4938 04e7 00000000 		.4byte	0
 4939 04eb 00000000 		.4byte	0
 4940              	.LLST23:
 4941 04ef DA000000 		.4byte	.LVL92
 4942 04f3 F8000000 		.4byte	.LVL95
 4943 04f7 0100     		.2byte	0x1
 4944 04f9 53       		.byte	0x53
 4945 04fa FA000000 		.4byte	.LVL96
 4946 04fe FE000000 		.4byte	.LVL97
 4947 0502 0100     		.2byte	0x1
 4948 0504 53       		.byte	0x53
 4949 0505 0A010000 		.4byte	.LVL101
 4950 0509 14010000 		.4byte	.LVL103
 4951 050d 0100     		.2byte	0x1
 4952 050f 53       		.byte	0x53
 4953 0510 16010000 		.4byte	.LVL104
 4954 0514 1C010000 		.4byte	.LVL105
 4955 0518 0100     		.2byte	0x1
 4956 051a 53       		.byte	0x53
 4957 051b 00000000 		.4byte	0
 4958 051f 00000000 		.4byte	0
 4959              	.LLST24:
 4960 0523 9E000000 		.4byte	.LVL77
 4961 0527 D2000000 		.4byte	.LVL88
 4962 052b 0200     		.2byte	0x2
 4963 052d 30       		.byte	0x30
 4964 052e 9F       		.byte	0x9f
 4965 052f D2000000 		.4byte	.LVL88
 4966 0533 FE000000 		.4byte	.LVL97
 4967 0537 0200     		.2byte	0x2
ARM GAS  C:\Users\ramanatg\AppData\Local\Temp\cciThAgf.s 			page 116


 4968 0539 31       		.byte	0x31
 4969 053a 9F       		.byte	0x9f
 4970 053b 0A010000 		.4byte	.LVL101
 4971 053f 1C010000 		.4byte	.LVL105
 4972 0543 0200     		.2byte	0x2
 4973 0545 31       		.byte	0x31
 4974 0546 9F       		.byte	0x9f
 4975 0547 00000000 		.4byte	0
 4976 054b 00000000 		.4byte	0
 4977              	.LLST25:
 4978 054f 9E000000 		.4byte	.LVL77
 4979 0553 AC000000 		.4byte	.LVL79
 4980 0557 0200     		.2byte	0x2
 4981 0559 30       		.byte	0x30
 4982 055a 9F       		.byte	0x9f
 4983 055b AC000000 		.4byte	.LVL79
 4984 055f BC000000 		.4byte	.LVL83
 4985 0563 0100     		.2byte	0x1
 4986 0565 54       		.byte	0x54
 4987 0566 BC000000 		.4byte	.LVL83
 4988 056a BE000000 		.4byte	.LVL84
 4989 056e 0500     		.2byte	0x5
 4990 0570 75       		.byte	0x75
 4991 0571 00       		.sleb128 0
 4992 0572 73       		.byte	0x73
 4993 0573 00       		.sleb128 0
 4994 0574 22       		.byte	0x22
 4995 0575 BE000000 		.4byte	.LVL84
 4996 0579 D4000000 		.4byte	.LVL89
 4997 057d 0100     		.2byte	0x1
 4998 057f 54       		.byte	0x54
 4999 0580 D8000000 		.4byte	.LVL91
 5000 0584 FE000000 		.4byte	.LVL97
 5001 0588 0100     		.2byte	0x1
 5002 058a 54       		.byte	0x54
 5003 058b 0A010000 		.4byte	.LVL101
 5004 058f 1C010000 		.4byte	.LVL105
 5005 0593 0100     		.2byte	0x1
 5006 0595 54       		.byte	0x54
 5007 0596 00000000 		.4byte	0
 5008 059a 00000000 		.4byte	0
 5009              	.LLST26:
 5010 059e 9E000000 		.4byte	.LVL77
 5011 05a2 B4000000 		.4byte	.LVL80
 5012 05a6 0200     		.2byte	0x2
 5013 05a8 30       		.byte	0x30
 5014 05a9 9F       		.byte	0x9f
 5015 05aa B4000000 		.4byte	.LVL80
 5016 05ae B6000000 		.4byte	.LVL81
 5017 05b2 0100     		.2byte	0x1
 5018 05b4 53       		.byte	0x53
 5019 05b5 B8000000 		.4byte	.LVL82
 5020 05b9 C6000000 		.4byte	.LVL86
 5021 05bd 0100     		.2byte	0x1
 5022 05bf 53       		.byte	0x53
 5023 05c0 C8000000 		.4byte	.LVL87
 5024 05c4 D6000000 		.4byte	.LVL90
ARM GAS  C:\Users\ramanatg\AppData\Local\Temp\cciThAgf.s 			page 117


 5025 05c8 0100     		.2byte	0x1
 5026 05ca 53       		.byte	0x53
 5027 05cb D6000000 		.4byte	.LVL90
 5028 05cf DA000000 		.4byte	.LVL92
 5029 05d3 0300     		.2byte	0x3
 5030 05d5 73       		.byte	0x73
 5031 05d6 7F       		.sleb128 -1
 5032 05d7 9F       		.byte	0x9f
 5033 05d8 DA000000 		.4byte	.LVL92
 5034 05dc E8000000 		.4byte	.LVL94
 5035 05e0 0100     		.2byte	0x1
 5036 05e2 53       		.byte	0x53
 5037 05e3 E8000000 		.4byte	.LVL94
 5038 05e7 FE000000 		.4byte	.LVL97
 5039 05eb 0100     		.2byte	0x1
 5040 05ed 56       		.byte	0x56
 5041 05ee 0A010000 		.4byte	.LVL101
 5042 05f2 1C010000 		.4byte	.LVL105
 5043 05f6 0100     		.2byte	0x1
 5044 05f8 56       		.byte	0x56
 5045 05f9 00000000 		.4byte	0
 5046 05fd 00000000 		.4byte	0
 5047              	.LLST27:
 5048 0601 9E000000 		.4byte	.LVL77
 5049 0605 00010000 		.4byte	.LVL98
 5050 0609 0600     		.2byte	0x6
 5051 060b 03       		.byte	0x3
 5052 060c 00000000 		.4byte	cyBle_scanRspData
 5053 0610 9F       		.byte	0x9f
 5054 0611 0A010000 		.4byte	.LVL101
 5055 0615 1C010000 		.4byte	.LVL105
 5056 0619 0600     		.2byte	0x6
 5057 061b 03       		.byte	0x3
 5058 061c 00000000 		.4byte	cyBle_scanRspData
 5059 0620 9F       		.byte	0x9f
 5060 0621 00000000 		.4byte	0
 5061 0625 00000000 		.4byte	0
 5062              	.LLST28:
 5063 0629 A4000000 		.4byte	.LVL78
 5064 062d E2000000 		.4byte	.LVL93
 5065 0631 0100     		.2byte	0x1
 5066 0633 56       		.byte	0x56
 5067 0634 E2000000 		.4byte	.LVL93
 5068 0638 E8000000 		.4byte	.LVL94
 5069 063c 0300     		.2byte	0x3
 5070 063e 72       		.byte	0x72
 5071 063f D300     		.sleb128 83
 5072 0641 00000000 		.4byte	0
 5073 0645 00000000 		.4byte	0
 5074              	.LLST29:
 5075 0649 00000000 		.4byte	.LVL110
 5076 064d 48000000 		.4byte	.LVL117
 5077 0651 0100     		.2byte	0x1
 5078 0653 50       		.byte	0x50
 5079 0654 48000000 		.4byte	.LVL117
 5080 0658 4A000000 		.4byte	.LVL118
 5081 065c 0400     		.2byte	0x4
ARM GAS  C:\Users\ramanatg\AppData\Local\Temp\cciThAgf.s 			page 118


 5082 065e F3       		.byte	0xf3
 5083 065f 01       		.uleb128 0x1
 5084 0660 50       		.byte	0x50
 5085 0661 9F       		.byte	0x9f
 5086 0662 4A000000 		.4byte	.LVL118
 5087 0666 4C000000 		.4byte	.LVL119
 5088 066a 0100     		.2byte	0x1
 5089 066c 50       		.byte	0x50
 5090 066d 4C000000 		.4byte	.LVL119
 5091 0671 4E000000 		.4byte	.LVL120
 5092 0675 0400     		.2byte	0x4
 5093 0677 F3       		.byte	0xf3
 5094 0678 01       		.uleb128 0x1
 5095 0679 50       		.byte	0x50
 5096 067a 9F       		.byte	0x9f
 5097 067b 4E000000 		.4byte	.LVL120
 5098 067f 5C000000 		.4byte	.LFE13
 5099 0683 0100     		.2byte	0x1
 5100 0685 50       		.byte	0x50
 5101 0686 00000000 		.4byte	0
 5102 068a 00000000 		.4byte	0
 5103              	.LLST30:
 5104 068e 00000000 		.4byte	.LVL110
 5105 0692 48000000 		.4byte	.LVL117
 5106 0696 0200     		.2byte	0x2
 5107 0698 30       		.byte	0x30
 5108 0699 9F       		.byte	0x9f
 5109 069a 48000000 		.4byte	.LVL117
 5110 069e 4A000000 		.4byte	.LVL118
 5111 06a2 0100     		.2byte	0x1
 5112 06a4 50       		.byte	0x50
 5113 06a5 4A000000 		.4byte	.LVL118
 5114 06a9 5C000000 		.4byte	.LFE13
 5115 06ad 0200     		.2byte	0x2
 5116 06af 30       		.byte	0x30
 5117 06b0 9F       		.byte	0x9f
 5118 06b1 00000000 		.4byte	0
 5119 06b5 00000000 		.4byte	0
 5120              	.LLST31:
 5121 06b9 1C000000 		.4byte	.LVL111
 5122 06bd 48000000 		.4byte	.LVL117
 5123 06c1 0100     		.2byte	0x1
 5124 06c3 55       		.byte	0x55
 5125 06c4 4E000000 		.4byte	.LVL120
 5126 06c8 5C000000 		.4byte	.LFE13
 5127 06cc 0100     		.2byte	0x1
 5128 06ce 55       		.byte	0x55
 5129 06cf 00000000 		.4byte	0
 5130 06d3 00000000 		.4byte	0
 5131              	.LLST32:
 5132 06d7 1C000000 		.4byte	.LVL111
 5133 06db 2C000000 		.4byte	.LVL112
 5134 06df 0200     		.2byte	0x2
 5135 06e1 30       		.byte	0x30
 5136 06e2 9F       		.byte	0x9f
 5137 06e3 2C000000 		.4byte	.LVL112
 5138 06e7 2E000000 		.4byte	.LVL113
ARM GAS  C:\Users\ramanatg\AppData\Local\Temp\cciThAgf.s 			page 119


 5139 06eb 0100     		.2byte	0x1
 5140 06ed 52       		.byte	0x52
 5141 06ee 2E000000 		.4byte	.LVL113
 5142 06f2 38000000 		.4byte	.LVL114
 5143 06f6 0100     		.2byte	0x1
 5144 06f8 53       		.byte	0x53
 5145 06f9 38000000 		.4byte	.LVL114
 5146 06fd 3C000000 		.4byte	.LVL115
 5147 0701 0300     		.2byte	0x3
 5148 0703 73       		.byte	0x73
 5149 0704 7F       		.sleb128 -1
 5150 0705 9F       		.byte	0x9f
 5151 0706 3C000000 		.4byte	.LVL115
 5152 070a 42000000 		.4byte	.LVL116
 5153 070e 0100     		.2byte	0x1
 5154 0710 52       		.byte	0x52
 5155 0711 4E000000 		.4byte	.LVL120
 5156 0715 5C000000 		.4byte	.LFE13
 5157 0719 0200     		.2byte	0x2
 5158 071b 30       		.byte	0x30
 5159 071c 9F       		.byte	0x9f
 5160 071d 00000000 		.4byte	0
 5161 0721 00000000 		.4byte	0
 5162              	.LLST33:
 5163 0725 1C000000 		.4byte	.LVL111
 5164 0729 48000000 		.4byte	.LVL117
 5165 072d 0100     		.2byte	0x1
 5166 072f 56       		.byte	0x56
 5167 0730 4E000000 		.4byte	.LVL120
 5168 0734 5C000000 		.4byte	.LFE13
 5169 0738 0100     		.2byte	0x1
 5170 073a 56       		.byte	0x56
 5171 073b 00000000 		.4byte	0
 5172 073f 00000000 		.4byte	0
 5173              	.LLST34:
 5174 0743 00000000 		.4byte	.LVL121
 5175 0747 04000000 		.4byte	.LVL122
 5176 074b 0100     		.2byte	0x1
 5177 074d 50       		.byte	0x50
 5178 074e 04000000 		.4byte	.LVL122
 5179 0752 0A000000 		.4byte	.LFE14
 5180 0756 0400     		.2byte	0x4
 5181 0758 F3       		.byte	0xf3
 5182 0759 01       		.uleb128 0x1
 5183 075a 50       		.byte	0x50
 5184 075b 9F       		.byte	0x9f
 5185 075c 00000000 		.4byte	0
 5186 0760 00000000 		.4byte	0
 5187              	.LLST35:
 5188 0764 00000000 		.4byte	.LVL123
 5189 0768 04000000 		.4byte	.LVL124
 5190 076c 0100     		.2byte	0x1
 5191 076e 51       		.byte	0x51
 5192 076f 04000000 		.4byte	.LVL124
 5193 0773 08000000 		.4byte	.LFE15
 5194 0777 0400     		.2byte	0x4
 5195 0779 F3       		.byte	0xf3
ARM GAS  C:\Users\ramanatg\AppData\Local\Temp\cciThAgf.s 			page 120


 5196 077a 01       		.uleb128 0x1
 5197 077b 51       		.byte	0x51
 5198 077c 9F       		.byte	0x9f
 5199 077d 00000000 		.4byte	0
 5200 0781 00000000 		.4byte	0
 5201              		.section	.debug_aranges,"",%progbits
 5202 0000 7C000000 		.4byte	0x7c
 5203 0004 0200     		.2byte	0x2
 5204 0006 00000000 		.4byte	.Ldebug_info0
 5205 000a 04       		.byte	0x4
 5206 000b 00       		.byte	0
 5207 000c 0000     		.2byte	0
 5208 000e 0000     		.2byte	0
 5209 0010 00000000 		.4byte	.LFB2
 5210 0014 34000000 		.4byte	.LFE2-.LFB2
 5211 0018 00000000 		.4byte	.LFB3
 5212 001c 08000000 		.4byte	.LFE3-.LFB3
 5213 0020 00000000 		.4byte	.LFB4
 5214 0024 D8000000 		.4byte	.LFE4-.LFB4
 5215 0028 00000000 		.4byte	.LFB5
 5216 002c 14000000 		.4byte	.LFE5-.LFB5
 5217 0030 00000000 		.4byte	.LFB6
 5218 0034 E4000000 		.4byte	.LFE6-.LFB6
 5219 0038 00000000 		.4byte	.LFB7
 5220 003c 68000000 		.4byte	.LFE7-.LFB7
 5221 0040 00000000 		.4byte	.LFB8
 5222 0044 70000000 		.4byte	.LFE8-.LFB8
 5223 0048 00000000 		.4byte	.LFB9
 5224 004c 18000000 		.4byte	.LFE9-.LFB9
 5225 0050 00000000 		.4byte	.LFB10
 5226 0054 02000000 		.4byte	.LFE10-.LFB10
 5227 0058 00000000 		.4byte	.LFB12
 5228 005c 3C010000 		.4byte	.LFE12-.LFB12
 5229 0060 00000000 		.4byte	.LFB13
 5230 0064 5C000000 		.4byte	.LFE13-.LFB13
 5231 0068 00000000 		.4byte	.LFB14
 5232 006c 0A000000 		.4byte	.LFE14-.LFB14
 5233 0070 00000000 		.4byte	.LFB15
 5234 0074 08000000 		.4byte	.LFE15-.LFB15
 5235 0078 00000000 		.4byte	0
 5236 007c 00000000 		.4byte	0
 5237              		.section	.debug_ranges,"",%progbits
 5238              	.Ldebug_ranges0:
 5239 0000 1C000000 		.4byte	.LBB11
 5240 0004 1E000000 		.4byte	.LBE11
 5241 0008 20000000 		.4byte	.LBB12
 5242 000c 22000000 		.4byte	.LBE12
 5243 0010 24000000 		.4byte	.LBB13
 5244 0014 44000000 		.4byte	.LBE13
 5245 0018 00000000 		.4byte	0
 5246 001c 00000000 		.4byte	0
 5247 0020 1E000000 		.4byte	.LBB18
 5248 0024 20000000 		.4byte	.LBE18
 5249 0028 24000000 		.4byte	.LBB19
 5250 002c 40000000 		.4byte	.LBE19
 5251 0030 00000000 		.4byte	0
 5252 0034 00000000 		.4byte	0
ARM GAS  C:\Users\ramanatg\AppData\Local\Temp\cciThAgf.s 			page 121


 5253 0038 40000000 		.4byte	.LBB26
 5254 003c 9E000000 		.4byte	.LBE26
 5255 0040 1C010000 		.4byte	.LBB33
 5256 0044 2C010000 		.4byte	.LBE33
 5257 0048 00000000 		.4byte	0
 5258 004c 00000000 		.4byte	0
 5259 0050 9E000000 		.4byte	.LBB29
 5260 0054 FE000000 		.4byte	.LBE29
 5261 0058 0A010000 		.4byte	.LBB32
 5262 005c 1C010000 		.4byte	.LBE32
 5263 0060 00000000 		.4byte	0
 5264 0064 00000000 		.4byte	0
 5265 0068 00000000 		.4byte	.LFB2
 5266 006c 34000000 		.4byte	.LFE2
 5267 0070 00000000 		.4byte	.LFB3
 5268 0074 08000000 		.4byte	.LFE3
 5269 0078 00000000 		.4byte	.LFB4
 5270 007c D8000000 		.4byte	.LFE4
 5271 0080 00000000 		.4byte	.LFB5
 5272 0084 14000000 		.4byte	.LFE5
 5273 0088 00000000 		.4byte	.LFB6
 5274 008c E4000000 		.4byte	.LFE6
 5275 0090 00000000 		.4byte	.LFB7
 5276 0094 68000000 		.4byte	.LFE7
 5277 0098 00000000 		.4byte	.LFB8
 5278 009c 70000000 		.4byte	.LFE8
 5279 00a0 00000000 		.4byte	.LFB9
 5280 00a4 18000000 		.4byte	.LFE9
 5281 00a8 00000000 		.4byte	.LFB10
 5282 00ac 02000000 		.4byte	.LFE10
 5283 00b0 00000000 		.4byte	.LFB12
 5284 00b4 3C010000 		.4byte	.LFE12
 5285 00b8 00000000 		.4byte	.LFB13
 5286 00bc 5C000000 		.4byte	.LFE13
 5287 00c0 00000000 		.4byte	.LFB14
 5288 00c4 0A000000 		.4byte	.LFE14
 5289 00c8 00000000 		.4byte	.LFB15
 5290 00cc 08000000 		.4byte	.LFE15
 5291 00d0 00000000 		.4byte	0
 5292 00d4 00000000 		.4byte	0
 5293              		.section	.debug_line,"",%progbits
 5294              	.Ldebug_line0:
 5295 0000 3C040000 		.section	.debug_str,"MS",%progbits,1
 5295      0200D301 
 5295      00000201 
 5295      FB0E0D00 
 5295      01010101 
 5296              	.LASF250:
 5297 0000 6379426C 		.ascii	"cyBle_peerBonding\000"
 5297      655F7065 
 5297      6572426F 
 5297      6E64696E 
 5297      6700
 5298              	.LASF159:
 5299 0012 7363616E 		.ascii	"scanRspData\000"
 5299      52737044 
 5299      61746100 
ARM GAS  C:\Users\ramanatg\AppData\Local\Temp\cciThAgf.s 			page 122


 5300              	.LASF16:
 5301 001e 73697A65 		.ascii	"size_t\000"
 5301      5F7400
 5302              	.LASF17:
 5303 0025 73697A65 		.ascii	"sizetype\000"
 5303      74797065 
 5303      00
 5304              	.LASF39:
 5305 002e 4359424C 		.ascii	"CYBLE_EVT_GAP_NUMERIC_COMPARISON_REQUEST\000"
 5305      455F4556 
 5305      545F4741 
 5305      505F4E55 
 5305      4D455249 
 5306              	.LASF206:
 5307 0057 61706952 		.ascii	"apiResult\000"
 5307      6573756C 
 5307      7400
 5308              	.LASF33:
 5309 0061 4359424C 		.ascii	"CYBLE_EVT_GAP_DEVICE_CONNECTED\000"
 5309      455F4556 
 5309      545F4741 
 5309      505F4445 
 5309      56494345 
 5310              	.LASF51:
 5311 0080 4359424C 		.ascii	"CYBLE_EVT_GATT_CONNECT_IND\000"
 5311      455F4556 
 5311      545F4741 
 5311      54545F43 
 5311      4F4E4E45 
 5312              	.LASF274:
 5313 009b 4379426C 		.ascii	"CyBle_ChangeAdLocalName\000"
 5313      655F4368 
 5313      616E6765 
 5313      41644C6F 
 5313      63616C4E 
 5314              	.LASF11:
 5315 00b3 75696E74 		.ascii	"uint32\000"
 5315      333200
 5316              	.LASF226:
 5317 00ba 64657374 		.ascii	"destBuffer\000"
 5317      42756666 
 5317      657200
 5318              	.LASF162:
 5319 00c5 64697363 		.ascii	"discMode\000"
 5319      4D6F6465 
 5319      00
 5320              	.LASF107:
 5321 00ce 4359424C 		.ascii	"CYBLE_ERROR_L2CAP_CONNECTION_ENTITY_NOT_FOUND\000"
 5321      455F4552 
 5321      524F525F 
 5321      4C324341 
 5321      505F434F 
 5322              	.LASF113:
 5323 00fc 4359424C 		.ascii	"CYBLE_ERROR_MIC_AUTH_FAILED\000"
 5323      455F4552 
 5323      524F525F 
 5323      4D49435F 
ARM GAS  C:\Users\ramanatg\AppData\Local\Temp\cciThAgf.s 			page 123


 5323      41555448 
 5324              	.LASF268:
 5325 0118 4379426C 		.ascii	"CyBle_GapGetPeerBdHandle\000"
 5325      655F4761 
 5325      70476574 
 5325      50656572 
 5325      42644861 
 5326              	.LASF14:
 5327 0131 63686172 		.ascii	"char8\000"
 5327      3800
 5328              	.LASF83:
 5329 0137 4359424C 		.ascii	"CYBLE_EVT_L2CAP_CBFC_RX_CREDIT_IND\000"
 5329      455F4556 
 5329      545F4C32 
 5329      4341505F 
 5329      43424643 
 5330              	.LASF218:
 5331 015a 62446576 		.ascii	"bDevHandle\000"
 5331      48616E64 
 5331      6C6500
 5332              	.LASF181:
 5333 0165 7065726D 		.ascii	"permission\000"
 5333      69737369 
 5333      6F6E00
 5334              	.LASF126:
 5335 0170 74797065 		.ascii	"type\000"
 5335      00
 5336              	.LASF185:
 5337 0175 4359424C 		.ascii	"CYBLE_CALLBACK_T\000"
 5337      455F4341 
 5337      4C4C4241 
 5337      434B5F54 
 5337      00
 5338              	.LASF68:
 5339 0186 4359424C 		.ascii	"CYBLE_EVT_GATTC_HANDLE_VALUE_NTF\000"
 5339      455F4556 
 5339      545F4741 
 5339      5454435F 
 5339      48414E44 
 5340              	.LASF27:
 5341 01a7 4359424C 		.ascii	"CYBLE_EVT_GAP_AUTH_REQ\000"
 5341      455F4556 
 5341      545F4741 
 5341      505F4155 
 5341      54485F52 
 5342              	.LASF169:
 5343 01be 4359424C 		.ascii	"CYBLE_CONN_HANDLE_T\000"
 5343      455F434F 
 5343      4E4E5F48 
 5343      414E444C 
 5343      455F5400 
 5344              	.LASF214:
 5345 01d2 63616C6C 		.ascii	"callbackFunc\000"
 5345      6261636B 
 5345      46756E63 
 5345      00
 5346              	.LASF102:
ARM GAS  C:\Users\ramanatg\AppData\Local\Temp\cciThAgf.s 			page 124


 5347 01df 4359424C 		.ascii	"CYBLE_ERROR_BT_ON_NOT_COMPLETED\000"
 5347      455F4552 
 5347      524F525F 
 5347      42545F4F 
 5347      4E5F4E4F 
 5348              	.LASF271:
 5349 01ff 474E5520 		.ascii	"GNU C 4.9.3 20150303 (release) [ARM/embedded-4_9-br"
 5349      4320342E 
 5349      392E3320 
 5349      32303135 
 5349      30333033 
 5350 0232 616E6368 		.ascii	"anch revision 221220] -mcpu=cortex-m0 -mthumb -g -O"
 5350      20726576 
 5350      6973696F 
 5350      6E203232 
 5350      31323230 
 5351 0265 33202D66 		.ascii	"3 -ffunction-sections -ffat-lto-objects\000"
 5351      66756E63 
 5351      74696F6E 
 5351      2D736563 
 5351      74696F6E 
 5352              	.LASF48:
 5353 028d 4359424C 		.ascii	"CYBLE_EVT_GAP_AUTH_REQ_REPLY_ERR\000"
 5353      455F4556 
 5353      545F4741 
 5353      505F4155 
 5353      54485F52 
 5354              	.LASF194:
 5355 02ae 4359424C 		.ascii	"CYBLE_STATE_ADVERTISING\000"
 5355      455F5354 
 5355      4154455F 
 5355      41445645 
 5355      52544953 
 5356              	.LASF41:
 5357 02c6 4359424C 		.ascii	"CYBLE_EVT_GAP_OOB_GENERATED_NOTIFICATION\000"
 5357      455F4556 
 5357      545F4741 
 5357      505F4F4F 
 5357      425F4745 
 5358              	.LASF167:
 5359 02ef 62644861 		.ascii	"bdHandle\000"
 5359      6E646C65 
 5359      00
 5360              	.LASF134:
 5361 02f8 4359424C 		.ascii	"CYBLE_DLE_CONFIG_PARAM_T\000"
 5361      455F444C 
 5361      455F434F 
 5361      4E464947 
 5361      5F504152 
 5362              	.LASF64:
 5363 0311 4359424C 		.ascii	"CYBLE_EVT_GATTS_WRITE_CMD_REQ\000"
 5363      455F4556 
 5363      545F4741 
 5363      5454535F 
 5363      57524954 
 5364              	.LASF84:
 5365 032f 4359424C 		.ascii	"CYBLE_EVT_L2CAP_CBFC_TX_CREDIT_IND\000"
ARM GAS  C:\Users\ramanatg\AppData\Local\Temp\cciThAgf.s 			page 125


 5365      455F4556 
 5365      545F4C32 
 5365      4341505F 
 5365      43424643 
 5366              	.LASF4:
 5367 0352 6C6F6E67 		.ascii	"long int\000"
 5367      20696E74 
 5367      00
 5368              	.LASF204:
 5369 035b 4379426C 		.ascii	"CyBle_ServiceInit\000"
 5369      655F5365 
 5369      72766963 
 5369      65496E69 
 5369      7400
 5370              	.LASF221:
 5371 036d 61647665 		.ascii	"advertisingIntervalType\000"
 5371      72746973 
 5371      696E6749 
 5371      6E746572 
 5371      76616C54 
 5372              	.LASF130:
 5373 0385 4359424C 		.ascii	"CYBLE_STK_APP_DATA_BUFF_T\000"
 5373      455F5354 
 5373      4B5F4150 
 5373      505F4441 
 5373      54415F42 
 5374              	.LASF137:
 5375 039f 646C6543 		.ascii	"dleConfig\000"
 5375      6F6E6669 
 5375      6700
 5376              	.LASF265:
 5377 03a9 4379426C 		.ascii	"CyBle_StoreStackData\000"
 5377      655F5374 
 5377      6F726553 
 5377      7461636B 
 5377      44617461 
 5378              	.LASF210:
 5379 03be 73746163 		.ascii	"stackConfig\000"
 5379      6B436F6E 
 5379      66696700 
 5380              	.LASF20:
 5381 03ca 4359424C 		.ascii	"CYBLE_EVT_STACK_ON\000"
 5381      455F4556 
 5381      545F5354 
 5381      41434B5F 
 5381      4F4E00
 5382              	.LASF109:
 5383 03dd 4359424C 		.ascii	"CYBLE_ERROR_L2CAP_PSM_NOT_IN_RANGE\000"
 5383      455F4552 
 5383      524F525F 
 5383      4C324341 
 5383      505F5053 
 5384              	.LASF245:
 5385 0400 6379426C 		.ascii	"cyBle_discoveryParam\000"
 5385      655F6469 
 5385      73636F76 
 5385      65727950 
ARM GAS  C:\Users\ramanatg\AppData\Local\Temp\cciThAgf.s 			page 126


 5385      6172616D 
 5386              	.LASF264:
 5387 0415 4379426C 		.ascii	"CyBle_StoreAppData\000"
 5387      655F5374 
 5387      6F726541 
 5387      70704461 
 5387      746100
 5388              	.LASF243:
 5389 0428 6379426C 		.ascii	"cyBle_deviceAddress\000"
 5389      655F6465 
 5389      76696365 
 5389      41646472 
 5389      65737300 
 5390              	.LASF121:
 5391 043c 4359424C 		.ascii	"CYBLE_ERROR_CHAR_IS_NOT_DISCOVERED\000"
 5391      455F4552 
 5391      524F525F 
 5391      43484152 
 5391      5F49535F 
 5392              	.LASF180:
 5393 045f 61747454 		.ascii	"attType\000"
 5393      79706500 
 5394              	.LASF144:
 5395 0467 4359424C 		.ascii	"CYBLE_GAPP_NON_CONNECTABLE_UNDIRECTED_ADV\000"
 5395      455F4741 
 5395      50505F4E 
 5395      4F4E5F43 
 5395      4F4E4E45 
 5396              	.LASF77:
 5397 0491 4359424C 		.ascii	"CYBLE_EVT_L2CAP_COMMAND_REJ\000"
 5397      455F4556 
 5397      545F4C32 
 5397      4341505F 
 5397      434F4D4D 
 5398              	.LASF202:
 5399 04ad 7270614F 		.ascii	"rpaOnlyCharHandle\000"
 5399      6E6C7943 
 5399      68617248 
 5399      616E646C 
 5399      6500
 5400              	.LASF110:
 5401 04bf 4359424C 		.ascii	"CYBLE_ERROR_GATT_DB_INVALID_ATTR_HANDLE\000"
 5401      455F4552 
 5401      524F525F 
 5401      47415454 
 5401      5F44425F 
 5402              	.LASF0:
 5403 04e7 7369676E 		.ascii	"signed char\000"
 5403      65642063 
 5403      68617200 
 5404              	.LASF217:
 5405 04f3 4379426C 		.ascii	"CyBle_GapRemoveBondedDevice\000"
 5405      655F4761 
 5405      7052656D 
 5405      6F766542 
 5405      6F6E6465 
 5406              	.LASF129:
ARM GAS  C:\Users\ramanatg\AppData\Local\Temp\cciThAgf.s 			page 127


 5407 050f 62756666 		.ascii	"bufferUnits\000"
 5407      6572556E 
 5407      69747300 
 5408              	.LASF22:
 5409 051b 4359424C 		.ascii	"CYBLE_EVT_HARDWARE_ERROR\000"
 5409      455F4556 
 5409      545F4841 
 5409      52445741 
 5409      52455F45 
 5410              	.LASF91:
 5411 0534 4359424C 		.ascii	"CYBLE_ERROR_OK\000"
 5411      455F4552 
 5411      524F525F 
 5411      4F4B00
 5412              	.LASF55:
 5413 0543 4359424C 		.ascii	"CYBLE_EVT_GATTC_READ_BY_GROUP_TYPE_RSP\000"
 5413      455F4556 
 5413      545F4741 
 5413      5454435F 
 5413      52454144 
 5414              	.LASF191:
 5415 056a 4359424C 		.ascii	"CYBLE_STATE_STOPPED\000"
 5415      455F5354 
 5415      4154455F 
 5415      53544F50 
 5415      50454400 
 5416              	.LASF1:
 5417 057e 756E7369 		.ascii	"unsigned char\000"
 5417      676E6564 
 5417      20636861 
 5417      7200
 5418              	.LASF54:
 5419 058c 4359424C 		.ascii	"CYBLE_EVT_GATTC_XCHNG_MTU_RSP\000"
 5419      455F4556 
 5419      545F4741 
 5419      5454435F 
 5419      5843484E 
 5420              	.LASF45:
 5421 05aa 4359424C 		.ascii	"CYBLE_EVT_GAP_SMP_NEGOTIATED_AUTH_INFO\000"
 5421      455F4556 
 5421      545F4741 
 5421      505F534D 
 5421      505F4E45 
 5422              	.LASF46:
 5423 05d1 4359424C 		.ascii	"CYBLE_EVT_GAP_CONN_ESTB\000"
 5423      455F4556 
 5423      545F4741 
 5423      505F434F 
 5423      4E4E5F45 
 5424              	.LASF147:
 5425 05e9 61647649 		.ascii	"advIntvMin\000"
 5425      6E74764D 
 5425      696E00
 5426              	.LASF179:
 5427 05f4 61747448 		.ascii	"attHandle\000"
 5427      616E646C 
 5427      6500
ARM GAS  C:\Users\ramanatg\AppData\Local\Temp\cciThAgf.s 			page 128


 5428              	.LASF220:
 5429 05fe 4379426C 		.ascii	"CyBle_GappStartAdvertisement\000"
 5429      655F4761 
 5429      70705374 
 5429      61727441 
 5429      64766572 
 5430              	.LASF158:
 5431 061b 4359424C 		.ascii	"CYBLE_GAPP_DISC_DATA_T\000"
 5431      455F4741 
 5431      50505F44 
 5431      4953435F 
 5431      44415441 
 5432              	.LASF81:
 5433 0632 4359424C 		.ascii	"CYBLE_EVT_L2CAP_CBFC_DISCONN_CNF\000"
 5433      455F4556 
 5433      545F4C32 
 5433      4341505F 
 5433      43424643 
 5434              	.LASF58:
 5435 0653 4359424C 		.ascii	"CYBLE_EVT_GATTC_FIND_BY_TYPE_VALUE_RSP\000"
 5435      455F4556 
 5435      545F4741 
 5435      5454435F 
 5435      46494E44 
 5436              	.LASF42:
 5437 067a 4359424C 		.ascii	"CYBLE_EVT_GAP_DATA_LENGTH_CHANGE\000"
 5437      455F4556 
 5437      545F4741 
 5437      505F4441 
 5437      54415F4C 
 5438              	.LASF15:
 5439 069b 63686172 		.ascii	"char\000"
 5439      00
 5440              	.LASF261:
 5441 06a0 4379426C 		.ascii	"CyBle_StackInit\000"
 5441      655F5374 
 5441      61636B49 
 5441      6E697400 
 5442              	.LASF173:
 5443 06b0 6D617841 		.ascii	"maxAttrLength\000"
 5443      7474724C 
 5443      656E6774 
 5443      6800
 5444              	.LASF61:
 5445 06be 4359424C 		.ascii	"CYBLE_EVT_GATTC_READ_MULTI_RSP\000"
 5445      455F4556 
 5445      545F4741 
 5445      5454435F 
 5445      52454144 
 5446              	.LASF19:
 5447 06dd 4359424C 		.ascii	"CYBLE_EVT_HOST_INVALID\000"
 5447      455F4556 
 5447      545F484F 
 5447      53545F49 
 5447      4E56414C 
 5448              	.LASF270:
 5449 06f4 4379426C 		.ascii	"CyBle_GappExitDiscoveryMode\000"
ARM GAS  C:\Users\ramanatg\AppData\Local\Temp\cciThAgf.s 			page 129


 5449      655F4761 
 5449      70704578 
 5449      69744469 
 5449      73636F76 
 5450              	.LASF234:
 5451 0710 4379426C 		.ascii	"CyBle_GapGetLocalName\000"
 5451      655F4761 
 5451      70476574 
 5451      4C6F6361 
 5451      6C4E616D 
 5452              	.LASF44:
 5453 0726 4359424C 		.ascii	"CYBLE_EVT_GAPC_DIRECT_ADV_REPORT\000"
 5453      455F4556 
 5453      545F4741 
 5453      50435F44 
 5453      49524543 
 5454              	.LASF98:
 5455 0747 4359424C 		.ascii	"CYBLE_ERROR_NO_DEVICE_ENTITY\000"
 5455      455F4552 
 5455      524F525F 
 5455      4E4F5F44 
 5455      45564943 
 5456              	.LASF60:
 5457 0764 4359424C 		.ascii	"CYBLE_EVT_GATTC_READ_BLOB_RSP\000"
 5457      455F4556 
 5457      545F4741 
 5457      5454435F 
 5457      52454144 
 5458              	.LASF67:
 5459 0782 4359424C 		.ascii	"CYBLE_EVT_GATTC_EXEC_WRITE_RSP\000"
 5459      455F4556 
 5459      545F4741 
 5459      5454435F 
 5459      45584543 
 5460              	.LASF205:
 5461 07a1 4379426C 		.ascii	"CyBle_Init\000"
 5461      655F496E 
 5461      697400
 5462              	.LASF72:
 5463 07ac 4359424C 		.ascii	"CYBLE_EVT_GATTC_STOP_CMD_COMPLETE\000"
 5463      455F4556 
 5463      545F4741 
 5463      5454435F 
 5463      53544F50 
 5464              	.LASF184:
 5465 07ce 4359424C 		.ascii	"CYBLE_GATTS_DB_T\000"
 5465      455F4741 
 5465      5454535F 
 5465      44425F54 
 5465      00
 5466              	.LASF238:
 5467 07df 6379426C 		.ascii	"cyBle_pendingFlashClearCccdHandle\000"
 5467      655F7065 
 5467      6E64696E 
 5467      67466C61 
 5467      7368436C 
 5468              	.LASF223:
ARM GAS  C:\Users\ramanatg\AppData\Local\Temp\cciThAgf.s 			page 130


 5469 0801 4379426C 		.ascii	"CyBle_GappStopAdvertisement\000"
 5469      655F4761 
 5469      70705374 
 5469      6F704164 
 5469      76657274 
 5470              	.LASF263:
 5471 081d 4379426C 		.ascii	"CyBle_Shutdown\000"
 5471      655F5368 
 5471      7574646F 
 5471      776E00
 5472              	.LASF117:
 5473 082c 4359424C 		.ascii	"CYBLE_ERROR_CONTROLLER_BUSY\000"
 5473      455F4552 
 5473      524F525F 
 5473      434F4E54 
 5473      524F4C4C 
 5474              	.LASF92:
 5475 0848 4359424C 		.ascii	"CYBLE_ERROR_INVALID_PARAMETER\000"
 5475      455F4552 
 5475      524F525F 
 5475      494E5641 
 5475      4C49445F 
 5476              	.LASF207:
 5477 0866 6379426C 		.ascii	"cyBle_stackDataBuff\000"
 5477      655F7374 
 5477      61636B44 
 5477      61746142 
 5477      75666600 
 5478              	.LASF189:
 5479 087a 626F756E 		.ascii	"boundedDevCount\000"
 5479      64656444 
 5479      6576436F 
 5479      756E7400 
 5480              	.LASF211:
 5481 088a 66656174 		.ascii	"featureHeapReq\000"
 5481      75726548 
 5481      65617052 
 5481      657100
 5482              	.LASF145:
 5483 0899 4359424C 		.ascii	"CYBLE_GAPP_CONNECTABLE_LOW_DC_DIRECTED_ADV\000"
 5483      455F4741 
 5483      50505F43 
 5483      4F4E4E45 
 5483      43544142 
 5484              	.LASF94:
 5485 08c4 4359424C 		.ascii	"CYBLE_ERROR_MEMORY_ALLOCATION_FAILED\000"
 5485      455F4552 
 5485      524F525F 
 5485      4D454D4F 
 5485      52595F41 
 5486              	.LASF244:
 5487 08e9 6379426C 		.ascii	"cyBle_sflashDeviceAddress\000"
 5487      655F7366 
 5487      6C617368 
 5487      44657669 
 5487      63654164 
 5488              	.LASF187:
ARM GAS  C:\Users\ramanatg\AppData\Local\Temp\cciThAgf.s 			page 131


 5489 0903 61747456 		.ascii	"attValuesCCCDFlashMemory\000"
 5489      616C7565 
 5489      73434343 
 5489      44466C61 
 5489      73684D65 
 5490              	.LASF118:
 5491 091c 4359424C 		.ascii	"CYBLE_ERROR_MAX\000"
 5491      455F4552 
 5491      524F525F 
 5491      4D415800 
 5492              	.LASF76:
 5493 092c 4359424C 		.ascii	"CYBLE_EVT_L2CAP_CONN_PARAM_UPDATE_RSP\000"
 5493      455F4556 
 5493      545F4C32 
 5493      4341505F 
 5493      434F4E4E 
 5494              	.LASF88:
 5495 0952 4359424C 		.ascii	"CYBLE_EVT_HCI_PKT\000"
 5495      455F4556 
 5495      545F4843 
 5495      495F504B 
 5495      5400
 5496              	.LASF186:
 5497 0964 73746163 		.ascii	"stackFlashptr\000"
 5497      6B466C61 
 5497      73687074 
 5497      7200
 5498              	.LASF155:
 5499 0972 4359424C 		.ascii	"CYBLE_GAPP_DISC_PARAM_T\000"
 5499      455F4741 
 5499      50505F44 
 5499      4953435F 
 5499      50415241 
 5500              	.LASF231:
 5501 098a 6D61784C 		.ascii	"maxLength\000"
 5501      656E6774 
 5501      6800
 5502              	.LASF30:
 5503 0994 4359424C 		.ascii	"CYBLE_EVT_GAP_AUTH_COMPLETE\000"
 5503      455F4556 
 5503      545F4741 
 5503      505F4155 
 5503      54485F43 
 5504              	.LASF154:
 5505 09b0 61647646 		.ascii	"advFilterPolicy\000"
 5505      696C7465 
 5505      72506F6C 
 5505      69637900 
 5506              	.LASF31:
 5507 09c0 4359424C 		.ascii	"CYBLE_EVT_GAP_AUTH_FAILED\000"
 5507      455F4556 
 5507      545F4741 
 5507      505F4155 
 5507      54485F46 
 5508              	.LASF123:
 5509 09da 4359424C 		.ascii	"CYBLE_ERROR_STACK_BUSY\000"
 5509      455F4552 
ARM GAS  C:\Users\ramanatg\AppData\Local\Temp\cciThAgf.s 			page 132


 5509      524F525F 
 5509      53544143 
 5509      4B5F4255 
 5510              	.LASF260:
 5511 09f1 4379426C 		.ascii	"CyBle_StackSetFeatureConfig\000"
 5511      655F5374 
 5511      61636B53 
 5511      65744665 
 5511      61747572 
 5512              	.LASF149:
 5513 0a0d 61647654 		.ascii	"advType\000"
 5513      79706500 
 5514              	.LASF95:
 5515 0a15 4359424C 		.ascii	"CYBLE_ERROR_INSUFFICIENT_RESOURCES\000"
 5515      455F4552 
 5515      524F525F 
 5515      494E5355 
 5515      46464943 
 5516              	.LASF5:
 5517 0a38 6C6F6E67 		.ascii	"long unsigned int\000"
 5517      20756E73 
 5517      69676E65 
 5517      6420696E 
 5517      7400
 5518              	.LASF115:
 5519 0a4a 4359424C 		.ascii	"CYBLE_ERROR_UNSUPPORTED_FEATURE_OR_PARAMETER_VALUE\000"
 5519      455F4552 
 5519      524F525F 
 5519      554E5355 
 5519      50504F52 
 5520              	.LASF190:
 5521 0a7d 43595F42 		.ascii	"CY_BLE_FLASH_STORAGE\000"
 5521      4C455F46 
 5521      4C415348 
 5521      5F53544F 
 5521      52414745 
 5522              	.LASF135:
 5523 0a92 7265736F 		.ascii	"resolvingListSize\000"
 5523      6C76696E 
 5523      674C6973 
 5523      7453697A 
 5523      6500
 5524              	.LASF105:
 5525 0aa4 4359424C 		.ascii	"CYBLE_ERROR_L2CAP_PSM_ALREADY_REGISTERED\000"
 5525      455F4552 
 5525      524F525F 
 5525      4C324341 
 5525      505F5053 
 5526              	.LASF177:
 5527 0acd 61747456 		.ascii	"attValueUuid\000"
 5527      616C7565 
 5527      55756964 
 5527      00
 5528              	.LASF269:
 5529 0ada 4379426C 		.ascii	"CyBle_GappEnterDiscoveryMode\000"
 5529      655F4761 
 5529      7070456E 
ARM GAS  C:\Users\ramanatg\AppData\Local\Temp\cciThAgf.s 			page 133


 5529      74657244 
 5529      6973636F 
 5530              	.LASF36:
 5531 0af7 4359424C 		.ascii	"CYBLE_EVT_GAP_CONNECTION_UPDATE_COMPLETE\000"
 5531      455F4556 
 5531      545F4741 
 5531      505F434F 
 5531      4E4E4543 
 5532              	.LASF256:
 5533 0b20 6379426C 		.ascii	"cyBle_busyStatus\000"
 5533      655F6275 
 5533      73795374 
 5533      61747573 
 5533      00
 5534              	.LASF224:
 5535 0b31 4379426C 		.ascii	"CyBle_ChangeAdDeviceAddress\000"
 5535      655F4368 
 5535      616E6765 
 5535      41644465 
 5535      76696365 
 5536              	.LASF192:
 5537 0b4d 4359424C 		.ascii	"CYBLE_STATE_INITIALIZING\000"
 5537      455F5354 
 5537      4154455F 
 5537      494E4954 
 5537      49414C49 
 5538              	.LASF80:
 5539 0b66 4359424C 		.ascii	"CYBLE_EVT_L2CAP_CBFC_DISCONN_IND\000"
 5539      455F4556 
 5539      545F4C32 
 5539      4341505F 
 5539      43424643 
 5540              	.LASF222:
 5541 0b87 4379426C 		.ascii	"CyBle_Stop\000"
 5541      655F5374 
 5541      6F7000
 5542              	.LASF28:
 5543 0b92 4359424C 		.ascii	"CYBLE_EVT_GAP_PASSKEY_ENTRY_REQUEST\000"
 5543      455F4556 
 5543      545F4741 
 5543      505F5041 
 5543      53534B45 
 5544              	.LASF140:
 5545 0bb6 4359424C 		.ascii	"CYBLE_STACK_CONFIG_PARAM_T\000"
 5545      455F5354 
 5545      41434B5F 
 5545      434F4E46 
 5545      49475F50 
 5546              	.LASF131:
 5547 0bd1 646C654D 		.ascii	"dleMaxTxCapability\000"
 5547      61785478 
 5547      43617061 
 5547      62696C69 
 5547      747900
 5548              	.LASF253:
 5549 0be4 6379426C 		.ascii	"cyBle_flashStorage\000"
 5549      655F666C 
ARM GAS  C:\Users\ramanatg\AppData\Local\Temp\cciThAgf.s 			page 134


 5549      61736853 
 5549      746F7261 
 5549      676500
 5550              	.LASF6:
 5551 0bf7 6C6F6E67 		.ascii	"long long int\000"
 5551      206C6F6E 
 5551      6720696E 
 5551      7400
 5552              	.LASF163:
 5553 0c05 61647650 		.ascii	"advParam\000"
 5553      6172616D 
 5553      00
 5554              	.LASF106:
 5555 0c0e 4359424C 		.ascii	"CYBLE_ERROR_L2CAP_PSM_NOT_REGISTERED\000"
 5555      455F4552 
 5555      524F525F 
 5555      4C324341 
 5555      505F5053 
 5556              	.LASF96:
 5557 0c33 4359424C 		.ascii	"CYBLE_ERROR_OOB_NOT_AVAILABLE\000"
 5557      455F4552 
 5557      524F525F 
 5557      4F4F425F 
 5557      4E4F545F 
 5558              	.LASF13:
 5559 0c51 646F7562 		.ascii	"double\000"
 5559      6C6500
 5560              	.LASF111:
 5561 0c58 4359424C 		.ascii	"CYBLE_ERROR_DEVICE_ALREADY_EXISTS\000"
 5561      455F4552 
 5561      524F525F 
 5561      44455649 
 5561      43455F41 
 5562              	.LASF86:
 5563 0c7a 4359424C 		.ascii	"CYBLE_EVT_PENDING_FLASH_WRITE\000"
 5563      455F4556 
 5563      545F5045 
 5563      4E44494E 
 5563      475F464C 
 5564              	.LASF258:
 5565 0c98 6379426C 		.ascii	"cyBle_advertisingIntervalType\000"
 5565      655F6164 
 5565      76657274 
 5565      6973696E 
 5565      67496E74 
 5566              	.LASF198:
 5567 0cb6 64657669 		.ascii	"deviceNameCharHandle\000"
 5567      63654E61 
 5567      6D654368 
 5567      61724861 
 5567      6E646C65 
 5568              	.LASF151:
 5569 0ccb 64697265 		.ascii	"directAddrType\000"
 5569      63744164 
 5569      64725479 
 5569      706500
 5570              	.LASF43:
ARM GAS  C:\Users\ramanatg\AppData\Local\Temp\cciThAgf.s 			page 135


 5571 0cda 4359424C 		.ascii	"CYBLE_EVT_GAP_ENHANCE_CONN_COMPLETE\000"
 5571      455F4556 
 5571      545F4741 
 5571      505F454E 
 5571      48414E43 
 5572              	.LASF108:
 5573 0cfe 4359424C 		.ascii	"CYBLE_ERROR_L2CAP_CHANNEL_NOT_FOUND\000"
 5573      455F4552 
 5573      524F525F 
 5573      4C324341 
 5573      505F4348 
 5574              	.LASF136:
 5575 0d22 4359424C 		.ascii	"CYBLE_PRIVACY_1_2_CONFIG_PARAM_T\000"
 5575      455F5052 
 5575      49564143 
 5575      595F315F 
 5575      325F434F 
 5576              	.LASF251:
 5577 0d43 6379426C 		.ascii	"cyBle_gattDB\000"
 5577      655F6761 
 5577      74744442 
 5577      00
 5578              	.LASF99:
 5579 0d50 4359424C 		.ascii	"CYBLE_ERROR_REPEATED_ATTEMPTS\000"
 5579      455F4552 
 5579      524F525F 
 5579      52455045 
 5579      41544544 
 5580              	.LASF12:
 5581 0d6e 666C6F61 		.ascii	"float\000"
 5581      7400
 5582              	.LASF112:
 5583 0d74 4359424C 		.ascii	"CYBLE_ERROR_FLASH_WRITE_NOT_PERMITED\000"
 5583      455F4552 
 5583      524F525F 
 5583      464C4153 
 5583      485F5752 
 5584              	.LASF73:
 5585 0d99 4359424C 		.ascii	"CYBLE_EVT_GATTS_READ_CHAR_VAL_ACCESS_REQ\000"
 5585      455F4556 
 5585      545F4741 
 5585      5454535F 
 5585      52454144 
 5586              	.LASF216:
 5587 0dc2 64656661 		.ascii	"defaultValuesCCCD\000"
 5587      756C7456 
 5587      616C7565 
 5587      73434343 
 5587      4400
 5588              	.LASF133:
 5589 0dd4 646C654E 		.ascii	"dleNumTxBuffer\000"
 5589      756D5478 
 5589      42756666 
 5589      657200
 5590              	.LASF8:
 5591 0de3 756E7369 		.ascii	"unsigned int\000"
 5591      676E6564 
ARM GAS  C:\Users\ramanatg\AppData\Local\Temp\cciThAgf.s 			page 136


 5591      20696E74 
 5591      00
 5592              	.LASF139:
 5593 0df0 66656174 		.ascii	"feature_mask\000"
 5593      7572655F 
 5593      6D61736B 
 5593      00
 5594              	.LASF65:
 5595 0dfd 4359424C 		.ascii	"CYBLE_EVT_GATTS_PREP_WRITE_REQ\000"
 5595      455F4556 
 5595      545F4741 
 5595      5454535F 
 5595      50524550 
 5596              	.LASF182:
 5597 0e1c 61747445 		.ascii	"attEndHandle\000"
 5597      6E644861 
 5597      6E646C65 
 5597      00
 5598              	.LASF228:
 5599 0e29 666C6167 		.ascii	"flag\000"
 5599      00
 5600              	.LASF236:
 5601 0e2e 4379426C 		.ascii	"CyBle_Set16ByPtr\000"
 5601      655F5365 
 5601      74313642 
 5601      79507472 
 5601      00
 5602              	.LASF104:
 5603 0e3f 4359424C 		.ascii	"CYBLE_ERROR_L2CAP_PSM_WRONG_ENCODING\000"
 5603      455F4552 
 5603      524F525F 
 5603      4C324341 
 5603      505F5053 
 5604              	.LASF233:
 5605 0e64 63686172 		.ascii	"charLen\000"
 5605      4C656E00 
 5606              	.LASF90:
 5607 0e6c 4359424C 		.ascii	"CYBLE_EVT_MAX\000"
 5607      455F4556 
 5607      545F4D41 
 5607      5800
 5608              	.LASF37:
 5609 0e7a 4359424C 		.ascii	"CYBLE_EVT_GAPC_SCAN_START_STOP\000"
 5609      455F4556 
 5609      545F4741 
 5609      50435F53 
 5609      43414E5F 
 5610              	.LASF259:
 5611 0e99 4379426C 		.ascii	"CyBle_CustomInit\000"
 5611      655F4375 
 5611      73746F6D 
 5611      496E6974 
 5611      00
 5612              	.LASF146:
 5613 0eaa 4359424C 		.ascii	"CYBLE_GAPP_ADV_T\000"
 5613      455F4741 
 5613      50505F41 
ARM GAS  C:\Users\ramanatg\AppData\Local\Temp\cciThAgf.s 			page 137


 5613      44565F54 
 5613      00
 5614              	.LASF62:
 5615 0ebb 4359424C 		.ascii	"CYBLE_EVT_GATTS_WRITE_REQ\000"
 5615      455F4556 
 5615      545F4741 
 5615      5454535F 
 5615      57524954 
 5616              	.LASF156:
 5617 0ed5 61647644 		.ascii	"advData\000"
 5617      61746100 
 5618              	.LASF71:
 5619 0edd 4359424C 		.ascii	"CYBLE_EVT_GATTS_DATA_SIGNED_CMD_REQ\000"
 5619      455F4556 
 5619      545F4741 
 5619      5454535F 
 5619      44415441 
 5620              	.LASF247:
 5621 0f01 6379426C 		.ascii	"cyBle_scanRspData\000"
 5621      655F7363 
 5621      616E5273 
 5621      70446174 
 5621      6100
 5622              	.LASF200:
 5623 0f13 70726566 		.ascii	"prefConnParamCharHandle\000"
 5623      436F6E6E 
 5623      50617261 
 5623      6D436861 
 5623      7248616E 
 5624              	.LASF29:
 5625 0f2b 4359424C 		.ascii	"CYBLE_EVT_GAP_PASSKEY_DISPLAY_REQUEST\000"
 5625      455F4556 
 5625      545F4741 
 5625      505F5041 
 5625      53534B45 
 5626              	.LASF120:
 5627 0f51 4359424C 		.ascii	"CYBLE_ERROR_IND_DISABLED\000"
 5627      455F4552 
 5627      524F525F 
 5627      494E445F 
 5627      44495341 
 5628              	.LASF119:
 5629 0f6a 4359424C 		.ascii	"CYBLE_ERROR_NTF_DISABLED\000"
 5629      455F4552 
 5629      524F525F 
 5629      4E54465F 
 5629      44495341 
 5630              	.LASF59:
 5631 0f83 4359424C 		.ascii	"CYBLE_EVT_GATTC_READ_RSP\000"
 5631      455F4556 
 5631      545F4741 
 5631      5454435F 
 5631      52454144 
 5632              	.LASF142:
 5633 0f9c 4359424C 		.ascii	"CYBLE_GAPP_CONNECTABLE_HIGH_DC_DIRECTED_ADV\000"
 5633      455F4741 
 5633      50505F43 
ARM GAS  C:\Users\ramanatg\AppData\Local\Temp\cciThAgf.s 			page 138


 5633      4F4E4E45 
 5633      43544142 
 5634              	.LASF79:
 5635 0fc8 4359424C 		.ascii	"CYBLE_EVT_L2CAP_CBFC_CONN_CNF\000"
 5635      455F4556 
 5635      545F4C32 
 5635      4341505F 
 5635      43424643 
 5636              	.LASF209:
 5637 0fe6 70726976 		.ascii	"privacyConfigParams\000"
 5637      61637943 
 5637      6F6E6669 
 5637      67506172 
 5637      616D7300 
 5638              	.LASF172:
 5639 0ffa 4359424C 		.ascii	"CYBLE_GATTS_ATT_GEN_VAL_LEN_T\000"
 5639      455F4741 
 5639      5454535F 
 5639      4154545F 
 5639      47454E5F 
 5640              	.LASF89:
 5641 1018 4359424C 		.ascii	"CYBLE_EVT_FLASH_CORRUPT\000"
 5641      455F4556 
 5641      545F464C 
 5641      4153485F 
 5641      434F5252 
 5642              	.LASF18:
 5643 1030 4359424C 		.ascii	"CYBLE_APP_CB_T\000"
 5643      455F4150 
 5643      505F4342 
 5643      5F5400
 5644              	.LASF164:
 5645 103f 61647654 		.ascii	"advTo\000"
 5645      6F00
 5646              	.LASF128:
 5647 1045 62756666 		.ascii	"bufferSize\000"
 5647      65725369 
 5647      7A6500
 5648              	.LASF25:
 5649 1050 4359424C 		.ascii	"CYBLE_EVT_MEMORY_REQUEST\000"
 5649      455F4556 
 5649      545F4D45 
 5649      4D4F5259 
 5649      5F524551 
 5650              	.LASF235:
 5651 1069 4379426C 		.ascii	"CyBle_Get16ByPtr\000"
 5651      655F4765 
 5651      74313642 
 5651      79507472 
 5651      00
 5652              	.LASF199:
 5653 107a 61707065 		.ascii	"appearanceCharHandle\000"
 5653      6172616E 
 5653      63654368 
 5653      61724861 
 5653      6E646C65 
 5654              	.LASF35:
ARM GAS  C:\Users\ramanatg\AppData\Local\Temp\cciThAgf.s 			page 139


 5655 108f 4359424C 		.ascii	"CYBLE_EVT_GAP_ENCRYPT_CHANGE\000"
 5655      455F4556 
 5655      545F4741 
 5655      505F454E 
 5655      43525950 
 5656              	.LASF53:
 5657 10ac 4359424C 		.ascii	"CYBLE_EVT_GATTS_XCNHG_MTU_REQ\000"
 5657      455F4556 
 5657      545F4741 
 5657      5454535F 
 5657      58434E48 
 5658              	.LASF49:
 5659 10ca 4359424C 		.ascii	"CYBLE_EVT_GAP_SMP_LOC_P256_KEYS_GEN_AND_SET_COMPLET"
 5659      455F4556 
 5659      545F4741 
 5659      505F534D 
 5659      505F4C4F 
 5660 10fd 4500     		.ascii	"E\000"
 5661              	.LASF7:
 5662 10ff 6C6F6E67 		.ascii	"long long unsigned int\000"
 5662      206C6F6E 
 5662      6720756E 
 5662      7369676E 
 5662      65642069 
 5663              	.LASF21:
 5664 1116 4359424C 		.ascii	"CYBLE_EVT_TIMEOUT\000"
 5664      455F4556 
 5664      545F5449 
 5664      4D454F55 
 5664      5400
 5665              	.LASF215:
 5666 1128 6973466F 		.ascii	"isForceWrite\000"
 5666      72636557 
 5666      72697465 
 5666      00
 5667              	.LASF122:
 5668 1135 4359424C 		.ascii	"CYBLE_ERROR_INVALID_STATE\000"
 5668      455F4552 
 5668      524F525F 
 5668      494E5641 
 5668      4C49445F 
 5669              	.LASF166:
 5670 114f 4359424C 		.ascii	"CYBLE_GATT_DB_ATTR_HANDLE_T\000"
 5670      455F4741 
 5670      54545F44 
 5670      425F4154 
 5670      54525F48 
 5671              	.LASF272:
 5672 116b 47656E65 		.ascii	"Generated_Source\\PSoC4\\BLE.c\000"
 5672      72617465 
 5672      645F536F 
 5672      75726365 
 5672      5C50536F 
 5673              	.LASF82:
 5674 1188 4359424C 		.ascii	"CYBLE_EVT_L2CAP_CBFC_DATA_READ\000"
 5674      455F4556 
 5674      545F4C32 
ARM GAS  C:\Users\ramanatg\AppData\Local\Temp\cciThAgf.s 			page 140


 5674      4341505F 
 5674      43424643 
 5675              	.LASF237:
 5676 11a7 76616C75 		.ascii	"value\000"
 5676      6500
 5677              	.LASF183:
 5678 11ad 61747456 		.ascii	"attValue\000"
 5678      616C7565 
 5678      00
 5679              	.LASF239:
 5680 11b6 4379426C 		.ascii	"CyBle_ApplCallback\000"
 5680      655F4170 
 5680      706C4361 
 5680      6C6C6261 
 5680      636B00
 5681              	.LASF116:
 5682 11c9 4359424C 		.ascii	"CYBLE_ERROR_FLASH_WRITE\000"
 5682      455F4552 
 5682      524F525F 
 5682      464C4153 
 5682      485F5752 
 5683              	.LASF203:
 5684 11e1 4359424C 		.ascii	"CYBLE_GAPS_T\000"
 5684      455F4741 
 5684      50535F54 
 5684      00
 5685              	.LASF127:
 5686 11ee 4359424C 		.ascii	"CYBLE_GAP_BD_ADDR_T\000"
 5686      455F4741 
 5686      505F4244 
 5686      5F414444 
 5686      525F5400 
 5687              	.LASF138:
 5688 1202 70726976 		.ascii	"privacyConfig\000"
 5688      61637943 
 5688      6F6E6669 
 5688      6700
 5689              	.LASF170:
 5690 1210 61637475 		.ascii	"actualLength\000"
 5690      616C4C65 
 5690      6E677468 
 5690      00
 5691              	.LASF157:
 5692 121d 61647644 		.ascii	"advDataLen\000"
 5692      6174614C 
 5692      656E00
 5693              	.LASF225:
 5694 1228 64657374 		.ascii	"dest\000"
 5694      00
 5695              	.LASF165:
 5696 122d 4359424C 		.ascii	"CYBLE_GAPP_DISC_MODE_INFO_T\000"
 5696      455F4741 
 5696      50505F44 
 5696      4953435F 
 5696      4D4F4445 
 5697              	.LASF249:
 5698 1249 6379426C 		.ascii	"cyBle_pendingFlashWrite\000"
ARM GAS  C:\Users\ramanatg\AppData\Local\Temp\cciThAgf.s 			page 141


 5698      655F7065 
 5698      6E64696E 
 5698      67466C61 
 5698      73685772 
 5699              	.LASF57:
 5700 1261 4359424C 		.ascii	"CYBLE_EVT_GATTC_FIND_INFO_RSP\000"
 5700      455F4556 
 5700      545F4741 
 5700      5454435F 
 5700      46494E44 
 5701              	.LASF56:
 5702 127f 4359424C 		.ascii	"CYBLE_EVT_GATTC_READ_BY_TYPE_RSP\000"
 5702      455F4556 
 5702      545F4741 
 5702      5454435F 
 5702      52454144 
 5703              	.LASF267:
 5704 12a0 4379426C 		.ascii	"CyBle_GapRemoveDeviceFromWhiteList\000"
 5704      655F4761 
 5704      7052656D 
 5704      6F766544 
 5704      65766963 
 5705              	.LASF212:
 5706 12c3 4379426C 		.ascii	"CyBle_Start\000"
 5706      655F5374 
 5706      61727400 
 5707              	.LASF254:
 5708 12cf 6379426C 		.ascii	"cyBle_state\000"
 5708      655F7374 
 5708      61746500 
 5709              	.LASF208:
 5710 12db 646C6543 		.ascii	"dleConfigParams\000"
 5710      6F6E6669 
 5710      67506172 
 5710      616D7300 
 5711              	.LASF266:
 5712 12eb 6D656D63 		.ascii	"memcmp\000"
 5712      6D7000
 5713              	.LASF63:
 5714 12f2 4359424C 		.ascii	"CYBLE_EVT_GATTC_WRITE_RSP\000"
 5714      455F4556 
 5714      545F4741 
 5714      5454435F 
 5714      57524954 
 5715              	.LASF195:
 5716 130c 4359424C 		.ascii	"CYBLE_STATE_DISCONNECTED\000"
 5716      455F5354 
 5716      4154455F 
 5716      44495343 
 5716      4F4E4E45 
 5717              	.LASF178:
 5718 1325 4359424C 		.ascii	"CYBLE_GATTS_ATT_VALUE_T\000"
 5718      455F4741 
 5718      5454535F 
 5718      4154545F 
 5718      56414C55 
 5719              	.LASF175:
ARM GAS  C:\Users\ramanatg\AppData\Local\Temp\cciThAgf.s 			page 142


 5720 133d 4359424C 		.ascii	"CYBLE_GATTS_ATT_PACK_VAL_LEN_T\000"
 5720      455F4741 
 5720      5454535F 
 5720      4154545F 
 5720      5041434B 
 5721              	.LASF32:
 5722 135c 4359424C 		.ascii	"CYBLE_EVT_GAPP_ADVERTISEMENT_START_STOP\000"
 5722      455F4556 
 5722      545F4741 
 5722      50505F41 
 5722      44564552 
 5723              	.LASF161:
 5724 1384 4359424C 		.ascii	"CYBLE_GAPP_SCAN_RSP_DATA_T\000"
 5724      455F4741 
 5724      50505F53 
 5724      43414E5F 
 5724      5253505F 
 5725              	.LASF171:
 5726 139f 61747447 		.ascii	"attGenericVal\000"
 5726      656E6572 
 5726      69635661 
 5726      6C00
 5727              	.LASF227:
 5728 13ad 6E616D65 		.ascii	"name\000"
 5728      00
 5729              	.LASF9:
 5730 13b2 75696E74 		.ascii	"uint8\000"
 5730      3800
 5731              	.LASF240:
 5732 13b8 6379426C 		.ascii	"cyBle_initVar\000"
 5732      655F696E 
 5732      69745661 
 5732      7200
 5733              	.LASF40:
 5734 13c6 4359424C 		.ascii	"CYBLE_EVT_GAP_KEYPRESS_NOTIFICATION\000"
 5734      455F4556 
 5734      545F4741 
 5734      505F4B45 
 5734      59505245 
 5735              	.LASF255:
 5736 13ea 6379426C 		.ascii	"cyBle_connHandle\000"
 5736      655F636F 
 5736      6E6E4861 
 5736      6E646C65 
 5736      00
 5737              	.LASF2:
 5738 13fb 73686F72 		.ascii	"short int\000"
 5738      7420696E 
 5738      7400
 5739              	.LASF232:
 5740 1405 4379426C 		.ascii	"CyBle_GapSetLocalName\000"
 5740      655F4761 
 5740      70536574 
 5740      4C6F6361 
 5740      6C4E616D 
 5741              	.LASF174:
 5742 141b 61747447 		.ascii	"attGenericValLen\000"
ARM GAS  C:\Users\ramanatg\AppData\Local\Temp\cciThAgf.s 			page 143


 5742      656E6572 
 5742      69635661 
 5742      6C4C656E 
 5742      00
 5743              	.LASF176:
 5744 142c 61747446 		.ascii	"attFormatValue\000"
 5744      6F726D61 
 5744      7456616C 
 5744      756500
 5745              	.LASF160:
 5746 143b 7363616E 		.ascii	"scanRspDataLen\000"
 5746      52737044 
 5746      6174614C 
 5746      656E00
 5747              	.LASF114:
 5748 144a 4359424C 		.ascii	"CYBLE_ERROR_HARDWARE_FAILURE\000"
 5748      455F4552 
 5748      524F525F 
 5748      48415244 
 5748      57415245 
 5749              	.LASF262:
 5750 1467 4379426C 		.ascii	"CyBle_GattsDbRegister\000"
 5750      655F4761 
 5750      74747344 
 5750      62526567 
 5750      69737465 
 5751              	.LASF50:
 5752 147d 4359424C 		.ascii	"CYBLE_EVT_GATTC_ERROR_RSP\000"
 5752      455F4556 
 5752      545F4741 
 5752      5454435F 
 5752      4552524F 
 5753              	.LASF196:
 5754 1497 4359424C 		.ascii	"CYBLE_STATE_T\000"
 5754      455F5354 
 5754      4154455F 
 5754      5400
 5755              	.LASF143:
 5756 14a5 4359424C 		.ascii	"CYBLE_GAPP_SCANNABLE_UNDIRECTED_ADV\000"
 5756      455F4741 
 5756      50505F53 
 5756      43414E4E 
 5756      41424C45 
 5757              	.LASF78:
 5758 14c9 4359424C 		.ascii	"CYBLE_EVT_L2CAP_CBFC_CONN_IND\000"
 5758      455F4556 
 5758      545F4C32 
 5758      4341505F 
 5758      43424643 
 5759              	.LASF66:
 5760 14e7 4359424C 		.ascii	"CYBLE_EVT_GATTS_EXEC_WRITE_REQ\000"
 5760      455F4556 
 5760      545F4741 
 5760      5454535F 
 5760      45584543 
 5761              	.LASF26:
 5762 1506 4359424C 		.ascii	"CYBLE_EVT_GAPC_SCAN_PROGRESS_RESULT\000"
ARM GAS  C:\Users\ramanatg\AppData\Local\Temp\cciThAgf.s 			page 144


 5762      455F4556 
 5762      545F4741 
 5762      50435F53 
 5762      43414E5F 
 5763              	.LASF188:
 5764 152a 63636364 		.ascii	"cccdCount\000"
 5764      436F756E 
 5764      7400
 5765              	.LASF248:
 5766 1534 6379426C 		.ascii	"cyBle_discoveryModeInfo\000"
 5766      655F6469 
 5766      73636F76 
 5766      6572794D 
 5766      6F646549 
 5767              	.LASF100:
 5768 154c 4359424C 		.ascii	"CYBLE_ERROR_GAP_ROLE\000"
 5768      455F4552 
 5768      524F525F 
 5768      4741505F 
 5768      524F4C45 
 5769              	.LASF241:
 5770 1561 6379426C 		.ascii	"cyBle_stackMemoryRam\000"
 5770      655F7374 
 5770      61636B4D 
 5770      656D6F72 
 5770      7952616D 
 5771              	.LASF47:
 5772 1576 4359424C 		.ascii	"CYBLE_EVT_GAP_SCAN_REQ_RECVD\000"
 5772      455F4556 
 5772      545F4741 
 5772      505F5343 
 5772      414E5F52 
 5773              	.LASF201:
 5774 1593 63656E74 		.ascii	"centralAddrResolutionCharHandle\000"
 5774      72616C41 
 5774      64647252 
 5774      65736F6C 
 5774      7574696F 
 5775              	.LASF125:
 5776 15b3 62644164 		.ascii	"bdAddr\000"
 5776      647200
 5777              	.LASF257:
 5778 15ba 6379426C 		.ascii	"cyBle_gaps\000"
 5778      655F6761 
 5778      707300
 5779              	.LASF242:
 5780 15c5 6379426C 		.ascii	"cyBle_eventHandlerFlag\000"
 5780      655F6576 
 5780      656E7448 
 5780      616E646C 
 5780      6572466C 
 5781              	.LASF213:
 5782 15dc 4379426C 		.ascii	"CyBle_StoreBondingData\000"
 5782      655F5374 
 5782      6F726542 
 5782      6F6E6469 
 5782      6E674461 
ARM GAS  C:\Users\ramanatg\AppData\Local\Temp\cciThAgf.s 			page 145


 5783              	.LASF97:
 5784 15f3 4359424C 		.ascii	"CYBLE_ERROR_NO_CONNECTION\000"
 5784      455F4552 
 5784      524F525F 
 5784      4E4F5F43 
 5784      4F4E4E45 
 5785              	.LASF275:
 5786 160d 6D656D63 		.ascii	"memcpy\000"
 5786      707900
 5787              	.LASF230:
 5788 1614 62797465 		.ascii	"byteCounter\000"
 5788      436F756E 
 5788      74657200 
 5789              	.LASF87:
 5790 1620 4359424C 		.ascii	"CYBLE_EVT_LE_PING_AUTH_TIMEOUT\000"
 5790      455F4556 
 5790      545F4C45 
 5790      5F50494E 
 5790      475F4155 
 5791              	.LASF124:
 5792 163f 4359424C 		.ascii	"CYBLE_API_RESULT_T\000"
 5792      455F4150 
 5792      495F5245 
 5792      53554C54 
 5792      5F5400
 5793              	.LASF252:
 5794 1652 6379426C 		.ascii	"cyBle_attValuesCCCD\000"
 5794      655F6174 
 5794      7456616C 
 5794      75657343 
 5794      43434400 
 5795              	.LASF69:
 5796 1666 4359424C 		.ascii	"CYBLE_EVT_GATTC_HANDLE_VALUE_IND\000"
 5796      455F4556 
 5796      545F4741 
 5796      5454435F 
 5796      48414E44 
 5797              	.LASF103:
 5798 1687 4359424C 		.ascii	"CYBLE_ERROR_SEC_FAILED\000"
 5798      455F4552 
 5798      524F525F 
 5798      5345435F 
 5798      4641494C 
 5799              	.LASF219:
 5800 169e 696E7661 		.ascii	"invalidBdAddr\000"
 5800      6C696442 
 5800      64416464 
 5800      7200
 5801              	.LASF24:
 5802 16ac 4359424C 		.ascii	"CYBLE_EVT_STACK_BUSY_STATUS\000"
 5802      455F4556 
 5802      545F5354 
 5802      41434B5F 
 5802      42555359 
 5803              	.LASF38:
 5804 16c8 4359424C 		.ascii	"CYBLE_EVT_GAP_KEYINFO_EXCHNGE_CMPLT\000"
 5804      455F4556 
ARM GAS  C:\Users\ramanatg\AppData\Local\Temp\cciThAgf.s 			page 146


 5804      545F4741 
 5804      505F4B45 
 5804      59494E46 
 5805              	.LASF273:
 5806 16ec 433A5C50 		.ascii	"C:\\Program Files (x86)\\Cypress\\CYALKIT-E02 Solar"
 5806      726F6772 
 5806      616D2046 
 5806      696C6573 
 5806      20287838 
 5807 171c 2D506F77 		.ascii	"-Powered BLE Sensor Beacon RDK\\1.0\\Firmware\\BLE\\"
 5807      65726564 
 5807      20424C45 
 5807      2053656E 
 5807      736F7220 
 5808 174c 536F6C61 		.ascii	"Solar_BLE_Sensor\\Solar_BLE_Sensor.cydsn\000"
 5808      725F424C 
 5808      455F5365 
 5808      6E736F72 
 5808      5C536F6C 
 5809              	.LASF75:
 5810 1774 4359424C 		.ascii	"CYBLE_EVT_L2CAP_CONN_PARAM_UPDATE_REQ\000"
 5810      455F4556 
 5810      545F4C32 
 5810      4341505F 
 5810      434F4E4E 
 5811              	.LASF246:
 5812 179a 6379426C 		.ascii	"cyBle_discoveryData\000"
 5812      655F6469 
 5812      73636F76 
 5812      65727944 
 5812      61746100 
 5813              	.LASF197:
 5814 17ae 67617053 		.ascii	"gapServiceCharHandle\000"
 5814      65727669 
 5814      63654368 
 5814      61724861 
 5814      6E646C65 
 5815              	.LASF3:
 5816 17c3 73686F72 		.ascii	"short unsigned int\000"
 5816      7420756E 
 5816      7369676E 
 5816      65642069 
 5816      6E7400
 5817              	.LASF152:
 5818 17d6 64697265 		.ascii	"directAddr\000"
 5818      63744164 
 5818      647200
 5819              	.LASF193:
 5820 17e1 4359424C 		.ascii	"CYBLE_STATE_CONNECTED\000"
 5820      455F5354 
 5820      4154455F 
 5820      434F4E4E 
 5820      45435445 
 5821              	.LASF132:
 5822 17f7 646C654D 		.ascii	"dleMaxRxCapability\000"
 5822      61785278 
 5822      43617061 
ARM GAS  C:\Users\ramanatg\AppData\Local\Temp\cciThAgf.s 			page 147


 5822      62696C69 
 5822      747900
 5823              	.LASF153:
 5824 180a 61647643 		.ascii	"advChannelMap\000"
 5824      68616E6E 
 5824      656C4D61 
 5824      7000
 5825              	.LASF141:
 5826 1818 4359424C 		.ascii	"CYBLE_GAPP_CONNECTABLE_UNDIRECTED_ADV\000"
 5826      455F4741 
 5826      50505F43 
 5826      4F4E4E45 
 5826      43544142 
 5827              	.LASF168:
 5828 183e 61747449 		.ascii	"attId\000"
 5828      6400
 5829              	.LASF93:
 5830 1844 4359424C 		.ascii	"CYBLE_ERROR_INVALID_OPERATION\000"
 5830      455F4552 
 5830      524F525F 
 5830      494E5641 
 5830      4C49445F 
 5831              	.LASF229:
 5832 1862 61644C65 		.ascii	"adLength\000"
 5832      6E677468 
 5832      00
 5833              	.LASF23:
 5834 186b 4359424C 		.ascii	"CYBLE_EVT_HCI_STATUS\000"
 5834      455F4556 
 5834      545F4843 
 5834      495F5354 
 5834      41545553 
 5835              	.LASF52:
 5836 1880 4359424C 		.ascii	"CYBLE_EVT_GATT_DISCONNECT_IND\000"
 5836      455F4556 
 5836      545F4741 
 5836      54545F44 
 5836      4953434F 
 5837              	.LASF85:
 5838 189e 4359424C 		.ascii	"CYBLE_EVT_L2CAP_CBFC_DATA_WRITE_IND\000"
 5838      455F4556 
 5838      545F4C32 
 5838      4341505F 
 5838      43424643 
 5839              	.LASF74:
 5840 18c2 4359424C 		.ascii	"CYBLE_EVT_GATTC_LONG_PROCEDURE_END\000"
 5840      455F4556 
 5840      545F4741 
 5840      5454435F 
 5840      4C4F4E47 
 5841              	.LASF34:
 5842 18e5 4359424C 		.ascii	"CYBLE_EVT_GAP_DEVICE_DISCONNECTED\000"
 5842      455F4556 
 5842      545F4741 
 5842      505F4445 
 5842      56494345 
 5843              	.LASF70:
ARM GAS  C:\Users\ramanatg\AppData\Local\Temp\cciThAgf.s 			page 148


 5844 1907 4359424C 		.ascii	"CYBLE_EVT_GATTS_HANDLE_VALUE_CNF\000"
 5844      455F4556 
 5844      545F4741 
 5844      5454535F 
 5844      48414E44 
 5845              	.LASF10:
 5846 1928 75696E74 		.ascii	"uint16\000"
 5846      313600
 5847              	.LASF150:
 5848 192f 6F776E41 		.ascii	"ownAddrType\000"
 5848      64647254 
 5848      79706500 
 5849              	.LASF101:
 5850 193b 4359424C 		.ascii	"CYBLE_ERROR_TX_POWER_READ\000"
 5850      455F4552 
 5850      524F525F 
 5850      54585F50 
 5850      4F574552 
 5851              	.LASF148:
 5852 1955 61647649 		.ascii	"advIntvMax\000"
 5852      6E74764D 
 5852      617800
 5853              		.ident	"GCC: (GNU Tools for ARM Embedded Processors) 4.9.3 20150303 (release) [ARM/embedded-4_9-br
