ARM GAS  C:\Users\ramanatg\AppData\Local\Temp\cc1t5guf.s 			page 1


   1              		.cpu cortex-m0
   2              		.fpu softvfp
   3              		.eabi_attribute 20, 1
   4              		.eabi_attribute 21, 1
   5              		.eabi_attribute 23, 3
   6              		.eabi_attribute 24, 1
   7              		.eabi_attribute 25, 1
   8              		.eabi_attribute 26, 1
   9              		.eabi_attribute 30, 2
  10              		.eabi_attribute 34, 0
  11              		.eabi_attribute 18, 4
  12              		.code	16
  13              		.file	"ConfigRW.c"
  14              		.text
  15              	.Ltext0:
  16              		.cfi_sections	.debug_frame
  17              		.section	.text.ConfigRW_UpdateConfig,"ax",%progbits
  18              		.align	2
  19              		.global	ConfigRW_UpdateConfig
  20              		.code	16
  21              		.thumb_func
  22              		.type	ConfigRW_UpdateConfig, %function
  23              	ConfigRW_UpdateConfig:
  24              	.LFB37:
  25              		.file 1 "ConfigRW.c"
   1:ConfigRW.c    **** /******************************************************************************
   2:ConfigRW.c    **** * Project Name      : Solar BLE Sensor
   3:ConfigRW.c    **** * File Name         : ConfigRW.c
   4:ConfigRW.c    **** * Version           : CYALKIT-E02 Sample Firmware, Version 1.2.00
   5:ConfigRW.c    **** * Device Used       : CYBLE-022001-00
   6:ConfigRW.c    **** * Software Used     : PSoC Creator 3.3 CP3
   7:ConfigRW.c    **** * Compiler          : ARM GCC 4.9.3
   8:ConfigRW.c    **** * Related Hardware  : Solar BLE Sensor
   9:ConfigRW.c    **** *
  10:ConfigRW.c    **** *******************************************************************************
  11:ConfigRW.c    **** * Copyright (2016), Cypress Semiconductor Corporation. All Rights Reserved.
  12:ConfigRW.c    **** *******************************************************************************
  13:ConfigRW.c    **** * This software is owned by Cypress Semiconductor Corporation (Cypress)
  14:ConfigRW.c    **** * and is protected by and subject to worldwide patent protection (United
  15:ConfigRW.c    **** * States and foreign), United States copyright laws and international treaty
  16:ConfigRW.c    **** * provisions. Cypress hereby grants to licensee a personal, non-exclusive,
  17:ConfigRW.c    **** * non-transferable license to copy, use, modify, create derivative works of,
  18:ConfigRW.c    **** * and compile the Cypress Source Code and derivative works for the sole
  19:ConfigRW.c    **** * purpose of creating custom software in support of licensee product to be
  20:ConfigRW.c    **** * used only in conjunction with a Cypress integrated circuit as specified in
  21:ConfigRW.c    **** * the applicable agreement. Any reproduction, modification, translation,
  22:ConfigRW.c    **** * compilation, or representation of this software except as specified above 
  23:ConfigRW.c    **** * is prohibited without the express written permission of Cypress.
  24:ConfigRW.c    **** *
  25:ConfigRW.c    **** * Disclaimer: CYPRESS MAKES NO WARRANTY OF ANY KIND, EXPRESS OR IMPLIED, WITH 
  26:ConfigRW.c    **** * REGARD TO THIS MATERIAL, INCLUDING, BUT NOT LIMITED TO, THE IMPLIED 
  27:ConfigRW.c    **** * WARRANTIES OF MERCHANTABILITY AND FITNESS FOR A PARTICULAR PURPOSE.
  28:ConfigRW.c    **** * Cypress reserves the right to make changes without further notice to the 
  29:ConfigRW.c    **** * materials described herein. Cypress does not assume any liability arising out 
  30:ConfigRW.c    **** * of the application or use of any product or circuit described herein. Cypress 
  31:ConfigRW.c    **** * does not authorize its products for use as critical components in life-support 
  32:ConfigRW.c    **** * systems where a malfunction or failure may reasonably be expected to result in 
ARM GAS  C:\Users\ramanatg\AppData\Local\Temp\cc1t5guf.s 			page 2


  33:ConfigRW.c    **** * significant injury to the user. The inclusion of Cypress' product in a life-
  34:ConfigRW.c    **** * support systems application implies that the manufacturer assumes all risk of 
  35:ConfigRW.c    **** * such use and in doing so indemnifies Cypress against all charges. 
  36:ConfigRW.c    **** *
  37:ConfigRW.c    **** * Use of this Software may be limited by and subject to the applicable Cypress
  38:ConfigRW.c    **** * software license agreement. 
  39:ConfigRW.c    **** ******************************************************************************/
  40:ConfigRW.c    **** 
  41:ConfigRW.c    **** #include "ConfigRW.h"
  42:ConfigRW.c    **** 
  43:ConfigRW.c    **** /******************************************************************************
  44:ConfigRW.c    **** * Global Variable Declaration
  45:ConfigRW.c    **** ******************************************************************************/
  46:ConfigRW.c    **** const BeaconConfig DefaultBeaconConfig =
  47:ConfigRW.c    **** {
  48:ConfigRW.c    ****     SFLASH_DATA_FLAG_VALID,             /* int32_t DataFlag_Start */
  49:ConfigRW.c    ****     
  50:ConfigRW.c    ****     { APP_BEACON_UUID },                /* uint8_t uuid[] */
  51:ConfigRW.c    ****     APP_MAJOR_VALUE,                    /* uint16_t major */
  52:ConfigRW.c    ****     APP_MINOR_VALUE,                    /* uint16_t minor */
  53:ConfigRW.c    ****     APP_ITRVL_VALUE,                    /* uint16_t itrvl */
  54:ConfigRW.c    ****     APP_COID_VALUE,                     /* uint16_t comID */
  55:ConfigRW.c    ****     
  56:ConfigRW.c    ****     APP_TXPWR_VALUE,                    /* int8_t txpwr   */
  57:ConfigRW.c    ****     APP_RSSI_VALUE,                     /* int8_t rssi    */
  58:ConfigRW.c    ****     
  59:ConfigRW.c    ****     APP_SENSOR_VALUE,                   /* int8_t sensor  */
  60:ConfigRW.c    ****     ADV_MODE_DEFAULT,                   /* int8_t mode    */
  61:ConfigRW.c    ****     
  62:ConfigRW.c    ****     { APP_EDDYSTONE_NID },              /* uint8_t nid[]  */
  63:ConfigRW.c    ****     { APP_EDDYSTONE_BID },              /* uint8_t bid[]  */
  64:ConfigRW.c    ****     
  65:ConfigRW.c    ****     {                                   /* int8_t TXPowerLevels[] */
  66:ConfigRW.c    ****         DEFAULT_TX_POWER_LOWEST,
  67:ConfigRW.c    ****         DEFAULT_TX_POWER_LOW,
  68:ConfigRW.c    ****         DEFAULT_TX_POWER_MEDIUM,
  69:ConfigRW.c    ****         DEFAULT_TX_POWER_HIGH
  70:ConfigRW.c    ****     },
  71:ConfigRW.c    ****     
  72:ConfigRW.c    ****     {                                   /* EDframeFlag frame  */
  73:ConfigRW.c    ****         ES_FRAME_UID_DEFAULT,
  74:ConfigRW.c    ****         ES_FRAME_URL_DEFAULT,
  75:ConfigRW.c    ****         ES_FRAME_TLM_DEFAULT,
  76:ConfigRW.c    ****         0                               /* Reserved bits */
  77:ConfigRW.c    ****     },
  78:ConfigRW.c    ****     
  79:ConfigRW.c    ****     ES_LOCK_STATE_DEFAULT,              /* uint8_t LockState */
  80:ConfigRW.c    ****     { ES_LOCK_DEFAULT },                /* uint8_t lock      */
  81:ConfigRW.c    ****     
  82:ConfigRW.c    ****     URI_LEGTH_DEFAULT,                  /* uint8_t URI_Length */
  83:ConfigRW.c    ****     { URI_DATA_DEFAULT },               /* uint8_t URI_Data[] */
  84:ConfigRW.c    ****     
  85:ConfigRW.c    ****     ES_URL_FLAGS_DEFAULT,               /* uint8_t URL_Flags */
  86:ConfigRW.c    ****     
  87:ConfigRW.c    ****     {                                   /* int8_t Adv_TXPowerLevels[] */
  88:ConfigRW.c    ****         DEFAULT_TX_POWER_LOWEST - SIGNAL_ATTENUATION, 
  89:ConfigRW.c    ****         DEFAULT_TX_POWER_LOW    - SIGNAL_ATTENUATION, 
ARM GAS  C:\Users\ramanatg\AppData\Local\Temp\cc1t5guf.s 			page 3


  90:ConfigRW.c    ****         DEFAULT_TX_POWER_MEDIUM - SIGNAL_ATTENUATION, 
  91:ConfigRW.c    ****         DEFAULT_TX_POWER_HIGH   - SIGNAL_ATTENUATION
  92:ConfigRW.c    ****     }, 
  93:ConfigRW.c    ****     ES_TXP_MODE_DEFAULT,                /* uint8_t TXPowerMode */
  94:ConfigRW.c    ****     
  95:ConfigRW.c    ****     ES_BEACON_PERIOD_DEFAULT,           /* uint16_t URLPeriod  */
  96:ConfigRW.c    ****     
  97:ConfigRW.c    ****     {},                                 /* int32_t reserved[]  */
  98:ConfigRW.c    ****     
  99:ConfigRW.c    ****     FIRMWARE_MINOR2_VERSION,            /* uint32_t version_minor2         */
 100:ConfigRW.c    ****     FW_VERSION,                         /* uint32_t version_major_minor1   */
 101:ConfigRW.c    ****     SFLASH_DATA_FLAG_VALID              /* int32_t DataFlag_End            */
 102:ConfigRW.c    **** };                                      /* default configuration */
 103:ConfigRW.c    **** 
 104:ConfigRW.c    **** /******************************************************************************
 105:ConfigRW.c    **** * Function Name: ConfigRW_UpdateConfig
 106:ConfigRW.c    **** *******************************************************************************
 107:ConfigRW.c    **** *
 108:ConfigRW.c    **** * Summary:
 109:ConfigRW.c    **** *   This function is used to update the configuration data stored in User SFlash, 
 110:ConfigRW.c    **** *   it could update part of the configuration or the whole configuration data.
 111:ConfigRW.c    **** *   The data format in User SFlash cannot be older than the current version.
 112:ConfigRW.c    **** *   Update URI_Length before updating URI_Data!
 113:ConfigRW.c    **** *
 114:ConfigRW.c    **** * Parameters:
 115:ConfigRW.c    **** *   ct - Any member of enum ConfigType. It's the type of what user want to update.
 116:ConfigRW.c    **** *   ptr - The pointer to the new configuration data.
 117:ConfigRW.c    **** *
 118:ConfigRW.c    **** * Return:
 119:ConfigRW.c    **** *   int32_t - Return value indicates if the function succeeded or failed. 
 120:ConfigRW.c    **** *   Following are the possible error codes.
 121:ConfigRW.c    **** *   
 122:ConfigRW.c    **** *   Errors codes                        Description
 123:ConfigRW.c    **** *   ------------                        -----------
 124:ConfigRW.c    **** *   E_CFGRW_OK                          No error.
 125:ConfigRW.c    **** *   E_CFGRW_PAR                         Incorrect parameter.
 126:ConfigRW.c    **** *   E_CFGRW_WR_FAIL                     Failed to write User SFlash.
 127:ConfigRW.c    **** ******************************************************************************/
 128:ConfigRW.c    **** int32_t ConfigRW_UpdateConfig(ConfigType ct, const void *ptr)
 129:ConfigRW.c    **** {
  26              		.loc 1 129 0
  27              		.cfi_startproc
  28              	.LVL0:
  29 0000 30B5     		push	{r4, r5, lr}
  30              		.cfi_def_cfa_offset 12
  31              		.cfi_offset 4, -12
  32              		.cfi_offset 5, -8
  33              		.cfi_offset 14, -4
  34 0002 041C     		mov	r4, r0
  35 0004 A1B0     		sub	sp, sp, #132
  36              		.cfi_def_cfa_offset 144
  37              		.loc 1 129 0
  38 0006 0D1E     		sub	r5, r1, #0
 130:ConfigRW.c    ****     BeaconConfig *pBCtemp;
 131:ConfigRW.c    ****     int32_t temp[USER_SFLASH_ROW_SIZE / sizeof(int32_t)];
 132:ConfigRW.c    ****     
 133:ConfigRW.c    ****     /* Check if parameter is invalid*/
ARM GAS  C:\Users\ramanatg\AppData\Local\Temp\cc1t5guf.s 			page 4


 134:ConfigRW.c    ****     if (NULL == ptr)
  39              		.loc 1 134 0
  40 0008 00D1     		bne	.LCB16
  41 000a 9CE0     		b	.L27	@long jump
  42              	.LCB16:
 135:ConfigRW.c    ****     {
 136:ConfigRW.c    ****         return E_CFGRW_PAR;
 137:ConfigRW.c    ****     }
 138:ConfigRW.c    ****     /* If all the settings need to be updated. */
 139:ConfigRW.c    ****     if(ct == CONFIG_TYPE_ALL)
  43              		.loc 1 139 0
  44 000c 1528     		cmp	r0, #21
  45 000e 10D0     		beq	.L3
  46              	.LVL1:
 140:ConfigRW.c    ****     {
 141:ConfigRW.c    ****         pBCtemp = (BeaconConfig *)ptr;
 142:ConfigRW.c    ****     }
 143:ConfigRW.c    ****     /* If just one setting needs to be updated. */
 144:ConfigRW.c    ****     else
 145:ConfigRW.c    ****     {
 146:ConfigRW.c    ****         pBCtemp = (BeaconConfig *)temp;
 147:ConfigRW.c    ****         
 148:ConfigRW.c    ****         memcpy(pBCtemp, pBeaconConfig, sizeof(BeaconConfig));
  47              		.loc 1 148 0
  48 0010 6846     		mov	r0, sp
  49              	.LVL2:
  50 0012 4E49     		ldr	r1, .L34
  51              	.LVL3:
  52 0014 8022     		mov	r2, #128
  53 0016 FFF7FEFF 		bl	memcpy
  54              	.LVL4:
 149:ConfigRW.c    ****         
 150:ConfigRW.c    ****         switch(ct)
  55              		.loc 1 150 0
  56 001a 142C     		cmp	r4, #20
  57 001c 00D9     		bls	.LCB29
  58 001e 92E0     		b	.L27	@long jump
  59              	.LCB29:
  60 0020 4B4B     		ldr	r3, .L34+4
  61 0022 A400     		lsl	r4, r4, #2
  62 0024 1B59     		ldr	r3, [r3, r4]
  63 0026 9F46     		mov	pc, r3
  64              		.section	.rodata
  65              		.align	2
  66              	.L5:
  67 0000 38010000 		.word	.L4
  68 0004 2E010000 		.word	.L6
  69 0008 24010000 		.word	.L7
  70 000c 1A010000 		.word	.L8
  71 0010 10010000 		.word	.L9
  72 0014 06010000 		.word	.L10
  73 0018 FC000000 		.word	.L11
  74 001c F2000000 		.word	.L12
  75 0020 E8000000 		.word	.L13
  76 0024 DA000000 		.word	.L14
  77 0028 CA000000 		.word	.L15
  78 002c BC000000 		.word	.L16
ARM GAS  C:\Users\ramanatg\AppData\Local\Temp\cc1t5guf.s 			page 5


  79 0030 B2000000 		.word	.L17
  80 0034 A6000000 		.word	.L18
  81 0038 96000000 		.word	.L19
  82 003c 8A000000 		.word	.L20
  83 0040 76000000 		.word	.L21
  84 0044 6A000000 		.word	.L22
  85 0048 5A000000 		.word	.L23
  86 004c 4E000000 		.word	.L24
  87 0050 28000000 		.word	.L25
  88              		.section	.text.ConfigRW_UpdateConfig
  89              	.L25:
 151:ConfigRW.c    ****         {
 152:ConfigRW.c    ****             case CONFIG_TYPE_UUID:
 153:ConfigRW.c    ****                 /* User just want to update UUID. */
 154:ConfigRW.c    ****                 memcpy(pBCtemp->uuid, ptr, sizeof(pBCtemp->uuid));
 155:ConfigRW.c    ****                 break;
 156:ConfigRW.c    ****                 
 157:ConfigRW.c    ****             case CONFIG_TYPE_MAJOR:
 158:ConfigRW.c    ****                 /* User just want to update MAJOR. */
 159:ConfigRW.c    ****                 pBCtemp->major = *(uint16_t *)ptr;
 160:ConfigRW.c    ****                 break;
 161:ConfigRW.c    ****                 
 162:ConfigRW.c    ****             case CONFIG_TYPE_MINOR:
 163:ConfigRW.c    ****                 /* User just want to update MINOR. */
 164:ConfigRW.c    ****                 pBCtemp->minor = *(uint16_t *)ptr;
 165:ConfigRW.c    ****                 break;
 166:ConfigRW.c    ****                 
 167:ConfigRW.c    ****             case CONFIG_TYPE_ITRVL:
 168:ConfigRW.c    ****                 /* User just want to update advertising interval in BLEBeacon mode. */
 169:ConfigRW.c    ****                 pBCtemp->itrvl = *(uint16_t *)ptr;
 170:ConfigRW.c    ****                 break;
 171:ConfigRW.c    ****                 
 172:ConfigRW.c    ****             case CONFIG_TYPE_COMID:
 173:ConfigRW.c    ****                 /* User just want to update company id. */
 174:ConfigRW.c    ****                 pBCtemp->comID = *(uint16_t *)ptr;
 175:ConfigRW.c    ****                 break;
 176:ConfigRW.c    ****                 
 177:ConfigRW.c    ****             case CONFIG_TYPE_TXPWR:
 178:ConfigRW.c    ****                 /* User just want to update tx power in BLEBeacon mode. */
 179:ConfigRW.c    ****                 pBCtemp->txpwr = *(int8_t *)ptr;
 180:ConfigRW.c    ****                 break;
 181:ConfigRW.c    ****                 
 182:ConfigRW.c    ****             case CONFIG_TYPE_RSSI:
 183:ConfigRW.c    ****                 /* User just want to update rssi value in BLEBeacon mode. */
 184:ConfigRW.c    ****                 pBCtemp->rssi = *(int8_t *)ptr;
 185:ConfigRW.c    ****                 break;
 186:ConfigRW.c    ****                 
 187:ConfigRW.c    ****             case CONFIG_TYPE_SENSOR:
 188:ConfigRW.c    ****                 /* User just want to update sensor mode. */
 189:ConfigRW.c    ****                 pBCtemp->sensor = *(int8_t *)ptr;
 190:ConfigRW.c    ****                 break;
 191:ConfigRW.c    ****                 
 192:ConfigRW.c    ****             case CONFIG_TYPE_MODE:
 193:ConfigRW.c    ****                 /* User just want to update the advertisement mode. */
 194:ConfigRW.c    ****                 pBCtemp->mode = *(int8_t *)ptr;
 195:ConfigRW.c    ****                 break;
 196:ConfigRW.c    ****                 
ARM GAS  C:\Users\ramanatg\AppData\Local\Temp\cc1t5guf.s 			page 6


 197:ConfigRW.c    ****             case CONFIG_TYPE_NID:
 198:ConfigRW.c    ****                 /* User just want to update NID. */
 199:ConfigRW.c    ****                 memcpy(pBCtemp->nid, ptr, sizeof(pBCtemp->nid));
 200:ConfigRW.c    ****                 break;
 201:ConfigRW.c    ****                 
 202:ConfigRW.c    ****             case CONFIG_TYPE_BID:
 203:ConfigRW.c    ****                 /* User just want to update BID. */
 204:ConfigRW.c    ****                 memcpy(pBCtemp->bid, ptr, sizeof(pBCtemp->bid));
 205:ConfigRW.c    ****                 break;
 206:ConfigRW.c    ****                 
 207:ConfigRW.c    ****             case CONFIG_TYPE_EDTXPWR:
 208:ConfigRW.c    ****                 /* User just want to update edtxpwr. */
 209:ConfigRW.c    ****                 memcpy(pBCtemp->TXPowerLevels, ptr, ES_TX_POWER_MODE_COUNT);
 210:ConfigRW.c    ****                 break;
 211:ConfigRW.c    ****                 
 212:ConfigRW.c    ****             case CONFIG_TYPE_FRAME:
 213:ConfigRW.c    ****                 /* User just want to update Eddystone frames. */
 214:ConfigRW.c    ****                 memcpy(&(pBCtemp->frame), ptr, sizeof(EDframeFlag));
 215:ConfigRW.c    ****                 break;
 216:ConfigRW.c    ****                 
 217:ConfigRW.c    ****             case CONFIG_TYPE_LOCKSTATE:
 218:ConfigRW.c    ****                 /* User just want to update the lock state. */
 219:ConfigRW.c    ****                 pBCtemp->LockState = *(uint8_t *)ptr;
 220:ConfigRW.c    ****                 break;
 221:ConfigRW.c    ****                 
 222:ConfigRW.c    ****             case CONFIG_TYPE_LOCK:
 223:ConfigRW.c    ****                 /* User just want to update Eddystone-URL lock-code. */
 224:ConfigRW.c    ****                 memcpy(pBCtemp->lock, ptr, sizeof(pBCtemp->lock));
 225:ConfigRW.c    ****                 break;
 226:ConfigRW.c    ****                 
 227:ConfigRW.c    ****             case CONFIG_TYPE_URILENGTH:
 228:ConfigRW.c    ****                 /* User just want to update URI_Length. */
 229:ConfigRW.c    ****                 pBCtemp->URI_Length = *(uint8_t *)ptr;
 230:ConfigRW.c    ****                 break;
 231:ConfigRW.c    ****                 
 232:ConfigRW.c    ****             case CONFIG_TYPE_URIDATA:
 233:ConfigRW.c    ****                 /* User just want to update URI_Data. */
 234:ConfigRW.c    ****                 memcpy(pBCtemp->URI_Data, ptr, pBCtemp->URI_Length);
 235:ConfigRW.c    ****                 break;
 236:ConfigRW.c    ****                 
 237:ConfigRW.c    ****             case CONFIG_TYPE_URLFLAGS:
 238:ConfigRW.c    ****                 /* User just want to update URL_Flags. */
 239:ConfigRW.c    ****                 pBCtemp->URL_Flags = *(uint8_t *)ptr;
 240:ConfigRW.c    ****                 break;
 241:ConfigRW.c    ****                 
 242:ConfigRW.c    ****             case CONFIG_TYPE_EDADPWR:
 243:ConfigRW.c    ****                 /* User just want to update Advertised TX Power Levels in Eddystone mode. */
 244:ConfigRW.c    ****                 memcpy(pBCtemp->Adv_TXPowerLevels, ptr, ES_TX_POWER_MODE_COUNT);
 245:ConfigRW.c    ****                 break;
 246:ConfigRW.c    ****                 
 247:ConfigRW.c    ****             case CONFIG_TYPE_TXPMODE:
 248:ConfigRW.c    ****                 /* User just want to update TXPowerMode in Eddystone mode. */
 249:ConfigRW.c    ****                 pBCtemp->TXPowerMode = *(uint8_t *)ptr;
 250:ConfigRW.c    ****                 break;
 251:ConfigRW.c    ****                 
 252:ConfigRW.c    ****             case CONFIG_TYPE_URLPERIOD:
 253:ConfigRW.c    ****                 /* User just want to update Beacon Period in Eddystone mode. */
ARM GAS  C:\Users\ramanatg\AppData\Local\Temp\cc1t5guf.s 			page 7


 254:ConfigRW.c    ****                 pBCtemp->URLPeriod = *(uint16_t *)ptr;
  90              		.loc 1 254 0
  91 0028 6023     		mov	r3, #96
  92 002a 6946     		mov	r1, sp
  93 002c 2A88     		ldrh	r2, [r5]
 146:ConfigRW.c    ****         
  94              		.loc 1 146 0
  95 002e 6D46     		mov	r5, sp
  96              	.LVL5:
  97              		.loc 1 254 0
  98 0030 CA52     		strh	r2, [r1, r3]
  99              	.LVL6:
 100              	.L3:
 255:ConfigRW.c    ****                 break;
 256:ConfigRW.c    ****                 
 257:ConfigRW.c    ****             default:
 258:ConfigRW.c    ****                 return E_CFGRW_PAR;
 259:ConfigRW.c    ****         }
 260:ConfigRW.c    ****     }
 261:ConfigRW.c    ****     
 262:ConfigRW.c    ****     /* Check writing result. If it's successful, return ok. */
 263:ConfigRW.c    ****     if(WriteUserSFlashRow(BLE_SFLASH_ROW_NUM, (uint32_t *)pBCtemp) == USER_SFLASH_WRITE_SUCCESSFUL)
 101              		.loc 1 263 0
 102 0032 0120     		mov	r0, #1
 103 0034 291C     		mov	r1, r5
 104 0036 FFF7FEFF 		bl	WriteUserSFlashRow
 105              	.LVL7:
 106 003a A023     		mov	r3, #160
 107 003c 021C     		mov	r2, r0
 108 003e 1B06     		lsl	r3, r3, #24
 264:ConfigRW.c    ****     {
 265:ConfigRW.c    ****         return E_CFGRW_OK;
 109              		.loc 1 265 0
 110 0040 0020     		mov	r0, #0
 263:ConfigRW.c    ****     {
 111              		.loc 1 263 0
 112 0042 9A42     		cmp	r2, r3
 113 0044 01D1     		bne	.L33
 114              	.LVL8:
 115              	.L2:
 266:ConfigRW.c    ****     }
 267:ConfigRW.c    ****     /* If it fails, inform the user. */
 268:ConfigRW.c    ****     else
 269:ConfigRW.c    ****     {
 270:ConfigRW.c    ****         return E_CFGRW_WR_FAIL;
 271:ConfigRW.c    ****     }
 272:ConfigRW.c    **** }
 116              		.loc 1 272 0
 117 0046 21B0     		add	sp, sp, #132
 118              		@ sp needed
 119 0048 30BD     		pop	{r4, r5, pc}
 120              	.LVL9:
 121              	.L33:
 270:ConfigRW.c    ****     }
 122              		.loc 1 270 0
 123 004a 0238     		sub	r0, r0, #2
 124 004c FBE7     		b	.L2
ARM GAS  C:\Users\ramanatg\AppData\Local\Temp\cc1t5guf.s 			page 8


 125              	.LVL10:
 126              	.L24:
 249:ConfigRW.c    ****                 break;
 127              		.loc 1 249 0
 128 004e 5E23     		mov	r3, #94
 129 0050 6946     		mov	r1, sp
 130 0052 2A78     		ldrb	r2, [r5]
 146:ConfigRW.c    ****         
 131              		.loc 1 146 0
 132 0054 6D46     		mov	r5, sp
 133              	.LVL11:
 249:ConfigRW.c    ****                 break;
 134              		.loc 1 249 0
 135 0056 CA54     		strb	r2, [r1, r3]
 250:ConfigRW.c    ****                 
 136              		.loc 1 250 0
 137 0058 EBE7     		b	.L3
 138              	.LVL12:
 139              	.L23:
 244:ConfigRW.c    ****                 break;
 140              		.loc 1 244 0
 141 005a 5A20     		mov	r0, #90
 142 005c 291C     		mov	r1, r5
 143 005e 6844     		add	r0, r0, sp
 144 0060 0422     		mov	r2, #4
 145 0062 FFF7FEFF 		bl	memcpy
 146              	.LVL13:
 146:ConfigRW.c    ****         
 147              		.loc 1 146 0
 148 0066 6D46     		mov	r5, sp
 149              	.LVL14:
 245:ConfigRW.c    ****                 
 150              		.loc 1 245 0
 151 0068 E3E7     		b	.L3
 152              	.LVL15:
 153              	.L22:
 239:ConfigRW.c    ****                 break;
 154              		.loc 1 239 0
 155 006a 5923     		mov	r3, #89
 156 006c 6946     		mov	r1, sp
 157 006e 2A78     		ldrb	r2, [r5]
 146:ConfigRW.c    ****         
 158              		.loc 1 146 0
 159 0070 6D46     		mov	r5, sp
 160              	.LVL16:
 239:ConfigRW.c    ****                 break;
 161              		.loc 1 239 0
 162 0072 CA54     		strb	r2, [r1, r3]
 240:ConfigRW.c    ****                 
 163              		.loc 1 240 0
 164 0074 DDE7     		b	.L3
 165              	.LVL17:
 166              	.L21:
 234:ConfigRW.c    ****                 break;
 167              		.loc 1 234 0
 168 0076 4623     		mov	r3, #70
 169 0078 6A46     		mov	r2, sp
ARM GAS  C:\Users\ramanatg\AppData\Local\Temp\cc1t5guf.s 			page 9


 170 007a 4720     		mov	r0, #71
 171 007c 291C     		mov	r1, r5
 172 007e D25C     		ldrb	r2, [r2, r3]
 173 0080 6844     		add	r0, r0, sp
 174 0082 FFF7FEFF 		bl	memcpy
 175              	.LVL18:
 146:ConfigRW.c    ****         
 176              		.loc 1 146 0
 177 0086 6D46     		mov	r5, sp
 178              	.LVL19:
 235:ConfigRW.c    ****                 
 179              		.loc 1 235 0
 180 0088 D3E7     		b	.L3
 181              	.LVL20:
 182              	.L20:
 229:ConfigRW.c    ****                 break;
 183              		.loc 1 229 0
 184 008a 4623     		mov	r3, #70
 185 008c 6946     		mov	r1, sp
 186 008e 2A78     		ldrb	r2, [r5]
 146:ConfigRW.c    ****         
 187              		.loc 1 146 0
 188 0090 6D46     		mov	r5, sp
 189              	.LVL21:
 229:ConfigRW.c    ****                 break;
 190              		.loc 1 229 0
 191 0092 CA54     		strb	r2, [r1, r3]
 230:ConfigRW.c    ****                 
 192              		.loc 1 230 0
 193 0094 CDE7     		b	.L3
 194              	.LVL22:
 195              	.L19:
 224:ConfigRW.c    ****                 break;
 196              		.loc 1 224 0
 197 0096 3620     		mov	r0, #54
 198 0098 291C     		mov	r1, r5
 199 009a 6844     		add	r0, r0, sp
 200 009c 1022     		mov	r2, #16
 201 009e FFF7FEFF 		bl	memcpy
 202              	.LVL23:
 146:ConfigRW.c    ****         
 203              		.loc 1 146 0
 204 00a2 6D46     		mov	r5, sp
 205              	.LVL24:
 225:ConfigRW.c    ****                 
 206              		.loc 1 225 0
 207 00a4 C5E7     		b	.L3
 208              	.LVL25:
 209              	.L18:
 219:ConfigRW.c    ****                 break;
 210              		.loc 1 219 0
 211 00a6 3523     		mov	r3, #53
 212 00a8 6946     		mov	r1, sp
 213 00aa 2A78     		ldrb	r2, [r5]
 146:ConfigRW.c    ****         
 214              		.loc 1 146 0
 215 00ac 6D46     		mov	r5, sp
ARM GAS  C:\Users\ramanatg\AppData\Local\Temp\cc1t5guf.s 			page 10


 216              	.LVL26:
 219:ConfigRW.c    ****                 break;
 217              		.loc 1 219 0
 218 00ae CA54     		strb	r2, [r1, r3]
 220:ConfigRW.c    ****                 
 219              		.loc 1 220 0
 220 00b0 BFE7     		b	.L3
 221              	.LVL27:
 222              	.L17:
 214:ConfigRW.c    ****                 break;
 223              		.loc 1 214 0
 224 00b2 2A78     		ldrb	r2, [r5]
 225 00b4 0DAB     		add	r3, sp, #52
 226 00b6 1A70     		strb	r2, [r3]
 146:ConfigRW.c    ****         
 227              		.loc 1 146 0
 228 00b8 6D46     		mov	r5, sp
 229              	.LVL28:
 215:ConfigRW.c    ****                 
 230              		.loc 1 215 0
 231 00ba BAE7     		b	.L3
 232              	.LVL29:
 233              	.L16:
 209:ConfigRW.c    ****                 break;
 234              		.loc 1 209 0
 235 00bc 291C     		mov	r1, r5
 236 00be 0CA8     		add	r0, sp, #48
 237 00c0 0422     		mov	r2, #4
 238 00c2 FFF7FEFF 		bl	memcpy
 239              	.LVL30:
 146:ConfigRW.c    ****         
 240              		.loc 1 146 0
 241 00c6 6D46     		mov	r5, sp
 242              	.LVL31:
 210:ConfigRW.c    ****                 
 243              		.loc 1 210 0
 244 00c8 B3E7     		b	.L3
 245              	.LVL32:
 246              	.L15:
 204:ConfigRW.c    ****                 break;
 247              		.loc 1 204 0
 248 00ca 2A20     		mov	r0, #42
 249 00cc 291C     		mov	r1, r5
 250 00ce 6844     		add	r0, r0, sp
 251 00d0 0622     		mov	r2, #6
 252 00d2 FFF7FEFF 		bl	memcpy
 253              	.LVL33:
 146:ConfigRW.c    ****         
 254              		.loc 1 146 0
 255 00d6 6D46     		mov	r5, sp
 256              	.LVL34:
 205:ConfigRW.c    ****                 
 257              		.loc 1 205 0
 258 00d8 ABE7     		b	.L3
 259              	.LVL35:
 260              	.L14:
 199:ConfigRW.c    ****                 break;
ARM GAS  C:\Users\ramanatg\AppData\Local\Temp\cc1t5guf.s 			page 11


 261              		.loc 1 199 0
 262 00da 291C     		mov	r1, r5
 263 00dc 08A8     		add	r0, sp, #32
 264 00de 0A22     		mov	r2, #10
 265 00e0 FFF7FEFF 		bl	memcpy
 266              	.LVL36:
 146:ConfigRW.c    ****         
 267              		.loc 1 146 0
 268 00e4 6D46     		mov	r5, sp
 269              	.LVL37:
 200:ConfigRW.c    ****                 
 270              		.loc 1 200 0
 271 00e6 A4E7     		b	.L3
 272              	.LVL38:
 273              	.L13:
 194:ConfigRW.c    ****                 break;
 274              		.loc 1 194 0
 275 00e8 6A46     		mov	r2, sp
 276 00ea 2B78     		ldrb	r3, [r5]
 146:ConfigRW.c    ****         
 277              		.loc 1 146 0
 278 00ec 6D46     		mov	r5, sp
 279              	.LVL39:
 194:ConfigRW.c    ****                 break;
 280              		.loc 1 194 0
 281 00ee D377     		strb	r3, [r2, #31]
 195:ConfigRW.c    ****                 
 282              		.loc 1 195 0
 283 00f0 9FE7     		b	.L3
 284              	.LVL40:
 285              	.L12:
 189:ConfigRW.c    ****                 break;
 286              		.loc 1 189 0
 287 00f2 6A46     		mov	r2, sp
 288 00f4 2B78     		ldrb	r3, [r5]
 146:ConfigRW.c    ****         
 289              		.loc 1 146 0
 290 00f6 6D46     		mov	r5, sp
 291              	.LVL41:
 189:ConfigRW.c    ****                 break;
 292              		.loc 1 189 0
 293 00f8 9377     		strb	r3, [r2, #30]
 190:ConfigRW.c    ****                 
 294              		.loc 1 190 0
 295 00fa 9AE7     		b	.L3
 296              	.LVL42:
 297              	.L11:
 184:ConfigRW.c    ****                 break;
 298              		.loc 1 184 0
 299 00fc 6A46     		mov	r2, sp
 300 00fe 2B78     		ldrb	r3, [r5]
 146:ConfigRW.c    ****         
 301              		.loc 1 146 0
 302 0100 6D46     		mov	r5, sp
 303              	.LVL43:
 184:ConfigRW.c    ****                 break;
 304              		.loc 1 184 0
ARM GAS  C:\Users\ramanatg\AppData\Local\Temp\cc1t5guf.s 			page 12


 305 0102 5377     		strb	r3, [r2, #29]
 185:ConfigRW.c    ****                 
 306              		.loc 1 185 0
 307 0104 95E7     		b	.L3
 308              	.LVL44:
 309              	.L10:
 179:ConfigRW.c    ****                 break;
 310              		.loc 1 179 0
 311 0106 6A46     		mov	r2, sp
 312 0108 2B78     		ldrb	r3, [r5]
 146:ConfigRW.c    ****         
 313              		.loc 1 146 0
 314 010a 6D46     		mov	r5, sp
 315              	.LVL45:
 179:ConfigRW.c    ****                 break;
 316              		.loc 1 179 0
 317 010c 1377     		strb	r3, [r2, #28]
 180:ConfigRW.c    ****                 
 318              		.loc 1 180 0
 319 010e 90E7     		b	.L3
 320              	.LVL46:
 321              	.L9:
 174:ConfigRW.c    ****                 break;
 322              		.loc 1 174 0
 323 0110 6A46     		mov	r2, sp
 324 0112 2B88     		ldrh	r3, [r5]
 146:ConfigRW.c    ****         
 325              		.loc 1 146 0
 326 0114 6D46     		mov	r5, sp
 327              	.LVL47:
 174:ConfigRW.c    ****                 break;
 328              		.loc 1 174 0
 329 0116 5383     		strh	r3, [r2, #26]
 175:ConfigRW.c    ****                 
 330              		.loc 1 175 0
 331 0118 8BE7     		b	.L3
 332              	.LVL48:
 333              	.L8:
 169:ConfigRW.c    ****                 break;
 334              		.loc 1 169 0
 335 011a 6A46     		mov	r2, sp
 336 011c 2B88     		ldrh	r3, [r5]
 146:ConfigRW.c    ****         
 337              		.loc 1 146 0
 338 011e 6D46     		mov	r5, sp
 339              	.LVL49:
 169:ConfigRW.c    ****                 break;
 340              		.loc 1 169 0
 341 0120 1383     		strh	r3, [r2, #24]
 170:ConfigRW.c    ****                 
 342              		.loc 1 170 0
 343 0122 86E7     		b	.L3
 344              	.LVL50:
 345              	.L7:
 164:ConfigRW.c    ****                 break;
 346              		.loc 1 164 0
 347 0124 6A46     		mov	r2, sp
ARM GAS  C:\Users\ramanatg\AppData\Local\Temp\cc1t5guf.s 			page 13


 348 0126 2B88     		ldrh	r3, [r5]
 146:ConfigRW.c    ****         
 349              		.loc 1 146 0
 350 0128 6D46     		mov	r5, sp
 351              	.LVL51:
 164:ConfigRW.c    ****                 break;
 352              		.loc 1 164 0
 353 012a D382     		strh	r3, [r2, #22]
 165:ConfigRW.c    ****                 
 354              		.loc 1 165 0
 355 012c 81E7     		b	.L3
 356              	.LVL52:
 357              	.L6:
 159:ConfigRW.c    ****                 break;
 358              		.loc 1 159 0
 359 012e 6A46     		mov	r2, sp
 360 0130 2B88     		ldrh	r3, [r5]
 146:ConfigRW.c    ****         
 361              		.loc 1 146 0
 362 0132 6D46     		mov	r5, sp
 363              	.LVL53:
 159:ConfigRW.c    ****                 break;
 364              		.loc 1 159 0
 365 0134 9382     		strh	r3, [r2, #20]
 160:ConfigRW.c    ****                 
 366              		.loc 1 160 0
 367 0136 7CE7     		b	.L3
 368              	.LVL54:
 369              	.L4:
 154:ConfigRW.c    ****                 break;
 370              		.loc 1 154 0
 371 0138 291C     		mov	r1, r5
 372 013a 01A8     		add	r0, sp, #4
 373 013c 1022     		mov	r2, #16
 374 013e FFF7FEFF 		bl	memcpy
 375              	.LVL55:
 146:ConfigRW.c    ****         
 376              		.loc 1 146 0
 377 0142 6D46     		mov	r5, sp
 378              	.LVL56:
 155:ConfigRW.c    ****                 
 379              		.loc 1 155 0
 380 0144 75E7     		b	.L3
 381              	.LVL57:
 382              	.L27:
 258:ConfigRW.c    ****         }
 383              		.loc 1 258 0
 384 0146 0120     		mov	r0, #1
 385 0148 4042     		neg	r0, r0
 386 014a 7CE7     		b	.L2
 387              	.L35:
 388              		.align	2
 389              	.L34:
 390 014c 80F2FF0F 		.word	268432000
 391 0150 00000000 		.word	.L5
 392              		.cfi_endproc
 393              	.LFE37:
ARM GAS  C:\Users\ramanatg\AppData\Local\Temp\cc1t5guf.s 			page 14


 394              		.size	ConfigRW_UpdateConfig, .-ConfigRW_UpdateConfig
 395              		.section	.text.ConfigRW_CheckVersion,"ax",%progbits
 396              		.align	2
 397              		.global	ConfigRW_CheckVersion
 398              		.code	16
 399              		.thumb_func
 400              		.type	ConfigRW_CheckVersion, %function
 401              	ConfigRW_CheckVersion:
 402              	.LFB38:
 273:ConfigRW.c    **** 
 274:ConfigRW.c    **** /******************************************************************************
 275:ConfigRW.c    **** * Function Name: ConfigRW_CheckVersion
 276:ConfigRW.c    **** *******************************************************************************
 277:ConfigRW.c    **** *
 278:ConfigRW.c    **** * Summary:
 279:ConfigRW.c    **** *   This function checks data stored in User SFlash. 
 280:ConfigRW.c    **** *   If there is no data, it writes the default configuration into User SFlash.
 281:ConfigRW.c    **** *   If the version of the stored data is old, update the data with the latest 
 282:ConfigRW.c    **** *   format, the data value will not change.
 283:ConfigRW.c    **** *
 284:ConfigRW.c    **** * Parameters:
 285:ConfigRW.c    **** *   None
 286:ConfigRW.c    **** *
 287:ConfigRW.c    **** * Return:
 288:ConfigRW.c    **** *   int32_t - Return value indicates if the function succeeded or failed. 
 289:ConfigRW.c    **** *   Following are the possible error codes.
 290:ConfigRW.c    **** *   
 291:ConfigRW.c    **** *   Errors codes                        Description
 292:ConfigRW.c    **** *   ------------                        -----------
 293:ConfigRW.c    **** *   E_CFGRW_OK                          No error.
 294:ConfigRW.c    **** *   E_CFGRW_WR_FAIL                     Failed to write User SFlash.
 295:ConfigRW.c    **** ******************************************************************************/
 296:ConfigRW.c    **** int32_t ConfigRW_CheckVersion(void)
 297:ConfigRW.c    **** {
 403              		.loc 1 297 0
 404              		.cfi_startproc
 405 0000 70B5     		push	{r4, r5, r6, lr}
 406              		.cfi_def_cfa_offset 16
 407              		.cfi_offset 4, -16
 408              		.cfi_offset 5, -12
 409              		.cfi_offset 6, -8
 410              		.cfi_offset 14, -4
 298:ConfigRW.c    ****     /* Try resolving the configuration in User SFlash with the latest format. */
 299:ConfigRW.c    ****     if( (pBeaconConfig->DataFlag_End == SFLASH_DATA_FLAG_VALID) && \
 411              		.loc 1 299 0
 412 0002 384C     		ldr	r4, .L51
 413 0004 384A     		ldr	r2, .L51+4
 414 0006 E36F     		ldr	r3, [r4, #124]
 297:ConfigRW.c    ****     /* Try resolving the configuration in User SFlash with the latest format. */
 415              		.loc 1 297 0
 416 0008 A0B0     		sub	sp, sp, #128
 417              		.cfi_def_cfa_offset 144
 418              		.loc 1 299 0
 419 000a 9342     		cmp	r3, r2
 420 000c 1AD0     		beq	.L49
 421              	.L37:
 300:ConfigRW.c    ****         (pBeaconConfig->DataFlag_Start == SFLASH_DATA_FLAG_VALID)  )
ARM GAS  C:\Users\ramanatg\AppData\Local\Temp\cc1t5guf.s 			page 15


 301:ConfigRW.c    ****     {
 302:ConfigRW.c    ****         /* If the format is older than the current version. */
 303:ConfigRW.c    ****         if(pBeaconConfig->version_major_minor1 < FW_VERSION)
 304:ConfigRW.c    ****         {
 305:ConfigRW.c    ****             /* There's configuration data of version 1.1 format in User SFlash. */
 306:ConfigRW.c    ****             int32_t temp[USER_SFLASH_ROW_SIZE / sizeof(int32_t)];
 307:ConfigRW.c    ****             BeaconConfig *pBCtemp = (BeaconConfig *)temp;
 308:ConfigRW.c    **** 
 309:ConfigRW.c    ****             memcpy(pBCtemp, &DefaultBeaconConfig, sizeof(BeaconConfig));
 310:ConfigRW.c    ****             memset(pBCtemp->reserved, SFLASH_DATA_INIT_VALUE, sizeof(pBCtemp->reserved));
 311:ConfigRW.c    ****         
 312:ConfigRW.c    ****             memcpy(pBCtemp->uuid, pBeaconConfig->uuid, sizeof(pBeaconConfig->uuid));
 313:ConfigRW.c    ****             pBCtemp->major  = pBeaconConfig->major;
 314:ConfigRW.c    ****             pBCtemp->minor  = pBeaconConfig->minor;
 315:ConfigRW.c    ****             pBCtemp->itrvl  = pBeaconConfig->itrvl;
 316:ConfigRW.c    ****             pBCtemp->comID  = pBeaconConfig->comID;
 317:ConfigRW.c    ****             
 318:ConfigRW.c    ****             pBCtemp->txpwr  = pBeaconConfig->txpwr;
 319:ConfigRW.c    ****             pBCtemp->rssi   = pBeaconConfig->rssi;
 320:ConfigRW.c    ****             pBCtemp->sensor = pBeaconConfig->sensor;
 321:ConfigRW.c    ****         
 322:ConfigRW.c    ****             return ConfigRW_UpdateConfig(CONFIG_TYPE_ALL, temp);
 323:ConfigRW.c    ****         }
 324:ConfigRW.c    ****         /* The format is newer than or same as the current version. */
 325:ConfigRW.c    ****         else
 326:ConfigRW.c    ****         {
 327:ConfigRW.c    ****             return E_CFGRW_OK;
 328:ConfigRW.c    ****         }
 329:ConfigRW.c    ****     }
 330:ConfigRW.c    ****     /* Try resolving the configuration in User SFlash with the version 1.0 format. */
 331:ConfigRW.c    ****     else if(pBeaconConfig_1V0->SFlashDataFlag == SFLASH_DATA_FLAG_VALID)
 422              		.loc 1 331 0
 423 000e 354C     		ldr	r4, .L51
 424 0010 354B     		ldr	r3, .L51+4
 425 0012 E269     		ldr	r2, [r4, #28]
 426              	.LBB12:
 332:ConfigRW.c    ****     {
 333:ConfigRW.c    ****         int32_t temp[USER_SFLASH_ROW_SIZE / sizeof(int32_t)];
 334:ConfigRW.c    ****         BeaconConfig *pBCtemp = (BeaconConfig *)temp;
 335:ConfigRW.c    ****         
 336:ConfigRW.c    ****         memcpy(pBCtemp, &DefaultBeaconConfig, sizeof(BeaconConfig));
 427              		.loc 1 336 0
 428 0014 6846     		mov	r0, sp
 429 0016 3549     		ldr	r1, .L51+8
 430              	.LBE12:
 331:ConfigRW.c    ****     {
 431              		.loc 1 331 0
 432 0018 9A42     		cmp	r2, r3
 433 001a 44D0     		beq	.L50
 434              	.LVL58:
 435              	.LBB13:
 436              	.LBB14:
 337:ConfigRW.c    ****         memset(pBCtemp->reserved, SFLASH_DATA_INIT_VALUE, sizeof(pBCtemp->reserved));
 338:ConfigRW.c    ****         
 339:ConfigRW.c    ****         memcpy(pBCtemp->uuid, pBeaconConfig_1V0->uuid, sizeof(pBeaconConfig_1V0->uuid));
 340:ConfigRW.c    ****         
 341:ConfigRW.c    ****         pBCtemp->major  = pBeaconConfig_1V0->major;
ARM GAS  C:\Users\ramanatg\AppData\Local\Temp\cc1t5guf.s 			page 16


 342:ConfigRW.c    ****         pBCtemp->minor  = pBeaconConfig_1V0->minor;
 343:ConfigRW.c    ****         pBCtemp->itrvl  = pBeaconConfig_1V0->itrvl;
 344:ConfigRW.c    ****         pBCtemp->comID  = pBeaconConfig_1V0->comID;
 345:ConfigRW.c    ****         
 346:ConfigRW.c    ****         pBCtemp->txpwr  = pBeaconConfig_1V0->txpwr;
 347:ConfigRW.c    ****         pBCtemp->rssi   = pBeaconConfig_1V0->rssi;
 348:ConfigRW.c    ****         pBCtemp->sensor = pBeaconConfig_1V0->sensor;
 349:ConfigRW.c    ****         
 350:ConfigRW.c    ****         return ConfigRW_UpdateConfig(CONFIG_TYPE_ALL, temp);
 351:ConfigRW.c    ****     }
 352:ConfigRW.c    ****     /* Data in User SFlash cannot be resolved, copy default settings to user SFlash. */
 353:ConfigRW.c    ****     else
 354:ConfigRW.c    ****     {
 355:ConfigRW.c    ****         return ConfigRW_WriteDefault();
 356:ConfigRW.c    ****     }
 357:ConfigRW.c    **** }
 358:ConfigRW.c    **** 
 359:ConfigRW.c    **** /******************************************************************************
 360:ConfigRW.c    **** * Function Name: ConfigRW_WriteDefault
 361:ConfigRW.c    **** *******************************************************************************
 362:ConfigRW.c    **** *
 363:ConfigRW.c    **** * Summary:
 364:ConfigRW.c    **** *   This function writes the default configuration into User SFlash.
 365:ConfigRW.c    **** *
 366:ConfigRW.c    **** * Parameters:
 367:ConfigRW.c    **** *   None
 368:ConfigRW.c    **** *
 369:ConfigRW.c    **** * Return:
 370:ConfigRW.c    **** *   int32_t - Return value indicates if the function succeeded or failed. 
 371:ConfigRW.c    **** *   Following are the possible error codes.
 372:ConfigRW.c    **** *   
 373:ConfigRW.c    **** *   Errors codes                        Description
 374:ConfigRW.c    **** *   ------------                        -----------
 375:ConfigRW.c    **** *   E_CFGRW_OK                          No error.
 376:ConfigRW.c    **** *   E_CFGRW_WR_FAIL                     Failed to write User SFlash.
 377:ConfigRW.c    **** ******************************************************************************/
 378:ConfigRW.c    **** int32_t ConfigRW_WriteDefault(void)
 379:ConfigRW.c    **** {
 380:ConfigRW.c    ****     int32_t temp[USER_SFLASH_ROW_SIZE / sizeof(int32_t)];
 381:ConfigRW.c    ****     BeaconConfig *pBCtemp = (BeaconConfig *)temp;
 382:ConfigRW.c    ****     
 383:ConfigRW.c    ****     memcpy(pBCtemp, &DefaultBeaconConfig, sizeof(BeaconConfig));
 437              		.loc 1 383 0
 438 001c 8022     		mov	r2, #128
 439 001e FFF7FEFF 		bl	memcpy
 440              	.LVL59:
 384:ConfigRW.c    ****     
 385:ConfigRW.c    ****     memset(pBCtemp->reserved, SFLASH_DATA_INIT_VALUE, sizeof(pBCtemp->reserved));
 441              		.loc 1 385 0
 442 0022 19A8     		add	r0, sp, #100
 443 0024 FF21     		mov	r1, #255
 444 0026 1022     		mov	r2, #16
 445 0028 FFF7FEFF 		bl	memset
 446              	.LVL60:
 447              	.L48:
 448              	.LBB15:
 449              	.LBB16:
ARM GAS  C:\Users\ramanatg\AppData\Local\Temp\cc1t5guf.s 			page 17


 263:ConfigRW.c    ****     {
 450              		.loc 1 263 0
 451 002c 0120     		mov	r0, #1
 452 002e 6946     		mov	r1, sp
 453 0030 FFF7FEFF 		bl	WriteUserSFlashRow
 454              	.LVL61:
 455 0034 A023     		mov	r3, #160
 265:ConfigRW.c    ****     }
 456              		.loc 1 265 0
 457 0036 0025     		mov	r5, #0
 263:ConfigRW.c    ****     {
 458              		.loc 1 263 0
 459 0038 1B06     		lsl	r3, r3, #24
 460 003a 9842     		cmp	r0, r3
 461 003c 31D1     		bne	.L47
 462              	.LVL62:
 463              	.L38:
 464              	.LBE16:
 465              	.LBE15:
 466              	.LBE14:
 467              	.LBE13:
 357:ConfigRW.c    **** 
 468              		.loc 1 357 0 discriminator 1
 469 003e 281C     		mov	r0, r5
 470 0040 20B0     		add	sp, sp, #128
 471              		@ sp needed
 472 0042 70BD     		pop	{r4, r5, r6, pc}
 473              	.L49:
 299:ConfigRW.c    ****         (pBeaconConfig->DataFlag_Start == SFLASH_DATA_FLAG_VALID)  )
 474              		.loc 1 299 0 discriminator 1
 475 0044 2268     		ldr	r2, [r4]
 476 0046 9A42     		cmp	r2, r3
 477 0048 E1D1     		bne	.L37
 303:ConfigRW.c    ****         {
 478              		.loc 1 303 0
 479 004a 294B     		ldr	r3, .L51+12
 480 004c A26F     		ldr	r2, [r4, #120]
 327:ConfigRW.c    ****         }
 481              		.loc 1 327 0
 482 004e 0025     		mov	r5, #0
 303:ConfigRW.c    ****         {
 483              		.loc 1 303 0
 484 0050 9A42     		cmp	r2, r3
 485 0052 F4D8     		bhi	.L38
 486              	.LVL63:
 487              	.LBB20:
 309:ConfigRW.c    ****             memset(pBCtemp->reserved, SFLASH_DATA_INIT_VALUE, sizeof(pBCtemp->reserved));
 488              		.loc 1 309 0
 489 0054 2549     		ldr	r1, .L51+8
 490 0056 8022     		mov	r2, #128
 491 0058 6846     		mov	r0, sp
 492 005a FFF7FEFF 		bl	memcpy
 493              	.LVL64:
 310:ConfigRW.c    ****         
 494              		.loc 1 310 0
 495 005e FF21     		mov	r1, #255
 496 0060 1022     		mov	r2, #16
ARM GAS  C:\Users\ramanatg\AppData\Local\Temp\cc1t5guf.s 			page 18


 497 0062 19A8     		add	r0, sp, #100
 498 0064 FFF7FEFF 		bl	memset
 499              	.LVL65:
 312:ConfigRW.c    ****             pBCtemp->major  = pBeaconConfig->major;
 500              		.loc 1 312 0
 501 0068 224B     		ldr	r3, .L51+16
 502 006a 01AA     		add	r2, sp, #4
 503 006c 43CB     		ldmia	r3!, {r0, r1, r6}
 504 006e 43C2     		stmia	r2!, {r0, r1, r6}
 505 0070 1B68     		ldr	r3, [r3]
 506              	.LBB21:
 507              	.LBB22:
 263:ConfigRW.c    ****     {
 508              		.loc 1 263 0
 509 0072 0120     		mov	r0, #1
 510              	.LBE22:
 511              	.LBE21:
 312:ConfigRW.c    ****             pBCtemp->major  = pBeaconConfig->major;
 512              		.loc 1 312 0
 513 0074 1360     		str	r3, [r2]
 313:ConfigRW.c    ****             pBCtemp->minor  = pBeaconConfig->minor;
 514              		.loc 1 313 0
 515 0076 6A46     		mov	r2, sp
 516 0078 A38A     		ldrh	r3, [r4, #20]
 517              	.LBB25:
 518              	.LBB23:
 263:ConfigRW.c    ****     {
 519              		.loc 1 263 0
 520 007a 6946     		mov	r1, sp
 521              	.LBE23:
 522              	.LBE25:
 313:ConfigRW.c    ****             pBCtemp->minor  = pBeaconConfig->minor;
 523              		.loc 1 313 0
 524 007c 9382     		strh	r3, [r2, #20]
 314:ConfigRW.c    ****             pBCtemp->itrvl  = pBeaconConfig->itrvl;
 525              		.loc 1 314 0
 526 007e E38A     		ldrh	r3, [r4, #22]
 527 0080 D382     		strh	r3, [r2, #22]
 315:ConfigRW.c    ****             pBCtemp->comID  = pBeaconConfig->comID;
 528              		.loc 1 315 0
 529 0082 238B     		ldrh	r3, [r4, #24]
 530 0084 1383     		strh	r3, [r2, #24]
 316:ConfigRW.c    ****             
 531              		.loc 1 316 0
 532 0086 638B     		ldrh	r3, [r4, #26]
 533 0088 5383     		strh	r3, [r2, #26]
 318:ConfigRW.c    ****             pBCtemp->rssi   = pBeaconConfig->rssi;
 534              		.loc 1 318 0
 535 008a 237F     		ldrb	r3, [r4, #28]
 536 008c 1377     		strb	r3, [r2, #28]
 319:ConfigRW.c    ****             pBCtemp->sensor = pBeaconConfig->sensor;
 537              		.loc 1 319 0
 538 008e 637F     		ldrb	r3, [r4, #29]
 539 0090 5377     		strb	r3, [r2, #29]
 320:ConfigRW.c    ****         
 540              		.loc 1 320 0
 541 0092 A37F     		ldrb	r3, [r4, #30]
ARM GAS  C:\Users\ramanatg\AppData\Local\Temp\cc1t5guf.s 			page 19


 542 0094 9377     		strb	r3, [r2, #30]
 543              	.LVL66:
 544              	.LBB26:
 545              	.LBB24:
 263:ConfigRW.c    ****     {
 546              		.loc 1 263 0
 547 0096 FFF7FEFF 		bl	WriteUserSFlashRow
 548              	.LVL67:
 549 009a A023     		mov	r3, #160
 550 009c 1B06     		lsl	r3, r3, #24
 551 009e 9842     		cmp	r0, r3
 552 00a0 CDD0     		beq	.L38
 553              	.LVL68:
 554              	.L47:
 555              	.LBE24:
 556              	.LBE26:
 557              	.LBE20:
 558              	.LBB27:
 559              	.LBB19:
 560              	.LBB18:
 561              	.LBB17:
 270:ConfigRW.c    ****     }
 562              		.loc 1 270 0
 563 00a2 023D     		sub	r5, r5, #2
 564 00a4 CBE7     		b	.L38
 565              	.L50:
 566              	.LVL69:
 567              	.LBE17:
 568              	.LBE18:
 569              	.LBE19:
 570              	.LBE27:
 571              	.LBB28:
 336:ConfigRW.c    ****         memset(pBCtemp->reserved, SFLASH_DATA_INIT_VALUE, sizeof(pBCtemp->reserved));
 572              		.loc 1 336 0
 573 00a6 8022     		mov	r2, #128
 574 00a8 FFF7FEFF 		bl	memcpy
 575              	.LVL70:
 337:ConfigRW.c    ****         
 576              		.loc 1 337 0
 577 00ac 1022     		mov	r2, #16
 578 00ae FF21     		mov	r1, #255
 579 00b0 19A8     		add	r0, sp, #100
 580 00b2 FFF7FEFF 		bl	memset
 581              	.LVL71:
 339:ConfigRW.c    ****         
 582              		.loc 1 339 0
 583 00b6 211C     		mov	r1, r4
 584 00b8 01AB     		add	r3, sp, #4
 585 00ba 25C9     		ldmia	r1!, {r0, r2, r5}
 586 00bc 25C3     		stmia	r3!, {r0, r2, r5}
 587 00be 1A1C     		mov	r2, r3
 588 00c0 0B68     		ldr	r3, [r1]
 589 00c2 1360     		str	r3, [r2]
 341:ConfigRW.c    ****         pBCtemp->minor  = pBeaconConfig_1V0->minor;
 590              		.loc 1 341 0
 591 00c4 6A46     		mov	r2, sp
 592 00c6 238A     		ldrh	r3, [r4, #16]
ARM GAS  C:\Users\ramanatg\AppData\Local\Temp\cc1t5guf.s 			page 20


 593 00c8 9382     		strh	r3, [r2, #20]
 342:ConfigRW.c    ****         pBCtemp->itrvl  = pBeaconConfig_1V0->itrvl;
 594              		.loc 1 342 0
 595 00ca 638A     		ldrh	r3, [r4, #18]
 596 00cc D382     		strh	r3, [r2, #22]
 343:ConfigRW.c    ****         pBCtemp->comID  = pBeaconConfig_1V0->comID;
 597              		.loc 1 343 0
 598 00ce A38A     		ldrh	r3, [r4, #20]
 599 00d0 1383     		strh	r3, [r2, #24]
 344:ConfigRW.c    ****         
 600              		.loc 1 344 0
 601 00d2 E38A     		ldrh	r3, [r4, #22]
 602 00d4 5383     		strh	r3, [r2, #26]
 346:ConfigRW.c    ****         pBCtemp->rssi   = pBeaconConfig_1V0->rssi;
 603              		.loc 1 346 0
 604 00d6 237E     		ldrb	r3, [r4, #24]
 605 00d8 1377     		strb	r3, [r2, #28]
 347:ConfigRW.c    ****         pBCtemp->sensor = pBeaconConfig_1V0->sensor;
 606              		.loc 1 347 0
 607 00da 637E     		ldrb	r3, [r4, #25]
 608 00dc 5377     		strb	r3, [r2, #29]
 348:ConfigRW.c    ****         
 609              		.loc 1 348 0
 610 00de A37E     		ldrb	r3, [r4, #26]
 611 00e0 9377     		strb	r3, [r2, #30]
 612              	.LVL72:
 613 00e2 A3E7     		b	.L48
 614              	.L52:
 615              		.align	2
 616              	.L51:
 617 00e4 80F2FF0F 		.word	268432000
 618 00e8 AA550000 		.word	21930
 619 00ec 54000000 		.word	.LANCHOR0
 620 00f0 01000100 		.word	65537
 621 00f4 84F2FF0F 		.word	268432004
 622              	.LBE28:
 623              		.cfi_endproc
 624              	.LFE38:
 625              		.size	ConfigRW_CheckVersion, .-ConfigRW_CheckVersion
 626              		.section	.text.ConfigRW_WriteDefault,"ax",%progbits
 627              		.align	2
 628              		.global	ConfigRW_WriteDefault
 629              		.code	16
 630              		.thumb_func
 631              		.type	ConfigRW_WriteDefault, %function
 632              	ConfigRW_WriteDefault:
 633              	.LFB39:
 379:ConfigRW.c    ****     int32_t temp[USER_SFLASH_ROW_SIZE / sizeof(int32_t)];
 634              		.loc 1 379 0
 635              		.cfi_startproc
 636 0000 00B5     		push	{lr}
 637              		.cfi_def_cfa_offset 4
 638              		.cfi_offset 14, -4
 639 0002 A1B0     		sub	sp, sp, #132
 640              		.cfi_def_cfa_offset 136
 641              	.LVL73:
 383:ConfigRW.c    ****     
ARM GAS  C:\Users\ramanatg\AppData\Local\Temp\cc1t5guf.s 			page 21


 642              		.loc 1 383 0
 643 0004 0B49     		ldr	r1, .L57
 644 0006 8022     		mov	r2, #128
 645 0008 6846     		mov	r0, sp
 646 000a FFF7FEFF 		bl	memcpy
 647              	.LVL74:
 648              		.loc 1 385 0
 649 000e 1022     		mov	r2, #16
 650 0010 FF21     		mov	r1, #255
 651 0012 19A8     		add	r0, sp, #100
 652 0014 FFF7FEFF 		bl	memset
 653              	.LVL75:
 654              	.LBB31:
 655              	.LBB32:
 263:ConfigRW.c    ****     {
 656              		.loc 1 263 0
 657 0018 0120     		mov	r0, #1
 658 001a 6946     		mov	r1, sp
 659 001c FFF7FEFF 		bl	WriteUserSFlashRow
 660              	.LVL76:
 661 0020 A022     		mov	r2, #160
 265:ConfigRW.c    ****     }
 662              		.loc 1 265 0
 663 0022 0023     		mov	r3, #0
 263:ConfigRW.c    ****     {
 664              		.loc 1 263 0
 665 0024 1206     		lsl	r2, r2, #24
 666 0026 9042     		cmp	r0, r2
 667 0028 02D1     		bne	.L56
 668              	.L54:
 669              	.LBE32:
 670              	.LBE31:
 386:ConfigRW.c    ****     
 387:ConfigRW.c    ****     return ConfigRW_UpdateConfig(CONFIG_TYPE_ALL, temp);
 388:ConfigRW.c    **** }
 671              		.loc 1 388 0
 672 002a 181C     		mov	r0, r3
 673 002c 21B0     		add	sp, sp, #132
 674              	.LVL77:
 675              		@ sp needed
 676 002e 00BD     		pop	{pc}
 677              	.LVL78:
 678              	.L56:
 679              	.LBB34:
 680              	.LBB33:
 270:ConfigRW.c    ****     }
 681              		.loc 1 270 0
 682 0030 023B     		sub	r3, r3, #2
 683 0032 FAE7     		b	.L54
 684              	.L58:
 685              		.align	2
 686              	.L57:
 687 0034 54000000 		.word	.LANCHOR0
 688              	.LBE33:
 689              	.LBE34:
 690              		.cfi_endproc
 691              	.LFE39:
ARM GAS  C:\Users\ramanatg\AppData\Local\Temp\cc1t5guf.s 			page 22


 692              		.size	ConfigRW_WriteDefault, .-ConfigRW_WriteDefault
 693              		.section	.text.ConfigRW_WriteReset,"ax",%progbits
 694              		.align	2
 695              		.global	ConfigRW_WriteReset
 696              		.code	16
 697              		.thumb_func
 698              		.type	ConfigRW_WriteReset, %function
 699              	ConfigRW_WriteReset:
 700              	.LFB40:
 389:ConfigRW.c    **** 
 390:ConfigRW.c    **** /******************************************************************************
 391:ConfigRW.c    **** * Function Name: ConfigRW_WriteReset
 392:ConfigRW.c    **** *******************************************************************************
 393:ConfigRW.c    **** *
 394:ConfigRW.c    **** * Summary:
 395:ConfigRW.c    **** *   This function writes the default configuration of the eddystone mode into 
 396:ConfigRW.c    **** *   User SFlash, excluding EDNID, EDBID and EDFRAME.
 397:ConfigRW.c    **** *
 398:ConfigRW.c    **** * Parameters:
 399:ConfigRW.c    **** *   None
 400:ConfigRW.c    **** *
 401:ConfigRW.c    **** * Return:
 402:ConfigRW.c    **** *   int32_t - Return value indicates if the function succeeded or failed. 
 403:ConfigRW.c    **** *   Following are the possible error codes.
 404:ConfigRW.c    **** *   
 405:ConfigRW.c    **** *   Errors codes                        Description
 406:ConfigRW.c    **** *   ------------                        -----------
 407:ConfigRW.c    **** *   E_CFGRW_OK                          No error.
 408:ConfigRW.c    **** *   E_CFGRW_WR_FAIL                     Failed to write User SFlash.
 409:ConfigRW.c    **** ******************************************************************************/
 410:ConfigRW.c    **** int32_t ConfigRW_WriteReset(void)
 411:ConfigRW.c    **** {
 701              		.loc 1 411 0
 702              		.cfi_startproc
 703 0000 00B5     		push	{lr}
 704              		.cfi_def_cfa_offset 4
 705              		.cfi_offset 14, -4
 706 0002 A3B0     		sub	sp, sp, #140
 707              		.cfi_def_cfa_offset 144
 708              	.LVL79:
 412:ConfigRW.c    ****     int32_t temp[USER_SFLASH_ROW_SIZE / sizeof(int32_t)];
 413:ConfigRW.c    ****     BeaconConfig *pBCtemp = (BeaconConfig *)temp;
 414:ConfigRW.c    ****     
 415:ConfigRW.c    ****     memcpy(pBCtemp, pBeaconConfig, sizeof(BeaconConfig));
 709              		.loc 1 415 0
 710 0004 0F49     		ldr	r1, .L63
 711 0006 8022     		mov	r2, #128
 712 0008 02A8     		add	r0, sp, #8
 713              	.LVL80:
 714 000a FFF7FEFF 		bl	memcpy
 715              	.LVL81:
 416:ConfigRW.c    ****     
 417:ConfigRW.c    ****     memcpy(pBCtemp->TXPowerLevels, DefaultBeaconConfig.TXPowerLevels, ES_TX_POWER_MODE_COUNT);
 716              		.loc 1 417 0
 717 000e 0E49     		ldr	r1, .L63+4
 418:ConfigRW.c    ****     
 419:ConfigRW.c    ****     /* Change parameters from LockState to URLPeriod to default. */
ARM GAS  C:\Users\ramanatg\AppData\Local\Temp\cc1t5guf.s 			page 23


 420:ConfigRW.c    ****     memcpy(&pBCtemp->LockState, 
 718              		.loc 1 420 0
 719 0010 3520     		mov	r0, #53
 417:ConfigRW.c    ****     
 720              		.loc 1 417 0
 721 0012 0B6B     		ldr	r3, [r1, #48]
 722              		.loc 1 420 0
 723 0014 2F22     		mov	r2, #47
 417:ConfigRW.c    ****     
 724              		.loc 1 417 0
 725 0016 0193     		str	r3, [sp, #4]
 726 0018 0E93     		str	r3, [sp, #56]
 727              		.loc 1 420 0
 728 001a 02AB     		add	r3, sp, #8
 729              	.LVL82:
 730 001c 9C46     		mov	ip, r3
 731 001e 3531     		add	r1, r1, #53
 732 0020 6044     		add	r0, r0, ip
 733 0022 FFF7FEFF 		bl	memcpy
 734              	.LVL83:
 735              	.LBB37:
 736              	.LBB38:
 263:ConfigRW.c    ****     {
 737              		.loc 1 263 0
 738 0026 0120     		mov	r0, #1
 739 0028 02A9     		add	r1, sp, #8
 740              	.LVL84:
 741 002a FFF7FEFF 		bl	WriteUserSFlashRow
 742              	.LVL85:
 743 002e A022     		mov	r2, #160
 265:ConfigRW.c    ****     }
 744              		.loc 1 265 0
 745 0030 0023     		mov	r3, #0
 263:ConfigRW.c    ****     {
 746              		.loc 1 263 0
 747 0032 1206     		lsl	r2, r2, #24
 748 0034 9042     		cmp	r0, r2
 749 0036 02D1     		bne	.L62
 750              	.L60:
 751              	.LBE38:
 752              	.LBE37:
 421:ConfigRW.c    ****            &DefaultBeaconConfig.LockState, 
 422:ConfigRW.c    ****            ((void *)DefaultBeaconConfig.reserved - (void *)(&DefaultBeaconConfig.LockState)));
 423:ConfigRW.c    ****     
 424:ConfigRW.c    ****     return ConfigRW_UpdateConfig(CONFIG_TYPE_ALL, temp);
 425:ConfigRW.c    **** }
 753              		.loc 1 425 0
 754 0038 181C     		mov	r0, r3
 755 003a 23B0     		add	sp, sp, #140
 756              		@ sp needed
 757 003c 00BD     		pop	{pc}
 758              	.L62:
 759              	.LBB40:
 760              	.LBB39:
 270:ConfigRW.c    ****     }
 761              		.loc 1 270 0
 762 003e 023B     		sub	r3, r3, #2
ARM GAS  C:\Users\ramanatg\AppData\Local\Temp\cc1t5guf.s 			page 24


 763 0040 FAE7     		b	.L60
 764              	.L64:
 765 0042 C046     		.align	2
 766              	.L63:
 767 0044 80F2FF0F 		.word	268432000
 768 0048 54000000 		.word	.LANCHOR0
 769              	.LBE39:
 770              	.LBE40:
 771              		.cfi_endproc
 772              	.LFE40:
 773              		.size	ConfigRW_WriteReset, .-ConfigRW_WriteReset
 774              		.global	DefaultBeaconConfig
 775              		.section	.rodata
 776              		.align	2
 777              		.set	.LANCHOR0,. + 0
 778              		.type	DefaultBeaconConfig, %object
 779              		.size	DefaultBeaconConfig, 128
 780              	DefaultBeaconConfig:
 781 0054 AA550000 		.word	21930
 782 0058 00       		.byte	0
 783 0059 05       		.byte	5
 784 005a 00       		.byte	0
 785 005b 01       		.byte	1
 786 005c 00       		.byte	0
 787 005d 00       		.byte	0
 788 005e 10       		.byte	16
 789 005f 00       		.byte	0
 790 0060 80       		.byte	-128
 791 0061 00       		.byte	0
 792 0062 00       		.byte	0
 793 0063 80       		.byte	-128
 794 0064 5F       		.byte	95
 795 0065 9B       		.byte	-101
 796 0066 01       		.byte	1
 797 0067 31       		.byte	49
 798 0068 0100     		.short	1
 799 006a 0100     		.short	1
 800 006c DC05     		.short	1500
 801 006e 4C00     		.short	76
 802 0070 03       		.byte	3
 803 0071 C3       		.byte	-61
 804 0072 01       		.byte	1
 805 0073 00       		.byte	0
 806 0074 CB       		.byte	-53
 807 0075 6F       		.byte	111
 808 0076 15       		.byte	21
 809 0077 CE       		.byte	-50
 810 0078 C0       		.byte	-64
 811 0079 2A       		.byte	42
 812 007a 41       		.byte	65
 813 007b F7       		.byte	-9
 814 007c 6A       		.byte	106
 815 007d B1       		.byte	-79
 816 007e 00       		.byte	0
 817 007f 00       		.byte	0
 818 0080 00       		.byte	0
 819 0081 01       		.byte	1
ARM GAS  C:\Users\ramanatg\AppData\Local\Temp\cc1t5guf.s 			page 25


 820 0082 00       		.byte	0
 821 0083 01       		.byte	1
 822 0084 EE       		.byte	-18
 823 0085 F4       		.byte	-12
 824 0086 00       		.byte	0
 825 0087 03       		.byte	3
 826 0088 02       		.byte	2
 827 0089 00       		.byte	0
 828 008a 00       		.byte	0
 829 008b 00       		.byte	0
 830 008c 00       		.byte	0
 831 008d 00       		.byte	0
 832 008e 00       		.byte	0
 833 008f 00       		.byte	0
 834 0090 00       		.byte	0
 835 0091 00       		.byte	0
 836 0092 00       		.byte	0
 837 0093 00       		.byte	0
 838 0094 00       		.byte	0
 839 0095 00       		.byte	0
 840 0096 00       		.byte	0
 841 0097 00       		.byte	0
 842 0098 00       		.byte	0
 843 0099 00       		.byte	0
 844 009a 09       		.byte	9
 845 009b 00       		.byte	0
 846 009c 63       		.byte	99
 847 009d 79       		.byte	121
 848 009e 70       		.byte	112
 849 009f 72       		.byte	114
 850 00a0 65       		.byte	101
 851 00a1 73       		.byte	115
 852 00a2 73       		.byte	115
 853 00a3 00       		.byte	0
 854 00a4 00000000 		.space	9
 854      00000000 
 854      00
 855 00ad 00       		.byte	0
 856 00ae D7       		.byte	-41
 857 00af DD       		.byte	-35
 858 00b0 E9       		.byte	-23
 859 00b1 EC       		.byte	-20
 860 00b2 03       		.byte	3
 861 00b3 00       		.space	1
 862 00b4 6400     		.short	100
 863 00b6 0000     		.space	2
 864 00b8 00000000 		.space	16
 864      00000000 
 864      00000000 
 864      00000000 
 865 00c8 00000000 		.word	0
 866 00cc 02000100 		.word	65538
 867 00d0 AA550000 		.word	21930
 868              		.text
 869              	.Letext0:
 870              		.file 2 "c:\\program files (x86)\\cypress\\psoc creator\\4.0\\psoc creator\\import\\gnu\\arm\\4.9.
 871              		.file 3 "c:\\program files (x86)\\cypress\\psoc creator\\4.0\\psoc creator\\import\\gnu\\arm\\4.9.
ARM GAS  C:\Users\ramanatg\AppData\Local\Temp\cc1t5guf.s 			page 26


 872              		.file 4 "c:\\program files (x86)\\cypress\\psoc creator\\4.0\\psoc creator\\import\\gnu\\arm\\4.9.
 873              		.file 5 "Generated_Source\\PSoC4/BLE_Stack.h"
 874              		.file 6 "ConfigRW.h"
 875              		.file 7 "WriteUserSFlash.h"
 876              		.file 8 "c:\\program files (x86)\\cypress\\psoc creator\\4.0\\psoc creator\\import\\gnu\\arm\\4.9.