ARM GAS  C:\Users\ramanatg\AppData\Local\Temp\cctNzr7i.s 			page 1


   1              		.cpu cortex-m0
   2              		.fpu softvfp
   3              		.eabi_attribute 20, 1
   4              		.eabi_attribute 21, 1
   5              		.eabi_attribute 23, 3
   6              		.eabi_attribute 24, 1
   7              		.eabi_attribute 25, 1
   8              		.eabi_attribute 26, 1
   9              		.eabi_attribute 30, 2
  10              		.eabi_attribute 34, 0
  11              		.eabi_attribute 18, 4
  12              		.code	16
  13              		.file	"Eddystone.c"
  14              		.text
  15              	.Ltext0:
  16              		.cfi_sections	.debug_frame
  17              		.section	.text.SendErrorCode,"ax",%progbits
  18              		.align	2
  19              		.global	SendErrorCode
  20              		.code	16
  21              		.thumb_func
  22              		.type	SendErrorCode, %function
  23              	SendErrorCode:
  24              	.LFB37:
  25              		.file 1 "Eddystone.c"
   1:Eddystone.c   **** /******************************************************************************
   2:Eddystone.c   **** * Project Name      : Solar BLE Sensor
   3:Eddystone.c   **** * File Name         : Eddystone.c
   4:Eddystone.c   **** * Version           : CYALKIT-E02 Sample Firmware, Version 1.2.00
   5:Eddystone.c   **** * Device Used       : CYBLE-022001-00
   6:Eddystone.c   **** * Software Used     : PSoC Creator 3.3 CP3
   7:Eddystone.c   **** * Compiler          : ARM GCC 4.9.3
   8:Eddystone.c   **** * Related Hardware  : Solar BLE Sensor
   9:Eddystone.c   **** *
  10:Eddystone.c   **** *******************************************************************************
  11:Eddystone.c   **** * Copyright (2015-2016), Cypress Semiconductor Corporation. All Rights Reserved.
  12:Eddystone.c   **** *******************************************************************************
  13:Eddystone.c   **** * This software is owned by Cypress Semiconductor Corporation (Cypress)
  14:Eddystone.c   **** * and is protected by and subject to worldwide patent protection (United
  15:Eddystone.c   **** * States and foreign), United States copyright laws and international treaty
  16:Eddystone.c   **** * provisions. Cypress hereby grants to licensee a personal, non-exclusive,
  17:Eddystone.c   **** * non-transferable license to copy, use, modify, create derivative works of,
  18:Eddystone.c   **** * and compile the Cypress Source Code and derivative works for the sole
  19:Eddystone.c   **** * purpose of creating custom software in support of licensee product to be
  20:Eddystone.c   **** * used only in conjunction with a Cypress integrated circuit as specified in
  21:Eddystone.c   **** * the applicable agreement. Any reproduction, modification, translation,
  22:Eddystone.c   **** * compilation, or representation of this software except as specified above 
  23:Eddystone.c   **** * is prohibited without the express written permission of Cypress.
  24:Eddystone.c   **** *
  25:Eddystone.c   **** * Disclaimer: CYPRESS MAKES NO WARRANTY OF ANY KIND, EXPRESS OR IMPLIED, WITH 
  26:Eddystone.c   **** * REGARD TO THIS MATERIAL, INCLUDING, BUT NOT LIMITED TO, THE IMPLIED 
  27:Eddystone.c   **** * WARRANTIES OF MERCHANTABILITY AND FITNESS FOR A PARTICULAR PURPOSE.
  28:Eddystone.c   **** * Cypress reserves the right to make changes without further notice to the 
  29:Eddystone.c   **** * materials described herein. Cypress does not assume any liability arising out 
  30:Eddystone.c   **** * of the application or use of any product or circuit described herein. Cypress 
  31:Eddystone.c   **** * does not authorize its products for use as critical components in life-support 
  32:Eddystone.c   **** * systems where a malfunction or failure may reasonably be expected to result in 
ARM GAS  C:\Users\ramanatg\AppData\Local\Temp\cctNzr7i.s 			page 2


  33:Eddystone.c   **** * significant injury to the user. The inclusion of Cypress' product in a life-
  34:Eddystone.c   **** * support systems application implies that the manufacturer assumes all risk of 
  35:Eddystone.c   **** * such use and in doing so indemnifies Cypress against all charges. 
  36:Eddystone.c   **** *
  37:Eddystone.c   **** * Use of this Software may be limited by and subject to the applicable Cypress
  38:Eddystone.c   **** * software license agreement. 
  39:Eddystone.c   **** ******************************************************************************/
  40:Eddystone.c   **** 
  41:Eddystone.c   **** #include "Eddystone.h"
  42:Eddystone.c   **** #include "ConfigRW.h"
  43:Eddystone.c   **** #include "UartCmd.h"
  44:Eddystone.c   **** 
  45:Eddystone.c   **** 
  46:Eddystone.c   **** /******************************************************************************
  47:Eddystone.c   **** * Global Variable Declarations
  48:Eddystone.c   **** ******************************************************************************/
  49:Eddystone.c   **** uint8_t gatt_disconnect_flag = false;  /* It's set if a GATT client disconnects from the beacon. */
  50:Eddystone.c   **** 
  51:Eddystone.c   **** /******************************************************************************
  52:Eddystone.c   **** * Function prototypes
  53:Eddystone.c   **** ******************************************************************************/
  54:Eddystone.c   **** static void EddystoneURL_Config_Lock(CYBLE_GATTS_WRITE_REQ_PARAM_T *wrReqParam);
  55:Eddystone.c   **** static void EddystoneURL_Config_Unlock(CYBLE_GATTS_WRITE_REQ_PARAM_T *wrReqParam);
  56:Eddystone.c   **** static void EddystoneURL_Config_URI_Data(CYBLE_GATTS_WRITE_REQ_PARAM_T *wrReqParam);
  57:Eddystone.c   **** static void EddystoneURL_Config_URI_Flags(CYBLE_GATTS_WRITE_REQ_PARAM_T *wrReqParam);
  58:Eddystone.c   **** static void EddystoneURL_Config_URI_EDADPWR(CYBLE_GATTS_WRITE_REQ_PARAM_T *wrReqParam);
  59:Eddystone.c   **** static void EddystoneURL_Config_URI_EDTXMODE(CYBLE_GATTS_WRITE_REQ_PARAM_T *wrReqParam);
  60:Eddystone.c   **** static void EddystoneURL_Config_URI_BeaconPeriod(CYBLE_GATTS_WRITE_REQ_PARAM_T *wrReqParam);
  61:Eddystone.c   **** static void EddystoneURL_Config_URI_Reset(CYBLE_GATTS_WRITE_REQ_PARAM_T *wrReqParam);
  62:Eddystone.c   **** 
  63:Eddystone.c   **** 
  64:Eddystone.c   **** /*******************************************************************************
  65:Eddystone.c   **** * Function Name: SendErrorCode
  66:Eddystone.c   **** ********************************************************************************
  67:Eddystone.c   **** * Summary:
  68:Eddystone.c   **** *   Send Error code to GATT Client.
  69:Eddystone.c   **** *
  70:Eddystone.c   **** * Parameters:
  71:Eddystone.c   **** *   Handle     - Connection handle to identify the peer GATT entity
  72:Eddystone.c   **** *   attrHandle - Handle of characteristic
  73:Eddystone.c   **** *   errorCode  - Return Error Code
  74:Eddystone.c   **** *
  75:Eddystone.c   **** * Return:
  76:Eddystone.c   **** *  void
  77:Eddystone.c   **** *
  78:Eddystone.c   **** *******************************************************************************/
  79:Eddystone.c   **** void SendErrorCode(CYBLE_CONN_HANDLE_T Handle, 
  80:Eddystone.c   ****                    CYBLE_GATT_DB_ATTR_HANDLE_T  attrHandle, 
  81:Eddystone.c   ****                    CYBLE_GATT_ERR_CODE_T errorCode)
  82:Eddystone.c   **** {
  26              		.loc 1 82 0
  27              		.cfi_startproc
  28              	.LVL0:
  29 0000 00B5     		push	{lr}
  30              		.cfi_def_cfa_offset 4
  31              		.cfi_offset 14, -4
  32 0002 85B0     		sub	sp, sp, #20
ARM GAS  C:\Users\ramanatg\AppData\Local\Temp\cctNzr7i.s 			page 3


  33              		.cfi_def_cfa_offset 24
  34              		.loc 1 82 0
  35 0004 01AB     		add	r3, sp, #4
  36 0006 1880     		strh	r0, [r3]
  83:Eddystone.c   ****     CYBLE_GATTS_ERR_PARAM_T err_param;
  84:Eddystone.c   ****                     
  85:Eddystone.c   ****     err_param.opcode = CYBLE_GATT_WRITE_REQ;
  37              		.loc 1 85 0
  38 0008 1220     		mov	r0, #18
  39 000a 03AB     		add	r3, sp, #12
  40 000c 9870     		strb	r0, [r3, #2]
  86:Eddystone.c   ****     err_param.attrHandle = attrHandle;
  41              		.loc 1 86 0
  42 000e 1980     		strh	r1, [r3]
  87:Eddystone.c   ****     err_param.errorCode = errorCode;
  88:Eddystone.c   **** 
  89:Eddystone.c   ****     /* Send Error Response */
  90:Eddystone.c   ****     CyBle_GattsErrorRsp(Handle, &err_param);
  43              		.loc 1 90 0
  44 0010 0198     		ldr	r0, [sp, #4]
  45 0012 191C     		mov	r1, r3
  46              	.LVL1:
  87:Eddystone.c   ****     err_param.errorCode = errorCode;
  47              		.loc 1 87 0
  48 0014 DA70     		strb	r2, [r3, #3]
  49              		.loc 1 90 0
  50 0016 FFF7FEFF 		bl	CyBle_GattsErrorRsp
  51              	.LVL2:
  91:Eddystone.c   **** }
  52              		.loc 1 91 0
  53 001a 05B0     		add	sp, sp, #20
  54              		@ sp needed
  55 001c 00BD     		pop	{pc}
  56              		.cfi_endproc
  57              	.LFE37:
  58              		.size	SendErrorCode, .-SendErrorCode
  59 001e C046     		.section	.text.EddystoneURL_Config_UpdateAllAttrib,"ax",%progbits
  60              		.align	2
  61              		.global	EddystoneURL_Config_UpdateAllAttrib
  62              		.code	16
  63              		.thumb_func
  64              		.type	EddystoneURL_Config_UpdateAllAttrib, %function
  65              	EddystoneURL_Config_UpdateAllAttrib:
  66              	.LFB40:
  92:Eddystone.c   **** 
  93:Eddystone.c   **** /*******************************************************************************
  94:Eddystone.c   **** * Function Name: EddystoneURL_Config_Handler
  95:Eddystone.c   **** ********************************************************************************
  96:Eddystone.c   **** * Summary:
  97:Eddystone.c   **** *   This is an event callback function to receive GATT events for Eddystone-URL 
  98:Eddystone.c   **** *   Configuration Service.
  99:Eddystone.c   **** *
 100:Eddystone.c   **** * Parameters:
 101:Eddystone.c   **** *   event        - Event from the CYBLE component.
 102:Eddystone.c   **** *   *eventParams - A structure instance for corresponding event type.
 103:Eddystone.c   **** *
 104:Eddystone.c   **** * Return:
ARM GAS  C:\Users\ramanatg\AppData\Local\Temp\cctNzr7i.s 			page 4


 105:Eddystone.c   **** *   void
 106:Eddystone.c   **** *
 107:Eddystone.c   **** *******************************************************************************/
 108:Eddystone.c   **** void EddystoneURL_Config_Handler(uint32_t event, void * eventParam)
 109:Eddystone.c   **** {
 110:Eddystone.c   ****     /* This event is received when Central device sends a Write command on an Attribute. */
 111:Eddystone.c   ****     if(event == CYBLE_EVT_GATTS_WRITE_REQ)
 112:Eddystone.c   ****     {
 113:Eddystone.c   ****         CYBLE_GATTS_WRITE_REQ_PARAM_T *wrReqParam;
 114:Eddystone.c   ****         
 115:Eddystone.c   ****         wrReqParam = (CYBLE_GATTS_WRITE_REQ_PARAM_T *)eventParam;
 116:Eddystone.c   ****         
 117:Eddystone.c   ****         switch(wrReqParam->handleValPair.attrHandle)
 118:Eddystone.c   ****         {
 119:Eddystone.c   ****             /* The request to locks the beacon and set the single-use lock-code. */
 120:Eddystone.c   ****             case CYBLE_EDDYSTONEURL_CONFIGURATION_LOCK_CHAR_HANDLE:
 121:Eddystone.c   ****                 EddystoneURL_Config_Lock(wrReqParam);
 122:Eddystone.c   ****                 break;
 123:Eddystone.c   ****                 
 124:Eddystone.c   ****             /* The request to unlocks the beacon. */
 125:Eddystone.c   ****             case CYBLE_EDDYSTONEURL_CONFIGURATION_UNLOCK_CHAR_HANDLE:
 126:Eddystone.c   ****                 EddystoneURL_Config_Unlock(wrReqParam);
 127:Eddystone.c   ****                 break;
 128:Eddystone.c   ****                 
 129:Eddystone.c   ****             /* The request to write the URI. */
 130:Eddystone.c   ****             case CYBLE_EDDYSTONEURL_CONFIGURATION_URI_DATA_CHAR_HANDLE:
 131:Eddystone.c   ****                 EddystoneURL_Config_URI_Data(wrReqParam);
 132:Eddystone.c   ****                 break;
 133:Eddystone.c   ****                 
 134:Eddystone.c   ****             /* The request to write the flags. */
 135:Eddystone.c   ****             case CYBLE_EDDYSTONEURL_CONFIGURATION_URI_FLAGS_CHAR_HANDLE:
 136:Eddystone.c   ****                 EddystoneURL_Config_URI_Flags(wrReqParam);
 137:Eddystone.c   ****                 break;
 138:Eddystone.c   ****                 
 139:Eddystone.c   ****             /* The request to write the Advertised Power Levels array. */
 140:Eddystone.c   ****             case CYBLE_EDDYSTONEURL_CONFIGURATION_ADVERTISED_TX_POWER_LEVELS_CHAR_HANDLE:
 141:Eddystone.c   ****                 EddystoneURL_Config_URI_EDADPWR(wrReqParam);
 142:Eddystone.c   ****                 break;
 143:Eddystone.c   ****                 
 144:Eddystone.c   ****             /* The request to write the TX Power Mode. */
 145:Eddystone.c   ****             case CYBLE_EDDYSTONEURL_CONFIGURATION_TX_POWER_MODE_CHAR_HANDLE:
 146:Eddystone.c   ****                 EddystoneURL_Config_URI_EDTXMODE(wrReqParam);
 147:Eddystone.c   ****                 break;
 148:Eddystone.c   ****                 
 149:Eddystone.c   ****             /* The request to write the Beacon Period. */
 150:Eddystone.c   ****             case CYBLE_EDDYSTONEURL_CONFIGURATION_BEACON_PERIOD_CHAR_HANDLE:
 151:Eddystone.c   ****                 EddystoneURL_Config_URI_BeaconPeriod(wrReqParam);
 152:Eddystone.c   ****                 break;
 153:Eddystone.c   ****                 
 154:Eddystone.c   ****             /* The request to reset to default values. */
 155:Eddystone.c   ****             case CYBLE_EDDYSTONEURL_CONFIGURATION_RESET_CHAR_HANDLE:
 156:Eddystone.c   ****                 EddystoneURL_Config_URI_Reset(wrReqParam);
 157:Eddystone.c   ****                 break;
 158:Eddystone.c   ****             
 159:Eddystone.c   ****             /* Writing others is not permitted. */
 160:Eddystone.c   ****             default:
 161:Eddystone.c   ****                 SendErrorCode(wrReqParam->connHandle,
ARM GAS  C:\Users\ramanatg\AppData\Local\Temp\cctNzr7i.s 			page 5


 162:Eddystone.c   ****                               wrReqParam->handleValPair.attrHandle,
 163:Eddystone.c   ****                               RETURN_CODES_WRITE_NOT_PERMITTED);
 164:Eddystone.c   ****                 break;
 165:Eddystone.c   ****         }
 166:Eddystone.c   ****     }
 167:Eddystone.c   ****     /* event received when connection is established */
 168:Eddystone.c   ****     else if(event == CYBLE_EVT_GAP_DEVICE_CONNECTED)
 169:Eddystone.c   ****     {
 170:Eddystone.c   ****         /* If user plans to do tests with eddystone-url-config-validator, make sure the state is un
 171:Eddystone.c   ****         if((pBeaconConfig->mode == ADV_MODE_EDDYSTONETEST) && pBeaconConfig->LockState)
 172:Eddystone.c   ****         {
 173:Eddystone.c   ****             uint8_t NewLockState = false;
 174:Eddystone.c   ****             CYBLE_GATT_HANDLE_VALUE_PAIR_T UpdateHandle;
 175:Eddystone.c   ****             
 176:Eddystone.c   ****             /* store the new lock state in SFlash */
 177:Eddystone.c   ****             ConfigRW_UpdateConfig(CONFIG_TYPE_LOCKSTATE, &NewLockState);
 178:Eddystone.c   ****             
 179:Eddystone.c   ****             /* update Lock State characteristic */
 180:Eddystone.c   ****             UpdateHandle.attrHandle = CYBLE_EDDYSTONEURL_CONFIGURATION_LOCK_STATE_CHAR_HANDLE;
 181:Eddystone.c   ****             UpdateHandle.value.val  = &(pBeaconConfig->LockState);
 182:Eddystone.c   ****             UpdateHandle.value.len  = sizeof(pBeaconConfig->LockState);
 183:Eddystone.c   ****             CyBle_GattsWriteAttributeValue(&UpdateHandle, 
 184:Eddystone.c   ****                                            WRITE_ATTRIB_OFFSET_0, 
 185:Eddystone.c   ****                                            NULL, 
 186:Eddystone.c   ****                                            CYBLE_GATT_DB_LOCALLY_INITIATED);
 187:Eddystone.c   ****         }
 188:Eddystone.c   ****     }
 189:Eddystone.c   ****     /* GATT is disconnected. */
 190:Eddystone.c   ****     else if(event == CYBLE_EVT_GATT_DISCONNECT_IND)
 191:Eddystone.c   ****     {
 192:Eddystone.c   ****         gatt_disconnect_flag = true;
 193:Eddystone.c   ****     }
 194:Eddystone.c   **** }
 195:Eddystone.c   **** 
 196:Eddystone.c   **** /*******************************************************************************
 197:Eddystone.c   **** * Function Name: EddystoneURL_Config_Init
 198:Eddystone.c   **** ********************************************************************************
 199:Eddystone.c   **** * Summary:
 200:Eddystone.c   **** *   Initialize and start the Eddystone-URL Configuration Service.
 201:Eddystone.c   **** *
 202:Eddystone.c   **** * Parameters:
 203:Eddystone.c   **** *   None.
 204:Eddystone.c   **** *
 205:Eddystone.c   **** * Return:
 206:Eddystone.c   **** *   None.
 207:Eddystone.c   **** *
 208:Eddystone.c   **** *******************************************************************************/
 209:Eddystone.c   **** void EddystoneURL_Config_Init(void)
 210:Eddystone.c   **** {
 211:Eddystone.c   ****     CyBle_Start((CYBLE_CALLBACK_T)EddystoneURL_Config_Handler);
 212:Eddystone.c   ****     CyBle_ProcessEvents();
 213:Eddystone.c   ****     
 214:Eddystone.c   ****     EddystoneURL_Config_UpdateAllAttrib();
 215:Eddystone.c   ****     
 216:Eddystone.c   ****     cyBle_discoveryData.advData[ADV_TXPOWERLEVEL_INDEX] -= POWER_LOSS_IN_ANTENNA;
 217:Eddystone.c   ****     
 218:Eddystone.c   ****     CyBle_GappStartAdvertisement(CYBLE_ADVERTISING_FAST);
ARM GAS  C:\Users\ramanatg\AppData\Local\Temp\cctNzr7i.s 			page 6


 219:Eddystone.c   **** }
 220:Eddystone.c   **** 
 221:Eddystone.c   **** /*******************************************************************************
 222:Eddystone.c   **** * Function Name: EddystoneURL_Config_UpdateAllAttrib
 223:Eddystone.c   **** ********************************************************************************
 224:Eddystone.c   **** * Summary:
 225:Eddystone.c   **** *   Update all the values with data stored in User SFlash.
 226:Eddystone.c   **** *
 227:Eddystone.c   **** * Parameters:
 228:Eddystone.c   **** *   None.
 229:Eddystone.c   **** *
 230:Eddystone.c   **** * Return:
 231:Eddystone.c   **** *   None.
 232:Eddystone.c   **** *
 233:Eddystone.c   **** *******************************************************************************/
 234:Eddystone.c   **** void EddystoneURL_Config_UpdateAllAttrib(void)
 235:Eddystone.c   **** {
  67              		.loc 1 235 0
  68              		.cfi_startproc
 236:Eddystone.c   ****     CYBLE_GATT_HANDLE_VALUE_PAIR_T UpdateHandle;
 237:Eddystone.c   ****     
 238:Eddystone.c   ****     /* update Lock State */
 239:Eddystone.c   ****     UpdateHandle.attrHandle = CYBLE_EDDYSTONEURL_CONFIGURATION_LOCK_STATE_CHAR_HANDLE;
  69              		.loc 1 239 0
  70 0000 0E23     		mov	r3, #14
 235:Eddystone.c   ****     CYBLE_GATT_HANDLE_VALUE_PAIR_T UpdateHandle;
  71              		.loc 1 235 0
  72 0002 30B5     		push	{r4, r5, lr}
  73              		.cfi_def_cfa_offset 12
  74              		.cfi_offset 4, -12
  75              		.cfi_offset 5, -8
  76              		.cfi_offset 14, -4
 240:Eddystone.c   ****     UpdateHandle.value.val  = &(pBeaconConfig->LockState);
 241:Eddystone.c   ****     UpdateHandle.value.len  = sizeof(pBeaconConfig->LockState);
  77              		.loc 1 241 0
  78 0004 0125     		mov	r5, #1
 235:Eddystone.c   ****     CYBLE_GATT_HANDLE_VALUE_PAIR_T UpdateHandle;
  79              		.loc 1 235 0
  80 0006 85B0     		sub	sp, sp, #20
  81              		.cfi_def_cfa_offset 32
 239:Eddystone.c   ****     UpdateHandle.value.val  = &(pBeaconConfig->LockState);
  82              		.loc 1 239 0
  83 0008 01AC     		add	r4, sp, #4
  84 000a 2381     		strh	r3, [r4, #8]
 240:Eddystone.c   ****     UpdateHandle.value.val  = &(pBeaconConfig->LockState);
  85              		.loc 1 240 0
  86 000c 244B     		ldr	r3, .L3
 242:Eddystone.c   ****     CyBle_GattsWriteAttributeValue(&UpdateHandle, 
  87              		.loc 1 242 0
  88 000e 201C     		mov	r0, r4
 240:Eddystone.c   ****     UpdateHandle.value.val  = &(pBeaconConfig->LockState);
  89              		.loc 1 240 0
  90 0010 0193     		str	r3, [sp, #4]
  91              		.loc 1 242 0
  92 0012 0021     		mov	r1, #0
  93 0014 0022     		mov	r2, #0
  94 0016 0023     		mov	r3, #0
ARM GAS  C:\Users\ramanatg\AppData\Local\Temp\cctNzr7i.s 			page 7


 241:Eddystone.c   ****     CyBle_GattsWriteAttributeValue(&UpdateHandle, 
  95              		.loc 1 241 0
  96 0018 A580     		strh	r5, [r4, #4]
  97              		.loc 1 242 0
  98 001a FFF7FEFF 		bl	CyBle_GattsWriteAttributeValue
  99              	.LVL3:
 243:Eddystone.c   ****                                    WRITE_ATTRIB_OFFSET_0, 
 244:Eddystone.c   ****                                    NULL, 
 245:Eddystone.c   ****                                    CYBLE_GATT_DB_LOCALLY_INITIATED);
 246:Eddystone.c   ****     
 247:Eddystone.c   ****     /* update URI Data */
 248:Eddystone.c   ****     cyBle_attValuesLen[ATT_VALUES_LEN_INDEX_URIDATA].actualLength = pBeaconConfig->URI_Length;
 100              		.loc 1 248 0
 101 001e 4623     		mov	r3, #70
 102 0020 204A     		ldr	r2, .L3+4
 103 0022 2149     		ldr	r1, .L3+8
 104 0024 D35C     		ldrb	r3, [r2, r3]
 105 0026 6822     		mov	r2, #104
 106 0028 8B52     		strh	r3, [r1, r2]
 249:Eddystone.c   ****     UpdateHandle.attrHandle = CYBLE_EDDYSTONEURL_CONFIGURATION_URI_DATA_CHAR_HANDLE;
 107              		.loc 1 249 0
 108 002a 543A     		sub	r2, r2, #84
 109 002c 2281     		strh	r2, [r4, #8]
 250:Eddystone.c   ****     UpdateHandle.value.val  = pBeaconConfig->URI_Data;
 110              		.loc 1 250 0
 111 002e 1F4A     		ldr	r2, .L3+12
 251:Eddystone.c   ****     UpdateHandle.value.len  = pBeaconConfig->URI_Length;
 112              		.loc 1 251 0
 113 0030 A380     		strh	r3, [r4, #4]
 250:Eddystone.c   ****     UpdateHandle.value.val  = pBeaconConfig->URI_Data;
 114              		.loc 1 250 0
 115 0032 0192     		str	r2, [sp, #4]
 252:Eddystone.c   ****     CyBle_GattsWriteAttributeValue(&UpdateHandle, 
 116              		.loc 1 252 0
 117 0034 201C     		mov	r0, r4
 118 0036 0021     		mov	r1, #0
 119 0038 0022     		mov	r2, #0
 120 003a 0023     		mov	r3, #0
 121 003c FFF7FEFF 		bl	CyBle_GattsWriteAttributeValue
 122              	.LVL4:
 253:Eddystone.c   ****                                    WRITE_ATTRIB_OFFSET_0, 
 254:Eddystone.c   ****                                    NULL, 
 255:Eddystone.c   ****                                    CYBLE_GATT_DB_LOCALLY_INITIATED);
 256:Eddystone.c   ****     
 257:Eddystone.c   ****     /* update URI Flags */
 258:Eddystone.c   ****     UpdateHandle.attrHandle = CYBLE_EDDYSTONEURL_CONFIGURATION_URI_FLAGS_CHAR_HANDLE;
 123              		.loc 1 258 0
 124 0040 1623     		mov	r3, #22
 125 0042 2381     		strh	r3, [r4, #8]
 259:Eddystone.c   ****     UpdateHandle.value.val  = &(pBeaconConfig->URL_Flags);
 126              		.loc 1 259 0
 127 0044 1A4B     		ldr	r3, .L3+16
 260:Eddystone.c   ****     UpdateHandle.value.len  = sizeof(pBeaconConfig->URL_Flags);
 261:Eddystone.c   ****     CyBle_GattsWriteAttributeValue(&UpdateHandle, 
 128              		.loc 1 261 0
 129 0046 201C     		mov	r0, r4
 259:Eddystone.c   ****     UpdateHandle.value.val  = &(pBeaconConfig->URL_Flags);
ARM GAS  C:\Users\ramanatg\AppData\Local\Temp\cctNzr7i.s 			page 8


 130              		.loc 1 259 0
 131 0048 0193     		str	r3, [sp, #4]
 132              		.loc 1 261 0
 133 004a 0021     		mov	r1, #0
 134 004c 0022     		mov	r2, #0
 135 004e 0023     		mov	r3, #0
 260:Eddystone.c   ****     UpdateHandle.value.len  = sizeof(pBeaconConfig->URL_Flags);
 136              		.loc 1 260 0
 137 0050 A580     		strh	r5, [r4, #4]
 138              		.loc 1 261 0
 139 0052 FFF7FEFF 		bl	CyBle_GattsWriteAttributeValue
 140              	.LVL5:
 262:Eddystone.c   ****                                    WRITE_ATTRIB_OFFSET_0, 
 263:Eddystone.c   ****                                    NULL, 
 264:Eddystone.c   ****                                    CYBLE_GATT_DB_LOCALLY_INITIATED);
 265:Eddystone.c   ****     
 266:Eddystone.c   ****     /* update TX Power Levels */
 267:Eddystone.c   ****     UpdateHandle.attrHandle = CYBLE_EDDYSTONEURL_CONFIGURATION_ADVERTISED_TX_POWER_LEVELS_CHAR_HAND
 141              		.loc 1 267 0
 142 0056 1823     		mov	r3, #24
 143 0058 2381     		strh	r3, [r4, #8]
 268:Eddystone.c   ****     UpdateHandle.value.val  = (uint8_t *)(pBeaconConfig->Adv_TXPowerLevels);
 144              		.loc 1 268 0
 145 005a 164B     		ldr	r3, .L3+20
 269:Eddystone.c   ****     UpdateHandle.value.len  = ES_TX_POWER_MODE_COUNT;
 270:Eddystone.c   ****     CyBle_GattsWriteAttributeValue(&UpdateHandle, 
 146              		.loc 1 270 0
 147 005c 201C     		mov	r0, r4
 268:Eddystone.c   ****     UpdateHandle.value.val  = (uint8_t *)(pBeaconConfig->Adv_TXPowerLevels);
 148              		.loc 1 268 0
 149 005e 0193     		str	r3, [sp, #4]
 269:Eddystone.c   ****     UpdateHandle.value.len  = ES_TX_POWER_MODE_COUNT;
 150              		.loc 1 269 0
 151 0060 0423     		mov	r3, #4
 152              		.loc 1 270 0
 153 0062 0021     		mov	r1, #0
 269:Eddystone.c   ****     UpdateHandle.value.len  = ES_TX_POWER_MODE_COUNT;
 154              		.loc 1 269 0
 155 0064 A380     		strh	r3, [r4, #4]
 156              		.loc 1 270 0
 157 0066 0022     		mov	r2, #0
 158 0068 0023     		mov	r3, #0
 159 006a FFF7FEFF 		bl	CyBle_GattsWriteAttributeValue
 160              	.LVL6:
 271:Eddystone.c   ****                                    WRITE_ATTRIB_OFFSET_0, 
 272:Eddystone.c   ****                                    NULL, 
 273:Eddystone.c   ****                                    CYBLE_GATT_DB_LOCALLY_INITIATED);
 274:Eddystone.c   ****     
 275:Eddystone.c   ****     /* update TX Power Mode */
 276:Eddystone.c   ****     UpdateHandle.attrHandle = CYBLE_EDDYSTONEURL_CONFIGURATION_TX_POWER_MODE_CHAR_HANDLE;
 161              		.loc 1 276 0
 162 006e 1A23     		mov	r3, #26
 163 0070 2381     		strh	r3, [r4, #8]
 277:Eddystone.c   ****     UpdateHandle.value.val  = &(pBeaconConfig->TXPowerMode);
 164              		.loc 1 277 0
 165 0072 114B     		ldr	r3, .L3+24
 278:Eddystone.c   ****     UpdateHandle.value.len  = sizeof(pBeaconConfig->TXPowerMode);
ARM GAS  C:\Users\ramanatg\AppData\Local\Temp\cctNzr7i.s 			page 9


 279:Eddystone.c   ****     CyBle_GattsWriteAttributeValue(&UpdateHandle, 
 166              		.loc 1 279 0
 167 0074 201C     		mov	r0, r4
 277:Eddystone.c   ****     UpdateHandle.value.val  = &(pBeaconConfig->TXPowerMode);
 168              		.loc 1 277 0
 169 0076 0193     		str	r3, [sp, #4]
 170              		.loc 1 279 0
 171 0078 0021     		mov	r1, #0
 172 007a 0022     		mov	r2, #0
 173 007c 0023     		mov	r3, #0
 278:Eddystone.c   ****     UpdateHandle.value.len  = sizeof(pBeaconConfig->TXPowerMode);
 174              		.loc 1 278 0
 175 007e A580     		strh	r5, [r4, #4]
 176              		.loc 1 279 0
 177 0080 FFF7FEFF 		bl	CyBle_GattsWriteAttributeValue
 178              	.LVL7:
 280:Eddystone.c   ****                                    WRITE_ATTRIB_OFFSET_0, 
 281:Eddystone.c   ****                                    NULL, 
 282:Eddystone.c   ****                                    CYBLE_GATT_DB_LOCALLY_INITIATED);
 283:Eddystone.c   ****     
 284:Eddystone.c   ****     /* update Beacon Period */
 285:Eddystone.c   ****     UpdateHandle.attrHandle = CYBLE_EDDYSTONEURL_CONFIGURATION_BEACON_PERIOD_CHAR_HANDLE;
 179              		.loc 1 285 0
 180 0084 1C23     		mov	r3, #28
 181 0086 2381     		strh	r3, [r4, #8]
 286:Eddystone.c   ****     UpdateHandle.value.val  = (uint8_t *)(&(pBeaconConfig->URLPeriod));
 182              		.loc 1 286 0
 183 0088 0C4B     		ldr	r3, .L3+28
 287:Eddystone.c   ****     UpdateHandle.value.len  = sizeof(pBeaconConfig->URLPeriod);
 288:Eddystone.c   ****     CyBle_GattsWriteAttributeValue(&UpdateHandle, 
 184              		.loc 1 288 0
 185 008a 201C     		mov	r0, r4
 286:Eddystone.c   ****     UpdateHandle.value.val  = (uint8_t *)(&(pBeaconConfig->URLPeriod));
 186              		.loc 1 286 0
 187 008c 0193     		str	r3, [sp, #4]
 287:Eddystone.c   ****     UpdateHandle.value.len  = sizeof(pBeaconConfig->URLPeriod);
 188              		.loc 1 287 0
 189 008e 0223     		mov	r3, #2
 190              		.loc 1 288 0
 191 0090 0021     		mov	r1, #0
 287:Eddystone.c   ****     UpdateHandle.value.len  = sizeof(pBeaconConfig->URLPeriod);
 192              		.loc 1 287 0
 193 0092 A380     		strh	r3, [r4, #4]
 194              		.loc 1 288 0
 195 0094 0022     		mov	r2, #0
 196 0096 0023     		mov	r3, #0
 197 0098 FFF7FEFF 		bl	CyBle_GattsWriteAttributeValue
 198              	.LVL8:
 289:Eddystone.c   ****                                    WRITE_ATTRIB_OFFSET_0, 
 290:Eddystone.c   ****                                    NULL, 
 291:Eddystone.c   ****                                    CYBLE_GATT_DB_LOCALLY_INITIATED);
 292:Eddystone.c   ****     
 293:Eddystone.c   ****     return;
 294:Eddystone.c   **** }
 199              		.loc 1 294 0
 200 009c 05B0     		add	sp, sp, #20
 201              		@ sp needed
ARM GAS  C:\Users\ramanatg\AppData\Local\Temp\cctNzr7i.s 			page 10


 202 009e 30BD     		pop	{r4, r5, pc}
 203              	.L4:
 204              		.align	2
 205              	.L3:
 206 00a0 B5F2FF0F 		.word	268432053
 207 00a4 80F2FF0F 		.word	268432000
 208 00a8 00000000 		.word	cyBle_attValuesLen
 209 00ac C7F2FF0F 		.word	268432071
 210 00b0 D9F2FF0F 		.word	268432089
 211 00b4 DAF2FF0F 		.word	268432090
 212 00b8 DEF2FF0F 		.word	268432094
 213 00bc E0F2FF0F 		.word	268432096
 214              		.cfi_endproc
 215              	.LFE40:
 216              		.size	EddystoneURL_Config_UpdateAllAttrib, .-EddystoneURL_Config_UpdateAllAttrib
 217              		.section	.text.EddystoneURL_Config_Handler,"ax",%progbits
 218              		.align	2
 219              		.global	EddystoneURL_Config_Handler
 220              		.code	16
 221              		.thumb_func
 222              		.type	EddystoneURL_Config_Handler, %function
 223              	EddystoneURL_Config_Handler:
 224              	.LFB38:
 109:Eddystone.c   ****     /* This event is received when Central device sends a Write command on an Attribute. */
 225              		.loc 1 109 0
 226              		.cfi_startproc
 227              	.LVL9:
 228 0000 70B5     		push	{r4, r5, r6, lr}
 229              		.cfi_def_cfa_offset 16
 230              		.cfi_offset 4, -16
 231              		.cfi_offset 5, -12
 232              		.cfi_offset 6, -8
 233              		.cfi_offset 14, -4
 234 0002 0C1C     		mov	r4, r1
 235 0004 98B0     		sub	sp, sp, #96
 236              		.cfi_def_cfa_offset 112
 111:Eddystone.c   ****     {
 237              		.loc 1 111 0
 238 0006 4C28     		cmp	r0, #76
 239 0008 05D0     		beq	.L63
 168:Eddystone.c   ****     {
 240              		.loc 1 168 0
 241 000a 2728     		cmp	r0, #39
 242 000c 0ED0     		beq	.L64
 190:Eddystone.c   ****     {
 243              		.loc 1 190 0
 244 000e 4228     		cmp	r0, #66
 245 0010 28D0     		beq	.L65
 246              	.LVL10:
 247              	.L5:
 194:Eddystone.c   **** 
 248              		.loc 1 194 0
 249 0012 18B0     		add	sp, sp, #96
 250              		@ sp needed
 251              	.LVL11:
 252 0014 70BD     		pop	{r4, r5, r6, pc}
 253              	.LVL12:
ARM GAS  C:\Users\ramanatg\AppData\Local\Temp\cctNzr7i.s 			page 11


 254              	.L63:
 255              	.LBB123:
 256              	.LBB124:
 117:Eddystone.c   ****         {
 257              		.loc 1 117 0
 258 0016 8A89     		ldrh	r2, [r1, #12]
 259 0018 131C     		mov	r3, r2
 260 001a 103B     		sub	r3, r3, #16
 261 001c 9BB2     		uxth	r3, r3
 262 001e 0E2B     		cmp	r3, #14
 263 0020 00D9     		bls	.LCB190
 264 0022 21E1     		b	.L7	@long jump
 265              	.LCB190:
 266 0024 CE49     		ldr	r1, .L84
 267              	.LVL13:
 268 0026 9B00     		lsl	r3, r3, #2
 269 0028 CB58     		ldr	r3, [r1, r3]
 270 002a 9F46     		mov	pc, r3
 271              		.section	.rodata
 272              		.align	2
 273              	.L9:
 274 0000 92000000 		.word	.L8
 275 0004 68020000 		.word	.L7
 276 0008 D4000000 		.word	.L10
 277 000c 68020000 		.word	.L7
 278 0010 10010000 		.word	.L11
 279 0014 68020000 		.word	.L7
 280 0018 68010000 		.word	.L12
 281 001c 68020000 		.word	.L7
 282 0020 A2010000 		.word	.L13
 283 0024 68020000 		.word	.L7
 284 0028 02020000 		.word	.L14
 285 002c 68020000 		.word	.L7
 286 0030 28020000 		.word	.L15
 287 0034 68020000 		.word	.L7
 288 0038 6C000000 		.word	.L16
 289              		.section	.text.EddystoneURL_Config_Handler
 290              	.LVL14:
 291              	.L64:
 292              	.LBE124:
 293              	.LBE123:
 171:Eddystone.c   ****         {
 294              		.loc 1 171 0
 295 002c 1F22     		mov	r2, #31
 296 002e CD4B     		ldr	r3, .L84+4
 297 0030 9A56     		ldrsb	r2, [r3, r2]
 298 0032 022A     		cmp	r2, #2
 299 0034 EDD1     		bne	.L5
 171:Eddystone.c   ****         {
 300              		.loc 1 171 0 is_stmt 0 discriminator 1
 301 0036 3332     		add	r2, r2, #51
 302 0038 9B5C     		ldrb	r3, [r3, r2]
 303 003a 002B     		cmp	r3, #0
 304 003c E9D0     		beq	.L5
 305              	.LBB244:
 173:Eddystone.c   ****             CYBLE_GATT_HANDLE_VALUE_PAIR_T UpdateHandle;
 306              		.loc 1 173 0 is_stmt 1
ARM GAS  C:\Users\ramanatg\AppData\Local\Temp\cctNzr7i.s 			page 12


 307 003e 0023     		mov	r3, #0
 308 0040 14A9     		add	r1, sp, #80
 309              	.LVL15:
 177:Eddystone.c   ****             
 310              		.loc 1 177 0
 311 0042 1A38     		sub	r0, r0, #26
 312              	.LVL16:
 173:Eddystone.c   ****             CYBLE_GATT_HANDLE_VALUE_PAIR_T UpdateHandle;
 313              		.loc 1 173 0
 314 0044 0B70     		strb	r3, [r1]
 177:Eddystone.c   ****             
 315              		.loc 1 177 0
 316 0046 FFF7FEFF 		bl	ConfigRW_UpdateConfig
 317              	.LVL17:
 180:Eddystone.c   ****             UpdateHandle.value.val  = &(pBeaconConfig->LockState);
 318              		.loc 1 180 0
 319 004a 0E23     		mov	r3, #14
 320 004c 15A8     		add	r0, sp, #84
 321 004e 0381     		strh	r3, [r0, #8]
 181:Eddystone.c   ****             UpdateHandle.value.len  = sizeof(pBeaconConfig->LockState);
 322              		.loc 1 181 0
 323 0050 C54B     		ldr	r3, .L84+8
 183:Eddystone.c   ****                                            WRITE_ATTRIB_OFFSET_0, 
 324              		.loc 1 183 0
 325 0052 0021     		mov	r1, #0
 181:Eddystone.c   ****             UpdateHandle.value.len  = sizeof(pBeaconConfig->LockState);
 326              		.loc 1 181 0
 327 0054 1593     		str	r3, [sp, #84]
 182:Eddystone.c   ****             CyBle_GattsWriteAttributeValue(&UpdateHandle, 
 328              		.loc 1 182 0
 329 0056 0123     		mov	r3, #1
 183:Eddystone.c   ****                                            WRITE_ATTRIB_OFFSET_0, 
 330              		.loc 1 183 0
 331 0058 0022     		mov	r2, #0
 182:Eddystone.c   ****             CyBle_GattsWriteAttributeValue(&UpdateHandle, 
 332              		.loc 1 182 0
 333 005a 8380     		strh	r3, [r0, #4]
 183:Eddystone.c   ****                                            WRITE_ATTRIB_OFFSET_0, 
 334              		.loc 1 183 0
 335 005c 0023     		mov	r3, #0
 336 005e FFF7FEFF 		bl	CyBle_GattsWriteAttributeValue
 337              	.LVL18:
 338 0062 D6E7     		b	.L5
 339              	.LVL19:
 340              	.L65:
 341              	.LBE244:
 192:Eddystone.c   ****     }
 342              		.loc 1 192 0
 343 0064 0122     		mov	r2, #1
 344 0066 C14B     		ldr	r3, .L84+12
 345 0068 1A70     		strb	r2, [r3]
 346 006a D2E7     		b	.L5
 347              	.LVL20:
 348              	.L16:
 349              	.LBB245:
 350              	.LBB243:
 351              	.LBB125:
ARM GAS  C:\Users\ramanatg\AppData\Local\Temp\cctNzr7i.s 			page 13


 352              	.LBB126:
 295:Eddystone.c   **** 
 296:Eddystone.c   **** /*******************************************************************************
 297:Eddystone.c   **** * Function Name: EddystoneURL_Config_Lock
 298:Eddystone.c   **** ********************************************************************************
 299:Eddystone.c   **** * Summary:
 300:Eddystone.c   **** *   Function for locking the beacon and setting the single-use lock-code..
 301:Eddystone.c   **** *
 302:Eddystone.c   **** * Parameters:
 303:Eddystone.c   **** *   wrReqParam : the request parameter received from Client
 304:Eddystone.c   **** *
 305:Eddystone.c   **** * Return:
 306:Eddystone.c   **** *   None.
 307:Eddystone.c   **** *
 308:Eddystone.c   **** *******************************************************************************/
 309:Eddystone.c   **** static void EddystoneURL_Config_Lock(CYBLE_GATTS_WRITE_REQ_PARAM_T *wrReqParam)
 310:Eddystone.c   **** {
 311:Eddystone.c   ****     /* If the length is not right. */
 312:Eddystone.c   ****     if(wrReqParam->handleValPair.value.len != ES_LOCK_LENGTH)
 313:Eddystone.c   ****     {
 314:Eddystone.c   ****         SendErrorCode(wrReqParam->connHandle,
 315:Eddystone.c   ****                       CYBLE_EDDYSTONEURL_CONFIGURATION_LOCK_CHAR_HANDLE, 
 316:Eddystone.c   ****                       RETURN_CODES_INVALID_ATTRIBUTE_LEN);
 317:Eddystone.c   ****     }
 318:Eddystone.c   ****     /* If the beacon is locked. */
 319:Eddystone.c   ****     else if(pBeaconConfig->LockState)
 320:Eddystone.c   ****     {
 321:Eddystone.c   ****         SendErrorCode(wrReqParam->connHandle,
 322:Eddystone.c   ****                       CYBLE_EDDYSTONEURL_CONFIGURATION_LOCK_CHAR_HANDLE, 
 323:Eddystone.c   ****                       RETURN_CODES_INSUFFICIENT_AUTHORIZATION);
 324:Eddystone.c   ****     }
 325:Eddystone.c   ****     /* The length is right, and the beacon is unlocked. */
 326:Eddystone.c   ****     else
 327:Eddystone.c   ****     {
 328:Eddystone.c   ****         uint8_t NewLockState = true;
 329:Eddystone.c   ****         CYBLE_GATT_HANDLE_VALUE_PAIR_T UpdateHandle;
 330:Eddystone.c   ****         
 331:Eddystone.c   ****         /* store the new lock state and the new lock code in SFlash */
 332:Eddystone.c   ****         ConfigRW_UpdateConfig(CONFIG_TYPE_LOCK, wrReqParam->handleValPair.value.val);
 333:Eddystone.c   ****         ConfigRW_UpdateConfig(CONFIG_TYPE_LOCKSTATE, &NewLockState);
 334:Eddystone.c   ****         
 335:Eddystone.c   ****         /* update Lock State characteristic */
 336:Eddystone.c   ****         UpdateHandle.attrHandle = CYBLE_EDDYSTONEURL_CONFIGURATION_LOCK_STATE_CHAR_HANDLE;
 337:Eddystone.c   ****         UpdateHandle.value.val  = &(pBeaconConfig->LockState);
 338:Eddystone.c   ****         UpdateHandle.value.len  = sizeof(pBeaconConfig->LockState);
 339:Eddystone.c   ****         CyBle_GattsWriteAttributeValue(&UpdateHandle, 
 340:Eddystone.c   ****                                        WRITE_ATTRIB_OFFSET_0, 
 341:Eddystone.c   ****                                        NULL, 
 342:Eddystone.c   ****                                        CYBLE_GATT_DB_LOCALLY_INITIATED);
 343:Eddystone.c   ****         
 344:Eddystone.c   ****         CyBle_GattsWriteRsp(wrReqParam->connHandle);
 345:Eddystone.c   ****     }
 346:Eddystone.c   **** }
 347:Eddystone.c   **** 
 348:Eddystone.c   **** /*******************************************************************************
 349:Eddystone.c   **** * Function Name: EddystoneURL_Config_Unlock
 350:Eddystone.c   **** ********************************************************************************
ARM GAS  C:\Users\ramanatg\AppData\Local\Temp\cctNzr7i.s 			page 14


 351:Eddystone.c   **** * Summary:
 352:Eddystone.c   **** *   Function for unlocking the beacon.
 353:Eddystone.c   **** *
 354:Eddystone.c   **** * Parameters:
 355:Eddystone.c   **** *   wrReqParam : the request parameter received from Client
 356:Eddystone.c   **** *
 357:Eddystone.c   **** * Return:
 358:Eddystone.c   **** *   None.
 359:Eddystone.c   **** *
 360:Eddystone.c   **** *******************************************************************************/
 361:Eddystone.c   **** static void EddystoneURL_Config_Unlock(CYBLE_GATTS_WRITE_REQ_PARAM_T *wrReqParam)
 362:Eddystone.c   **** {
 363:Eddystone.c   ****     /* If the length is not right. */
 364:Eddystone.c   ****     if(wrReqParam->handleValPair.value.len != ES_LOCK_LENGTH)
 365:Eddystone.c   ****     {
 366:Eddystone.c   ****         SendErrorCode(wrReqParam->connHandle,
 367:Eddystone.c   ****                       CYBLE_EDDYSTONEURL_CONFIGURATION_UNLOCK_CHAR_HANDLE, 
 368:Eddystone.c   ****                       RETURN_CODES_INVALID_ATTRIBUTE_LEN);
 369:Eddystone.c   ****     }
 370:Eddystone.c   ****     /* If the beacon is unlocked. */
 371:Eddystone.c   ****     else if(!pBeaconConfig->LockState)
 372:Eddystone.c   ****     {
 373:Eddystone.c   ****         CyBle_GattsWriteRsp(wrReqParam->connHandle);
 374:Eddystone.c   ****     }
 375:Eddystone.c   ****     /* The beacon is locked, the length is right, and the key is correct. */
 376:Eddystone.c   ****     else if(memcmp(pBeaconConfig->lock, wrReqParam->handleValPair.value.val, ES_LOCK_LENGTH) == 0)
 377:Eddystone.c   ****     {
 378:Eddystone.c   ****         uint8_t NewLockState = false;
 379:Eddystone.c   ****         CYBLE_GATT_HANDLE_VALUE_PAIR_T UpdateHandle;
 380:Eddystone.c   ****         
 381:Eddystone.c   ****         /* store the new lock state in SFlash */
 382:Eddystone.c   ****         ConfigRW_UpdateConfig(CONFIG_TYPE_LOCKSTATE, &NewLockState);
 383:Eddystone.c   ****         
 384:Eddystone.c   ****         /* update Lock State characteristic */
 385:Eddystone.c   ****         UpdateHandle.attrHandle = CYBLE_EDDYSTONEURL_CONFIGURATION_LOCK_STATE_CHAR_HANDLE;
 386:Eddystone.c   ****         UpdateHandle.value.val  = &(pBeaconConfig->LockState);
 387:Eddystone.c   ****         UpdateHandle.value.len  = sizeof(pBeaconConfig->LockState);
 388:Eddystone.c   ****         CyBle_GattsWriteAttributeValue(&UpdateHandle, 
 389:Eddystone.c   ****                                        WRITE_ATTRIB_OFFSET_0, 
 390:Eddystone.c   ****                                        NULL, 
 391:Eddystone.c   ****                                        CYBLE_GATT_DB_LOCALLY_INITIATED);
 392:Eddystone.c   ****         
 393:Eddystone.c   ****         CyBle_GattsWriteRsp(wrReqParam->connHandle);
 394:Eddystone.c   ****     }
 395:Eddystone.c   ****     /* The beacon is locked, the length is right, but the key is invalid. */
 396:Eddystone.c   ****     else
 397:Eddystone.c   ****     {
 398:Eddystone.c   ****         SendErrorCode(wrReqParam->connHandle,
 399:Eddystone.c   ****                       CYBLE_EDDYSTONEURL_CONFIGURATION_UNLOCK_CHAR_HANDLE, 
 400:Eddystone.c   ****                       RETURN_CODES_INSUFFICIENT_AUTHORIZATION);
 401:Eddystone.c   ****     }
 402:Eddystone.c   **** }
 403:Eddystone.c   **** 
 404:Eddystone.c   **** /*******************************************************************************
 405:Eddystone.c   **** * Function Name: EddystoneURL_Config_URI_Data
 406:Eddystone.c   **** ********************************************************************************
 407:Eddystone.c   **** * Summary:
ARM GAS  C:\Users\ramanatg\AppData\Local\Temp\cctNzr7i.s 			page 15


 408:Eddystone.c   **** *   Function for updating the uri data.
 409:Eddystone.c   **** *
 410:Eddystone.c   **** * Parameters:
 411:Eddystone.c   **** *   wrReqParam : the request parameter received from Client
 412:Eddystone.c   **** *
 413:Eddystone.c   **** * Return:
 414:Eddystone.c   **** *   None.
 415:Eddystone.c   **** *
 416:Eddystone.c   **** *******************************************************************************/
 417:Eddystone.c   **** static void EddystoneURL_Config_URI_Data(CYBLE_GATTS_WRITE_REQ_PARAM_T *wrReqParam)
 418:Eddystone.c   **** {
 419:Eddystone.c   ****     /* The length is not correct. */
 420:Eddystone.c   ****     if((wrReqParam->handleValPair.value.len == 0)                     || \
 421:Eddystone.c   ****        (wrReqParam->handleValPair.value.len > EDDYSTONE_URI_DATA_MAX_LEN))
 422:Eddystone.c   ****     {
 423:Eddystone.c   ****         SendErrorCode(wrReqParam->connHandle,
 424:Eddystone.c   ****                       CYBLE_EDDYSTONEURL_CONFIGURATION_URI_DATA_CHAR_HANDLE, 
 425:Eddystone.c   ****                       RETURN_CODES_INVALID_ATTRIBUTE_LEN);
 426:Eddystone.c   ****     }
 427:Eddystone.c   ****     /* If the beacon is locked. */
 428:Eddystone.c   ****     else if(pBeaconConfig->LockState)
 429:Eddystone.c   ****     {
 430:Eddystone.c   ****         SendErrorCode(wrReqParam->connHandle,
 431:Eddystone.c   ****                       CYBLE_EDDYSTONEURL_CONFIGURATION_URI_DATA_CHAR_HANDLE, 
 432:Eddystone.c   ****                       RETURN_CODES_INSUFFICIENT_AUTHORIZATION);
 433:Eddystone.c   ****     }
 434:Eddystone.c   ****     /* The beacon is unlocked, and the length is right. */
 435:Eddystone.c   ****     else
 436:Eddystone.c   ****     {
 437:Eddystone.c   ****         int32_t i;
 438:Eddystone.c   ****         bool isParaValid = true;
 439:Eddystone.c   ****         
 440:Eddystone.c   ****         /* Check whether the prefix is correct. */
 441:Eddystone.c   ****         if(wrReqParam->handleValPair.value.val[0] > URL_PREFIX_MAX)
 442:Eddystone.c   ****         {
 443:Eddystone.c   ****             isParaValid = false;
 444:Eddystone.c   ****         }
 445:Eddystone.c   ****         /* Check the content after the prefix. */
 446:Eddystone.c   ****         else
 447:Eddystone.c   ****         {
 448:Eddystone.c   ****             for(i = 1; i < wrReqParam->handleValPair.value.len; i++)
 449:Eddystone.c   ****             {
 450:Eddystone.c   ****                 /* Range 00 - 13 is valid. */
 451:Eddystone.c   ****                 if (wrReqParam->handleValPair.value.val[i] < KINDS_OF_URL_SUFFIX)
 452:Eddystone.c   ****                 {
 453:Eddystone.c   ****                     continue;
 454:Eddystone.c   ****                 }
 455:Eddystone.c   ****                 /* The octets 00-20 and 7F-FF hexadecimal are not used. */
 456:Eddystone.c   ****                 else if((wrReqParam->handleValPair.value.val[i] <= CHAR_LOWER_BOUND) || \
 457:Eddystone.c   ****                         (wrReqParam->handleValPair.value.val[i] >= CHAR_UPPER_BOUND)    )
 458:Eddystone.c   ****                 {
 459:Eddystone.c   ****                     isParaValid = false;
 460:Eddystone.c   ****                     break;
 461:Eddystone.c   ****                 }
 462:Eddystone.c   ****             }
 463:Eddystone.c   ****         }
 464:Eddystone.c   ****         
ARM GAS  C:\Users\ramanatg\AppData\Local\Temp\cctNzr7i.s 			page 16


 465:Eddystone.c   ****         /* The parameter is valid. */
 466:Eddystone.c   ****         if(isParaValid)
 467:Eddystone.c   ****         {
 468:Eddystone.c   ****             /* store URI length and URI data in SFlash */
 469:Eddystone.c   ****             ConfigRW_UpdateConfig(CONFIG_TYPE_URILENGTH, &(wrReqParam->handleValPair.value.len));
 470:Eddystone.c   ****             ConfigRW_UpdateConfig(CONFIG_TYPE_URIDATA, wrReqParam->handleValPair.value.val);
 471:Eddystone.c   ****             
 472:Eddystone.c   ****             /* update URI DATA characteristic */
 473:Eddystone.c   ****             cyBle_attValuesLen[ATT_VALUES_LEN_INDEX_URIDATA].actualLength = wrReqParam->handleValPa
 474:Eddystone.c   ****             CyBle_GattsWriteAttributeValue(&(wrReqParam->handleValPair), 
 475:Eddystone.c   ****                                            WRITE_ATTRIB_OFFSET_0, 
 476:Eddystone.c   ****                                            NULL, 
 477:Eddystone.c   ****                                            CYBLE_GATT_DB_LOCALLY_INITIATED);
 478:Eddystone.c   ****             
 479:Eddystone.c   ****             CyBle_GattsWriteRsp(wrReqParam->connHandle);
 480:Eddystone.c   ****         }
 481:Eddystone.c   ****         /* The parameter is not valid. Deny the request. */
 482:Eddystone.c   ****         else
 483:Eddystone.c   ****         {
 484:Eddystone.c   ****             SendErrorCode(wrReqParam->connHandle,
 485:Eddystone.c   ****                           CYBLE_EDDYSTONEURL_CONFIGURATION_URI_DATA_CHAR_HANDLE, 
 486:Eddystone.c   ****                           RETURN_CODES_WRITE_NOT_PERMITTED);
 487:Eddystone.c   ****         }
 488:Eddystone.c   ****     }
 489:Eddystone.c   **** }
 490:Eddystone.c   **** 
 491:Eddystone.c   **** /*******************************************************************************
 492:Eddystone.c   **** * Function Name: EddystoneURL_Config_URI_Flags
 493:Eddystone.c   **** ********************************************************************************
 494:Eddystone.c   **** * Summary:
 495:Eddystone.c   **** *   Function for updating the uri flags.
 496:Eddystone.c   **** *
 497:Eddystone.c   **** * Parameters:
 498:Eddystone.c   **** *   wrReqParam : the request parameter received from Client
 499:Eddystone.c   **** *
 500:Eddystone.c   **** * Return:
 501:Eddystone.c   **** *   None.
 502:Eddystone.c   **** *
 503:Eddystone.c   **** *******************************************************************************/
 504:Eddystone.c   **** static void EddystoneURL_Config_URI_Flags(CYBLE_GATTS_WRITE_REQ_PARAM_T *wrReqParam)
 505:Eddystone.c   **** {
 506:Eddystone.c   ****     /* If the length is not right */
 507:Eddystone.c   ****     if(wrReqParam->handleValPair.value.len != sizeof(pBeaconConfig->URL_Flags))
 508:Eddystone.c   ****     {
 509:Eddystone.c   ****         SendErrorCode(wrReqParam->connHandle,
 510:Eddystone.c   ****                       CYBLE_EDDYSTONEURL_CONFIGURATION_URI_FLAGS_CHAR_HANDLE, 
 511:Eddystone.c   ****                       RETURN_CODES_INVALID_ATTRIBUTE_LEN);
 512:Eddystone.c   ****     }
 513:Eddystone.c   ****     /* If the beacon is locked. */
 514:Eddystone.c   ****     else if(pBeaconConfig->LockState)
 515:Eddystone.c   ****     {
 516:Eddystone.c   ****         SendErrorCode(wrReqParam->connHandle,
 517:Eddystone.c   ****                       CYBLE_EDDYSTONEURL_CONFIGURATION_URI_FLAGS_CHAR_HANDLE, 
 518:Eddystone.c   ****                       RETURN_CODES_INSUFFICIENT_AUTHORIZATION);
 519:Eddystone.c   ****     }
 520:Eddystone.c   ****     /* length is correct but the value is not 0 */
 521:Eddystone.c   ****     else if(*(wrReqParam->handleValPair.value.val) != ES_URL_FLAGS_DEFAULT )
ARM GAS  C:\Users\ramanatg\AppData\Local\Temp\cctNzr7i.s 			page 17


 522:Eddystone.c   ****     {
 523:Eddystone.c   ****         /* For now URI Flags can only be 0 */
 524:Eddystone.c   ****         SendErrorCode(wrReqParam->connHandle,
 525:Eddystone.c   ****                       CYBLE_EDDYSTONEURL_CONFIGURATION_URI_FLAGS_CHAR_HANDLE, 
 526:Eddystone.c   ****                       RETURN_CODES_WRITE_NOT_PERMITTED);
 527:Eddystone.c   ****     }
 528:Eddystone.c   ****     /* length is correct and the value is 0 */
 529:Eddystone.c   ****     else
 530:Eddystone.c   ****     {
 531:Eddystone.c   ****         CyBle_GattsWriteRsp(wrReqParam->connHandle);
 532:Eddystone.c   ****     }
 533:Eddystone.c   **** }
 534:Eddystone.c   **** 
 535:Eddystone.c   **** /*******************************************************************************
 536:Eddystone.c   **** * Function Name: EddystoneURL_Config_URI_EDADPWR
 537:Eddystone.c   **** ********************************************************************************
 538:Eddystone.c   **** * Summary:
 539:Eddystone.c   **** *   Function for updating the Advertised TX Power Levels array.
 540:Eddystone.c   **** *
 541:Eddystone.c   **** * Parameters:
 542:Eddystone.c   **** *   wrReqParam : the request parameter received from Client
 543:Eddystone.c   **** *
 544:Eddystone.c   **** * Return:
 545:Eddystone.c   **** *   None.
 546:Eddystone.c   **** *
 547:Eddystone.c   **** *******************************************************************************/
 548:Eddystone.c   **** static void EddystoneURL_Config_URI_EDADPWR(CYBLE_GATTS_WRITE_REQ_PARAM_T *wrReqParam)
 549:Eddystone.c   **** {
 550:Eddystone.c   ****     /* length is not correct */
 551:Eddystone.c   ****     if(wrReqParam->handleValPair.value.len != ES_TX_POWER_MODE_COUNT)
 552:Eddystone.c   ****     {
 553:Eddystone.c   ****         SendErrorCode(wrReqParam->connHandle,
 554:Eddystone.c   ****                       CYBLE_EDDYSTONEURL_CONFIGURATION_ADVERTISED_TX_POWER_LEVELS_CHAR_HANDLE,
 555:Eddystone.c   ****                       RETURN_CODES_INVALID_ATTRIBUTE_LEN);
 556:Eddystone.c   ****     }
 557:Eddystone.c   ****     /* If the beacon is locked. */
 558:Eddystone.c   ****     else if(pBeaconConfig->LockState)
 559:Eddystone.c   ****     {
 560:Eddystone.c   ****         SendErrorCode(wrReqParam->connHandle,
 561:Eddystone.c   ****                       CYBLE_EDDYSTONEURL_CONFIGURATION_ADVERTISED_TX_POWER_LEVELS_CHAR_HANDLE, 
 562:Eddystone.c   ****                       RETURN_CODES_INSUFFICIENT_AUTHORIZATION);
 563:Eddystone.c   ****     }
 564:Eddystone.c   ****     /* The length is right, and the beacon is unlocked. */
 565:Eddystone.c   ****     else
 566:Eddystone.c   ****     {
 567:Eddystone.c   ****         int32_t i;
 568:Eddystone.c   ****         bool isParaValid = true;
 569:Eddystone.c   ****         
 570:Eddystone.c   ****         for(i = 0; i < ES_TX_POWER_MODE_COUNT; i++)
 571:Eddystone.c   ****         {
 572:Eddystone.c   ****             /* the value ranges from -100 dBm to +20 dBm to a resolution of 1 dBm. */
 573:Eddystone.c   ****             if(((int8_t)wrReqParam->handleValPair.value.val[i] > ADPWR_UPPER_BOUND) ||
 574:Eddystone.c   ****                ((int8_t)wrReqParam->handleValPair.value.val[i] < ADPWR_LOWER_BOUND)  )
 575:Eddystone.c   ****             {
 576:Eddystone.c   ****                 isParaValid = false;
 577:Eddystone.c   ****                 break;
 578:Eddystone.c   ****             }
ARM GAS  C:\Users\ramanatg\AppData\Local\Temp\cctNzr7i.s 			page 18


 579:Eddystone.c   ****         }
 580:Eddystone.c   ****         
 581:Eddystone.c   ****         /* The parameter is valid. */
 582:Eddystone.c   ****         if(isParaValid)
 583:Eddystone.c   ****         {
 584:Eddystone.c   ****             /* store Advertised TX Power Levels in SFlash */
 585:Eddystone.c   ****             ConfigRW_UpdateConfig(CONFIG_TYPE_EDADPWR, wrReqParam->handleValPair.value.val);
 586:Eddystone.c   ****             /* update Advertised TX Power Levels characteristic */
 587:Eddystone.c   ****             CyBle_GattsWriteAttributeValue(&(wrReqParam->handleValPair), 
 588:Eddystone.c   ****                                            WRITE_ATTRIB_OFFSET_0, 
 589:Eddystone.c   ****                                            NULL, 
 590:Eddystone.c   ****                                            CYBLE_GATT_DB_LOCALLY_INITIATED);
 591:Eddystone.c   ****             CyBle_GattsWriteRsp(wrReqParam->connHandle);
 592:Eddystone.c   ****         }
 593:Eddystone.c   ****         /* The parameter is not valid. Deny the request. */
 594:Eddystone.c   ****         else
 595:Eddystone.c   ****         {
 596:Eddystone.c   ****             SendErrorCode(wrReqParam->connHandle,
 597:Eddystone.c   ****                           CYBLE_EDDYSTONEURL_CONFIGURATION_ADVERTISED_TX_POWER_LEVELS_CHAR_HANDLE, 
 598:Eddystone.c   ****                           RETURN_CODES_WRITE_NOT_PERMITTED);
 599:Eddystone.c   ****         }
 600:Eddystone.c   ****     }
 601:Eddystone.c   **** }
 602:Eddystone.c   **** 
 603:Eddystone.c   **** /*******************************************************************************
 604:Eddystone.c   **** * Function Name: EddystoneURL_Config_URI_EDTXMODE
 605:Eddystone.c   **** ********************************************************************************
 606:Eddystone.c   **** * Summary:
 607:Eddystone.c   **** *   Function for updating the TX Power Mode.
 608:Eddystone.c   **** *
 609:Eddystone.c   **** * Parameters:
 610:Eddystone.c   **** *   wrReqParam : the request parameter received from Client
 611:Eddystone.c   **** *
 612:Eddystone.c   **** * Return:
 613:Eddystone.c   **** *   None.
 614:Eddystone.c   **** *
 615:Eddystone.c   **** *******************************************************************************/
 616:Eddystone.c   **** static void EddystoneURL_Config_URI_EDTXMODE(CYBLE_GATTS_WRITE_REQ_PARAM_T *wrReqParam)
 617:Eddystone.c   **** {
 618:Eddystone.c   ****     /* If length is not correct */
 619:Eddystone.c   ****     if(wrReqParam->handleValPair.value.len != sizeof(pBeaconConfig->TXPowerMode))
 620:Eddystone.c   ****     {
 621:Eddystone.c   ****         SendErrorCode(wrReqParam->connHandle,
 622:Eddystone.c   ****                       CYBLE_EDDYSTONEURL_CONFIGURATION_TX_POWER_MODE_CHAR_HANDLE, 
 623:Eddystone.c   ****                       RETURN_CODES_INVALID_ATTRIBUTE_LEN);
 624:Eddystone.c   ****     }
 625:Eddystone.c   ****     /* If the beacon is locked. */
 626:Eddystone.c   ****     else if(pBeaconConfig->LockState)
 627:Eddystone.c   ****     {
 628:Eddystone.c   ****         SendErrorCode(wrReqParam->connHandle,
 629:Eddystone.c   ****                       CYBLE_EDDYSTONEURL_CONFIGURATION_TX_POWER_MODE_CHAR_HANDLE, 
 630:Eddystone.c   ****                       RETURN_CODES_INSUFFICIENT_AUTHORIZATION);
 631:Eddystone.c   ****     }
 632:Eddystone.c   ****     /* If the value is out of range. */
 633:Eddystone.c   ****     else if(*(wrReqParam->handleValPair.value.val) > TX_POWER_MODE_HIGH)
 634:Eddystone.c   ****     {
 635:Eddystone.c   ****         SendErrorCode(wrReqParam->connHandle,
ARM GAS  C:\Users\ramanatg\AppData\Local\Temp\cctNzr7i.s 			page 19


 636:Eddystone.c   ****                       CYBLE_EDDYSTONEURL_CONFIGURATION_TX_POWER_MODE_CHAR_HANDLE, 
 637:Eddystone.c   ****                       RETURN_CODES_WRITE_NOT_PERMITTED);
 638:Eddystone.c   ****     }
 639:Eddystone.c   ****     /* Both the length and the value are correct. */
 640:Eddystone.c   ****     else
 641:Eddystone.c   ****     {
 642:Eddystone.c   ****         /* store TX Power Mode in SFlash */
 643:Eddystone.c   ****         ConfigRW_UpdateConfig(CONFIG_TYPE_TXPMODE, wrReqParam->handleValPair.value.val);
 644:Eddystone.c   ****         /* update TX Power Mode characteristic */
 645:Eddystone.c   ****         CyBle_GattsWriteAttributeValue(&(wrReqParam->handleValPair), 
 646:Eddystone.c   ****                                        WRITE_ATTRIB_OFFSET_0, 
 647:Eddystone.c   ****                                        NULL, 
 648:Eddystone.c   ****                                        CYBLE_GATT_DB_LOCALLY_INITIATED);
 649:Eddystone.c   ****         CyBle_GattsWriteRsp(wrReqParam->connHandle);
 650:Eddystone.c   ****     }
 651:Eddystone.c   **** }
 652:Eddystone.c   **** 
 653:Eddystone.c   **** /*******************************************************************************
 654:Eddystone.c   **** * Function Name: EddystoneURL_Config_URI_BeaconPeriod
 655:Eddystone.c   **** ********************************************************************************
 656:Eddystone.c   **** * Summary:
 657:Eddystone.c   **** *   Function for updating the period in milliseconds that a Eddystone-URL packet
 658:Eddystone.c   **** *   is transmitted.
 659:Eddystone.c   **** *   A value of zero disables Eddystone-URL transmissions.
 660:Eddystone.c   **** *
 661:Eddystone.c   **** * Parameters:
 662:Eddystone.c   **** *   wrReqParam : the request parameter received from Client
 663:Eddystone.c   **** *
 664:Eddystone.c   **** * Return:
 665:Eddystone.c   **** *   None.
 666:Eddystone.c   **** *
 667:Eddystone.c   **** *******************************************************************************/
 668:Eddystone.c   **** static void EddystoneURL_Config_URI_BeaconPeriod(CYBLE_GATTS_WRITE_REQ_PARAM_T *wrReqParam)
 669:Eddystone.c   **** {
 670:Eddystone.c   ****     /* If length is not correct. */
 671:Eddystone.c   ****     if(wrReqParam->handleValPair.value.len != sizeof(pBeaconConfig->URLPeriod))
 672:Eddystone.c   ****     {
 673:Eddystone.c   ****         SendErrorCode(wrReqParam->connHandle,
 674:Eddystone.c   ****                       CYBLE_EDDYSTONEURL_CONFIGURATION_BEACON_PERIOD_CHAR_HANDLE, 
 675:Eddystone.c   ****                       RETURN_CODES_INVALID_ATTRIBUTE_LEN);
 676:Eddystone.c   ****     }
 677:Eddystone.c   ****     /* If the beacon is locked. */
 678:Eddystone.c   ****     else if(pBeaconConfig->LockState)
 679:Eddystone.c   ****     {
 680:Eddystone.c   ****         SendErrorCode(wrReqParam->connHandle,
 681:Eddystone.c   ****                       CYBLE_EDDYSTONEURL_CONFIGURATION_BEACON_PERIOD_CHAR_HANDLE, 
 682:Eddystone.c   ****                       RETURN_CODES_INSUFFICIENT_AUTHORIZATION);
 683:Eddystone.c   ****     }
 684:Eddystone.c   ****     /* The length is right, and the beacon is unlocked. */
 685:Eddystone.c   ****     else
 686:Eddystone.c   ****     {
 687:Eddystone.c   ****         CYBLE_GATT_HANDLE_VALUE_PAIR_T PeriodHandle;
 688:Eddystone.c   ****         uint16_t NewPeriod;
 689:Eddystone.c   ****         
 690:Eddystone.c   ****         /* Little Endian */
 691:Eddystone.c   ****         NewPeriod = (wrReqParam->handleValPair.value.val[0]) |
 692:Eddystone.c   ****                     (wrReqParam->handleValPair.value.val[1] << 8);
ARM GAS  C:\Users\ramanatg\AppData\Local\Temp\cctNzr7i.s 			page 20


 693:Eddystone.c   ****         /* If the value is less than the minimum. 
 694:Eddystone.c   ****          * 0 is allowed.                          */
 695:Eddystone.c   ****         if((NewPeriod > 0)           && \
 696:Eddystone.c   ****            (NewPeriod < ITRVL_MIN_TIME) )
 697:Eddystone.c   ****         {
 698:Eddystone.c   ****             NewPeriod = ITRVL_MIN_TIME;
 699:Eddystone.c   ****         }
 700:Eddystone.c   ****         /* If the value is larger than the maximum. */
 701:Eddystone.c   ****         else if(NewPeriod > ITRVL_MAX_TIME)
 702:Eddystone.c   ****         {
 703:Eddystone.c   ****             NewPeriod = ITRVL_MAX_TIME;
 704:Eddystone.c   ****         }
 705:Eddystone.c   ****         
 706:Eddystone.c   ****         /* store Beacon Period in SFlash */
 707:Eddystone.c   ****         ConfigRW_UpdateConfig(CONFIG_TYPE_URLPERIOD, &NewPeriod);
 708:Eddystone.c   ****         
 709:Eddystone.c   ****         PeriodHandle.attrHandle = CYBLE_EDDYSTONEURL_CONFIGURATION_BEACON_PERIOD_CHAR_HANDLE;
 710:Eddystone.c   ****         PeriodHandle.value.val = (uint8_t *)(&NewPeriod);
 711:Eddystone.c   ****         PeriodHandle.value.len = sizeof(pBeaconConfig->URLPeriod);
 712:Eddystone.c   ****         
 713:Eddystone.c   ****         /* update Beacon Period characteristic */
 714:Eddystone.c   ****         CyBle_GattsWriteAttributeValue(&PeriodHandle, 
 715:Eddystone.c   ****                                        WRITE_ATTRIB_OFFSET_0, 
 716:Eddystone.c   ****                                        NULL, 
 717:Eddystone.c   ****                                        CYBLE_GATT_DB_LOCALLY_INITIATED);
 718:Eddystone.c   ****         CyBle_GattsWriteRsp(wrReqParam->connHandle);
 719:Eddystone.c   ****     }
 720:Eddystone.c   **** }
 721:Eddystone.c   **** 
 722:Eddystone.c   **** /*******************************************************************************
 723:Eddystone.c   **** * Function Name: EddystoneURL_Config_URI_Reset
 724:Eddystone.c   **** ********************************************************************************
 725:Eddystone.c   **** * Summary:
 726:Eddystone.c   **** *   Function for setting all characteristics to their initial values.
 727:Eddystone.c   **** *
 728:Eddystone.c   **** * Parameters:
 729:Eddystone.c   **** *   wrReqParam : the request parameter received from Client
 730:Eddystone.c   **** *
 731:Eddystone.c   **** * Return:
 732:Eddystone.c   **** *   None.
 733:Eddystone.c   **** *
 734:Eddystone.c   **** *******************************************************************************/
 735:Eddystone.c   **** static void EddystoneURL_Config_URI_Reset(CYBLE_GATTS_WRITE_REQ_PARAM_T *wrReqParam)
 736:Eddystone.c   **** {
 737:Eddystone.c   ****     /* If length is not correct. */
 738:Eddystone.c   ****     if(wrReqParam->handleValPair.value.len != sizeof(uint8_t))
 353              		.loc 1 738 0
 354 006c 2389     		ldrh	r3, [r4, #8]
 355 006e 012B     		cmp	r3, #1
 356 0070 00D0     		beq	.LCB267
 357 0072 22E1     		b	.L66	@long jump
 358              	.LCB267:
 739:Eddystone.c   ****     {
 740:Eddystone.c   ****         SendErrorCode(wrReqParam->connHandle,
 741:Eddystone.c   ****                       CYBLE_EDDYSTONEURL_CONFIGURATION_RESET_CHAR_HANDLE, 
 742:Eddystone.c   ****                       RETURN_CODES_INVALID_ATTRIBUTE_LEN);
 743:Eddystone.c   ****     }
ARM GAS  C:\Users\ramanatg\AppData\Local\Temp\cctNzr7i.s 			page 21


 744:Eddystone.c   ****     /* If the beacon is locked. */
 745:Eddystone.c   ****     else if(pBeaconConfig->LockState)
 359              		.loc 1 745 0
 360 0074 3523     		mov	r3, #53
 361 0076 BB4A     		ldr	r2, .L84+4
 362 0078 D35C     		ldrb	r3, [r2, r3]
 363 007a 002B     		cmp	r3, #0
 364 007c 00D0     		beq	.LCB272
 365 007e E8E1     		b	.L67	@long jump
 366              	.LCB272:
 746:Eddystone.c   ****     {
 747:Eddystone.c   ****         SendErrorCode(wrReqParam->connHandle,
 748:Eddystone.c   ****                       CYBLE_EDDYSTONEURL_CONFIGURATION_RESET_CHAR_HANDLE, 
 749:Eddystone.c   ****                       RETURN_CODES_INSUFFICIENT_AUTHORIZATION);
 750:Eddystone.c   ****     }
 751:Eddystone.c   ****     /* The length is right, and the beacon is unlocked. */
 752:Eddystone.c   ****     else
 753:Eddystone.c   ****     {
 754:Eddystone.c   ****         /* If the value is not 0, reset the configurations. */
 755:Eddystone.c   ****         if(*(wrReqParam->handleValPair.value.val) != 0)
 367              		.loc 1 755 0
 368 0080 6368     		ldr	r3, [r4, #4]
 369 0082 1B78     		ldrb	r3, [r3]
 370 0084 002B     		cmp	r3, #0
 371 0086 00D0     		beq	.LCB277
 372 0088 C2E1     		b	.L68	@long jump
 373              	.LCB277:
 374              	.LVL21:
 375              	.L60:
 376              	.LBE126:
 377              	.LBE125:
 378              	.LBB134:
 379              	.LBB135:
 380              	.LBB136:
 393:Eddystone.c   ****     }
 381              		.loc 1 393 0
 382 008a 2068     		ldr	r0, [r4]
 383 008c FFF7FEFF 		bl	CyBle_GattsWriteRsp
 384              	.LVL22:
 385 0090 BFE7     		b	.L5
 386              	.LVL23:
 387              	.L8:
 388              	.LBE136:
 389              	.LBE135:
 390              	.LBE134:
 391              	.LBB148:
 392              	.LBB149:
 312:Eddystone.c   ****     {
 393              		.loc 1 312 0
 394 0092 2389     		ldrh	r3, [r4, #8]
 395 0094 102B     		cmp	r3, #16
 396 0096 00D0     		beq	.LCB308
 397 0098 47E1     		b	.L69	@long jump
 398              	.LCB308:
 319:Eddystone.c   ****     {
 399              		.loc 1 319 0
 400 009a 3522     		mov	r2, #53
ARM GAS  C:\Users\ramanatg\AppData\Local\Temp\cctNzr7i.s 			page 22


 401 009c B149     		ldr	r1, .L84+4
 402 009e 8A5C     		ldrb	r2, [r1, r2]
 403 00a0 002A     		cmp	r2, #0
 404 00a2 00D0     		beq	.LCB313
 405 00a4 70E1     		b	.L70	@long jump
 406              	.LCB313:
 407              	.LBB150:
 328:Eddystone.c   ****         CYBLE_GATT_HANDLE_VALUE_PAIR_T UpdateHandle;
 408              		.loc 1 328 0
 409 00a6 0125     		mov	r5, #1
 410 00a8 14AE     		add	r6, sp, #80
 332:Eddystone.c   ****         ConfigRW_UpdateConfig(CONFIG_TYPE_LOCKSTATE, &NewLockState);
 411              		.loc 1 332 0
 412 00aa 6168     		ldr	r1, [r4, #4]
 413 00ac 0E20     		mov	r0, #14
 414              	.LVL24:
 328:Eddystone.c   ****         CYBLE_GATT_HANDLE_VALUE_PAIR_T UpdateHandle;
 415              		.loc 1 328 0
 416 00ae 3570     		strb	r5, [r6]
 332:Eddystone.c   ****         ConfigRW_UpdateConfig(CONFIG_TYPE_LOCKSTATE, &NewLockState);
 417              		.loc 1 332 0
 418 00b0 FFF7FEFF 		bl	ConfigRW_UpdateConfig
 419              	.LVL25:
 333:Eddystone.c   ****         
 420              		.loc 1 333 0
 421 00b4 0D20     		mov	r0, #13
 422 00b6 311C     		mov	r1, r6
 423 00b8 FFF7FEFF 		bl	ConfigRW_UpdateConfig
 424              	.LVL26:
 336:Eddystone.c   ****         UpdateHandle.value.val  = &(pBeaconConfig->LockState);
 425              		.loc 1 336 0
 426 00bc 0E23     		mov	r3, #14
 427 00be 15A8     		add	r0, sp, #84
 428 00c0 0381     		strh	r3, [r0, #8]
 337:Eddystone.c   ****         UpdateHandle.value.len  = sizeof(pBeaconConfig->LockState);
 429              		.loc 1 337 0
 430 00c2 A94B     		ldr	r3, .L84+8
 338:Eddystone.c   ****         CyBle_GattsWriteAttributeValue(&UpdateHandle, 
 431              		.loc 1 338 0
 432 00c4 8580     		strh	r5, [r0, #4]
 337:Eddystone.c   ****         UpdateHandle.value.len  = sizeof(pBeaconConfig->LockState);
 433              		.loc 1 337 0
 434 00c6 1593     		str	r3, [sp, #84]
 435              	.LVL27:
 436              	.L59:
 437              	.LBE150:
 438              	.LBE149:
 439              	.LBE148:
 440              	.LBB157:
 441              	.LBB144:
 442              	.LBB137:
 388:Eddystone.c   ****                                        WRITE_ATTRIB_OFFSET_0, 
 443              		.loc 1 388 0
 444 00c8 0021     		mov	r1, #0
 445 00ca 0022     		mov	r2, #0
 446 00cc 0023     		mov	r3, #0
 447 00ce FFF7FEFF 		bl	CyBle_GattsWriteAttributeValue
ARM GAS  C:\Users\ramanatg\AppData\Local\Temp\cctNzr7i.s 			page 23


 448              	.LVL28:
 449 00d2 DAE7     		b	.L60
 450              	.LVL29:
 451              	.L10:
 452              	.LBE137:
 364:Eddystone.c   ****     {
 453              		.loc 1 364 0
 454 00d4 2389     		ldrh	r3, [r4, #8]
 455 00d6 102B     		cmp	r3, #16
 456 00d8 00D0     		beq	.LCB362
 457 00da 34E1     		b	.L71	@long jump
 458              	.LCB362:
 371:Eddystone.c   ****     {
 459              		.loc 1 371 0
 460 00dc 3523     		mov	r3, #53
 461 00de A14A     		ldr	r2, .L84+4
 462 00e0 D35C     		ldrb	r3, [r2, r3]
 463 00e2 002B     		cmp	r3, #0
 464 00e4 D1D0     		beq	.L60
 376:Eddystone.c   ****     {
 465              		.loc 1 376 0
 466 00e6 A248     		ldr	r0, .L84+16
 467              	.LVL30:
 468 00e8 6168     		ldr	r1, [r4, #4]
 469 00ea 1022     		mov	r2, #16
 470 00ec FFF7FEFF 		bl	memcmp
 471              	.LVL31:
 472 00f0 0028     		cmp	r0, #0
 473 00f2 00D1     		bne	.LCB376
 474 00f4 63E1     		b	.L72	@long jump
 475              	.LCB376:
 476 00f6 2288     		ldrh	r2, [r4]
 477 00f8 03AB     		add	r3, sp, #12
 478 00fa 1A80     		strh	r2, [r3]
 479              	.LVL32:
 480              	.LBB138:
 481              	.LBB139:
  85:Eddystone.c   ****     err_param.attrHandle = attrHandle;
 482              		.loc 1 85 0
 483 00fc 1223     		mov	r3, #18
 484 00fe 15A9     		add	r1, sp, #84
 485 0100 8B70     		strb	r3, [r1, #2]
  86:Eddystone.c   ****     err_param.errorCode = errorCode;
 486              		.loc 1 86 0
 487 0102 0B80     		strh	r3, [r1]
  90:Eddystone.c   **** }
 488              		.loc 1 90 0
 489 0104 0398     		ldr	r0, [sp, #12]
  87:Eddystone.c   **** 
 490              		.loc 1 87 0
 491 0106 0A3B     		sub	r3, r3, #10
 492 0108 CB70     		strb	r3, [r1, #3]
  90:Eddystone.c   **** }
 493              		.loc 1 90 0
 494 010a FFF7FEFF 		bl	CyBle_GattsErrorRsp
 495              	.LVL33:
 496 010e 80E7     		b	.L5
ARM GAS  C:\Users\ramanatg\AppData\Local\Temp\cctNzr7i.s 			page 24


 497              	.LVL34:
 498              	.L11:
 499              	.LBE139:
 500              	.LBE138:
 501              	.LBE144:
 502              	.LBE157:
 503              	.LBB158:
 504              	.LBB159:
 420:Eddystone.c   ****        (wrReqParam->handleValPair.value.len > EDDYSTONE_URI_DATA_MAX_LEN))
 505              		.loc 1 420 0
 506 0110 2189     		ldrh	r1, [r4, #8]
 507 0112 4B1E     		sub	r3, r1, #1
 508 0114 112B     		cmp	r3, #17
 509 0116 00D9     		bls	.LCB415
 510 0118 43E1     		b	.L73	@long jump
 511              	.LCB415:
 428:Eddystone.c   ****     {
 512              		.loc 1 428 0
 513 011a 3523     		mov	r3, #53
 514 011c 914A     		ldr	r2, .L84+4
 515 011e D35C     		ldrb	r3, [r2, r3]
 516 0120 002B     		cmp	r3, #0
 517 0122 00D0     		beq	.LCB420
 518 0124 66E1     		b	.L74	@long jump
 519              	.LCB420:
 520              	.LVL35:
 521              	.LBB160:
 441:Eddystone.c   ****         {
 522              		.loc 1 441 0
 523 0126 6068     		ldr	r0, [r4, #4]
 524              	.LVL36:
 525 0128 0378     		ldrb	r3, [r0]
 526 012a 032B     		cmp	r3, #3
 527 012c 00D9     		bls	.LCB427
 528 012e A8E0     		b	.L25	@long jump
 529              	.LCB427:
 530              	.LVL37:
 448:Eddystone.c   ****             {
 531              		.loc 1 448 0
 532 0130 0129     		cmp	r1, #1
 533 0132 0AD0     		beq	.L26
 534 0134 0123     		mov	r3, #1
 535              	.LVL38:
 536              	.L28:
 451:Eddystone.c   ****                 {
 537              		.loc 1 451 0
 538 0136 C25C     		ldrb	r2, [r0, r3]
 539 0138 0D2A     		cmp	r2, #13
 540 013a 03D9     		bls	.L27
 456:Eddystone.c   ****                         (wrReqParam->handleValPair.value.val[i] >= CHAR_UPPER_BOUND)    )
 541              		.loc 1 456 0
 542 013c 213A     		sub	r2, r2, #33
 543 013e 5D2A     		cmp	r2, #93
 544 0140 00D9     		bls	.LCB445
 545 0142 9EE0     		b	.L25	@long jump
 546              	.LCB445:
 547              	.L27:
ARM GAS  C:\Users\ramanatg\AppData\Local\Temp\cctNzr7i.s 			page 25


 448:Eddystone.c   ****             {
 548              		.loc 1 448 0
 549 0144 0133     		add	r3, r3, #1
 550              	.LVL39:
 551 0146 8B42     		cmp	r3, r1
 552 0148 F5DB     		blt	.L28
 553              	.LVL40:
 554              	.L26:
 469:Eddystone.c   ****             ConfigRW_UpdateConfig(CONFIG_TYPE_URIDATA, wrReqParam->handleValPair.value.val);
 555              		.loc 1 469 0
 556 014a 211C     		mov	r1, r4
 557 014c 0F20     		mov	r0, #15
 558 014e 0831     		add	r1, r1, #8
 559 0150 FFF7FEFF 		bl	ConfigRW_UpdateConfig
 560              	.LVL41:
 470:Eddystone.c   ****             
 561              		.loc 1 470 0
 562 0154 6168     		ldr	r1, [r4, #4]
 563 0156 1020     		mov	r0, #16
 564 0158 FFF7FEFF 		bl	ConfigRW_UpdateConfig
 565              	.LVL42:
 473:Eddystone.c   ****             CyBle_GattsWriteAttributeValue(&(wrReqParam->handleValPair), 
 566              		.loc 1 473 0
 567 015c 6823     		mov	r3, #104
 568 015e 2189     		ldrh	r1, [r4, #8]
 569 0160 844A     		ldr	r2, .L84+20
 474:Eddystone.c   ****                                            WRITE_ATTRIB_OFFSET_0, 
 570              		.loc 1 474 0
 571 0162 201D     		add	r0, r4, #4
 473:Eddystone.c   ****             CyBle_GattsWriteAttributeValue(&(wrReqParam->handleValPair), 
 572              		.loc 1 473 0
 573 0164 D152     		strh	r1, [r2, r3]
 574 0166 AFE7     		b	.L59
 575              	.LVL43:
 576              	.L12:
 577              	.LBE160:
 578              	.LBE159:
 579              	.LBE158:
 580              	.LBB171:
 581              	.LBB172:
 507:Eddystone.c   ****     {
 582              		.loc 1 507 0
 583 0168 2389     		ldrh	r3, [r4, #8]
 584 016a 012B     		cmp	r3, #1
 585 016c 00D0     		beq	.LCB488
 586 016e B2E0     		b	.L75	@long jump
 587              	.LCB488:
 514:Eddystone.c   ****     {
 588              		.loc 1 514 0
 589 0170 3523     		mov	r3, #53
 590 0172 7C4A     		ldr	r2, .L84+4
 591 0174 D35C     		ldrb	r3, [r2, r3]
 592 0176 002B     		cmp	r3, #0
 593 0178 00D0     		beq	.LCB493
 594 017a 78E1     		b	.L76	@long jump
 595              	.LCB493:
 521:Eddystone.c   ****     {
ARM GAS  C:\Users\ramanatg\AppData\Local\Temp\cctNzr7i.s 			page 26


 596              		.loc 1 521 0
 597 017c 6368     		ldr	r3, [r4, #4]
 598 017e 1B78     		ldrb	r3, [r3]
 599 0180 002B     		cmp	r3, #0
 600 0182 00D1     		bne	.LCB498
 601 0184 81E7     		b	.L60	@long jump
 602              	.LCB498:
 603 0186 2288     		ldrh	r2, [r4]
 604 0188 08AB     		add	r3, sp, #32
 605 018a 1A80     		strh	r2, [r3]
 606              	.LVL44:
 607              	.LBB173:
 608              	.LBB174:
  85:Eddystone.c   ****     err_param.attrHandle = attrHandle;
 609              		.loc 1 85 0
 610 018c 1223     		mov	r3, #18
 611 018e 15A9     		add	r1, sp, #84
 612 0190 8B70     		strb	r3, [r1, #2]
  86:Eddystone.c   ****     err_param.errorCode = errorCode;
 613              		.loc 1 86 0
 614 0192 0433     		add	r3, r3, #4
 615 0194 0B80     		strh	r3, [r1]
  90:Eddystone.c   **** }
 616              		.loc 1 90 0
 617 0196 0898     		ldr	r0, [sp, #32]
 618              	.LVL45:
  87:Eddystone.c   **** 
 619              		.loc 1 87 0
 620 0198 133B     		sub	r3, r3, #19
 621 019a CB70     		strb	r3, [r1, #3]
  90:Eddystone.c   **** }
 622              		.loc 1 90 0
 623 019c FFF7FEFF 		bl	CyBle_GattsErrorRsp
 624              	.LVL46:
 625 01a0 37E7     		b	.L5
 626              	.LVL47:
 627              	.L13:
 628              	.LBE174:
 629              	.LBE173:
 630              	.LBE172:
 631              	.LBE171:
 632              	.LBB181:
 633              	.LBB182:
 551:Eddystone.c   ****     {
 634              		.loc 1 551 0
 635 01a2 2389     		ldrh	r3, [r4, #8]
 636 01a4 042B     		cmp	r3, #4
 637 01a6 00D0     		beq	.LCB537
 638 01a8 A3E0     		b	.L77	@long jump
 639              	.LCB537:
 558:Eddystone.c   ****     {
 640              		.loc 1 558 0
 641 01aa 3523     		mov	r3, #53
 642 01ac 6D4A     		ldr	r2, .L84+4
 643 01ae D35C     		ldrb	r3, [r2, r3]
 644 01b0 002B     		cmp	r3, #0
 645 01b2 00D0     		beq	.LCB542
ARM GAS  C:\Users\ramanatg\AppData\Local\Temp\cctNzr7i.s 			page 27


 646 01b4 69E1     		b	.L78	@long jump
 647              	.LCB542:
 648              	.LBB183:
 573:Eddystone.c   ****                ((int8_t)wrReqParam->handleValPair.value.val[i] < ADPWR_LOWER_BOUND)  )
 649              		.loc 1 573 0
 650 01b6 0023     		mov	r3, #0
 651 01b8 6168     		ldr	r1, [r4, #4]
 652              	.LVL48:
 653 01ba CB56     		ldrsb	r3, [r1, r3]
 654 01bc 142B     		cmp	r3, #20
 655 01be 00DD     		ble	.LCB550
 656 01c0 73E1     		b	.L34	@long jump
 657              	.LCB550:
 658 01c2 6433     		add	r3, r3, #100
 659 01c4 00DA     		bge	.LCB552
 660 01c6 70E1     		b	.L34	@long jump
 661              	.LCB552:
 662              	.LVL49:
 663 01c8 0123     		mov	r3, #1
 664 01ca CB56     		ldrsb	r3, [r1, r3]
 665 01cc 142B     		cmp	r3, #20
 666 01ce 00DD     		ble	.LCB558
 667 01d0 6BE1     		b	.L34	@long jump
 668              	.LCB558:
 669 01d2 6433     		add	r3, r3, #100
 670 01d4 00DA     		bge	.LCB560
 671 01d6 68E1     		b	.L34	@long jump
 672              	.LCB560:
 673              	.LVL50:
 674 01d8 0223     		mov	r3, #2
 675 01da CB56     		ldrsb	r3, [r1, r3]
 676 01dc 142B     		cmp	r3, #20
 677 01de 00DD     		ble	.LCB566
 678 01e0 63E1     		b	.L34	@long jump
 679              	.LCB566:
 680 01e2 6433     		add	r3, r3, #100
 681 01e4 00DA     		bge	.LCB568
 682 01e6 60E1     		b	.L34	@long jump
 683              	.LCB568:
 684              	.LVL51:
 685 01e8 0323     		mov	r3, #3
 686 01ea CB56     		ldrsb	r3, [r1, r3]
 687 01ec 142B     		cmp	r3, #20
 688 01ee 00DD     		ble	.LCB574
 689 01f0 5BE1     		b	.L34	@long jump
 690              	.LCB574:
 691 01f2 6433     		add	r3, r3, #100
 692 01f4 00DA     		bge	.LCB576
 693 01f6 58E1     		b	.L34	@long jump
 694              	.LCB576:
 695              	.LVL52:
 585:Eddystone.c   ****             /* update Advertised TX Power Levels characteristic */
 696              		.loc 1 585 0
 697 01f8 1220     		mov	r0, #18
 698              	.LVL53:
 699 01fa FFF7FEFF 		bl	ConfigRW_UpdateConfig
 700              	.LVL54:
ARM GAS  C:\Users\ramanatg\AppData\Local\Temp\cctNzr7i.s 			page 28


 587:Eddystone.c   ****                                            WRITE_ATTRIB_OFFSET_0, 
 701              		.loc 1 587 0
 702 01fe 201D     		add	r0, r4, #4
 703 0200 62E7     		b	.L59
 704              	.LVL55:
 705              	.L14:
 706              	.LBE183:
 707              	.LBE182:
 708              	.LBE181:
 709              	.LBB194:
 710              	.LBB195:
 619:Eddystone.c   ****     {
 711              		.loc 1 619 0
 712 0202 2389     		ldrh	r3, [r4, #8]
 713 0204 012B     		cmp	r3, #1
 714 0206 4AD1     		bne	.L79
 626:Eddystone.c   ****     {
 715              		.loc 1 626 0
 716 0208 3523     		mov	r3, #53
 717 020a 564A     		ldr	r2, .L84+4
 718 020c D35C     		ldrb	r3, [r2, r3]
 719 020e 002B     		cmp	r3, #0
 720 0210 00D0     		beq	.LCB608
 721 0212 10E1     		b	.L80	@long jump
 722              	.LCB608:
 633:Eddystone.c   ****     {
 723              		.loc 1 633 0
 724 0214 6168     		ldr	r1, [r4, #4]
 725 0216 0B78     		ldrb	r3, [r1]
 726 0218 032B     		cmp	r3, #3
 727 021a 00D9     		bls	.LCB612
 728 021c DCE0     		b	.L81	@long jump
 729              	.LCB612:
 643:Eddystone.c   ****         /* update TX Power Mode characteristic */
 730              		.loc 1 643 0
 731 021e 1320     		mov	r0, #19
 732              	.LVL56:
 733 0220 FFF7FEFF 		bl	ConfigRW_UpdateConfig
 734              	.LVL57:
 645:Eddystone.c   ****                                        WRITE_ATTRIB_OFFSET_0, 
 735              		.loc 1 645 0
 736 0224 201D     		add	r0, r4, #4
 737 0226 4FE7     		b	.L59
 738              	.LVL58:
 739              	.L15:
 740              	.LBE195:
 741              	.LBE194:
 742              	.LBB205:
 743              	.LBB206:
 671:Eddystone.c   ****     {
 744              		.loc 1 671 0
 745 0228 2389     		ldrh	r3, [r4, #8]
 746 022a 022B     		cmp	r3, #2
 747 022c 6FD1     		bne	.L82
 678:Eddystone.c   ****     {
 748              		.loc 1 678 0
 749 022e 3523     		mov	r3, #53
ARM GAS  C:\Users\ramanatg\AppData\Local\Temp\cctNzr7i.s 			page 29


 750 0230 4C4A     		ldr	r2, .L84+4
 751 0232 D35C     		ldrb	r3, [r2, r3]
 752 0234 002B     		cmp	r3, #0
 753 0236 00D0     		beq	.LCB639
 754 0238 EFE0     		b	.L83	@long jump
 755              	.LCB639:
 756              	.LBB207:
 691:Eddystone.c   ****                     (wrReqParam->handleValPair.value.val[1] << 8);
 757              		.loc 1 691 0
 758 023a 6268     		ldr	r2, [r4, #4]
 692:Eddystone.c   ****         /* If the value is less than the minimum. 
 759              		.loc 1 692 0
 760 023c 5378     		ldrb	r3, [r2, #1]
 691:Eddystone.c   ****                     (wrReqParam->handleValPair.value.val[1] << 8);
 761              		.loc 1 691 0
 762 023e 1278     		ldrb	r2, [r2]
 692:Eddystone.c   ****         /* If the value is less than the minimum. 
 763              		.loc 1 692 0
 764 0240 1B02     		lsl	r3, r3, #8
 691:Eddystone.c   ****                     (wrReqParam->handleValPair.value.val[1] << 8);
 765              		.loc 1 691 0
 766 0242 1343     		orr	r3, r2
 695:Eddystone.c   ****            (NewPeriod < ITRVL_MIN_TIME) )
 767              		.loc 1 695 0
 768 0244 5A1E     		sub	r2, r3, #1
 769 0246 622A     		cmp	r2, #98
 770 0248 00D9     		bls	.LCB650
 771 024a 95E0     		b	.L40	@long jump
 772              	.LCB650:
 698:Eddystone.c   ****         }
 773              		.loc 1 698 0
 774 024c 6423     		mov	r3, #100
 775 024e 14AD     		add	r5, sp, #80
 776 0250 2B80     		strh	r3, [r5]
 777              	.L41:
 707:Eddystone.c   ****         
 778              		.loc 1 707 0
 779 0252 1420     		mov	r0, #20
 780              	.LVL59:
 781 0254 291C     		mov	r1, r5
 782 0256 FFF7FEFF 		bl	ConfigRW_UpdateConfig
 783              	.LVL60:
 709:Eddystone.c   ****         PeriodHandle.value.val = (uint8_t *)(&NewPeriod);
 784              		.loc 1 709 0
 785 025a 1C23     		mov	r3, #28
 786 025c 15A8     		add	r0, sp, #84
 787 025e 0381     		strh	r3, [r0, #8]
 711:Eddystone.c   ****         
 788              		.loc 1 711 0
 789 0260 1A3B     		sub	r3, r3, #26
 710:Eddystone.c   ****         PeriodHandle.value.len = sizeof(pBeaconConfig->URLPeriod);
 790              		.loc 1 710 0
 791 0262 1595     		str	r5, [sp, #84]
 792              	.LBE207:
 793              	.LBE206:
 794              	.LBE205:
 795              	.LBB218:
ARM GAS  C:\Users\ramanatg\AppData\Local\Temp\cctNzr7i.s 			page 30


 796              	.LBB145:
 797              	.LBB140:
 387:Eddystone.c   ****         CyBle_GattsWriteAttributeValue(&UpdateHandle, 
 798              		.loc 1 387 0
 799 0264 8380     		strh	r3, [r0, #4]
 800 0266 2FE7     		b	.L59
 801              	.LVL61:
 802              	.L7:
 803 0268 6946     		mov	r1, sp
 804 026a 2388     		ldrh	r3, [r4]
 805 026c 0B80     		strh	r3, [r1]
 806              	.LVL62:
 807              	.LBE140:
 808              	.LBE145:
 809              	.LBE218:
 810              	.LBB219:
 811              	.LBB220:
  85:Eddystone.c   ****     err_param.attrHandle = attrHandle;
 812              		.loc 1 85 0
 813 026e 1223     		mov	r3, #18
 814 0270 15A9     		add	r1, sp, #84
 815 0272 8B70     		strb	r3, [r1, #2]
  90:Eddystone.c   **** }
 816              		.loc 1 90 0
 817 0274 0098     		ldr	r0, [sp]
 818              	.LVL63:
  87:Eddystone.c   **** 
 819              		.loc 1 87 0
 820 0276 0F3B     		sub	r3, r3, #15
  86:Eddystone.c   ****     err_param.errorCode = errorCode;
 821              		.loc 1 86 0
 822 0278 0A80     		strh	r2, [r1]
  87:Eddystone.c   **** 
 823              		.loc 1 87 0
 824 027a CB70     		strb	r3, [r1, #3]
  90:Eddystone.c   **** }
 825              		.loc 1 90 0
 826 027c FFF7FEFF 		bl	CyBle_GattsErrorRsp
 827              	.LVL64:
 828 0280 C7E6     		b	.L5
 829              	.LVL65:
 830              	.L25:
 831 0282 2288     		ldrh	r2, [r4]
 832 0284 07AB     		add	r3, sp, #28
 833 0286 1A80     		strh	r2, [r3]
 834              	.LVL66:
 835              	.LBE220:
 836              	.LBE219:
 837              	.LBB221:
 838              	.LBB168:
 839              	.LBB163:
 840              	.LBB161:
 841              	.LBB162:
  85:Eddystone.c   ****     err_param.attrHandle = attrHandle;
 842              		.loc 1 85 0
 843 0288 1223     		mov	r3, #18
 844 028a 15A9     		add	r1, sp, #84
ARM GAS  C:\Users\ramanatg\AppData\Local\Temp\cctNzr7i.s 			page 31


 845 028c 8B70     		strb	r3, [r1, #2]
  86:Eddystone.c   ****     err_param.errorCode = errorCode;
 846              		.loc 1 86 0
 847 028e 0233     		add	r3, r3, #2
 848 0290 0B80     		strh	r3, [r1]
  90:Eddystone.c   **** }
 849              		.loc 1 90 0
 850 0292 0798     		ldr	r0, [sp, #28]
  87:Eddystone.c   **** 
 851              		.loc 1 87 0
 852 0294 113B     		sub	r3, r3, #17
 853 0296 CB70     		strb	r3, [r1, #3]
  90:Eddystone.c   **** }
 854              		.loc 1 90 0
 855 0298 FFF7FEFF 		bl	CyBle_GattsErrorRsp
 856              	.LVL67:
 857 029c B9E6     		b	.L5
 858              	.LVL68:
 859              	.L79:
 860 029e 2288     		ldrh	r2, [r4]
 861 02a0 10AB     		add	r3, sp, #64
 862 02a2 1A80     		strh	r2, [r3]
 863              	.LVL69:
 864              	.LBE162:
 865              	.LBE161:
 866              	.LBE163:
 867              	.LBE168:
 868              	.LBE221:
 869              	.LBB222:
 870              	.LBB202:
 871              	.LBB196:
 872              	.LBB197:
  85:Eddystone.c   ****     err_param.attrHandle = attrHandle;
 873              		.loc 1 85 0
 874 02a4 1223     		mov	r3, #18
 875 02a6 15A9     		add	r1, sp, #84
 876 02a8 8B70     		strb	r3, [r1, #2]
  86:Eddystone.c   ****     err_param.errorCode = errorCode;
 877              		.loc 1 86 0
 878 02aa 0833     		add	r3, r3, #8
 879 02ac 0B80     		strh	r3, [r1]
  90:Eddystone.c   **** }
 880              		.loc 1 90 0
 881 02ae 1098     		ldr	r0, [sp, #64]
 882              	.LVL70:
  87:Eddystone.c   **** 
 883              		.loc 1 87 0
 884 02b0 0D3B     		sub	r3, r3, #13
 885 02b2 CB70     		strb	r3, [r1, #3]
  90:Eddystone.c   **** }
 886              		.loc 1 90 0
 887 02b4 FFF7FEFF 		bl	CyBle_GattsErrorRsp
 888              	.LVL71:
 889 02b8 ABE6     		b	.L5
 890              	.LVL72:
 891              	.L66:
 892 02ba 2288     		ldrh	r2, [r4]
ARM GAS  C:\Users\ramanatg\AppData\Local\Temp\cctNzr7i.s 			page 32


 893 02bc 14AB     		add	r3, sp, #80
 894 02be 1A80     		strh	r2, [r3]
 895              	.LVL73:
 896              	.LBE197:
 897              	.LBE196:
 898              	.LBE202:
 899              	.LBE222:
 900              	.LBB223:
 901              	.LBB131:
 902              	.LBB127:
 903              	.LBB128:
  85:Eddystone.c   ****     err_param.attrHandle = attrHandle;
 904              		.loc 1 85 0
 905 02c0 1223     		mov	r3, #18
 906 02c2 15A9     		add	r1, sp, #84
 907 02c4 8B70     		strb	r3, [r1, #2]
  86:Eddystone.c   ****     err_param.errorCode = errorCode;
 908              		.loc 1 86 0
 909 02c6 0C33     		add	r3, r3, #12
 910 02c8 0B80     		strh	r3, [r1]
  90:Eddystone.c   **** }
 911              		.loc 1 90 0
 912 02ca 1498     		ldr	r0, [sp, #80]
 913              	.LVL74:
  87:Eddystone.c   **** 
 914              		.loc 1 87 0
 915 02cc 113B     		sub	r3, r3, #17
 916 02ce CB70     		strb	r3, [r1, #3]
  90:Eddystone.c   **** }
 917              		.loc 1 90 0
 918 02d0 FFF7FEFF 		bl	CyBle_GattsErrorRsp
 919              	.LVL75:
 920 02d4 9DE6     		b	.L5
 921              	.LVL76:
 922              	.L75:
 923 02d6 2288     		ldrh	r2, [r4]
 924 02d8 0AAB     		add	r3, sp, #40
 925 02da 1A80     		strh	r2, [r3]
 926              	.LVL77:
 927              	.LBE128:
 928              	.LBE127:
 929              	.LBE131:
 930              	.LBE223:
 931              	.LBB224:
 932              	.LBB179:
 933              	.LBB175:
 934              	.LBB176:
  85:Eddystone.c   ****     err_param.attrHandle = attrHandle;
 935              		.loc 1 85 0
 936 02dc 1223     		mov	r3, #18
 937 02de 15A9     		add	r1, sp, #84
 938 02e0 8B70     		strb	r3, [r1, #2]
  86:Eddystone.c   ****     err_param.errorCode = errorCode;
 939              		.loc 1 86 0
 940 02e2 0433     		add	r3, r3, #4
 941 02e4 0B80     		strh	r3, [r1]
  90:Eddystone.c   **** }
ARM GAS  C:\Users\ramanatg\AppData\Local\Temp\cctNzr7i.s 			page 33


 942              		.loc 1 90 0
 943 02e6 0A98     		ldr	r0, [sp, #40]
 944              	.LVL78:
  87:Eddystone.c   **** 
 945              		.loc 1 87 0
 946 02e8 093B     		sub	r3, r3, #9
 947 02ea CB70     		strb	r3, [r1, #3]
  90:Eddystone.c   **** }
 948              		.loc 1 90 0
 949 02ec FFF7FEFF 		bl	CyBle_GattsErrorRsp
 950              	.LVL79:
 951 02f0 8FE6     		b	.L5
 952              	.LVL80:
 953              	.L77:
 954 02f2 2288     		ldrh	r2, [r4]
 955 02f4 0CAB     		add	r3, sp, #48
 956 02f6 1A80     		strh	r2, [r3]
 957              	.LVL81:
 958              	.LBE176:
 959              	.LBE175:
 960              	.LBE179:
 961              	.LBE224:
 962              	.LBB225:
 963              	.LBB191:
 964              	.LBB186:
 965              	.LBB187:
  85:Eddystone.c   ****     err_param.attrHandle = attrHandle;
 966              		.loc 1 85 0
 967 02f8 1223     		mov	r3, #18
 968 02fa 15A9     		add	r1, sp, #84
 969 02fc 8B70     		strb	r3, [r1, #2]
  86:Eddystone.c   ****     err_param.errorCode = errorCode;
 970              		.loc 1 86 0
 971 02fe 0633     		add	r3, r3, #6
 972 0300 0B80     		strh	r3, [r1]
  90:Eddystone.c   **** }
 973              		.loc 1 90 0
 974 0302 0C98     		ldr	r0, [sp, #48]
 975              	.LVL82:
  87:Eddystone.c   **** 
 976              		.loc 1 87 0
 977 0304 0B3B     		sub	r3, r3, #11
 978 0306 CB70     		strb	r3, [r1, #3]
  90:Eddystone.c   **** }
 979              		.loc 1 90 0
 980 0308 FFF7FEFF 		bl	CyBle_GattsErrorRsp
 981              	.LVL83:
 982 030c 81E6     		b	.L5
 983              	.LVL84:
 984              	.L82:
 985 030e 2288     		ldrh	r2, [r4]
 986 0310 12AB     		add	r3, sp, #72
 987 0312 1A80     		strh	r2, [r3]
 988              	.LVL85:
 989              	.LBE187:
 990              	.LBE186:
 991              	.LBE191:
ARM GAS  C:\Users\ramanatg\AppData\Local\Temp\cctNzr7i.s 			page 34


 992              	.LBE225:
 993              	.LBB226:
 994              	.LBB214:
 995              	.LBB208:
 996              	.LBB209:
  85:Eddystone.c   ****     err_param.attrHandle = attrHandle;
 997              		.loc 1 85 0
 998 0314 1223     		mov	r3, #18
 999 0316 15A9     		add	r1, sp, #84
 1000 0318 8B70     		strb	r3, [r1, #2]
  86:Eddystone.c   ****     err_param.errorCode = errorCode;
 1001              		.loc 1 86 0
 1002 031a 0A33     		add	r3, r3, #10
 1003 031c 0B80     		strh	r3, [r1]
  90:Eddystone.c   **** }
 1004              		.loc 1 90 0
 1005 031e 1298     		ldr	r0, [sp, #72]
 1006              	.LVL86:
  87:Eddystone.c   **** 
 1007              		.loc 1 87 0
 1008 0320 0F3B     		sub	r3, r3, #15
 1009 0322 CB70     		strb	r3, [r1, #3]
  90:Eddystone.c   **** }
 1010              		.loc 1 90 0
 1011 0324 FFF7FEFF 		bl	CyBle_GattsErrorRsp
 1012              	.LVL87:
 1013 0328 73E6     		b	.L5
 1014              	.LVL88:
 1015              	.L69:
 1016 032a 2288     		ldrh	r2, [r4]
 1017 032c 02AB     		add	r3, sp, #8
 1018 032e 1A80     		strh	r2, [r3]
 1019              	.LVL89:
 1020              	.LBE209:
 1021              	.LBE208:
 1022              	.LBE214:
 1023              	.LBE226:
 1024              	.LBB227:
 1025              	.LBB155:
 1026              	.LBB151:
 1027              	.LBB152:
  85:Eddystone.c   ****     err_param.attrHandle = attrHandle;
 1028              		.loc 1 85 0
 1029 0330 1223     		mov	r3, #18
 1030 0332 15A9     		add	r1, sp, #84
 1031 0334 8B70     		strb	r3, [r1, #2]
  86:Eddystone.c   ****     err_param.errorCode = errorCode;
 1032              		.loc 1 86 0
 1033 0336 023B     		sub	r3, r3, #2
 1034 0338 0B80     		strh	r3, [r1]
  90:Eddystone.c   **** }
 1035              		.loc 1 90 0
 1036 033a 0298     		ldr	r0, [sp, #8]
 1037              	.LVL90:
  87:Eddystone.c   **** 
 1038              		.loc 1 87 0
 1039 033c 033B     		sub	r3, r3, #3
ARM GAS  C:\Users\ramanatg\AppData\Local\Temp\cctNzr7i.s 			page 35


 1040 033e CB70     		strb	r3, [r1, #3]
  90:Eddystone.c   **** }
 1041              		.loc 1 90 0
 1042 0340 FFF7FEFF 		bl	CyBle_GattsErrorRsp
 1043              	.LVL91:
 1044 0344 65E6     		b	.L5
 1045              	.LVL92:
 1046              	.L71:
 1047 0346 2288     		ldrh	r2, [r4]
 1048 0348 04AB     		add	r3, sp, #16
 1049 034a 1A80     		strh	r2, [r3]
 1050              	.LVL93:
 1051              	.LBE152:
 1052              	.LBE151:
 1053              	.LBE155:
 1054              	.LBE227:
 1055              	.LBB228:
 1056              	.LBB146:
 1057              	.LBB141:
 1058              	.LBB142:
  85:Eddystone.c   ****     err_param.attrHandle = attrHandle;
 1059              		.loc 1 85 0
 1060 034c 1223     		mov	r3, #18
 1061 034e 15A9     		add	r1, sp, #84
 1062 0350 8B70     		strb	r3, [r1, #2]
  86:Eddystone.c   ****     err_param.errorCode = errorCode;
 1063              		.loc 1 86 0
 1064 0352 0B80     		strh	r3, [r1]
  90:Eddystone.c   **** }
 1065              		.loc 1 90 0
 1066 0354 0498     		ldr	r0, [sp, #16]
 1067              	.LVL94:
  87:Eddystone.c   **** 
 1068              		.loc 1 87 0
 1069 0356 053B     		sub	r3, r3, #5
 1070 0358 CB70     		strb	r3, [r1, #3]
  90:Eddystone.c   **** }
 1071              		.loc 1 90 0
 1072 035a FFF7FEFF 		bl	CyBle_GattsErrorRsp
 1073              	.LVL95:
 1074 035e 58E6     		b	.L5
 1075              	.L85:
 1076              		.align	2
 1077              	.L84:
 1078 0360 00000000 		.word	.L9
 1079 0364 80F2FF0F 		.word	268432000
 1080 0368 B5F2FF0F 		.word	268432053
 1081 036c 00000000 		.word	.LANCHOR0
 1082 0370 B6F2FF0F 		.word	268432054
 1083 0374 00000000 		.word	cyBle_attValuesLen
 1084              	.LVL96:
 1085              	.L40:
 1086              	.LBE142:
 1087              	.LBE141:
 1088              	.LBE146:
 1089              	.LBE228:
 1090              	.LBB229:
ARM GAS  C:\Users\ramanatg\AppData\Local\Temp\cctNzr7i.s 			page 36


 1091              	.LBB215:
 1092              	.LBB210:
 701:Eddystone.c   ****         {
 1093              		.loc 1 701 0
 1094 0378 A022     		mov	r2, #160
 703:Eddystone.c   ****         }
 1095              		.loc 1 703 0
 1096 037a 14AD     		add	r5, sp, #80
 701:Eddystone.c   ****         {
 1097              		.loc 1 701 0
 1098 037c 9201     		lsl	r2, r2, #6
 1099 037e 9342     		cmp	r3, r2
 1100 0380 00D9     		bls	.LCB1028
 1101 0382 90E0     		b	.L42	@long jump
 1102              	.LCB1028:
 691:Eddystone.c   ****                     (wrReqParam->handleValPair.value.val[1] << 8);
 1103              		.loc 1 691 0
 1104 0384 2B80     		strh	r3, [r5]
 1105 0386 64E7     		b	.L41
 1106              	.LVL97:
 1107              	.L70:
 1108 0388 2188     		ldrh	r1, [r4]
 1109 038a 01AA     		add	r2, sp, #4
 1110 038c 1180     		strh	r1, [r2]
 1111              	.LVL98:
 1112              	.LBE210:
 1113              	.LBE215:
 1114              	.LBE229:
 1115              	.LBB230:
 1116              	.LBB156:
 1117              	.LBB153:
 1118              	.LBB154:
  85:Eddystone.c   ****     err_param.attrHandle = attrHandle;
 1119              		.loc 1 85 0
 1120 038e 15A9     		add	r1, sp, #84
 1121 0390 1222     		mov	r2, #18
  86:Eddystone.c   ****     err_param.errorCode = errorCode;
 1122              		.loc 1 86 0
 1123 0392 0B80     		strh	r3, [r1]
  87:Eddystone.c   **** 
 1124              		.loc 1 87 0
 1125 0394 0823     		mov	r3, #8
  90:Eddystone.c   **** }
 1126              		.loc 1 90 0
 1127 0396 0198     		ldr	r0, [sp, #4]
 1128              	.LVL99:
  85:Eddystone.c   ****     err_param.attrHandle = attrHandle;
 1129              		.loc 1 85 0
 1130 0398 8A70     		strb	r2, [r1, #2]
  87:Eddystone.c   **** 
 1131              		.loc 1 87 0
 1132 039a CB70     		strb	r3, [r1, #3]
  90:Eddystone.c   **** }
 1133              		.loc 1 90 0
 1134 039c FFF7FEFF 		bl	CyBle_GattsErrorRsp
 1135              	.LVL100:
 1136 03a0 37E6     		b	.L5
ARM GAS  C:\Users\ramanatg\AppData\Local\Temp\cctNzr7i.s 			page 37


 1137              	.LVL101:
 1138              	.L73:
 1139 03a2 2288     		ldrh	r2, [r4]
 1140 03a4 06AB     		add	r3, sp, #24
 1141 03a6 1A80     		strh	r2, [r3]
 1142              	.LVL102:
 1143              	.LBE154:
 1144              	.LBE153:
 1145              	.LBE156:
 1146              	.LBE230:
 1147              	.LBB231:
 1148              	.LBB169:
 1149              	.LBB164:
 1150              	.LBB165:
  85:Eddystone.c   ****     err_param.attrHandle = attrHandle;
 1151              		.loc 1 85 0
 1152 03a8 1223     		mov	r3, #18
 1153 03aa 15A9     		add	r1, sp, #84
 1154 03ac 8B70     		strb	r3, [r1, #2]
  86:Eddystone.c   ****     err_param.errorCode = errorCode;
 1155              		.loc 1 86 0
 1156 03ae 0233     		add	r3, r3, #2
 1157 03b0 0B80     		strh	r3, [r1]
  90:Eddystone.c   **** }
 1158              		.loc 1 90 0
 1159 03b2 0698     		ldr	r0, [sp, #24]
 1160              	.LVL103:
  87:Eddystone.c   **** 
 1161              		.loc 1 87 0
 1162 03b4 073B     		sub	r3, r3, #7
 1163 03b6 CB70     		strb	r3, [r1, #3]
  90:Eddystone.c   **** }
 1164              		.loc 1 90 0
 1165 03b8 FFF7FEFF 		bl	CyBle_GattsErrorRsp
 1166              	.LVL104:
 1167 03bc 29E6     		b	.L5
 1168              	.LVL105:
 1169              	.L72:
 1170              	.LBE165:
 1171              	.LBE164:
 1172              	.LBE169:
 1173              	.LBE231:
 1174              	.LBB232:
 1175              	.LBB147:
 1176              	.LBB143:
 378:Eddystone.c   ****         CYBLE_GATT_HANDLE_VALUE_PAIR_T UpdateHandle;
 1177              		.loc 1 378 0
 1178 03be 14A9     		add	r1, sp, #80
 1179 03c0 0870     		strb	r0, [r1]
 382:Eddystone.c   ****         
 1180              		.loc 1 382 0
 1181 03c2 0D30     		add	r0, r0, #13
 1182 03c4 FFF7FEFF 		bl	ConfigRW_UpdateConfig
 1183              	.LVL106:
 385:Eddystone.c   ****         UpdateHandle.value.val  = &(pBeaconConfig->LockState);
 1184              		.loc 1 385 0
 1185 03c8 0E23     		mov	r3, #14
ARM GAS  C:\Users\ramanatg\AppData\Local\Temp\cctNzr7i.s 			page 38


 1186 03ca 15A8     		add	r0, sp, #84
 1187 03cc 0381     		strh	r3, [r0, #8]
 386:Eddystone.c   ****         UpdateHandle.value.len  = sizeof(pBeaconConfig->LockState);
 1188              		.loc 1 386 0
 1189 03ce 3E4B     		ldr	r3, .L86
 1190 03d0 1593     		str	r3, [sp, #84]
 387:Eddystone.c   ****         CyBle_GattsWriteAttributeValue(&UpdateHandle, 
 1191              		.loc 1 387 0
 1192 03d2 0123     		mov	r3, #1
 1193 03d4 8380     		strh	r3, [r0, #4]
 1194 03d6 77E6     		b	.L59
 1195              	.LVL107:
 1196              	.L81:
 1197 03d8 2288     		ldrh	r2, [r4]
 1198 03da 0EAB     		add	r3, sp, #56
 1199 03dc 1A80     		strh	r2, [r3]
 1200              	.LVL108:
 1201              	.LBE143:
 1202              	.LBE147:
 1203              	.LBE232:
 1204              	.LBB233:
 1205              	.LBB203:
 1206              	.LBB198:
 1207              	.LBB199:
  85:Eddystone.c   ****     err_param.attrHandle = attrHandle;
 1208              		.loc 1 85 0
 1209 03de 1223     		mov	r3, #18
 1210 03e0 15A9     		add	r1, sp, #84
 1211 03e2 8B70     		strb	r3, [r1, #2]
  86:Eddystone.c   ****     err_param.errorCode = errorCode;
 1212              		.loc 1 86 0
 1213 03e4 0833     		add	r3, r3, #8
 1214 03e6 0B80     		strh	r3, [r1]
  90:Eddystone.c   **** }
 1215              		.loc 1 90 0
 1216 03e8 0E98     		ldr	r0, [sp, #56]
 1217              	.LVL109:
  87:Eddystone.c   **** 
 1218              		.loc 1 87 0
 1219 03ea 173B     		sub	r3, r3, #23
 1220 03ec CB70     		strb	r3, [r1, #3]
  90:Eddystone.c   **** }
 1221              		.loc 1 90 0
 1222 03ee FFF7FEFF 		bl	CyBle_GattsErrorRsp
 1223              	.LVL110:
 1224 03f2 0EE6     		b	.L5
 1225              	.LVL111:
 1226              	.L74:
 1227 03f4 2288     		ldrh	r2, [r4]
 1228 03f6 05AB     		add	r3, sp, #20
 1229 03f8 1A80     		strh	r2, [r3]
 1230              	.LVL112:
 1231              	.LBE199:
 1232              	.LBE198:
 1233              	.LBE203:
 1234              	.LBE233:
 1235              	.LBB234:
ARM GAS  C:\Users\ramanatg\AppData\Local\Temp\cctNzr7i.s 			page 39


 1236              	.LBB170:
 1237              	.LBB166:
 1238              	.LBB167:
  85:Eddystone.c   ****     err_param.attrHandle = attrHandle;
 1239              		.loc 1 85 0
 1240 03fa 1223     		mov	r3, #18
 1241 03fc 15A9     		add	r1, sp, #84
 1242 03fe 8B70     		strb	r3, [r1, #2]
  86:Eddystone.c   ****     err_param.errorCode = errorCode;
 1243              		.loc 1 86 0
 1244 0400 0233     		add	r3, r3, #2
 1245 0402 0B80     		strh	r3, [r1]
  90:Eddystone.c   **** }
 1246              		.loc 1 90 0
 1247 0404 0598     		ldr	r0, [sp, #20]
 1248              	.LVL113:
  87:Eddystone.c   **** 
 1249              		.loc 1 87 0
 1250 0406 0C3B     		sub	r3, r3, #12
 1251 0408 CB70     		strb	r3, [r1, #3]
  90:Eddystone.c   **** }
 1252              		.loc 1 90 0
 1253 040a FFF7FEFF 		bl	CyBle_GattsErrorRsp
 1254              	.LVL114:
 1255 040e 00E6     		b	.L5
 1256              	.LVL115:
 1257              	.L68:
 1258              	.LBE167:
 1259              	.LBE166:
 1260              	.LBE170:
 1261              	.LBE234:
 1262              	.LBB235:
 1263              	.LBB132:
 756:Eddystone.c   ****         {
 757:Eddystone.c   ****             ConfigRW_WriteReset();
 1264              		.loc 1 757 0
 1265 0410 FFF7FEFF 		bl	ConfigRW_WriteReset
 1266              	.LVL116:
 758:Eddystone.c   ****             EddystoneURL_Config_UpdateAllAttrib();
 1267              		.loc 1 758 0
 1268 0414 FFF7FEFF 		bl	EddystoneURL_Config_UpdateAllAttrib
 1269              	.LVL117:
 1270 0418 37E6     		b	.L60
 1271              	.LVL118:
 1272              	.L83:
 1273 041a 2288     		ldrh	r2, [r4]
 1274 041c 11AB     		add	r3, sp, #68
 1275 041e 1A80     		strh	r2, [r3]
 1276              	.LVL119:
 1277              	.LBE132:
 1278              	.LBE235:
 1279              	.LBB236:
 1280              	.LBB216:
 1281              	.LBB211:
 1282              	.LBB212:
  85:Eddystone.c   ****     err_param.attrHandle = attrHandle;
 1283              		.loc 1 85 0
ARM GAS  C:\Users\ramanatg\AppData\Local\Temp\cctNzr7i.s 			page 40


 1284 0420 1223     		mov	r3, #18
 1285 0422 15A9     		add	r1, sp, #84
 1286 0424 8B70     		strb	r3, [r1, #2]
  86:Eddystone.c   ****     err_param.errorCode = errorCode;
 1287              		.loc 1 86 0
 1288 0426 0A33     		add	r3, r3, #10
 1289 0428 0B80     		strh	r3, [r1]
  90:Eddystone.c   **** }
 1290              		.loc 1 90 0
 1291 042a 1198     		ldr	r0, [sp, #68]
 1292              	.LVL120:
  87:Eddystone.c   **** 
 1293              		.loc 1 87 0
 1294 042c 143B     		sub	r3, r3, #20
 1295 042e CB70     		strb	r3, [r1, #3]
  90:Eddystone.c   **** }
 1296              		.loc 1 90 0
 1297 0430 FFF7FEFF 		bl	CyBle_GattsErrorRsp
 1298              	.LVL121:
 1299 0434 EDE5     		b	.L5
 1300              	.LVL122:
 1301              	.L80:
 1302 0436 2288     		ldrh	r2, [r4]
 1303 0438 0FAB     		add	r3, sp, #60
 1304 043a 1A80     		strh	r2, [r3]
 1305              	.LVL123:
 1306              	.LBE212:
 1307              	.LBE211:
 1308              	.LBE216:
 1309              	.LBE236:
 1310              	.LBB237:
 1311              	.LBB204:
 1312              	.LBB200:
 1313              	.LBB201:
  85:Eddystone.c   ****     err_param.attrHandle = attrHandle;
 1314              		.loc 1 85 0
 1315 043c 1223     		mov	r3, #18
 1316 043e 15A9     		add	r1, sp, #84
 1317 0440 8B70     		strb	r3, [r1, #2]
  86:Eddystone.c   ****     err_param.errorCode = errorCode;
 1318              		.loc 1 86 0
 1319 0442 0833     		add	r3, r3, #8
 1320 0444 0B80     		strh	r3, [r1]
  90:Eddystone.c   **** }
 1321              		.loc 1 90 0
 1322 0446 0F98     		ldr	r0, [sp, #60]
 1323              	.LVL124:
  87:Eddystone.c   **** 
 1324              		.loc 1 87 0
 1325 0448 123B     		sub	r3, r3, #18
 1326 044a CB70     		strb	r3, [r1, #3]
  90:Eddystone.c   **** }
 1327              		.loc 1 90 0
 1328 044c FFF7FEFF 		bl	CyBle_GattsErrorRsp
 1329              	.LVL125:
 1330 0450 DFE5     		b	.L5
 1331              	.LVL126:
ARM GAS  C:\Users\ramanatg\AppData\Local\Temp\cctNzr7i.s 			page 41


 1332              	.L67:
 1333 0452 2288     		ldrh	r2, [r4]
 1334 0454 13AB     		add	r3, sp, #76
 1335 0456 1A80     		strh	r2, [r3]
 1336              	.LVL127:
 1337              	.LBE201:
 1338              	.LBE200:
 1339              	.LBE204:
 1340              	.LBE237:
 1341              	.LBB238:
 1342              	.LBB133:
 1343              	.LBB129:
 1344              	.LBB130:
  85:Eddystone.c   ****     err_param.attrHandle = attrHandle;
 1345              		.loc 1 85 0
 1346 0458 1223     		mov	r3, #18
 1347 045a 15A9     		add	r1, sp, #84
 1348 045c 8B70     		strb	r3, [r1, #2]
  86:Eddystone.c   ****     err_param.errorCode = errorCode;
 1349              		.loc 1 86 0
 1350 045e 0C33     		add	r3, r3, #12
 1351 0460 0B80     		strh	r3, [r1]
  90:Eddystone.c   **** }
 1352              		.loc 1 90 0
 1353 0462 1398     		ldr	r0, [sp, #76]
 1354              	.LVL128:
  87:Eddystone.c   **** 
 1355              		.loc 1 87 0
 1356 0464 163B     		sub	r3, r3, #22
 1357 0466 CB70     		strb	r3, [r1, #3]
  90:Eddystone.c   **** }
 1358              		.loc 1 90 0
 1359 0468 FFF7FEFF 		bl	CyBle_GattsErrorRsp
 1360              	.LVL129:
 1361 046c D1E5     		b	.L5
 1362              	.LVL130:
 1363              	.L76:
 1364 046e 2288     		ldrh	r2, [r4]
 1365 0470 09AB     		add	r3, sp, #36
 1366 0472 1A80     		strh	r2, [r3]
 1367              	.LVL131:
 1368              	.LBE130:
 1369              	.LBE129:
 1370              	.LBE133:
 1371              	.LBE238:
 1372              	.LBB239:
 1373              	.LBB180:
 1374              	.LBB177:
 1375              	.LBB178:
  85:Eddystone.c   ****     err_param.attrHandle = attrHandle;
 1376              		.loc 1 85 0
 1377 0474 1223     		mov	r3, #18
 1378 0476 15A9     		add	r1, sp, #84
 1379 0478 8B70     		strb	r3, [r1, #2]
  86:Eddystone.c   ****     err_param.errorCode = errorCode;
 1380              		.loc 1 86 0
 1381 047a 0433     		add	r3, r3, #4
ARM GAS  C:\Users\ramanatg\AppData\Local\Temp\cctNzr7i.s 			page 42


 1382 047c 0B80     		strh	r3, [r1]
  90:Eddystone.c   **** }
 1383              		.loc 1 90 0
 1384 047e 0998     		ldr	r0, [sp, #36]
 1385              	.LVL132:
  87:Eddystone.c   **** 
 1386              		.loc 1 87 0
 1387 0480 0E3B     		sub	r3, r3, #14
 1388 0482 CB70     		strb	r3, [r1, #3]
  90:Eddystone.c   **** }
 1389              		.loc 1 90 0
 1390 0484 FFF7FEFF 		bl	CyBle_GattsErrorRsp
 1391              	.LVL133:
 1392 0488 C3E5     		b	.L5
 1393              	.LVL134:
 1394              	.L78:
 1395 048a 2288     		ldrh	r2, [r4]
 1396 048c 0BAB     		add	r3, sp, #44
 1397 048e 1A80     		strh	r2, [r3]
 1398              	.LVL135:
 1399              	.LBE178:
 1400              	.LBE177:
 1401              	.LBE180:
 1402              	.LBE239:
 1403              	.LBB240:
 1404              	.LBB192:
 1405              	.LBB188:
 1406              	.LBB189:
  85:Eddystone.c   ****     err_param.attrHandle = attrHandle;
 1407              		.loc 1 85 0
 1408 0490 1223     		mov	r3, #18
 1409 0492 15A9     		add	r1, sp, #84
 1410 0494 8B70     		strb	r3, [r1, #2]
  86:Eddystone.c   ****     err_param.errorCode = errorCode;
 1411              		.loc 1 86 0
 1412 0496 0633     		add	r3, r3, #6
 1413 0498 0B80     		strh	r3, [r1]
  90:Eddystone.c   **** }
 1414              		.loc 1 90 0
 1415 049a 0B98     		ldr	r0, [sp, #44]
 1416              	.LVL136:
  87:Eddystone.c   **** 
 1417              		.loc 1 87 0
 1418 049c 103B     		sub	r3, r3, #16
 1419 049e CB70     		strb	r3, [r1, #3]
  90:Eddystone.c   **** }
 1420              		.loc 1 90 0
 1421 04a0 FFF7FEFF 		bl	CyBle_GattsErrorRsp
 1422              	.LVL137:
 1423 04a4 B5E5     		b	.L5
 1424              	.LVL138:
 1425              	.L42:
 1426              	.LBE189:
 1427              	.LBE188:
 1428              	.LBE192:
 1429              	.LBE240:
 1430              	.LBB241:
ARM GAS  C:\Users\ramanatg\AppData\Local\Temp\cctNzr7i.s 			page 43


 1431              	.LBB217:
 1432              	.LBB213:
 703:Eddystone.c   ****         }
 1433              		.loc 1 703 0
 1434 04a6 2A80     		strh	r2, [r5]
 1435 04a8 D3E6     		b	.L41
 1436              	.LVL139:
 1437              	.L34:
 1438 04aa 2288     		ldrh	r2, [r4]
 1439 04ac 0DAB     		add	r3, sp, #52
 1440 04ae 1A80     		strh	r2, [r3]
 1441              	.LVL140:
 1442              	.LBE213:
 1443              	.LBE217:
 1444              	.LBE241:
 1445              	.LBB242:
 1446              	.LBB193:
 1447              	.LBB190:
 1448              	.LBB184:
 1449              	.LBB185:
  85:Eddystone.c   ****     err_param.attrHandle = attrHandle;
 1450              		.loc 1 85 0
 1451 04b0 1223     		mov	r3, #18
 1452 04b2 15A9     		add	r1, sp, #84
 1453 04b4 8B70     		strb	r3, [r1, #2]
  86:Eddystone.c   ****     err_param.errorCode = errorCode;
 1454              		.loc 1 86 0
 1455 04b6 0633     		add	r3, r3, #6
 1456 04b8 0B80     		strh	r3, [r1]
  90:Eddystone.c   **** }
 1457              		.loc 1 90 0
 1458 04ba 0D98     		ldr	r0, [sp, #52]
 1459              	.LVL141:
  87:Eddystone.c   **** 
 1460              		.loc 1 87 0
 1461 04bc 153B     		sub	r3, r3, #21
 1462 04be CB70     		strb	r3, [r1, #3]
  90:Eddystone.c   **** }
 1463              		.loc 1 90 0
 1464 04c0 FFF7FEFF 		bl	CyBle_GattsErrorRsp
 1465              	.LVL142:
 1466 04c4 A5E5     		b	.L5
 1467              	.L87:
 1468 04c6 C046     		.align	2
 1469              	.L86:
 1470 04c8 B5F2FF0F 		.word	268432053
 1471              	.LBE185:
 1472              	.LBE184:
 1473              	.LBE190:
 1474              	.LBE193:
 1475              	.LBE242:
 1476              	.LBE243:
 1477              	.LBE245:
 1478              		.cfi_endproc
 1479              	.LFE38:
 1480              		.size	EddystoneURL_Config_Handler, .-EddystoneURL_Config_Handler
 1481              		.section	.text.EddystoneURL_Config_Init,"ax",%progbits
ARM GAS  C:\Users\ramanatg\AppData\Local\Temp\cctNzr7i.s 			page 44


 1482              		.align	2
 1483              		.global	EddystoneURL_Config_Init
 1484              		.code	16
 1485              		.thumb_func
 1486              		.type	EddystoneURL_Config_Init, %function
 1487              	EddystoneURL_Config_Init:
 1488              	.LFB39:
 210:Eddystone.c   ****     CyBle_Start((CYBLE_CALLBACK_T)EddystoneURL_Config_Handler);
 1489              		.loc 1 210 0
 1490              		.cfi_startproc
 1491 0000 08B5     		push	{r3, lr}
 1492              		.cfi_def_cfa_offset 8
 1493              		.cfi_offset 3, -8
 1494              		.cfi_offset 14, -4
 211:Eddystone.c   ****     CyBle_ProcessEvents();
 1495              		.loc 1 211 0
 1496 0002 0748     		ldr	r0, .L89
 1497 0004 FFF7FEFF 		bl	CyBle_Start
 1498              	.LVL143:
 212:Eddystone.c   ****     
 1499              		.loc 1 212 0
 1500 0008 FFF7FEFF 		bl	CyBle_ProcessEvents
 1501              	.LVL144:
 214:Eddystone.c   ****     
 1502              		.loc 1 214 0
 1503 000c FFF7FEFF 		bl	EddystoneURL_Config_UpdateAllAttrib
 1504              	.LVL145:
 216:Eddystone.c   ****     
 1505              		.loc 1 216 0
 1506 0010 044A     		ldr	r2, .L89+4
 218:Eddystone.c   **** }
 1507              		.loc 1 218 0
 1508 0012 0020     		mov	r0, #0
 216:Eddystone.c   ****     
 1509              		.loc 1 216 0
 1510 0014 5379     		ldrb	r3, [r2, #5]
 219:Eddystone.c   **** 
 1511              		.loc 1 219 0
 1512              		@ sp needed
 216:Eddystone.c   ****     
 1513              		.loc 1 216 0
 1514 0016 043B     		sub	r3, r3, #4
 1515 0018 5371     		strb	r3, [r2, #5]
 218:Eddystone.c   **** }
 1516              		.loc 1 218 0
 1517 001a FFF7FEFF 		bl	CyBle_GappStartAdvertisement
 1518              	.LVL146:
 219:Eddystone.c   **** 
 1519              		.loc 1 219 0
 1520 001e 08BD     		pop	{r3, pc}
 1521              	.L90:
 1522              		.align	2
 1523              	.L89:
 1524 0020 00000000 		.word	EddystoneURL_Config_Handler
 1525 0024 00000000 		.word	cyBle_discoveryData
 1526              		.cfi_endproc
 1527              	.LFE39:
ARM GAS  C:\Users\ramanatg\AppData\Local\Temp\cctNzr7i.s 			page 45


 1528              		.size	EddystoneURL_Config_Init, .-EddystoneURL_Config_Init
 1529              		.global	gatt_disconnect_flag
 1530              		.bss
 1531              		.set	.LANCHOR0,. + 0
 1532              		.type	gatt_disconnect_flag, %object
 1533              		.size	gatt_disconnect_flag, 1
 1534              	gatt_disconnect_flag:
 1535 0000 00       		.space	1
 1536              		.text
 1537              	.Letext0:
 1538              		.file 2 "c:\\program files (x86)\\cypress\\psoc creator\\4.0\\psoc creator\\import\\gnu\\arm\\4.9.
 1539              		.file 3 "c:\\program files (x86)\\cypress\\psoc creator\\4.0\\psoc creator\\import\\gnu\\arm\\4.9.
 1540              		.file 4 "Generated_Source\\PSoC4/cytypes.h"
 1541              		.file 5 "c:\\program files (x86)\\cypress\\psoc creator\\4.0\\psoc creator\\import\\gnu\\arm\\4.9.
 1542              		.file 6 "Generated_Source\\PSoC4/BLE_Stack.h"
 1543              		.file 7 "Generated_Source\\PSoC4/BLE_StackGap.h"
 1544              		.file 8 "Generated_Source\\PSoC4/BLE_StackGatt.h"
 1545              		.file 9 "Generated_Source\\PSoC4/BLE_StackGattServer.h"
 1546              		.file 10 "Generated_Source\\PSoC4/BLE_StackGattDb.h"
 1547              		.file 11 "Generated_Source\\PSoC4/BLE.h"
 1548              		.file 12 "ConfigRW.h"
 1549              		.file 13 "Generated_Source\\PSoC4/BLE_gatt.h"
 1550              		.file 14 "c:\\program files (x86)\\cypress\\psoc creator\\4.0\\psoc creator\\import\\gnu\\arm\\4.9