ARM GAS  C:\Users\ramanatg\AppData\Local\Temp\ccgISEjN.s 			page 1


   1              		.cpu cortex-m0
   2              		.fpu softvfp
   3              		.eabi_attribute 20, 1
   4              		.eabi_attribute 21, 1
   5              		.eabi_attribute 23, 3
   6              		.eabi_attribute 24, 1
   7              		.eabi_attribute 25, 1
   8              		.eabi_attribute 26, 1
   9              		.eabi_attribute 30, 2
  10              		.eabi_attribute 34, 0
  11              		.eabi_attribute 18, 4
  12              		.code	16
  13              		.file	"WDT_Interrupt.c"
  14              		.text
  15              	.Ltext0:
  16              		.cfi_sections	.debug_frame
  17              		.section	.text.WDT_Interrupt_Interrupt,"ax",%progbits
  18              		.align	2
  19              		.global	WDT_Interrupt_Interrupt
  20              		.code	16
  21              		.thumb_func
  22              		.type	WDT_Interrupt_Interrupt, %function
  23              	WDT_Interrupt_Interrupt:
  24              	.LFB5:
  25              		.file 1 "Generated_Source\\PSoC4\\WDT_Interrupt.c"
   1:Generated_Source\PSoC4/WDT_Interrupt.c **** /*******************************************************************************
   2:Generated_Source\PSoC4/WDT_Interrupt.c **** * File Name: WDT_Interrupt.c  
   3:Generated_Source\PSoC4/WDT_Interrupt.c **** * Version 1.70
   4:Generated_Source\PSoC4/WDT_Interrupt.c **** *
   5:Generated_Source\PSoC4/WDT_Interrupt.c **** *  Description:
   6:Generated_Source\PSoC4/WDT_Interrupt.c **** *   API for controlling the state of an interrupt.
   7:Generated_Source\PSoC4/WDT_Interrupt.c **** *
   8:Generated_Source\PSoC4/WDT_Interrupt.c **** *
   9:Generated_Source\PSoC4/WDT_Interrupt.c **** *  Note:
  10:Generated_Source\PSoC4/WDT_Interrupt.c **** *
  11:Generated_Source\PSoC4/WDT_Interrupt.c **** ********************************************************************************
  12:Generated_Source\PSoC4/WDT_Interrupt.c **** * Copyright 2008-2015, Cypress Semiconductor Corporation.  All rights reserved.
  13:Generated_Source\PSoC4/WDT_Interrupt.c **** * You may use this file only in accordance with the license, terms, conditions, 
  14:Generated_Source\PSoC4/WDT_Interrupt.c **** * disclaimers, and limitations in the end user license agreement accompanying 
  15:Generated_Source\PSoC4/WDT_Interrupt.c **** * the software package with which this file was provided.
  16:Generated_Source\PSoC4/WDT_Interrupt.c **** *******************************************************************************/
  17:Generated_Source\PSoC4/WDT_Interrupt.c **** 
  18:Generated_Source\PSoC4/WDT_Interrupt.c **** 
  19:Generated_Source\PSoC4/WDT_Interrupt.c **** #include <cydevice_trm.h>
  20:Generated_Source\PSoC4/WDT_Interrupt.c **** #include <CyLib.h>
  21:Generated_Source\PSoC4/WDT_Interrupt.c **** #include <WDT_Interrupt.h>
  22:Generated_Source\PSoC4/WDT_Interrupt.c **** 
  23:Generated_Source\PSoC4/WDT_Interrupt.c **** 
  24:Generated_Source\PSoC4/WDT_Interrupt.c **** #if !defined(WDT_Interrupt__REMOVED) /* Check for removal by optimization */
  25:Generated_Source\PSoC4/WDT_Interrupt.c **** 
  26:Generated_Source\PSoC4/WDT_Interrupt.c **** /*******************************************************************************
  27:Generated_Source\PSoC4/WDT_Interrupt.c **** *  Place your includes, defines and code here 
  28:Generated_Source\PSoC4/WDT_Interrupt.c **** ********************************************************************************/
  29:Generated_Source\PSoC4/WDT_Interrupt.c **** /* `#START WDT_Interrupt_intc` */
  30:Generated_Source\PSoC4/WDT_Interrupt.c **** 
  31:Generated_Source\PSoC4/WDT_Interrupt.c **** /* `#END` */
  32:Generated_Source\PSoC4/WDT_Interrupt.c **** 
ARM GAS  C:\Users\ramanatg\AppData\Local\Temp\ccgISEjN.s 			page 2


  33:Generated_Source\PSoC4/WDT_Interrupt.c **** extern cyisraddress CyRamVectors[CYINT_IRQ_BASE + CY_NUM_INTERRUPTS];
  34:Generated_Source\PSoC4/WDT_Interrupt.c **** 
  35:Generated_Source\PSoC4/WDT_Interrupt.c **** /* Declared in startup, used to set unused interrupts to. */
  36:Generated_Source\PSoC4/WDT_Interrupt.c **** CY_ISR_PROTO(IntDefaultHandler);
  37:Generated_Source\PSoC4/WDT_Interrupt.c **** 
  38:Generated_Source\PSoC4/WDT_Interrupt.c **** 
  39:Generated_Source\PSoC4/WDT_Interrupt.c **** /*******************************************************************************
  40:Generated_Source\PSoC4/WDT_Interrupt.c **** * Function Name: WDT_Interrupt_Start
  41:Generated_Source\PSoC4/WDT_Interrupt.c **** ********************************************************************************
  42:Generated_Source\PSoC4/WDT_Interrupt.c **** *
  43:Generated_Source\PSoC4/WDT_Interrupt.c **** * Summary:
  44:Generated_Source\PSoC4/WDT_Interrupt.c **** *  Set up the interrupt and enable it. This function disables the interrupt, 
  45:Generated_Source\PSoC4/WDT_Interrupt.c **** *  sets the default interrupt vector, sets the priority from the value in the
  46:Generated_Source\PSoC4/WDT_Interrupt.c **** *  Design Wide Resources Interrupt Editor, then enables the interrupt to the 
  47:Generated_Source\PSoC4/WDT_Interrupt.c **** *  interrupt controller.
  48:Generated_Source\PSoC4/WDT_Interrupt.c **** *
  49:Generated_Source\PSoC4/WDT_Interrupt.c **** * Parameters:  
  50:Generated_Source\PSoC4/WDT_Interrupt.c **** *   None
  51:Generated_Source\PSoC4/WDT_Interrupt.c **** *
  52:Generated_Source\PSoC4/WDT_Interrupt.c **** * Return:
  53:Generated_Source\PSoC4/WDT_Interrupt.c **** *   None
  54:Generated_Source\PSoC4/WDT_Interrupt.c **** *
  55:Generated_Source\PSoC4/WDT_Interrupt.c **** *******************************************************************************/
  56:Generated_Source\PSoC4/WDT_Interrupt.c **** void WDT_Interrupt_Start(void)
  57:Generated_Source\PSoC4/WDT_Interrupt.c **** {
  58:Generated_Source\PSoC4/WDT_Interrupt.c ****     /* For all we know the interrupt is active. */
  59:Generated_Source\PSoC4/WDT_Interrupt.c ****     WDT_Interrupt_Disable();
  60:Generated_Source\PSoC4/WDT_Interrupt.c **** 
  61:Generated_Source\PSoC4/WDT_Interrupt.c ****     /* Set the ISR to point to the WDT_Interrupt Interrupt. */
  62:Generated_Source\PSoC4/WDT_Interrupt.c ****     WDT_Interrupt_SetVector(&WDT_Interrupt_Interrupt);
  63:Generated_Source\PSoC4/WDT_Interrupt.c **** 
  64:Generated_Source\PSoC4/WDT_Interrupt.c ****     /* Set the priority. */
  65:Generated_Source\PSoC4/WDT_Interrupt.c ****     WDT_Interrupt_SetPriority((uint8)WDT_Interrupt_INTC_PRIOR_NUMBER);
  66:Generated_Source\PSoC4/WDT_Interrupt.c **** 
  67:Generated_Source\PSoC4/WDT_Interrupt.c ****     /* Enable it. */
  68:Generated_Source\PSoC4/WDT_Interrupt.c ****     WDT_Interrupt_Enable();
  69:Generated_Source\PSoC4/WDT_Interrupt.c **** }
  70:Generated_Source\PSoC4/WDT_Interrupt.c **** 
  71:Generated_Source\PSoC4/WDT_Interrupt.c **** 
  72:Generated_Source\PSoC4/WDT_Interrupt.c **** /*******************************************************************************
  73:Generated_Source\PSoC4/WDT_Interrupt.c **** * Function Name: WDT_Interrupt_StartEx
  74:Generated_Source\PSoC4/WDT_Interrupt.c **** ********************************************************************************
  75:Generated_Source\PSoC4/WDT_Interrupt.c **** *
  76:Generated_Source\PSoC4/WDT_Interrupt.c **** * Summary:
  77:Generated_Source\PSoC4/WDT_Interrupt.c **** *  Sets up the interrupt and enables it. This function disables the interrupt,
  78:Generated_Source\PSoC4/WDT_Interrupt.c **** *  sets the interrupt vector based on the address passed in, sets the priority 
  79:Generated_Source\PSoC4/WDT_Interrupt.c **** *  from the value in the Design Wide Resources Interrupt Editor, then enables 
  80:Generated_Source\PSoC4/WDT_Interrupt.c **** *  the interrupt to the interrupt controller.
  81:Generated_Source\PSoC4/WDT_Interrupt.c **** *  
  82:Generated_Source\PSoC4/WDT_Interrupt.c **** *  When defining ISR functions, the CY_ISR and CY_ISR_PROTO macros should be 
  83:Generated_Source\PSoC4/WDT_Interrupt.c **** *  used to provide consistent definition across compilers:
  84:Generated_Source\PSoC4/WDT_Interrupt.c **** *  
  85:Generated_Source\PSoC4/WDT_Interrupt.c **** *  Function definition example:
  86:Generated_Source\PSoC4/WDT_Interrupt.c **** *   CY_ISR(MyISR)
  87:Generated_Source\PSoC4/WDT_Interrupt.c **** *   {
  88:Generated_Source\PSoC4/WDT_Interrupt.c **** *   }
  89:Generated_Source\PSoC4/WDT_Interrupt.c **** *   Function prototype example:
ARM GAS  C:\Users\ramanatg\AppData\Local\Temp\ccgISEjN.s 			page 3


  90:Generated_Source\PSoC4/WDT_Interrupt.c **** *   CY_ISR_PROTO(MyISR);
  91:Generated_Source\PSoC4/WDT_Interrupt.c **** *
  92:Generated_Source\PSoC4/WDT_Interrupt.c **** * Parameters:  
  93:Generated_Source\PSoC4/WDT_Interrupt.c **** *   address: Address of the ISR to set in the interrupt vector table.
  94:Generated_Source\PSoC4/WDT_Interrupt.c **** *
  95:Generated_Source\PSoC4/WDT_Interrupt.c **** * Return:
  96:Generated_Source\PSoC4/WDT_Interrupt.c **** *   None
  97:Generated_Source\PSoC4/WDT_Interrupt.c **** *
  98:Generated_Source\PSoC4/WDT_Interrupt.c **** *******************************************************************************/
  99:Generated_Source\PSoC4/WDT_Interrupt.c **** void WDT_Interrupt_StartEx(cyisraddress address)
 100:Generated_Source\PSoC4/WDT_Interrupt.c **** {
 101:Generated_Source\PSoC4/WDT_Interrupt.c ****     /* For all we know the interrupt is active. */
 102:Generated_Source\PSoC4/WDT_Interrupt.c ****     WDT_Interrupt_Disable();
 103:Generated_Source\PSoC4/WDT_Interrupt.c **** 
 104:Generated_Source\PSoC4/WDT_Interrupt.c ****     /* Set the ISR to point to the WDT_Interrupt Interrupt. */
 105:Generated_Source\PSoC4/WDT_Interrupt.c ****     WDT_Interrupt_SetVector(address);
 106:Generated_Source\PSoC4/WDT_Interrupt.c **** 
 107:Generated_Source\PSoC4/WDT_Interrupt.c ****     /* Set the priority. */
 108:Generated_Source\PSoC4/WDT_Interrupt.c ****     WDT_Interrupt_SetPriority((uint8)WDT_Interrupt_INTC_PRIOR_NUMBER);
 109:Generated_Source\PSoC4/WDT_Interrupt.c **** 
 110:Generated_Source\PSoC4/WDT_Interrupt.c ****     /* Enable it. */
 111:Generated_Source\PSoC4/WDT_Interrupt.c ****     WDT_Interrupt_Enable();
 112:Generated_Source\PSoC4/WDT_Interrupt.c **** }
 113:Generated_Source\PSoC4/WDT_Interrupt.c **** 
 114:Generated_Source\PSoC4/WDT_Interrupt.c **** 
 115:Generated_Source\PSoC4/WDT_Interrupt.c **** /*******************************************************************************
 116:Generated_Source\PSoC4/WDT_Interrupt.c **** * Function Name: WDT_Interrupt_Stop
 117:Generated_Source\PSoC4/WDT_Interrupt.c **** ********************************************************************************
 118:Generated_Source\PSoC4/WDT_Interrupt.c **** *
 119:Generated_Source\PSoC4/WDT_Interrupt.c **** * Summary:
 120:Generated_Source\PSoC4/WDT_Interrupt.c **** *   Disables and removes the interrupt.
 121:Generated_Source\PSoC4/WDT_Interrupt.c **** *
 122:Generated_Source\PSoC4/WDT_Interrupt.c **** * Parameters:  
 123:Generated_Source\PSoC4/WDT_Interrupt.c **** *   None
 124:Generated_Source\PSoC4/WDT_Interrupt.c **** *
 125:Generated_Source\PSoC4/WDT_Interrupt.c **** * Return:
 126:Generated_Source\PSoC4/WDT_Interrupt.c **** *   None
 127:Generated_Source\PSoC4/WDT_Interrupt.c **** *
 128:Generated_Source\PSoC4/WDT_Interrupt.c **** *******************************************************************************/
 129:Generated_Source\PSoC4/WDT_Interrupt.c **** void WDT_Interrupt_Stop(void)
 130:Generated_Source\PSoC4/WDT_Interrupt.c **** {
 131:Generated_Source\PSoC4/WDT_Interrupt.c ****     /* Disable this interrupt. */
 132:Generated_Source\PSoC4/WDT_Interrupt.c ****     WDT_Interrupt_Disable();
 133:Generated_Source\PSoC4/WDT_Interrupt.c **** 
 134:Generated_Source\PSoC4/WDT_Interrupt.c ****     /* Set the ISR to point to the passive one. */
 135:Generated_Source\PSoC4/WDT_Interrupt.c ****     WDT_Interrupt_SetVector(&IntDefaultHandler);
 136:Generated_Source\PSoC4/WDT_Interrupt.c **** }
 137:Generated_Source\PSoC4/WDT_Interrupt.c **** 
 138:Generated_Source\PSoC4/WDT_Interrupt.c **** 
 139:Generated_Source\PSoC4/WDT_Interrupt.c **** /*******************************************************************************
 140:Generated_Source\PSoC4/WDT_Interrupt.c **** * Function Name: WDT_Interrupt_Interrupt
 141:Generated_Source\PSoC4/WDT_Interrupt.c **** ********************************************************************************
 142:Generated_Source\PSoC4/WDT_Interrupt.c **** *
 143:Generated_Source\PSoC4/WDT_Interrupt.c **** * Summary:
 144:Generated_Source\PSoC4/WDT_Interrupt.c **** *   The default Interrupt Service Routine for WDT_Interrupt.
 145:Generated_Source\PSoC4/WDT_Interrupt.c **** *
 146:Generated_Source\PSoC4/WDT_Interrupt.c **** *   Add custom code between the START and END comments to keep the next version
ARM GAS  C:\Users\ramanatg\AppData\Local\Temp\ccgISEjN.s 			page 4


 147:Generated_Source\PSoC4/WDT_Interrupt.c **** *   of this file from over-writing your code.
 148:Generated_Source\PSoC4/WDT_Interrupt.c **** *
 149:Generated_Source\PSoC4/WDT_Interrupt.c **** *   Note You may use either the default ISR by using this API, or you may define
 150:Generated_Source\PSoC4/WDT_Interrupt.c **** *   your own separate ISR through ISR_StartEx().
 151:Generated_Source\PSoC4/WDT_Interrupt.c **** *
 152:Generated_Source\PSoC4/WDT_Interrupt.c **** * Parameters:  
 153:Generated_Source\PSoC4/WDT_Interrupt.c **** *   None
 154:Generated_Source\PSoC4/WDT_Interrupt.c **** *
 155:Generated_Source\PSoC4/WDT_Interrupt.c **** * Return:
 156:Generated_Source\PSoC4/WDT_Interrupt.c **** *   None
 157:Generated_Source\PSoC4/WDT_Interrupt.c **** *
 158:Generated_Source\PSoC4/WDT_Interrupt.c **** *******************************************************************************/
 159:Generated_Source\PSoC4/WDT_Interrupt.c **** CY_ISR(WDT_Interrupt_Interrupt)
 160:Generated_Source\PSoC4/WDT_Interrupt.c **** {
  26              		.loc 1 160 0
  27              		.cfi_startproc
 161:Generated_Source\PSoC4/WDT_Interrupt.c ****     #ifdef WDT_Interrupt_INTERRUPT_INTERRUPT_CALLBACK
 162:Generated_Source\PSoC4/WDT_Interrupt.c ****         WDT_Interrupt_Interrupt_InterruptCallback();
 163:Generated_Source\PSoC4/WDT_Interrupt.c ****     #endif /* WDT_Interrupt_INTERRUPT_INTERRUPT_CALLBACK */ 
 164:Generated_Source\PSoC4/WDT_Interrupt.c **** 
 165:Generated_Source\PSoC4/WDT_Interrupt.c ****     /*  Place your Interrupt code here. */
 166:Generated_Source\PSoC4/WDT_Interrupt.c ****     /* `#START WDT_Interrupt_Interrupt` */
 167:Generated_Source\PSoC4/WDT_Interrupt.c **** 
 168:Generated_Source\PSoC4/WDT_Interrupt.c ****     /* `#END` */
 169:Generated_Source\PSoC4/WDT_Interrupt.c **** }
  28              		.loc 1 169 0
  29              		@ sp needed
  30 0000 7047     		bx	lr
  31              		.cfi_endproc
  32              	.LFE5:
  33              		.size	WDT_Interrupt_Interrupt, .-WDT_Interrupt_Interrupt
  34 0002 C046     		.section	.text.WDT_Interrupt_Start,"ax",%progbits
  35              		.align	2
  36              		.global	WDT_Interrupt_Start
  37              		.code	16
  38              		.thumb_func
  39              		.type	WDT_Interrupt_Start, %function
  40              	WDT_Interrupt_Start:
  41              	.LFB2:
  57:Generated_Source\PSoC4/WDT_Interrupt.c ****     /* For all we know the interrupt is active. */
  42              		.loc 1 57 0
  43              		.cfi_startproc
  44 0000 10B5     		push	{r4, lr}
  45              		.cfi_def_cfa_offset 8
  46              		.cfi_offset 4, -8
  47              		.cfi_offset 14, -4
  48              	.LBB26:
  49              	.LBB27:
 170:Generated_Source\PSoC4/WDT_Interrupt.c **** 
 171:Generated_Source\PSoC4/WDT_Interrupt.c **** 
 172:Generated_Source\PSoC4/WDT_Interrupt.c **** /*******************************************************************************
 173:Generated_Source\PSoC4/WDT_Interrupt.c **** * Function Name: WDT_Interrupt_SetVector
 174:Generated_Source\PSoC4/WDT_Interrupt.c **** ********************************************************************************
 175:Generated_Source\PSoC4/WDT_Interrupt.c **** *
 176:Generated_Source\PSoC4/WDT_Interrupt.c **** * Summary:
 177:Generated_Source\PSoC4/WDT_Interrupt.c **** *   Change the ISR vector for the Interrupt. Note calling WDT_Interrupt_Start
 178:Generated_Source\PSoC4/WDT_Interrupt.c **** *   will override any effect this method would have had. To set the vector 
ARM GAS  C:\Users\ramanatg\AppData\Local\Temp\ccgISEjN.s 			page 5


 179:Generated_Source\PSoC4/WDT_Interrupt.c **** *   before the component has been started use WDT_Interrupt_StartEx instead.
 180:Generated_Source\PSoC4/WDT_Interrupt.c **** * 
 181:Generated_Source\PSoC4/WDT_Interrupt.c **** *   When defining ISR functions, the CY_ISR and CY_ISR_PROTO macros should be 
 182:Generated_Source\PSoC4/WDT_Interrupt.c **** *   used to provide consistent definition across compilers:
 183:Generated_Source\PSoC4/WDT_Interrupt.c **** *
 184:Generated_Source\PSoC4/WDT_Interrupt.c **** *   Function definition example:
 185:Generated_Source\PSoC4/WDT_Interrupt.c **** *   CY_ISR(MyISR)
 186:Generated_Source\PSoC4/WDT_Interrupt.c **** *   {
 187:Generated_Source\PSoC4/WDT_Interrupt.c **** *   }
 188:Generated_Source\PSoC4/WDT_Interrupt.c **** *
 189:Generated_Source\PSoC4/WDT_Interrupt.c **** *   Function prototype example:
 190:Generated_Source\PSoC4/WDT_Interrupt.c **** *     CY_ISR_PROTO(MyISR);
 191:Generated_Source\PSoC4/WDT_Interrupt.c **** *
 192:Generated_Source\PSoC4/WDT_Interrupt.c **** * Parameters:
 193:Generated_Source\PSoC4/WDT_Interrupt.c **** *   address: Address of the ISR to set in the interrupt vector table.
 194:Generated_Source\PSoC4/WDT_Interrupt.c **** *
 195:Generated_Source\PSoC4/WDT_Interrupt.c **** * Return:
 196:Generated_Source\PSoC4/WDT_Interrupt.c **** *   None
 197:Generated_Source\PSoC4/WDT_Interrupt.c **** *
 198:Generated_Source\PSoC4/WDT_Interrupt.c **** *******************************************************************************/
 199:Generated_Source\PSoC4/WDT_Interrupt.c **** void WDT_Interrupt_SetVector(cyisraddress address)
 200:Generated_Source\PSoC4/WDT_Interrupt.c **** {
 201:Generated_Source\PSoC4/WDT_Interrupt.c ****     CyRamVectors[CYINT_IRQ_BASE + WDT_Interrupt__INTC_NUMBER] = address;
 202:Generated_Source\PSoC4/WDT_Interrupt.c **** }
 203:Generated_Source\PSoC4/WDT_Interrupt.c **** 
 204:Generated_Source\PSoC4/WDT_Interrupt.c **** 
 205:Generated_Source\PSoC4/WDT_Interrupt.c **** /*******************************************************************************
 206:Generated_Source\PSoC4/WDT_Interrupt.c **** * Function Name: WDT_Interrupt_GetVector
 207:Generated_Source\PSoC4/WDT_Interrupt.c **** ********************************************************************************
 208:Generated_Source\PSoC4/WDT_Interrupt.c **** *
 209:Generated_Source\PSoC4/WDT_Interrupt.c **** * Summary:
 210:Generated_Source\PSoC4/WDT_Interrupt.c **** *   Gets the "address" of the current ISR vector for the Interrupt.
 211:Generated_Source\PSoC4/WDT_Interrupt.c **** *
 212:Generated_Source\PSoC4/WDT_Interrupt.c **** * Parameters:
 213:Generated_Source\PSoC4/WDT_Interrupt.c **** *   None
 214:Generated_Source\PSoC4/WDT_Interrupt.c **** *
 215:Generated_Source\PSoC4/WDT_Interrupt.c **** * Return:
 216:Generated_Source\PSoC4/WDT_Interrupt.c **** *   Address of the ISR in the interrupt vector table.
 217:Generated_Source\PSoC4/WDT_Interrupt.c **** *
 218:Generated_Source\PSoC4/WDT_Interrupt.c **** *******************************************************************************/
 219:Generated_Source\PSoC4/WDT_Interrupt.c **** cyisraddress WDT_Interrupt_GetVector(void)
 220:Generated_Source\PSoC4/WDT_Interrupt.c **** {
 221:Generated_Source\PSoC4/WDT_Interrupt.c ****     return CyRamVectors[CYINT_IRQ_BASE + WDT_Interrupt__INTC_NUMBER];
 222:Generated_Source\PSoC4/WDT_Interrupt.c **** }
 223:Generated_Source\PSoC4/WDT_Interrupt.c **** 
 224:Generated_Source\PSoC4/WDT_Interrupt.c **** 
 225:Generated_Source\PSoC4/WDT_Interrupt.c **** /*******************************************************************************
 226:Generated_Source\PSoC4/WDT_Interrupt.c **** * Function Name: WDT_Interrupt_SetPriority
 227:Generated_Source\PSoC4/WDT_Interrupt.c **** ********************************************************************************
 228:Generated_Source\PSoC4/WDT_Interrupt.c **** *
 229:Generated_Source\PSoC4/WDT_Interrupt.c **** * Summary:
 230:Generated_Source\PSoC4/WDT_Interrupt.c **** *   Sets the Priority of the Interrupt. 
 231:Generated_Source\PSoC4/WDT_Interrupt.c **** *
 232:Generated_Source\PSoC4/WDT_Interrupt.c **** *   Note calling WDT_Interrupt_Start or WDT_Interrupt_StartEx will 
 233:Generated_Source\PSoC4/WDT_Interrupt.c **** *   override any effect this API would have had. This API should only be called
 234:Generated_Source\PSoC4/WDT_Interrupt.c **** *   after WDT_Interrupt_Start or WDT_Interrupt_StartEx has been called. 
 235:Generated_Source\PSoC4/WDT_Interrupt.c **** *   To set the initial priority for the component, use the Design-Wide Resources
ARM GAS  C:\Users\ramanatg\AppData\Local\Temp\ccgISEjN.s 			page 6


 236:Generated_Source\PSoC4/WDT_Interrupt.c **** *   Interrupt Editor.
 237:Generated_Source\PSoC4/WDT_Interrupt.c **** *
 238:Generated_Source\PSoC4/WDT_Interrupt.c **** *   Note This API has no effect on Non-maskable interrupt NMI).
 239:Generated_Source\PSoC4/WDT_Interrupt.c **** *
 240:Generated_Source\PSoC4/WDT_Interrupt.c **** * Parameters:
 241:Generated_Source\PSoC4/WDT_Interrupt.c **** *   priority: Priority of the interrupt, 0 being the highest priority
 242:Generated_Source\PSoC4/WDT_Interrupt.c **** *             PSoC 3 and PSoC 5LP: Priority is from 0 to 7.
 243:Generated_Source\PSoC4/WDT_Interrupt.c **** *             PSoC 4: Priority is from 0 to 3.
 244:Generated_Source\PSoC4/WDT_Interrupt.c **** *
 245:Generated_Source\PSoC4/WDT_Interrupt.c **** * Return:
 246:Generated_Source\PSoC4/WDT_Interrupt.c **** *   None
 247:Generated_Source\PSoC4/WDT_Interrupt.c **** *
 248:Generated_Source\PSoC4/WDT_Interrupt.c **** *******************************************************************************/
 249:Generated_Source\PSoC4/WDT_Interrupt.c **** void WDT_Interrupt_SetPriority(uint8 priority)
 250:Generated_Source\PSoC4/WDT_Interrupt.c **** {
 251:Generated_Source\PSoC4/WDT_Interrupt.c **** 	uint8 interruptState;
 252:Generated_Source\PSoC4/WDT_Interrupt.c ****     uint32 priorityOffset = ((WDT_Interrupt__INTC_NUMBER % 4u) * 8u) + 6u;
 253:Generated_Source\PSoC4/WDT_Interrupt.c ****     
 254:Generated_Source\PSoC4/WDT_Interrupt.c **** 	interruptState = CyEnterCriticalSection();
 255:Generated_Source\PSoC4/WDT_Interrupt.c ****     *WDT_Interrupt_INTC_PRIOR = (*WDT_Interrupt_INTC_PRIOR & (uint32)(~WDT_Interrupt__INTC_PRIOR_MA
 256:Generated_Source\PSoC4/WDT_Interrupt.c ****                                     ((uint32)priority << priorityOffset);
 257:Generated_Source\PSoC4/WDT_Interrupt.c **** 	CyExitCriticalSection(interruptState);
 258:Generated_Source\PSoC4/WDT_Interrupt.c **** }
 259:Generated_Source\PSoC4/WDT_Interrupt.c **** 
 260:Generated_Source\PSoC4/WDT_Interrupt.c **** 
 261:Generated_Source\PSoC4/WDT_Interrupt.c **** /*******************************************************************************
 262:Generated_Source\PSoC4/WDT_Interrupt.c **** * Function Name: WDT_Interrupt_GetPriority
 263:Generated_Source\PSoC4/WDT_Interrupt.c **** ********************************************************************************
 264:Generated_Source\PSoC4/WDT_Interrupt.c **** *
 265:Generated_Source\PSoC4/WDT_Interrupt.c **** * Summary:
 266:Generated_Source\PSoC4/WDT_Interrupt.c **** *   Gets the Priority of the Interrupt.
 267:Generated_Source\PSoC4/WDT_Interrupt.c **** *
 268:Generated_Source\PSoC4/WDT_Interrupt.c **** * Parameters:
 269:Generated_Source\PSoC4/WDT_Interrupt.c **** *   None
 270:Generated_Source\PSoC4/WDT_Interrupt.c **** *
 271:Generated_Source\PSoC4/WDT_Interrupt.c **** * Return:
 272:Generated_Source\PSoC4/WDT_Interrupt.c **** *   Priority of the interrupt, 0 being the highest priority
 273:Generated_Source\PSoC4/WDT_Interrupt.c **** *    PSoC 3 and PSoC 5LP: Priority is from 0 to 7.
 274:Generated_Source\PSoC4/WDT_Interrupt.c **** *    PSoC 4: Priority is from 0 to 3.
 275:Generated_Source\PSoC4/WDT_Interrupt.c **** *
 276:Generated_Source\PSoC4/WDT_Interrupt.c **** *******************************************************************************/
 277:Generated_Source\PSoC4/WDT_Interrupt.c **** uint8 WDT_Interrupt_GetPriority(void)
 278:Generated_Source\PSoC4/WDT_Interrupt.c **** {
 279:Generated_Source\PSoC4/WDT_Interrupt.c ****     uint32 priority;
 280:Generated_Source\PSoC4/WDT_Interrupt.c **** 	uint32 priorityOffset = ((WDT_Interrupt__INTC_NUMBER % 4u) * 8u) + 6u;
 281:Generated_Source\PSoC4/WDT_Interrupt.c **** 
 282:Generated_Source\PSoC4/WDT_Interrupt.c ****     priority = (*WDT_Interrupt_INTC_PRIOR & WDT_Interrupt__INTC_PRIOR_MASK) >> priorityOffset;
 283:Generated_Source\PSoC4/WDT_Interrupt.c **** 
 284:Generated_Source\PSoC4/WDT_Interrupt.c ****     return (uint8)priority;
 285:Generated_Source\PSoC4/WDT_Interrupt.c **** }
 286:Generated_Source\PSoC4/WDT_Interrupt.c **** 
 287:Generated_Source\PSoC4/WDT_Interrupt.c **** 
 288:Generated_Source\PSoC4/WDT_Interrupt.c **** /*******************************************************************************
 289:Generated_Source\PSoC4/WDT_Interrupt.c **** * Function Name: WDT_Interrupt_Enable
 290:Generated_Source\PSoC4/WDT_Interrupt.c **** ********************************************************************************
 291:Generated_Source\PSoC4/WDT_Interrupt.c **** *
 292:Generated_Source\PSoC4/WDT_Interrupt.c **** * Summary:
ARM GAS  C:\Users\ramanatg\AppData\Local\Temp\ccgISEjN.s 			page 7


 293:Generated_Source\PSoC4/WDT_Interrupt.c **** *   Enables the interrupt to the interrupt controller. Do not call this function
 294:Generated_Source\PSoC4/WDT_Interrupt.c **** *   unless ISR_Start() has been called or the functionality of the ISR_Start() 
 295:Generated_Source\PSoC4/WDT_Interrupt.c **** *   function, which sets the vector and the priority, has been called.
 296:Generated_Source\PSoC4/WDT_Interrupt.c **** *
 297:Generated_Source\PSoC4/WDT_Interrupt.c **** * Parameters:
 298:Generated_Source\PSoC4/WDT_Interrupt.c **** *   None
 299:Generated_Source\PSoC4/WDT_Interrupt.c **** *
 300:Generated_Source\PSoC4/WDT_Interrupt.c **** * Return:
 301:Generated_Source\PSoC4/WDT_Interrupt.c **** *   None
 302:Generated_Source\PSoC4/WDT_Interrupt.c **** *
 303:Generated_Source\PSoC4/WDT_Interrupt.c **** *******************************************************************************/
 304:Generated_Source\PSoC4/WDT_Interrupt.c **** void WDT_Interrupt_Enable(void)
 305:Generated_Source\PSoC4/WDT_Interrupt.c **** {
 306:Generated_Source\PSoC4/WDT_Interrupt.c ****     /* Enable the general interrupt. */
 307:Generated_Source\PSoC4/WDT_Interrupt.c ****     *WDT_Interrupt_INTC_SET_EN = WDT_Interrupt__INTC_MASK;
 308:Generated_Source\PSoC4/WDT_Interrupt.c **** }
 309:Generated_Source\PSoC4/WDT_Interrupt.c **** 
 310:Generated_Source\PSoC4/WDT_Interrupt.c **** 
 311:Generated_Source\PSoC4/WDT_Interrupt.c **** /*******************************************************************************
 312:Generated_Source\PSoC4/WDT_Interrupt.c **** * Function Name: WDT_Interrupt_GetState
 313:Generated_Source\PSoC4/WDT_Interrupt.c **** ********************************************************************************
 314:Generated_Source\PSoC4/WDT_Interrupt.c **** *
 315:Generated_Source\PSoC4/WDT_Interrupt.c **** * Summary:
 316:Generated_Source\PSoC4/WDT_Interrupt.c **** *   Gets the state (enabled, disabled) of the Interrupt.
 317:Generated_Source\PSoC4/WDT_Interrupt.c **** *
 318:Generated_Source\PSoC4/WDT_Interrupt.c **** * Parameters:
 319:Generated_Source\PSoC4/WDT_Interrupt.c **** *   None
 320:Generated_Source\PSoC4/WDT_Interrupt.c **** *
 321:Generated_Source\PSoC4/WDT_Interrupt.c **** * Return:
 322:Generated_Source\PSoC4/WDT_Interrupt.c **** *   1 if enabled, 0 if disabled.
 323:Generated_Source\PSoC4/WDT_Interrupt.c **** *
 324:Generated_Source\PSoC4/WDT_Interrupt.c **** *******************************************************************************/
 325:Generated_Source\PSoC4/WDT_Interrupt.c **** uint8 WDT_Interrupt_GetState(void)
 326:Generated_Source\PSoC4/WDT_Interrupt.c **** {
 327:Generated_Source\PSoC4/WDT_Interrupt.c ****     /* Get the state of the general interrupt. */
 328:Generated_Source\PSoC4/WDT_Interrupt.c ****     return ((*WDT_Interrupt_INTC_SET_EN & (uint32)WDT_Interrupt__INTC_MASK) != 0u) ? 1u:0u;
 329:Generated_Source\PSoC4/WDT_Interrupt.c **** }
 330:Generated_Source\PSoC4/WDT_Interrupt.c **** 
 331:Generated_Source\PSoC4/WDT_Interrupt.c **** 
 332:Generated_Source\PSoC4/WDT_Interrupt.c **** /*******************************************************************************
 333:Generated_Source\PSoC4/WDT_Interrupt.c **** * Function Name: WDT_Interrupt_Disable
 334:Generated_Source\PSoC4/WDT_Interrupt.c **** ********************************************************************************
 335:Generated_Source\PSoC4/WDT_Interrupt.c **** *
 336:Generated_Source\PSoC4/WDT_Interrupt.c **** * Summary:
 337:Generated_Source\PSoC4/WDT_Interrupt.c **** *   Disables the Interrupt in the interrupt controller.
 338:Generated_Source\PSoC4/WDT_Interrupt.c **** *
 339:Generated_Source\PSoC4/WDT_Interrupt.c **** * Parameters:
 340:Generated_Source\PSoC4/WDT_Interrupt.c **** *   None
 341:Generated_Source\PSoC4/WDT_Interrupt.c **** *
 342:Generated_Source\PSoC4/WDT_Interrupt.c **** * Return:
 343:Generated_Source\PSoC4/WDT_Interrupt.c **** *   None
 344:Generated_Source\PSoC4/WDT_Interrupt.c **** *
 345:Generated_Source\PSoC4/WDT_Interrupt.c **** *******************************************************************************/
 346:Generated_Source\PSoC4/WDT_Interrupt.c **** void WDT_Interrupt_Disable(void)
 347:Generated_Source\PSoC4/WDT_Interrupt.c **** {
 348:Generated_Source\PSoC4/WDT_Interrupt.c ****     /* Disable the general interrupt. */
 349:Generated_Source\PSoC4/WDT_Interrupt.c ****     *WDT_Interrupt_INTC_CLR_EN = WDT_Interrupt__INTC_MASK;
ARM GAS  C:\Users\ramanatg\AppData\Local\Temp\ccgISEjN.s 			page 8


  50              		.loc 1 349 0
  51 0002 8024     		mov	r4, #128
  52 0004 094B     		ldr	r3, .L3
  53 0006 6400     		lsl	r4, r4, #1
  54 0008 1C60     		str	r4, [r3]
  55              	.LVL0:
  56              	.LBE27:
  57              	.LBE26:
  58              	.LBB28:
  59              	.LBB29:
 201:Generated_Source\PSoC4/WDT_Interrupt.c **** }
  60              		.loc 1 201 0
  61 000a 094A     		ldr	r2, .L3+4
  62 000c 094B     		ldr	r3, .L3+8
  63              	.LBE29:
  64              	.LBE28:
  69:Generated_Source\PSoC4/WDT_Interrupt.c **** 
  65              		.loc 1 69 0
  66              		@ sp needed
  67              	.LBB31:
  68              	.LBB30:
 201:Generated_Source\PSoC4/WDT_Interrupt.c **** }
  69              		.loc 1 201 0
  70 000e 1A66     		str	r2, [r3, #96]
  71              	.LVL1:
  72              	.LBE30:
  73              	.LBE31:
  74              	.LBB32:
  75              	.LBB33:
 254:Generated_Source\PSoC4/WDT_Interrupt.c ****     *WDT_Interrupt_INTC_PRIOR = (*WDT_Interrupt_INTC_PRIOR & (uint32)(~WDT_Interrupt__INTC_PRIOR_MA
  76              		.loc 1 254 0
  77 0010 FFF7FEFF 		bl	CyEnterCriticalSection
  78              	.LVL2:
 255:Generated_Source\PSoC4/WDT_Interrupt.c ****                                     ((uint32)priority << priorityOffset);
  79              		.loc 1 255 0
  80 0014 C022     		mov	r2, #192
  81 0016 0849     		ldr	r1, .L3+12
  82 0018 0B68     		ldr	r3, [r1]
  83 001a 9343     		bic	r3, r2
  84 001c 403A     		sub	r2, r2, #64
  85 001e 1343     		orr	r3, r2
  86 0020 0B60     		str	r3, [r1]
 257:Generated_Source\PSoC4/WDT_Interrupt.c **** }
  87              		.loc 1 257 0
  88 0022 FFF7FEFF 		bl	CyExitCriticalSection
  89              	.LVL3:
  90              	.LBE33:
  91              	.LBE32:
  92              	.LBB34:
  93              	.LBB35:
 307:Generated_Source\PSoC4/WDT_Interrupt.c **** }
  94              		.loc 1 307 0
  95 0026 054B     		ldr	r3, .L3+16
  96 0028 1C60     		str	r4, [r3]
  97              	.LBE35:
  98              	.LBE34:
  69:Generated_Source\PSoC4/WDT_Interrupt.c **** 
ARM GAS  C:\Users\ramanatg\AppData\Local\Temp\ccgISEjN.s 			page 9


  99              		.loc 1 69 0
 100 002a 10BD     		pop	{r4, pc}
 101              	.L4:
 102              		.align	2
 103              	.L3:
 104 002c 80E100E0 		.word	-536813184
 105 0030 00000000 		.word	WDT_Interrupt_Interrupt
 106 0034 00000000 		.word	CyRamVectors
 107 0038 08E400E0 		.word	-536812536
 108 003c 00E100E0 		.word	-536813312
 109              		.cfi_endproc
 110              	.LFE2:
 111              		.size	WDT_Interrupt_Start, .-WDT_Interrupt_Start
 112              		.section	.text.WDT_Interrupt_StartEx,"ax",%progbits
 113              		.align	2
 114              		.global	WDT_Interrupt_StartEx
 115              		.code	16
 116              		.thumb_func
 117              		.type	WDT_Interrupt_StartEx, %function
 118              	WDT_Interrupt_StartEx:
 119              	.LFB3:
 100:Generated_Source\PSoC4/WDT_Interrupt.c ****     /* For all we know the interrupt is active. */
 120              		.loc 1 100 0
 121              		.cfi_startproc
 122              	.LVL4:
 123 0000 10B5     		push	{r4, lr}
 124              		.cfi_def_cfa_offset 8
 125              		.cfi_offset 4, -8
 126              		.cfi_offset 14, -4
 127              	.LBB44:
 128              	.LBB45:
 129              		.loc 1 349 0
 130 0002 8024     		mov	r4, #128
 131 0004 094B     		ldr	r3, .L6
 132 0006 6400     		lsl	r4, r4, #1
 133 0008 1C60     		str	r4, [r3]
 134              	.LVL5:
 135              	.LBE45:
 136              	.LBE44:
 137              	.LBB46:
 138              	.LBB47:
 201:Generated_Source\PSoC4/WDT_Interrupt.c **** }
 139              		.loc 1 201 0
 140 000a 094B     		ldr	r3, .L6+4
 141              	.LBE47:
 142              	.LBE46:
 112:Generated_Source\PSoC4/WDT_Interrupt.c **** 
 143              		.loc 1 112 0
 144              		@ sp needed
 145              	.LBB49:
 146              	.LBB48:
 201:Generated_Source\PSoC4/WDT_Interrupt.c **** }
 147              		.loc 1 201 0
 148 000c 1866     		str	r0, [r3, #96]
 149              	.LVL6:
 150              	.LBE48:
 151              	.LBE49:
ARM GAS  C:\Users\ramanatg\AppData\Local\Temp\ccgISEjN.s 			page 10


 152              	.LBB50:
 153              	.LBB51:
 254:Generated_Source\PSoC4/WDT_Interrupt.c ****     *WDT_Interrupt_INTC_PRIOR = (*WDT_Interrupt_INTC_PRIOR & (uint32)(~WDT_Interrupt__INTC_PRIOR_MA
 154              		.loc 1 254 0
 155 000e FFF7FEFF 		bl	CyEnterCriticalSection
 156              	.LVL7:
 255:Generated_Source\PSoC4/WDT_Interrupt.c ****                                     ((uint32)priority << priorityOffset);
 157              		.loc 1 255 0
 158 0012 C022     		mov	r2, #192
 159 0014 0749     		ldr	r1, .L6+8
 160 0016 0B68     		ldr	r3, [r1]
 161 0018 9343     		bic	r3, r2
 162 001a 403A     		sub	r2, r2, #64
 163 001c 1343     		orr	r3, r2
 164 001e 0B60     		str	r3, [r1]
 257:Generated_Source\PSoC4/WDT_Interrupt.c **** }
 165              		.loc 1 257 0
 166 0020 FFF7FEFF 		bl	CyExitCriticalSection
 167              	.LVL8:
 168              	.LBE51:
 169              	.LBE50:
 170              	.LBB52:
 171              	.LBB53:
 307:Generated_Source\PSoC4/WDT_Interrupt.c **** }
 172              		.loc 1 307 0
 173 0024 044B     		ldr	r3, .L6+12
 174 0026 1C60     		str	r4, [r3]
 175              	.LBE53:
 176              	.LBE52:
 112:Generated_Source\PSoC4/WDT_Interrupt.c **** 
 177              		.loc 1 112 0
 178 0028 10BD     		pop	{r4, pc}
 179              	.L7:
 180 002a C046     		.align	2
 181              	.L6:
 182 002c 80E100E0 		.word	-536813184
 183 0030 00000000 		.word	CyRamVectors
 184 0034 08E400E0 		.word	-536812536
 185 0038 00E100E0 		.word	-536813312
 186              		.cfi_endproc
 187              	.LFE3:
 188              		.size	WDT_Interrupt_StartEx, .-WDT_Interrupt_StartEx
 189              		.section	.text.WDT_Interrupt_Stop,"ax",%progbits
 190              		.align	2
 191              		.global	WDT_Interrupt_Stop
 192              		.code	16
 193              		.thumb_func
 194              		.type	WDT_Interrupt_Stop, %function
 195              	WDT_Interrupt_Stop:
 196              	.LFB4:
 130:Generated_Source\PSoC4/WDT_Interrupt.c ****     /* Disable this interrupt. */
 197              		.loc 1 130 0
 198              		.cfi_startproc
 199              	.LBB54:
 200              	.LBB55:
 201              		.loc 1 349 0
 202 0000 8022     		mov	r2, #128
ARM GAS  C:\Users\ramanatg\AppData\Local\Temp\ccgISEjN.s 			page 11


 203 0002 034B     		ldr	r3, .L9
 204 0004 5200     		lsl	r2, r2, #1
 205 0006 1A60     		str	r2, [r3]
 206              	.LVL9:
 207              	.LBE55:
 208              	.LBE54:
 209              	.LBB56:
 210              	.LBB57:
 201:Generated_Source\PSoC4/WDT_Interrupt.c **** }
 211              		.loc 1 201 0
 212 0008 024A     		ldr	r2, .L9+4
 213 000a 034B     		ldr	r3, .L9+8
 214              	.LBE57:
 215              	.LBE56:
 136:Generated_Source\PSoC4/WDT_Interrupt.c **** 
 216              		.loc 1 136 0
 217              		@ sp needed
 218              	.LBB59:
 219              	.LBB58:
 201:Generated_Source\PSoC4/WDT_Interrupt.c **** }
 220              		.loc 1 201 0
 221 000c 1A66     		str	r2, [r3, #96]
 222              	.LBE58:
 223              	.LBE59:
 136:Generated_Source\PSoC4/WDT_Interrupt.c **** 
 224              		.loc 1 136 0
 225 000e 7047     		bx	lr
 226              	.L10:
 227              		.align	2
 228              	.L9:
 229 0010 80E100E0 		.word	-536813184
 230 0014 00000000 		.word	IntDefaultHandler
 231 0018 00000000 		.word	CyRamVectors
 232              		.cfi_endproc
 233              	.LFE4:
 234              		.size	WDT_Interrupt_Stop, .-WDT_Interrupt_Stop
 235              		.section	.text.WDT_Interrupt_SetVector,"ax",%progbits
 236              		.align	2
 237              		.global	WDT_Interrupt_SetVector
 238              		.code	16
 239              		.thumb_func
 240              		.type	WDT_Interrupt_SetVector, %function
 241              	WDT_Interrupt_SetVector:
 242              	.LFB6:
 200:Generated_Source\PSoC4/WDT_Interrupt.c ****     CyRamVectors[CYINT_IRQ_BASE + WDT_Interrupt__INTC_NUMBER] = address;
 243              		.loc 1 200 0
 244              		.cfi_startproc
 245              	.LVL10:
 201:Generated_Source\PSoC4/WDT_Interrupt.c **** }
 246              		.loc 1 201 0
 247 0000 014B     		ldr	r3, .L12
 202:Generated_Source\PSoC4/WDT_Interrupt.c **** 
 248              		.loc 1 202 0
 249              		@ sp needed
 201:Generated_Source\PSoC4/WDT_Interrupt.c **** }
 250              		.loc 1 201 0
 251 0002 1866     		str	r0, [r3, #96]
ARM GAS  C:\Users\ramanatg\AppData\Local\Temp\ccgISEjN.s 			page 12


 202:Generated_Source\PSoC4/WDT_Interrupt.c **** 
 252              		.loc 1 202 0
 253 0004 7047     		bx	lr
 254              	.L13:
 255 0006 C046     		.align	2
 256              	.L12:
 257 0008 00000000 		.word	CyRamVectors
 258              		.cfi_endproc
 259              	.LFE6:
 260              		.size	WDT_Interrupt_SetVector, .-WDT_Interrupt_SetVector
 261              		.section	.text.WDT_Interrupt_GetVector,"ax",%progbits
 262              		.align	2
 263              		.global	WDT_Interrupt_GetVector
 264              		.code	16
 265              		.thumb_func
 266              		.type	WDT_Interrupt_GetVector, %function
 267              	WDT_Interrupt_GetVector:
 268              	.LFB7:
 220:Generated_Source\PSoC4/WDT_Interrupt.c ****     return CyRamVectors[CYINT_IRQ_BASE + WDT_Interrupt__INTC_NUMBER];
 269              		.loc 1 220 0
 270              		.cfi_startproc
 221:Generated_Source\PSoC4/WDT_Interrupt.c **** }
 271              		.loc 1 221 0
 272 0000 014B     		ldr	r3, .L15
 222:Generated_Source\PSoC4/WDT_Interrupt.c **** 
 273              		.loc 1 222 0
 274              		@ sp needed
 221:Generated_Source\PSoC4/WDT_Interrupt.c **** }
 275              		.loc 1 221 0
 276 0002 186E     		ldr	r0, [r3, #96]
 222:Generated_Source\PSoC4/WDT_Interrupt.c **** 
 277              		.loc 1 222 0
 278 0004 7047     		bx	lr
 279              	.L16:
 280 0006 C046     		.align	2
 281              	.L15:
 282 0008 00000000 		.word	CyRamVectors
 283              		.cfi_endproc
 284              	.LFE7:
 285              		.size	WDT_Interrupt_GetVector, .-WDT_Interrupt_GetVector
 286              		.section	.text.WDT_Interrupt_SetPriority,"ax",%progbits
 287              		.align	2
 288              		.global	WDT_Interrupt_SetPriority
 289              		.code	16
 290              		.thumb_func
 291              		.type	WDT_Interrupt_SetPriority, %function
 292              	WDT_Interrupt_SetPriority:
 293              	.LFB8:
 250:Generated_Source\PSoC4/WDT_Interrupt.c **** 	uint8 interruptState;
 294              		.loc 1 250 0
 295              		.cfi_startproc
 296              	.LVL11:
 297 0000 10B5     		push	{r4, lr}
 298              		.cfi_def_cfa_offset 8
 299              		.cfi_offset 4, -8
 300              		.cfi_offset 14, -4
 250:Generated_Source\PSoC4/WDT_Interrupt.c **** 	uint8 interruptState;
ARM GAS  C:\Users\ramanatg\AppData\Local\Temp\ccgISEjN.s 			page 13


 301              		.loc 1 250 0
 302 0002 041C     		mov	r4, r0
 254:Generated_Source\PSoC4/WDT_Interrupt.c ****     *WDT_Interrupt_INTC_PRIOR = (*WDT_Interrupt_INTC_PRIOR & (uint32)(~WDT_Interrupt__INTC_PRIOR_MA
 303              		.loc 1 254 0
 304 0004 FFF7FEFF 		bl	CyEnterCriticalSection
 305              	.LVL12:
 255:Generated_Source\PSoC4/WDT_Interrupt.c ****                                     ((uint32)priority << priorityOffset);
 306              		.loc 1 255 0
 307 0008 C021     		mov	r1, #192
 308 000a 044A     		ldr	r2, .L18
 256:Generated_Source\PSoC4/WDT_Interrupt.c **** 	CyExitCriticalSection(interruptState);
 309              		.loc 1 256 0
 310 000c A401     		lsl	r4, r4, #6
 255:Generated_Source\PSoC4/WDT_Interrupt.c ****                                     ((uint32)priority << priorityOffset);
 311              		.loc 1 255 0
 312 000e 1368     		ldr	r3, [r2]
 258:Generated_Source\PSoC4/WDT_Interrupt.c **** 
 313              		.loc 1 258 0
 314              		@ sp needed
 255:Generated_Source\PSoC4/WDT_Interrupt.c ****                                     ((uint32)priority << priorityOffset);
 315              		.loc 1 255 0
 316 0010 8B43     		bic	r3, r1
 317 0012 2343     		orr	r3, r4
 318 0014 1360     		str	r3, [r2]
 257:Generated_Source\PSoC4/WDT_Interrupt.c **** }
 319              		.loc 1 257 0
 320 0016 FFF7FEFF 		bl	CyExitCriticalSection
 321              	.LVL13:
 258:Generated_Source\PSoC4/WDT_Interrupt.c **** 
 322              		.loc 1 258 0
 323 001a 10BD     		pop	{r4, pc}
 324              	.L19:
 325              		.align	2
 326              	.L18:
 327 001c 08E400E0 		.word	-536812536
 328              		.cfi_endproc
 329              	.LFE8:
 330              		.size	WDT_Interrupt_SetPriority, .-WDT_Interrupt_SetPriority
 331              		.section	.text.WDT_Interrupt_GetPriority,"ax",%progbits
 332              		.align	2
 333              		.global	WDT_Interrupt_GetPriority
 334              		.code	16
 335              		.thumb_func
 336              		.type	WDT_Interrupt_GetPriority, %function
 337              	WDT_Interrupt_GetPriority:
 338              	.LFB9:
 278:Generated_Source\PSoC4/WDT_Interrupt.c ****     uint32 priority;
 339              		.loc 1 278 0
 340              		.cfi_startproc
 341              	.LVL14:
 282:Generated_Source\PSoC4/WDT_Interrupt.c **** 
 342              		.loc 1 282 0
 343 0000 024B     		ldr	r3, .L21
 285:Generated_Source\PSoC4/WDT_Interrupt.c **** 
 344              		.loc 1 285 0
 345              		@ sp needed
 282:Generated_Source\PSoC4/WDT_Interrupt.c **** 
ARM GAS  C:\Users\ramanatg\AppData\Local\Temp\ccgISEjN.s 			page 14


 346              		.loc 1 282 0
 347 0002 1868     		ldr	r0, [r3]
 348              	.LVL15:
 349 0004 0006     		lsl	r0, r0, #24
 350              	.LVL16:
 284:Generated_Source\PSoC4/WDT_Interrupt.c **** }
 351              		.loc 1 284 0
 352 0006 800F     		lsr	r0, r0, #30
 285:Generated_Source\PSoC4/WDT_Interrupt.c **** 
 353              		.loc 1 285 0
 354 0008 7047     		bx	lr
 355              	.L22:
 356 000a C046     		.align	2
 357              	.L21:
 358 000c 08E400E0 		.word	-536812536
 359              		.cfi_endproc
 360              	.LFE9:
 361              		.size	WDT_Interrupt_GetPriority, .-WDT_Interrupt_GetPriority
 362              		.section	.text.WDT_Interrupt_Enable,"ax",%progbits
 363              		.align	2
 364              		.global	WDT_Interrupt_Enable
 365              		.code	16
 366              		.thumb_func
 367              		.type	WDT_Interrupt_Enable, %function
 368              	WDT_Interrupt_Enable:
 369              	.LFB10:
 305:Generated_Source\PSoC4/WDT_Interrupt.c ****     /* Enable the general interrupt. */
 370              		.loc 1 305 0
 371              		.cfi_startproc
 307:Generated_Source\PSoC4/WDT_Interrupt.c **** }
 372              		.loc 1 307 0
 373 0000 8022     		mov	r2, #128
 374 0002 024B     		ldr	r3, .L24
 375 0004 5200     		lsl	r2, r2, #1
 376 0006 1A60     		str	r2, [r3]
 308:Generated_Source\PSoC4/WDT_Interrupt.c **** 
 377              		.loc 1 308 0
 378              		@ sp needed
 379 0008 7047     		bx	lr
 380              	.L25:
 381 000a C046     		.align	2
 382              	.L24:
 383 000c 00E100E0 		.word	-536813312
 384              		.cfi_endproc
 385              	.LFE10:
 386              		.size	WDT_Interrupt_Enable, .-WDT_Interrupt_Enable
 387              		.section	.text.WDT_Interrupt_GetState,"ax",%progbits
 388              		.align	2
 389              		.global	WDT_Interrupt_GetState
 390              		.code	16
 391              		.thumb_func
 392              		.type	WDT_Interrupt_GetState, %function
 393              	WDT_Interrupt_GetState:
 394              	.LFB11:
 326:Generated_Source\PSoC4/WDT_Interrupt.c ****     /* Get the state of the general interrupt. */
 395              		.loc 1 326 0
 396              		.cfi_startproc
ARM GAS  C:\Users\ramanatg\AppData\Local\Temp\ccgISEjN.s 			page 15


 328:Generated_Source\PSoC4/WDT_Interrupt.c **** }
 397              		.loc 1 328 0
 398 0000 024B     		ldr	r3, .L27
 329:Generated_Source\PSoC4/WDT_Interrupt.c **** 
 399              		.loc 1 329 0
 400              		@ sp needed
 328:Generated_Source\PSoC4/WDT_Interrupt.c **** }
 401              		.loc 1 328 0
 402 0002 1868     		ldr	r0, [r3]
 403 0004 C005     		lsl	r0, r0, #23
 404 0006 C00F     		lsr	r0, r0, #31
 329:Generated_Source\PSoC4/WDT_Interrupt.c **** 
 405              		.loc 1 329 0
 406 0008 7047     		bx	lr
 407              	.L28:
 408 000a C046     		.align	2
 409              	.L27:
 410 000c 00E100E0 		.word	-536813312
 411              		.cfi_endproc
 412              	.LFE11:
 413              		.size	WDT_Interrupt_GetState, .-WDT_Interrupt_GetState
 414              		.section	.text.WDT_Interrupt_Disable,"ax",%progbits
 415              		.align	2
 416              		.global	WDT_Interrupt_Disable
 417              		.code	16
 418              		.thumb_func
 419              		.type	WDT_Interrupt_Disable, %function
 420              	WDT_Interrupt_Disable:
 421              	.LFB12:
 347:Generated_Source\PSoC4/WDT_Interrupt.c ****     /* Disable the general interrupt. */
 422              		.loc 1 347 0
 423              		.cfi_startproc
 424              		.loc 1 349 0
 425 0000 8022     		mov	r2, #128
 426 0002 024B     		ldr	r3, .L30
 427 0004 5200     		lsl	r2, r2, #1
 428 0006 1A60     		str	r2, [r3]
 350:Generated_Source\PSoC4/WDT_Interrupt.c **** }
 429              		.loc 1 350 0
 430              		@ sp needed
 431 0008 7047     		bx	lr
 432              	.L31:
 433 000a C046     		.align	2
 434              	.L30:
 435 000c 80E100E0 		.word	-536813184
 436              		.cfi_endproc
 437              	.LFE12:
 438              		.size	WDT_Interrupt_Disable, .-WDT_Interrupt_Disable
 439              		.section	.text.WDT_Interrupt_SetPending,"ax",%progbits
 440              		.align	2
 441              		.global	WDT_Interrupt_SetPending
 442              		.code	16
 443              		.thumb_func
 444              		.type	WDT_Interrupt_SetPending, %function
 445              	WDT_Interrupt_SetPending:
 446              	.LFB13:
 351:Generated_Source\PSoC4/WDT_Interrupt.c **** 
ARM GAS  C:\Users\ramanatg\AppData\Local\Temp\ccgISEjN.s 			page 16


 352:Generated_Source\PSoC4/WDT_Interrupt.c **** 
 353:Generated_Source\PSoC4/WDT_Interrupt.c **** /*******************************************************************************
 354:Generated_Source\PSoC4/WDT_Interrupt.c **** * Function Name: WDT_Interrupt_SetPending
 355:Generated_Source\PSoC4/WDT_Interrupt.c **** ********************************************************************************
 356:Generated_Source\PSoC4/WDT_Interrupt.c **** *
 357:Generated_Source\PSoC4/WDT_Interrupt.c **** * Summary:
 358:Generated_Source\PSoC4/WDT_Interrupt.c **** *   Causes the Interrupt to enter the pending state, a software method of
 359:Generated_Source\PSoC4/WDT_Interrupt.c **** *   generating the interrupt.
 360:Generated_Source\PSoC4/WDT_Interrupt.c **** *
 361:Generated_Source\PSoC4/WDT_Interrupt.c **** * Parameters:
 362:Generated_Source\PSoC4/WDT_Interrupt.c **** *   None
 363:Generated_Source\PSoC4/WDT_Interrupt.c **** *
 364:Generated_Source\PSoC4/WDT_Interrupt.c **** * Return:
 365:Generated_Source\PSoC4/WDT_Interrupt.c **** *   None
 366:Generated_Source\PSoC4/WDT_Interrupt.c **** *
 367:Generated_Source\PSoC4/WDT_Interrupt.c **** * Side Effects:
 368:Generated_Source\PSoC4/WDT_Interrupt.c **** *   If interrupts are enabled and the interrupt is set up properly, the ISR is
 369:Generated_Source\PSoC4/WDT_Interrupt.c **** *   entered (depending on the priority of this interrupt and other pending 
 370:Generated_Source\PSoC4/WDT_Interrupt.c **** *   interrupts).
 371:Generated_Source\PSoC4/WDT_Interrupt.c **** *
 372:Generated_Source\PSoC4/WDT_Interrupt.c **** *******************************************************************************/
 373:Generated_Source\PSoC4/WDT_Interrupt.c **** void WDT_Interrupt_SetPending(void)
 374:Generated_Source\PSoC4/WDT_Interrupt.c **** {
 447              		.loc 1 374 0
 448              		.cfi_startproc
 375:Generated_Source\PSoC4/WDT_Interrupt.c ****     *WDT_Interrupt_INTC_SET_PD = WDT_Interrupt__INTC_MASK;
 449              		.loc 1 375 0
 450 0000 8022     		mov	r2, #128
 451 0002 024B     		ldr	r3, .L33
 452 0004 5200     		lsl	r2, r2, #1
 453 0006 1A60     		str	r2, [r3]
 376:Generated_Source\PSoC4/WDT_Interrupt.c **** }
 454              		.loc 1 376 0
 455              		@ sp needed
 456 0008 7047     		bx	lr
 457              	.L34:
 458 000a C046     		.align	2
 459              	.L33:
 460 000c 00E200E0 		.word	-536813056
 461              		.cfi_endproc
 462              	.LFE13:
 463              		.size	WDT_Interrupt_SetPending, .-WDT_Interrupt_SetPending
 464              		.section	.text.WDT_Interrupt_ClearPending,"ax",%progbits
 465              		.align	2
 466              		.global	WDT_Interrupt_ClearPending
 467              		.code	16
 468              		.thumb_func
 469              		.type	WDT_Interrupt_ClearPending, %function
 470              	WDT_Interrupt_ClearPending:
 471              	.LFB14:
 377:Generated_Source\PSoC4/WDT_Interrupt.c **** 
 378:Generated_Source\PSoC4/WDT_Interrupt.c **** 
 379:Generated_Source\PSoC4/WDT_Interrupt.c **** /*******************************************************************************
 380:Generated_Source\PSoC4/WDT_Interrupt.c **** * Function Name: WDT_Interrupt_ClearPending
 381:Generated_Source\PSoC4/WDT_Interrupt.c **** ********************************************************************************
 382:Generated_Source\PSoC4/WDT_Interrupt.c **** *
 383:Generated_Source\PSoC4/WDT_Interrupt.c **** * Summary:
ARM GAS  C:\Users\ramanatg\AppData\Local\Temp\ccgISEjN.s 			page 17


 384:Generated_Source\PSoC4/WDT_Interrupt.c **** *   Clears a pending interrupt in the interrupt controller.
 385:Generated_Source\PSoC4/WDT_Interrupt.c **** *
 386:Generated_Source\PSoC4/WDT_Interrupt.c **** *   Note Some interrupt sources are clear-on-read and require the block 
 387:Generated_Source\PSoC4/WDT_Interrupt.c **** *   interrupt/status register to be read/cleared with the appropriate block API 
 388:Generated_Source\PSoC4/WDT_Interrupt.c **** *   (GPIO, UART, and so on). Otherwise the ISR will continue to remain in 
 389:Generated_Source\PSoC4/WDT_Interrupt.c **** *   pending state even though the interrupt itself is cleared using this API.
 390:Generated_Source\PSoC4/WDT_Interrupt.c **** *
 391:Generated_Source\PSoC4/WDT_Interrupt.c **** * Parameters:
 392:Generated_Source\PSoC4/WDT_Interrupt.c **** *   None
 393:Generated_Source\PSoC4/WDT_Interrupt.c **** *
 394:Generated_Source\PSoC4/WDT_Interrupt.c **** * Return:
 395:Generated_Source\PSoC4/WDT_Interrupt.c **** *   None
 396:Generated_Source\PSoC4/WDT_Interrupt.c **** *
 397:Generated_Source\PSoC4/WDT_Interrupt.c **** *******************************************************************************/
 398:Generated_Source\PSoC4/WDT_Interrupt.c **** void WDT_Interrupt_ClearPending(void)
 399:Generated_Source\PSoC4/WDT_Interrupt.c **** {
 472              		.loc 1 399 0
 473              		.cfi_startproc
 400:Generated_Source\PSoC4/WDT_Interrupt.c ****     *WDT_Interrupt_INTC_CLR_PD = WDT_Interrupt__INTC_MASK;
 474              		.loc 1 400 0
 475 0000 8022     		mov	r2, #128
 476 0002 024B     		ldr	r3, .L36
 477 0004 5200     		lsl	r2, r2, #1
 478 0006 1A60     		str	r2, [r3]
 401:Generated_Source\PSoC4/WDT_Interrupt.c **** }
 479              		.loc 1 401 0
 480              		@ sp needed
 481 0008 7047     		bx	lr
 482              	.L37:
 483 000a C046     		.align	2
 484              	.L36:
 485 000c 80E200E0 		.word	-536812928
 486              		.cfi_endproc
 487              	.LFE14:
 488              		.size	WDT_Interrupt_ClearPending, .-WDT_Interrupt_ClearPending
 489              		.text
 490              	.Letext0:
 491              		.file 2 "Generated_Source\\PSoC4/cytypes.h"
 492              		.file 3 "Generated_Source\\PSoC4/CyLib.h"