ARM GAS  C:\Users\ramanatg\AppData\Local\Temp\cckqrsn8.s 			page 1


   1              		.cpu cortex-m0
   2              		.fpu softvfp
   3              		.eabi_attribute 20, 1
   4              		.eabi_attribute 21, 1
   5              		.eabi_attribute 23, 3
   6              		.eabi_attribute 24, 1
   7              		.eabi_attribute 25, 1
   8              		.eabi_attribute 26, 1
   9              		.eabi_attribute 30, 2
  10              		.eabi_attribute 34, 0
  11              		.eabi_attribute 18, 4
  12              		.code	16
  13              		.file	"WriteUserSFlash.c"
  14              		.text
  15              	.Ltext0:
  16              		.cfi_sections	.debug_frame
  17              		.section	.text.WriteUserSFlashRow,"ax",%progbits
  18              		.align	2
  19              		.global	WriteUserSFlashRow
  20              		.code	16
  21              		.thumb_func
  22              		.type	WriteUserSFlashRow, %function
  23              	WriteUserSFlashRow:
  24              	.LFB37:
  25              		.file 1 "WriteUserSFlash.c"
   1:WriteUserSFlash.c **** /******************************************************************************
   2:WriteUserSFlash.c **** * Project Name      : Solar BLE Sensor
   3:WriteUserSFlash.c **** * File Name         : WriteUserSFlash.c
   4:WriteUserSFlash.c **** * Version           : CYALKIT-E02 Sample Firmware, Version 1.2.00
   5:WriteUserSFlash.c **** * Device Used       : CYBLE-022001-00
   6:WriteUserSFlash.c **** * Software Used     : PSoC Creator 3.3 CP3
   7:WriteUserSFlash.c **** * Compiler          : ARM GCC 4.9.3
   8:WriteUserSFlash.c **** * Related Hardware  : Solar BLE Sensor
   9:WriteUserSFlash.c **** *
  10:WriteUserSFlash.c **** *******************************************************************************
  11:WriteUserSFlash.c **** * Copyright (2016), Cypress Semiconductor Corporation. All Rights Reserved.
  12:WriteUserSFlash.c **** *******************************************************************************
  13:WriteUserSFlash.c **** * This software is owned by Cypress Semiconductor Corporation (Cypress)
  14:WriteUserSFlash.c **** * and is protected by and subject to worldwide patent protection (United
  15:WriteUserSFlash.c **** * States and foreign), United States copyright laws and international treaty
  16:WriteUserSFlash.c **** * provisions. Cypress hereby grants to licensee a personal, non-exclusive,
  17:WriteUserSFlash.c **** * non-transferable license to copy, use, modify, create derivative works of,
  18:WriteUserSFlash.c **** * and compile the Cypress Source Code and derivative works for the sole
  19:WriteUserSFlash.c **** * purpose of creating custom software in support of licensee product to be
  20:WriteUserSFlash.c **** * used only in conjunction with a Cypress integrated circuit as specified in
  21:WriteUserSFlash.c **** * the applicable agreement. Any reproduction, modification, translation,
  22:WriteUserSFlash.c **** * compilation, or representation of this software except as specified above 
  23:WriteUserSFlash.c **** * is prohibited without the express written permission of Cypress.
  24:WriteUserSFlash.c **** *
  25:WriteUserSFlash.c **** * Disclaimer: CYPRESS MAKES NO WARRANTY OF ANY KIND, EXPRESS OR IMPLIED, WITH 
  26:WriteUserSFlash.c **** * REGARD TO THIS MATERIAL, INCLUDING, BUT NOT LIMITED TO, THE IMPLIED 
  27:WriteUserSFlash.c **** * WARRANTIES OF MERCHANTABILITY AND FITNESS FOR A PARTICULAR PURPOSE.
  28:WriteUserSFlash.c **** * Cypress reserves the right to make changes without further notice to the 
  29:WriteUserSFlash.c **** * materials described herein. Cypress does not assume any liability arising out 
  30:WriteUserSFlash.c **** * of the application or use of any product or circuit described herein. Cypress 
  31:WriteUserSFlash.c **** * does not authorize its products for use as critical components in life-support 
  32:WriteUserSFlash.c **** * systems where a malfunction or failure may reasonably be expected to result in 
ARM GAS  C:\Users\ramanatg\AppData\Local\Temp\cckqrsn8.s 			page 2


  33:WriteUserSFlash.c **** * significant injury to the user. The inclusion of Cypress' product in a life-
  34:WriteUserSFlash.c **** * support systems application implies that the manufacturer assumes all risk of 
  35:WriteUserSFlash.c **** * such use and in doing so indemnifies Cypress against all charges. 
  36:WriteUserSFlash.c **** *
  37:WriteUserSFlash.c **** * Use of this Software may be limited by and subject to the applicable Cypress
  38:WriteUserSFlash.c **** * software license agreement. 
  39:WriteUserSFlash.c **** *******************************************************************************/
  40:WriteUserSFlash.c **** 
  41:WriteUserSFlash.c **** #include <Project.h>
  42:WriteUserSFlash.c **** #include <WriteUserSFlash.h>
  43:WriteUserSFlash.c **** 
  44:WriteUserSFlash.c **** /*******************************************************************************
  45:WriteUserSFlash.c **** * Function Name: WriteUserSFlashRow
  46:WriteUserSFlash.c **** ********************************************************************************
  47:WriteUserSFlash.c **** * Summary:
  48:WriteUserSFlash.c **** *   This routine calls the PSoC 4 BLE device supervisory ROM APIs to update 
  49:WriteUserSFlash.c **** *   the user configuration area of Supervisory Flash (SFlash).  
  50:WriteUserSFlash.c **** *
  51:WriteUserSFlash.c **** * Parameters:
  52:WriteUserSFlash.c **** *   userRowNUmber - User config SFlash row number to which data is to be written
  53:WriteUserSFlash.c **** *   dataPointer - Pointer to the data to be written. This API writes one row of 
  54:WriteUserSFlash.c **** *                 user config SFlash row at a time.
  55:WriteUserSFlash.c **** *
  56:WriteUserSFlash.c **** * Return:
  57:WriteUserSFlash.c **** *   uint32_t - state of the user config SFlash write operation.
  58:WriteUserSFlash.c **** *******************************************************************************/
  59:WriteUserSFlash.c **** #if defined (__GNUC__)
  60:WriteUserSFlash.c **** #pragma GCC optimize ("O0")
  61:WriteUserSFlash.c **** #endif /* End of #if defined (__GNUC__) */
  62:WriteUserSFlash.c **** uint32_t WriteUserSFlashRow(uint8_t userRowNUmber, uint32_t *dataPointer)
  63:WriteUserSFlash.c **** {
  26              		.loc 1 63 0
  27              		.cfi_startproc
  28              	.LVL0:
  29 0000 80B5     		push	{r7, lr}
  30              		.cfi_def_cfa_offset 8
  31              		.cfi_offset 7, -8
  32              		.cfi_offset 14, -4
  33 0002 ACB0     		sub	sp, sp, #176
  34              		.cfi_def_cfa_offset 184
  35 0004 00AF     		add	r7, sp, #0
  36              		.cfi_def_cfa_register 7
  37 0006 021C     		mov	r2, r0
  38 0008 3960     		str	r1, [r7]
  39 000a FB1D     		add	r3, r7, #7
  40 000c 1A70     		strb	r2, [r3]
  64:WriteUserSFlash.c ****     uint8_t localCount;
  65:WriteUserSFlash.c ****     volatile uint32_t retValue=0;
  41              		.loc 1 65 0
  42 000e 0023     		mov	r3, #0
  43 0010 A822     		mov	r2, #168
  44 0012 BA18     		add	r2, r7, r2
  45 0014 1360     		str	r3, [r2]
  66:WriteUserSFlash.c ****     volatile uint32_t cmdDataBuffer[(CY_FLASH_SIZEOF_ROW/4) + 2];
  67:WriteUserSFlash.c ****     volatile uint32_t reg1,reg2,reg3,reg4,reg5,reg6;
  68:WriteUserSFlash.c ****     
  69:WriteUserSFlash.c ****     /* Store the clock settings temporarily */
ARM GAS  C:\Users\ramanatg\AppData\Local\Temp\cckqrsn8.s 			page 3


  70:WriteUserSFlash.c ****     reg1 =  CY_GET_XTND_REG32((void CYFAR *)(CYREG_CLK_SELECT));
  46              		.loc 1 70 0
  47 0016 3A4B     		ldr	r3, .L5
  48 0018 1B68     		ldr	r3, [r3]
  49 001a FB61     		str	r3, [r7, #28]
  71:WriteUserSFlash.c ****     reg2 =  CY_GET_XTND_REG32((void CYFAR *)(CYREG_CLK_IMO_CONFIG));
  50              		.loc 1 71 0
  51 001c 394B     		ldr	r3, .L5+4
  52 001e 1B68     		ldr	r3, [r3]
  53 0020 BB61     		str	r3, [r7, #24]
  72:WriteUserSFlash.c ****     reg3 =  CY_GET_XTND_REG32((void CYFAR *)(CYREG_PWR_BG_TRIM4));
  54              		.loc 1 72 0
  55 0022 394B     		ldr	r3, .L5+8
  56 0024 1B68     		ldr	r3, [r3]
  57 0026 7B61     		str	r3, [r7, #20]
  73:WriteUserSFlash.c ****     reg4 =  CY_GET_XTND_REG32((void CYFAR *)(CYREG_PWR_BG_TRIM5));
  58              		.loc 1 73 0
  59 0028 384B     		ldr	r3, .L5+12
  60 002a 1B68     		ldr	r3, [r3]
  61 002c 3B61     		str	r3, [r7, #16]
  74:WriteUserSFlash.c ****     reg5 =  CY_GET_XTND_REG32((void CYFAR *)(CYREG_CLK_IMO_TRIM1));
  62              		.loc 1 74 0
  63 002e 384B     		ldr	r3, .L5+16
  64 0030 1B68     		ldr	r3, [r3]
  65 0032 FB60     		str	r3, [r7, #12]
  75:WriteUserSFlash.c ****     reg6 =  CY_GET_XTND_REG32((void CYFAR *)(CYREG_CLK_IMO_TRIM2));
  66              		.loc 1 75 0
  67 0034 374B     		ldr	r3, .L5+20
  68 0036 1B68     		ldr	r3, [r3]
  69 0038 BB60     		str	r3, [r7, #8]
  76:WriteUserSFlash.c ****     
  77:WriteUserSFlash.c ****     /* Initialize the clock necessary for flash programming */
  78:WriteUserSFlash.c ****     CY_SET_REG32(CYREG_CPUSS_SYSARG, 0x0000e8b6);
  70              		.loc 1 78 0
  71 003a 374B     		ldr	r3, .L5+24
  72 003c 374A     		ldr	r2, .L5+28
  73 003e 1A60     		str	r2, [r3]
  79:WriteUserSFlash.c ****     CY_SET_REG32(CYREG_CPUSS_SYSREQ, 0x80000015);
  74              		.loc 1 79 0
  75 0040 374B     		ldr	r3, .L5+32
  76 0042 384A     		ldr	r2, .L5+36
  77 0044 1A60     		str	r2, [r3]
  80:WriteUserSFlash.c ****     
  81:WriteUserSFlash.c ****     /******* Initialize SRAM parameters for the LOAD FLASH command ******/
  82:WriteUserSFlash.c ****     /* byte 3 (i.e. 00) is the Macro_select */
  83:WriteUserSFlash.c ****     /* byte 2 (i.e. 00) is the Start addr of page latch */
  84:WriteUserSFlash.c ****     /* byte 1 (i.e. d7) is the key 2  */
  85:WriteUserSFlash.c ****     /* byte 0 (i.e. b6) is the key 1  */
  86:WriteUserSFlash.c ****     cmdDataBuffer[0]=0x0000d7b6;
  78              		.loc 1 86 0
  79 0046 2023     		mov	r3, #32
  80 0048 FB18     		add	r3, r7, r3
  81 004a 374A     		ldr	r2, .L5+40
  82 004c 1A60     		str	r2, [r3]
  87:WriteUserSFlash.c ****     
  88:WriteUserSFlash.c ****     /****** Initialize SRAM parameters for the LOAD FLASH command ******/
  89:WriteUserSFlash.c ****     /* byte 3,2 and 1 are null */
ARM GAS  C:\Users\ramanatg\AppData\Local\Temp\cckqrsn8.s 			page 4


  90:WriteUserSFlash.c ****     /* byte 0 (i.e. 7F) is the number of bytes to be written */
  91:WriteUserSFlash.c ****     cmdDataBuffer[1]=0x0000007F;     
  83              		.loc 1 91 0
  84 004e 2023     		mov	r3, #32
  85 0050 FB18     		add	r3, r7, r3
  86 0052 7F22     		mov	r2, #127
  87 0054 5A60     		str	r2, [r3, #4]
  92:WriteUserSFlash.c ****     
  93:WriteUserSFlash.c ****     /* Initialize the SRAM buffer with data bytes */
  94:WriteUserSFlash.c ****     for(localCount = 0; localCount < (CY_FLASH_SIZEOF_ROW/4); localCount++)    
  88              		.loc 1 94 0
  89 0056 AF23     		mov	r3, #175
  90 0058 FB18     		add	r3, r7, r3
  91 005a 0022     		mov	r2, #0
  92 005c 1A70     		strb	r2, [r3]
  93              	.LVL1:
  94 005e 15E0     		b	.L2
  95              	.LVL2:
  96              	.L3:
  95:WriteUserSFlash.c ****     {
  96:WriteUserSFlash.c ****         cmdDataBuffer[localCount + 2] = dataPointer[localCount]; 
  97              		.loc 1 96 0 discriminator 3
  98 0060 AF23     		mov	r3, #175
  99 0062 FB18     		add	r3, r7, r3
 100 0064 1B78     		ldrb	r3, [r3]
 101 0066 9A1C     		add	r2, r3, #2
 102 0068 AF23     		mov	r3, #175
 103 006a FB18     		add	r3, r7, r3
 104 006c 1B78     		ldrb	r3, [r3]
 105 006e 9B00     		lsl	r3, r3, #2
 106 0070 3968     		ldr	r1, [r7]
 107 0072 CB18     		add	r3, r1, r3
 108 0074 1968     		ldr	r1, [r3]
 109 0076 2023     		mov	r3, #32
 110 0078 FB18     		add	r3, r7, r3
 111 007a 9200     		lsl	r2, r2, #2
 112 007c D150     		str	r1, [r2, r3]
  94:WriteUserSFlash.c ****     {
 113              		.loc 1 94 0 discriminator 3
 114 007e AF23     		mov	r3, #175
 115 0080 FB18     		add	r3, r7, r3
 116 0082 1A78     		ldrb	r2, [r3]
 117 0084 AF23     		mov	r3, #175
 118 0086 FB18     		add	r3, r7, r3
 119 0088 0132     		add	r2, r2, #1
 120 008a 1A70     		strb	r2, [r3]
 121              	.LVL3:
 122              	.L2:
  94:WriteUserSFlash.c ****     {
 123              		.loc 1 94 0 is_stmt 0 discriminator 1
 124 008c AF23     		mov	r3, #175
 125 008e FB18     		add	r3, r7, r3
 126 0090 1B78     		ldrb	r3, [r3]
 127 0092 1F2B     		cmp	r3, #31
 128 0094 E4D9     		bls	.L3
  97:WriteUserSFlash.c ****     }
  98:WriteUserSFlash.c ****     
ARM GAS  C:\Users\ramanatg\AppData\Local\Temp\cckqrsn8.s 			page 5


  99:WriteUserSFlash.c ****     /* Write the following to registers to execute a LOAD FLASH bytes */
 100:WriteUserSFlash.c ****     CY_SET_REG32(CYREG_CPUSS_SYSARG, &cmdDataBuffer[0]);
 129              		.loc 1 100 0 is_stmt 1
 130 0096 204B     		ldr	r3, .L5+24
 131 0098 2022     		mov	r2, #32
 132 009a BA18     		add	r2, r7, r2
 133 009c 1A60     		str	r2, [r3]
 101:WriteUserSFlash.c ****     CY_SET_REG32(CYREG_CPUSS_SYSREQ, LOAD_FLASH);
 134              		.loc 1 101 0
 135 009e 204B     		ldr	r3, .L5+32
 136 00a0 224A     		ldr	r2, .L5+44
 137 00a2 1A60     		str	r2, [r3]
 102:WriteUserSFlash.c ****     
 103:WriteUserSFlash.c ****     /****** Initialize SRAM parameters for the WRITE ROW command ******/
 104:WriteUserSFlash.c ****     /* byte 3 & 2 are null */
 105:WriteUserSFlash.c ****     /* byte 1 (i.e. 0xeb) is the key 2  */
 106:WriteUserSFlash.c ****     /* byte 0 (i.e. 0xb6) is the key 1  */
 107:WriteUserSFlash.c ****     cmdDataBuffer[0] = 0x0000ebb6;
 138              		.loc 1 107 0
 139 00a4 2023     		mov	r3, #32
 140 00a6 FB18     		add	r3, r7, r3
 141 00a8 214A     		ldr	r2, .L5+48
 142 00aa 1A60     		str	r2, [r3]
 108:WriteUserSFlash.c ****     
 109:WriteUserSFlash.c ****     /* byte 7,6 and 5 are null */
 110:WriteUserSFlash.c ****     /* byte 4 is desired SFlash user row 
 111:WriteUserSFlash.c ****      * Allowed values 0 - row 4
 112:WriteUserSFlash.c ****                       1 - row 5 
 113:WriteUserSFlash.c ****                       2 - row 6
 114:WriteUserSFlash.c ****                       3 - row 7 */
 115:WriteUserSFlash.c ****     cmdDataBuffer[1] = (uint32_t) userRowNUmber;
 143              		.loc 1 115 0
 144 00ac FB1D     		add	r3, r7, #7
 145 00ae 1A78     		ldrb	r2, [r3]
 146 00b0 2023     		mov	r3, #32
 147 00b2 FB18     		add	r3, r7, r3
 148 00b4 5A60     		str	r2, [r3, #4]
 116:WriteUserSFlash.c ****     
 117:WriteUserSFlash.c ****     /* Write the following to registers to execute a WRITE USER SFlash ROW command */
 118:WriteUserSFlash.c ****     CY_SET_REG32(CYREG_CPUSS_SYSARG, &cmdDataBuffer[0]);
 149              		.loc 1 118 0
 150 00b6 184B     		ldr	r3, .L5+24
 151 00b8 2022     		mov	r2, #32
 152 00ba BA18     		add	r2, r7, r2
 153 00bc 1A60     		str	r2, [r3]
 119:WriteUserSFlash.c ****     CY_SET_REG32(CYREG_CPUSS_SYSREQ, WRITE_USER_SFLASH_ROW);
 154              		.loc 1 119 0
 155 00be 184B     		ldr	r3, .L5+32
 156 00c0 1C4A     		ldr	r2, .L5+52
 157 00c2 1A60     		str	r2, [r3]
 120:WriteUserSFlash.c ****     
 121:WriteUserSFlash.c ****     /* Read back SYSARG for the result. 0xA0000000 = SUCCESS; */
 122:WriteUserSFlash.c ****     retValue = CY_GET_REG32(CYREG_CPUSS_SYSARG);
 158              		.loc 1 122 0
 159 00c4 144B     		ldr	r3, .L5+24
 160 00c6 1B68     		ldr	r3, [r3]
 161 00c8 A822     		mov	r2, #168
ARM GAS  C:\Users\ramanatg\AppData\Local\Temp\cckqrsn8.s 			page 6


 162 00ca BA18     		add	r2, r7, r2
 163 00cc 1360     		str	r3, [r2]
 123:WriteUserSFlash.c ****     
 124:WriteUserSFlash.c ****     /* Restore the clock settings after the flash programming is done */
 125:WriteUserSFlash.c ****     CY_SET_XTND_REG32((void CYFAR *)(CYREG_CLK_SELECT),reg1);
 164              		.loc 1 125 0
 165 00ce 0C4B     		ldr	r3, .L5
 166 00d0 FA69     		ldr	r2, [r7, #28]
 167 00d2 1A60     		str	r2, [r3]
 126:WriteUserSFlash.c ****     CY_SET_XTND_REG32((void CYFAR *)(CYREG_CLK_IMO_CONFIG),reg2);
 168              		.loc 1 126 0
 169 00d4 0B4B     		ldr	r3, .L5+4
 170 00d6 BA69     		ldr	r2, [r7, #24]
 171 00d8 1A60     		str	r2, [r3]
 127:WriteUserSFlash.c ****     CY_SET_XTND_REG32((void CYFAR *)(CYREG_PWR_BG_TRIM4),reg3);
 172              		.loc 1 127 0
 173 00da 0B4B     		ldr	r3, .L5+8
 174 00dc 7A69     		ldr	r2, [r7, #20]
 175 00de 1A60     		str	r2, [r3]
 128:WriteUserSFlash.c ****     CY_SET_XTND_REG32((void CYFAR *)(CYREG_PWR_BG_TRIM5),reg4);
 176              		.loc 1 128 0
 177 00e0 0A4B     		ldr	r3, .L5+12
 178 00e2 3A69     		ldr	r2, [r7, #16]
 179 00e4 1A60     		str	r2, [r3]
 129:WriteUserSFlash.c ****     CY_SET_XTND_REG32((void CYFAR *)(CYREG_CLK_IMO_TRIM1),reg5);
 180              		.loc 1 129 0
 181 00e6 0A4B     		ldr	r3, .L5+16
 182 00e8 FA68     		ldr	r2, [r7, #12]
 183 00ea 1A60     		str	r2, [r3]
 130:WriteUserSFlash.c ****     CY_SET_XTND_REG32((void CYFAR *)(CYREG_CLK_IMO_TRIM2),reg6);  
 184              		.loc 1 130 0
 185 00ec 094B     		ldr	r3, .L5+20
 186 00ee BA68     		ldr	r2, [r7, #8]
 187 00f0 1A60     		str	r2, [r3]
 131:WriteUserSFlash.c ****     
 132:WriteUserSFlash.c ****     return retValue;
 188              		.loc 1 132 0
 189 00f2 A823     		mov	r3, #168
 190 00f4 FB18     		add	r3, r7, r3
 191 00f6 1B68     		ldr	r3, [r3]
 133:WriteUserSFlash.c **** }
 192              		.loc 1 133 0
 193 00f8 181C     		mov	r0, r3
 194              	.LVL4:
 195 00fa BD46     		mov	sp, r7
 196              	.LVL5:
 197 00fc 2CB0     		add	sp, sp, #176
 198              	.LVL6:
 199              		@ sp needed
 200              	.LVL7:
 201 00fe 80BD     		pop	{r7, pc}
 202              	.L6:
 203              		.align	2
 204              	.L5:
 205 0100 00010B40 		.word	1074462976
 206 0104 08010B40 		.word	1074462984
 207 0108 1CFF0B40 		.word	1074528028
ARM GAS  C:\Users\ramanatg\AppData\Local\Temp\cckqrsn8.s 			page 7


 208 010c 20FF0B40 		.word	1074528032
 209 0110 28FF0B40 		.word	1074528040
 210 0114 2CFF0B40 		.word	1074528044
 211 0118 08001040 		.word	1074790408
 212 011c B6E80000 		.word	59574
 213 0120 04001040 		.word	1074790404
 214 0124 15000080 		.word	-2147483627
 215 0128 B6D70000 		.word	55222
 216 012c 04000080 		.word	-2147483644
 217 0130 B6EB0000 		.word	60342
 218 0134 18000080 		.word	-2147483624
 219              		.cfi_endproc
 220              	.LFE37:
 221              		.size	WriteUserSFlashRow, .-WriteUserSFlashRow
 222              		.text
 223              	.Letext0:
 224              		.file 2 "c:\\program files (x86)\\cypress\\psoc creator\\4.0\\psoc creator\\import\\gnu\\arm\\4.9.
 225              		.file 3 "c:\\program files (x86)\\cypress\\psoc creator\\4.0\\psoc creator\\import\\gnu\\arm\\4.9.
 226              		.file 4 "Generated_Source\\PSoC4/cytypes.h"